ARM GAS  /tmp/cclcvJlT.s 			page 1


   1              		.cpu cortex-m4
   2              		.eabi_attribute 27, 1
   3              		.eabi_attribute 28, 1
   4              		.eabi_attribute 20, 1
   5              		.eabi_attribute 21, 1
   6              		.eabi_attribute 23, 3
   7              		.eabi_attribute 24, 1
   8              		.eabi_attribute 25, 1
   9              		.eabi_attribute 26, 1
  10              		.eabi_attribute 30, 6
  11              		.eabi_attribute 34, 1
  12              		.eabi_attribute 18, 4
  13              		.file	"port.c"
  14              		.text
  15              	.Ltext0:
  16              		.cfi_sections	.debug_frame
  17              		.section	.data.uxCriticalNesting,"aw",%progbits
  18              		.align	2
  21              	uxCriticalNesting:
  22 0000 AAAAAAAA 		.word	-1431655766
  23              		.section	.bss.ucMaxSysCallPriority,"aw",%nobits
  26              	ucMaxSysCallPriority:
  27 0000 00       		.space	1
  28              		.section	.bss.ulMaxPRIGROUPValue,"aw",%nobits
  29              		.align	2
  32              	ulMaxPRIGROUPValue:
  33 0000 00000000 		.space	4
  34              		.section	.rodata.pcInterruptPriorityRegisters,"a",%progbits
  35              		.align	2
  38              	pcInterruptPriorityRegisters:
  39 0000 F0E300E0 		.word	-536812560
  40              		.section	.text.pxPortInitialiseStack,"ax",%progbits
  41              		.align	1
  42              		.global	pxPortInitialiseStack
  43              		.syntax unified
  44              		.thumb
  45              		.thumb_func
  46              		.fpu fpv4-sp-d16
  48              	pxPortInitialiseStack:
  49              	.LFB5:
  50              		.file 1 "Middlewares/Third_Party/FreeRTOS/Source/portable/GCC/ARM_CM4F/port.c"
   1:Middlewares/Third_Party/FreeRTOS/Source/portable/GCC/ARM_CM4F/port.c **** /*
   2:Middlewares/Third_Party/FreeRTOS/Source/portable/GCC/ARM_CM4F/port.c ****     FreeRTOS V9.0.0 - Copyright (C) 2016 Real Time Engineers Ltd.
   3:Middlewares/Third_Party/FreeRTOS/Source/portable/GCC/ARM_CM4F/port.c ****     All rights reserved
   4:Middlewares/Third_Party/FreeRTOS/Source/portable/GCC/ARM_CM4F/port.c **** 
   5:Middlewares/Third_Party/FreeRTOS/Source/portable/GCC/ARM_CM4F/port.c ****     VISIT http://www.FreeRTOS.org TO ENSURE YOU ARE USING THE LATEST VERSION.
   6:Middlewares/Third_Party/FreeRTOS/Source/portable/GCC/ARM_CM4F/port.c **** 
   7:Middlewares/Third_Party/FreeRTOS/Source/portable/GCC/ARM_CM4F/port.c ****     This file is part of the FreeRTOS distribution.
   8:Middlewares/Third_Party/FreeRTOS/Source/portable/GCC/ARM_CM4F/port.c **** 
   9:Middlewares/Third_Party/FreeRTOS/Source/portable/GCC/ARM_CM4F/port.c ****     FreeRTOS is free software; you can redistribute it and/or modify it under
  10:Middlewares/Third_Party/FreeRTOS/Source/portable/GCC/ARM_CM4F/port.c ****     the terms of the GNU General Public License (version 2) as published by the
  11:Middlewares/Third_Party/FreeRTOS/Source/portable/GCC/ARM_CM4F/port.c ****     Free Software Foundation >>>> AND MODIFIED BY <<<< the FreeRTOS exception.
  12:Middlewares/Third_Party/FreeRTOS/Source/portable/GCC/ARM_CM4F/port.c **** 
  13:Middlewares/Third_Party/FreeRTOS/Source/portable/GCC/ARM_CM4F/port.c ****     ***************************************************************************
  14:Middlewares/Third_Party/FreeRTOS/Source/portable/GCC/ARM_CM4F/port.c ****     >>!   NOTE: The modification to the GPL is included to allow you to     !<<
  15:Middlewares/Third_Party/FreeRTOS/Source/portable/GCC/ARM_CM4F/port.c ****     >>!   distribute a combined work that includes FreeRTOS without being   !<<
  16:Middlewares/Third_Party/FreeRTOS/Source/portable/GCC/ARM_CM4F/port.c ****     >>!   obliged to provide the source code for proprietary components     !<<
ARM GAS  /tmp/cclcvJlT.s 			page 2


  17:Middlewares/Third_Party/FreeRTOS/Source/portable/GCC/ARM_CM4F/port.c ****     >>!   outside of the FreeRTOS kernel.                                   !<<
  18:Middlewares/Third_Party/FreeRTOS/Source/portable/GCC/ARM_CM4F/port.c ****     ***************************************************************************
  19:Middlewares/Third_Party/FreeRTOS/Source/portable/GCC/ARM_CM4F/port.c **** 
  20:Middlewares/Third_Party/FreeRTOS/Source/portable/GCC/ARM_CM4F/port.c ****     FreeRTOS is distributed in the hope that it will be useful, but WITHOUT ANY
  21:Middlewares/Third_Party/FreeRTOS/Source/portable/GCC/ARM_CM4F/port.c ****     WARRANTY; without even the implied warranty of MERCHANTABILITY or FITNESS
  22:Middlewares/Third_Party/FreeRTOS/Source/portable/GCC/ARM_CM4F/port.c ****     FOR A PARTICULAR PURPOSE.  Full license text is available on the following
  23:Middlewares/Third_Party/FreeRTOS/Source/portable/GCC/ARM_CM4F/port.c ****     link: http://www.freertos.org/a00114.html
  24:Middlewares/Third_Party/FreeRTOS/Source/portable/GCC/ARM_CM4F/port.c **** 
  25:Middlewares/Third_Party/FreeRTOS/Source/portable/GCC/ARM_CM4F/port.c ****     ***************************************************************************
  26:Middlewares/Third_Party/FreeRTOS/Source/portable/GCC/ARM_CM4F/port.c ****      *                                                                       *
  27:Middlewares/Third_Party/FreeRTOS/Source/portable/GCC/ARM_CM4F/port.c ****      *    FreeRTOS provides completely free yet professionally developed,    *
  28:Middlewares/Third_Party/FreeRTOS/Source/portable/GCC/ARM_CM4F/port.c ****      *    robust, strictly quality controlled, supported, and cross          *
  29:Middlewares/Third_Party/FreeRTOS/Source/portable/GCC/ARM_CM4F/port.c ****      *    platform software that is more than just the market leader, it     *
  30:Middlewares/Third_Party/FreeRTOS/Source/portable/GCC/ARM_CM4F/port.c ****      *    is the industry's de facto standard.                               *
  31:Middlewares/Third_Party/FreeRTOS/Source/portable/GCC/ARM_CM4F/port.c ****      *                                                                       *
  32:Middlewares/Third_Party/FreeRTOS/Source/portable/GCC/ARM_CM4F/port.c ****      *    Help yourself get started quickly while simultaneously helping     *
  33:Middlewares/Third_Party/FreeRTOS/Source/portable/GCC/ARM_CM4F/port.c ****      *    to support the FreeRTOS project by purchasing a FreeRTOS           *
  34:Middlewares/Third_Party/FreeRTOS/Source/portable/GCC/ARM_CM4F/port.c ****      *    tutorial book, reference manual, or both:                          *
  35:Middlewares/Third_Party/FreeRTOS/Source/portable/GCC/ARM_CM4F/port.c ****      *    http://www.FreeRTOS.org/Documentation                              *
  36:Middlewares/Third_Party/FreeRTOS/Source/portable/GCC/ARM_CM4F/port.c ****      *                                                                       *
  37:Middlewares/Third_Party/FreeRTOS/Source/portable/GCC/ARM_CM4F/port.c ****     ***************************************************************************
  38:Middlewares/Third_Party/FreeRTOS/Source/portable/GCC/ARM_CM4F/port.c **** 
  39:Middlewares/Third_Party/FreeRTOS/Source/portable/GCC/ARM_CM4F/port.c ****     http://www.FreeRTOS.org/FAQHelp.html - Having a problem?  Start by reading
  40:Middlewares/Third_Party/FreeRTOS/Source/portable/GCC/ARM_CM4F/port.c ****     the FAQ page "My application does not run, what could be wrong?".  Have you
  41:Middlewares/Third_Party/FreeRTOS/Source/portable/GCC/ARM_CM4F/port.c ****     defined configASSERT()?
  42:Middlewares/Third_Party/FreeRTOS/Source/portable/GCC/ARM_CM4F/port.c **** 
  43:Middlewares/Third_Party/FreeRTOS/Source/portable/GCC/ARM_CM4F/port.c ****     http://www.FreeRTOS.org/support - In return for receiving this top quality
  44:Middlewares/Third_Party/FreeRTOS/Source/portable/GCC/ARM_CM4F/port.c ****     embedded software for free we request you assist our global community by
  45:Middlewares/Third_Party/FreeRTOS/Source/portable/GCC/ARM_CM4F/port.c ****     participating in the support forum.
  46:Middlewares/Third_Party/FreeRTOS/Source/portable/GCC/ARM_CM4F/port.c **** 
  47:Middlewares/Third_Party/FreeRTOS/Source/portable/GCC/ARM_CM4F/port.c ****     http://www.FreeRTOS.org/training - Investing in training allows your team to
  48:Middlewares/Third_Party/FreeRTOS/Source/portable/GCC/ARM_CM4F/port.c ****     be as productive as possible as early as possible.  Now you can receive
  49:Middlewares/Third_Party/FreeRTOS/Source/portable/GCC/ARM_CM4F/port.c ****     FreeRTOS training directly from Richard Barry, CEO of Real Time Engineers
  50:Middlewares/Third_Party/FreeRTOS/Source/portable/GCC/ARM_CM4F/port.c ****     Ltd, and the world's leading authority on the world's leading RTOS.
  51:Middlewares/Third_Party/FreeRTOS/Source/portable/GCC/ARM_CM4F/port.c **** 
  52:Middlewares/Third_Party/FreeRTOS/Source/portable/GCC/ARM_CM4F/port.c ****     http://www.FreeRTOS.org/plus - A selection of FreeRTOS ecosystem products,
  53:Middlewares/Third_Party/FreeRTOS/Source/portable/GCC/ARM_CM4F/port.c ****     including FreeRTOS+Trace - an indispensable productivity tool, a DOS
  54:Middlewares/Third_Party/FreeRTOS/Source/portable/GCC/ARM_CM4F/port.c ****     compatible FAT file system, and our tiny thread aware UDP/IP stack.
  55:Middlewares/Third_Party/FreeRTOS/Source/portable/GCC/ARM_CM4F/port.c **** 
  56:Middlewares/Third_Party/FreeRTOS/Source/portable/GCC/ARM_CM4F/port.c ****     http://www.FreeRTOS.org/labs - Where new FreeRTOS products go to incubate.
  57:Middlewares/Third_Party/FreeRTOS/Source/portable/GCC/ARM_CM4F/port.c ****     Come and try FreeRTOS+TCP, our new open source TCP/IP stack for FreeRTOS.
  58:Middlewares/Third_Party/FreeRTOS/Source/portable/GCC/ARM_CM4F/port.c **** 
  59:Middlewares/Third_Party/FreeRTOS/Source/portable/GCC/ARM_CM4F/port.c ****     http://www.OpenRTOS.com - Real Time Engineers ltd. license FreeRTOS to High
  60:Middlewares/Third_Party/FreeRTOS/Source/portable/GCC/ARM_CM4F/port.c ****     Integrity Systems ltd. to sell under the OpenRTOS brand.  Low cost OpenRTOS
  61:Middlewares/Third_Party/FreeRTOS/Source/portable/GCC/ARM_CM4F/port.c ****     licenses offer ticketed support, indemnification and commercial middleware.
  62:Middlewares/Third_Party/FreeRTOS/Source/portable/GCC/ARM_CM4F/port.c **** 
  63:Middlewares/Third_Party/FreeRTOS/Source/portable/GCC/ARM_CM4F/port.c ****     http://www.SafeRTOS.com - High Integrity Systems also provide a safety
  64:Middlewares/Third_Party/FreeRTOS/Source/portable/GCC/ARM_CM4F/port.c ****     engineered and independently SIL3 certified version for use in safety and
  65:Middlewares/Third_Party/FreeRTOS/Source/portable/GCC/ARM_CM4F/port.c ****     mission critical applications that require provable dependability.
  66:Middlewares/Third_Party/FreeRTOS/Source/portable/GCC/ARM_CM4F/port.c **** 
  67:Middlewares/Third_Party/FreeRTOS/Source/portable/GCC/ARM_CM4F/port.c ****     1 tab == 4 spaces!
  68:Middlewares/Third_Party/FreeRTOS/Source/portable/GCC/ARM_CM4F/port.c **** */
  69:Middlewares/Third_Party/FreeRTOS/Source/portable/GCC/ARM_CM4F/port.c **** 
  70:Middlewares/Third_Party/FreeRTOS/Source/portable/GCC/ARM_CM4F/port.c **** /*-----------------------------------------------------------
  71:Middlewares/Third_Party/FreeRTOS/Source/portable/GCC/ARM_CM4F/port.c ****  * Implementation of functions defined in portable.h for the ARM CM4F port.
  72:Middlewares/Third_Party/FreeRTOS/Source/portable/GCC/ARM_CM4F/port.c ****  *----------------------------------------------------------*/
  73:Middlewares/Third_Party/FreeRTOS/Source/portable/GCC/ARM_CM4F/port.c **** 
ARM GAS  /tmp/cclcvJlT.s 			page 3


  74:Middlewares/Third_Party/FreeRTOS/Source/portable/GCC/ARM_CM4F/port.c **** /* Scheduler includes. */
  75:Middlewares/Third_Party/FreeRTOS/Source/portable/GCC/ARM_CM4F/port.c **** #include "FreeRTOS.h"
  76:Middlewares/Third_Party/FreeRTOS/Source/portable/GCC/ARM_CM4F/port.c **** #include "task.h"
  77:Middlewares/Third_Party/FreeRTOS/Source/portable/GCC/ARM_CM4F/port.c **** 
  78:Middlewares/Third_Party/FreeRTOS/Source/portable/GCC/ARM_CM4F/port.c **** #ifndef __VFP_FP__
  79:Middlewares/Third_Party/FreeRTOS/Source/portable/GCC/ARM_CM4F/port.c **** 	#error This port can only be used when the project options are configured to enable hardware float
  80:Middlewares/Third_Party/FreeRTOS/Source/portable/GCC/ARM_CM4F/port.c **** #endif
  81:Middlewares/Third_Party/FreeRTOS/Source/portable/GCC/ARM_CM4F/port.c **** 
  82:Middlewares/Third_Party/FreeRTOS/Source/portable/GCC/ARM_CM4F/port.c **** #ifndef configSYSTICK_CLOCK_HZ
  83:Middlewares/Third_Party/FreeRTOS/Source/portable/GCC/ARM_CM4F/port.c **** 	#define configSYSTICK_CLOCK_HZ configCPU_CLOCK_HZ
  84:Middlewares/Third_Party/FreeRTOS/Source/portable/GCC/ARM_CM4F/port.c **** 	/* Ensure the SysTick is clocked at the same frequency as the core. */
  85:Middlewares/Third_Party/FreeRTOS/Source/portable/GCC/ARM_CM4F/port.c **** 	#define portNVIC_SYSTICK_CLK_BIT	( 1UL << 2UL )
  86:Middlewares/Third_Party/FreeRTOS/Source/portable/GCC/ARM_CM4F/port.c **** #else
  87:Middlewares/Third_Party/FreeRTOS/Source/portable/GCC/ARM_CM4F/port.c **** 	/* The way the SysTick is clocked is not modified in case it is not the same
  88:Middlewares/Third_Party/FreeRTOS/Source/portable/GCC/ARM_CM4F/port.c **** 	as the core. */
  89:Middlewares/Third_Party/FreeRTOS/Source/portable/GCC/ARM_CM4F/port.c **** 	#define portNVIC_SYSTICK_CLK_BIT	( 0 )
  90:Middlewares/Third_Party/FreeRTOS/Source/portable/GCC/ARM_CM4F/port.c **** #endif
  91:Middlewares/Third_Party/FreeRTOS/Source/portable/GCC/ARM_CM4F/port.c **** 
  92:Middlewares/Third_Party/FreeRTOS/Source/portable/GCC/ARM_CM4F/port.c **** /* Constants required to manipulate the core.  Registers first... */
  93:Middlewares/Third_Party/FreeRTOS/Source/portable/GCC/ARM_CM4F/port.c **** #define portNVIC_SYSTICK_CTRL_REG			( * ( ( volatile uint32_t * ) 0xe000e010 ) )
  94:Middlewares/Third_Party/FreeRTOS/Source/portable/GCC/ARM_CM4F/port.c **** #define portNVIC_SYSTICK_LOAD_REG			( * ( ( volatile uint32_t * ) 0xe000e014 ) )
  95:Middlewares/Third_Party/FreeRTOS/Source/portable/GCC/ARM_CM4F/port.c **** #define portNVIC_SYSTICK_CURRENT_VALUE_REG	( * ( ( volatile uint32_t * ) 0xe000e018 ) )
  96:Middlewares/Third_Party/FreeRTOS/Source/portable/GCC/ARM_CM4F/port.c **** #define portNVIC_SYSPRI2_REG				( * ( ( volatile uint32_t * ) 0xe000ed20 ) )
  97:Middlewares/Third_Party/FreeRTOS/Source/portable/GCC/ARM_CM4F/port.c **** /* ...then bits in the registers. */
  98:Middlewares/Third_Party/FreeRTOS/Source/portable/GCC/ARM_CM4F/port.c **** #define portNVIC_SYSTICK_INT_BIT			( 1UL << 1UL )
  99:Middlewares/Third_Party/FreeRTOS/Source/portable/GCC/ARM_CM4F/port.c **** #define portNVIC_SYSTICK_ENABLE_BIT			( 1UL << 0UL )
 100:Middlewares/Third_Party/FreeRTOS/Source/portable/GCC/ARM_CM4F/port.c **** #define portNVIC_SYSTICK_COUNT_FLAG_BIT		( 1UL << 16UL )
 101:Middlewares/Third_Party/FreeRTOS/Source/portable/GCC/ARM_CM4F/port.c **** #define portNVIC_PENDSVCLEAR_BIT 			( 1UL << 27UL )
 102:Middlewares/Third_Party/FreeRTOS/Source/portable/GCC/ARM_CM4F/port.c **** #define portNVIC_PEND_SYSTICK_CLEAR_BIT		( 1UL << 25UL )
 103:Middlewares/Third_Party/FreeRTOS/Source/portable/GCC/ARM_CM4F/port.c **** 
 104:Middlewares/Third_Party/FreeRTOS/Source/portable/GCC/ARM_CM4F/port.c **** /* Constants used to detect a Cortex-M7 r0p1 core, which should use the ARM_CM7
 105:Middlewares/Third_Party/FreeRTOS/Source/portable/GCC/ARM_CM4F/port.c **** r0p1 port. */
 106:Middlewares/Third_Party/FreeRTOS/Source/portable/GCC/ARM_CM4F/port.c **** #define portCPUID							( * ( ( volatile uint32_t * ) 0xE000ed00 ) )
 107:Middlewares/Third_Party/FreeRTOS/Source/portable/GCC/ARM_CM4F/port.c **** #define portCORTEX_M7_r0p1_ID				( 0x410FC271UL )
 108:Middlewares/Third_Party/FreeRTOS/Source/portable/GCC/ARM_CM4F/port.c **** #define portCORTEX_M7_r0p0_ID				( 0x410FC270UL )
 109:Middlewares/Third_Party/FreeRTOS/Source/portable/GCC/ARM_CM4F/port.c **** 
 110:Middlewares/Third_Party/FreeRTOS/Source/portable/GCC/ARM_CM4F/port.c **** #define portNVIC_PENDSV_PRI					( ( ( uint32_t ) configKERNEL_INTERRUPT_PRIORITY ) << 16UL )
 111:Middlewares/Third_Party/FreeRTOS/Source/portable/GCC/ARM_CM4F/port.c **** #define portNVIC_SYSTICK_PRI				( ( ( uint32_t ) configKERNEL_INTERRUPT_PRIORITY ) << 24UL )
 112:Middlewares/Third_Party/FreeRTOS/Source/portable/GCC/ARM_CM4F/port.c **** 
 113:Middlewares/Third_Party/FreeRTOS/Source/portable/GCC/ARM_CM4F/port.c **** /* Constants required to check the validity of an interrupt priority. */
 114:Middlewares/Third_Party/FreeRTOS/Source/portable/GCC/ARM_CM4F/port.c **** #define portFIRST_USER_INTERRUPT_NUMBER		( 16 )
 115:Middlewares/Third_Party/FreeRTOS/Source/portable/GCC/ARM_CM4F/port.c **** #define portNVIC_IP_REGISTERS_OFFSET_16 	( 0xE000E3F0 )
 116:Middlewares/Third_Party/FreeRTOS/Source/portable/GCC/ARM_CM4F/port.c **** #define portAIRCR_REG						( * ( ( volatile uint32_t * ) 0xE000ED0C ) )
 117:Middlewares/Third_Party/FreeRTOS/Source/portable/GCC/ARM_CM4F/port.c **** #define portMAX_8_BIT_VALUE					( ( uint8_t ) 0xff )
 118:Middlewares/Third_Party/FreeRTOS/Source/portable/GCC/ARM_CM4F/port.c **** #define portTOP_BIT_OF_BYTE					( ( uint8_t ) 0x80 )
 119:Middlewares/Third_Party/FreeRTOS/Source/portable/GCC/ARM_CM4F/port.c **** #define portMAX_PRIGROUP_BITS				( ( uint8_t ) 7 )
 120:Middlewares/Third_Party/FreeRTOS/Source/portable/GCC/ARM_CM4F/port.c **** #define portPRIORITY_GROUP_MASK				( 0x07UL << 8UL )
 121:Middlewares/Third_Party/FreeRTOS/Source/portable/GCC/ARM_CM4F/port.c **** #define portPRIGROUP_SHIFT					( 8UL )
 122:Middlewares/Third_Party/FreeRTOS/Source/portable/GCC/ARM_CM4F/port.c **** 
 123:Middlewares/Third_Party/FreeRTOS/Source/portable/GCC/ARM_CM4F/port.c **** /* Masks off all bits but the VECTACTIVE bits in the ICSR register. */
 124:Middlewares/Third_Party/FreeRTOS/Source/portable/GCC/ARM_CM4F/port.c **** #define portVECTACTIVE_MASK					( 0xFFUL )
 125:Middlewares/Third_Party/FreeRTOS/Source/portable/GCC/ARM_CM4F/port.c **** 
 126:Middlewares/Third_Party/FreeRTOS/Source/portable/GCC/ARM_CM4F/port.c **** /* Constants required to manipulate the VFP. */
 127:Middlewares/Third_Party/FreeRTOS/Source/portable/GCC/ARM_CM4F/port.c **** #define portFPCCR							( ( volatile uint32_t * ) 0xe000ef34 ) /* Floating point context control re
 128:Middlewares/Third_Party/FreeRTOS/Source/portable/GCC/ARM_CM4F/port.c **** #define portASPEN_AND_LSPEN_BITS			( 0x3UL << 30UL )
 129:Middlewares/Third_Party/FreeRTOS/Source/portable/GCC/ARM_CM4F/port.c **** 
 130:Middlewares/Third_Party/FreeRTOS/Source/portable/GCC/ARM_CM4F/port.c **** /* Constants required to set up the initial stack. */
ARM GAS  /tmp/cclcvJlT.s 			page 4


 131:Middlewares/Third_Party/FreeRTOS/Source/portable/GCC/ARM_CM4F/port.c **** #define portINITIAL_XPSR					( 0x01000000 )
 132:Middlewares/Third_Party/FreeRTOS/Source/portable/GCC/ARM_CM4F/port.c **** #define portINITIAL_EXEC_RETURN				( 0xfffffffd )
 133:Middlewares/Third_Party/FreeRTOS/Source/portable/GCC/ARM_CM4F/port.c **** 
 134:Middlewares/Third_Party/FreeRTOS/Source/portable/GCC/ARM_CM4F/port.c **** /* The systick is a 24-bit counter. */
 135:Middlewares/Third_Party/FreeRTOS/Source/portable/GCC/ARM_CM4F/port.c **** #define portMAX_24_BIT_NUMBER				( 0xffffffUL )
 136:Middlewares/Third_Party/FreeRTOS/Source/portable/GCC/ARM_CM4F/port.c **** 
 137:Middlewares/Third_Party/FreeRTOS/Source/portable/GCC/ARM_CM4F/port.c **** /* For strict compliance with the Cortex-M spec the task start address should
 138:Middlewares/Third_Party/FreeRTOS/Source/portable/GCC/ARM_CM4F/port.c **** have bit-0 clear, as it is loaded into the PC on exit from an ISR. */
 139:Middlewares/Third_Party/FreeRTOS/Source/portable/GCC/ARM_CM4F/port.c **** #define portSTART_ADDRESS_MASK		( ( StackType_t ) 0xfffffffeUL )
 140:Middlewares/Third_Party/FreeRTOS/Source/portable/GCC/ARM_CM4F/port.c **** 
 141:Middlewares/Third_Party/FreeRTOS/Source/portable/GCC/ARM_CM4F/port.c **** /* A fiddle factor to estimate the number of SysTick counts that would have
 142:Middlewares/Third_Party/FreeRTOS/Source/portable/GCC/ARM_CM4F/port.c **** occurred while the SysTick counter is stopped during tickless idle
 143:Middlewares/Third_Party/FreeRTOS/Source/portable/GCC/ARM_CM4F/port.c **** calculations. */
 144:Middlewares/Third_Party/FreeRTOS/Source/portable/GCC/ARM_CM4F/port.c **** #define portMISSED_COUNTS_FACTOR			( 45UL )
 145:Middlewares/Third_Party/FreeRTOS/Source/portable/GCC/ARM_CM4F/port.c **** 
 146:Middlewares/Third_Party/FreeRTOS/Source/portable/GCC/ARM_CM4F/port.c **** /* Let the user override the pre-loading of the initial LR with the address of
 147:Middlewares/Third_Party/FreeRTOS/Source/portable/GCC/ARM_CM4F/port.c **** prvTaskExitError() in case it messes up unwinding of the stack in the
 148:Middlewares/Third_Party/FreeRTOS/Source/portable/GCC/ARM_CM4F/port.c **** debugger. */
 149:Middlewares/Third_Party/FreeRTOS/Source/portable/GCC/ARM_CM4F/port.c **** #ifdef configTASK_RETURN_ADDRESS
 150:Middlewares/Third_Party/FreeRTOS/Source/portable/GCC/ARM_CM4F/port.c **** 	#define portTASK_RETURN_ADDRESS	configTASK_RETURN_ADDRESS
 151:Middlewares/Third_Party/FreeRTOS/Source/portable/GCC/ARM_CM4F/port.c **** #else
 152:Middlewares/Third_Party/FreeRTOS/Source/portable/GCC/ARM_CM4F/port.c **** 	#define portTASK_RETURN_ADDRESS	prvTaskExitError
 153:Middlewares/Third_Party/FreeRTOS/Source/portable/GCC/ARM_CM4F/port.c **** #endif
 154:Middlewares/Third_Party/FreeRTOS/Source/portable/GCC/ARM_CM4F/port.c **** 
 155:Middlewares/Third_Party/FreeRTOS/Source/portable/GCC/ARM_CM4F/port.c **** /* Each task maintains its own interrupt status in the critical nesting
 156:Middlewares/Third_Party/FreeRTOS/Source/portable/GCC/ARM_CM4F/port.c **** variable. */
 157:Middlewares/Third_Party/FreeRTOS/Source/portable/GCC/ARM_CM4F/port.c **** static UBaseType_t uxCriticalNesting = 0xaaaaaaaa;
 158:Middlewares/Third_Party/FreeRTOS/Source/portable/GCC/ARM_CM4F/port.c **** 
 159:Middlewares/Third_Party/FreeRTOS/Source/portable/GCC/ARM_CM4F/port.c **** /*
 160:Middlewares/Third_Party/FreeRTOS/Source/portable/GCC/ARM_CM4F/port.c ****  * Setup the timer to generate the tick interrupts.  The implementation in this
 161:Middlewares/Third_Party/FreeRTOS/Source/portable/GCC/ARM_CM4F/port.c ****  * file is weak to allow application writers to change the timer used to
 162:Middlewares/Third_Party/FreeRTOS/Source/portable/GCC/ARM_CM4F/port.c ****  * generate the tick interrupt.
 163:Middlewares/Third_Party/FreeRTOS/Source/portable/GCC/ARM_CM4F/port.c ****  */
 164:Middlewares/Third_Party/FreeRTOS/Source/portable/GCC/ARM_CM4F/port.c **** void vPortSetupTimerInterrupt( void );
 165:Middlewares/Third_Party/FreeRTOS/Source/portable/GCC/ARM_CM4F/port.c **** 
 166:Middlewares/Third_Party/FreeRTOS/Source/portable/GCC/ARM_CM4F/port.c **** /*
 167:Middlewares/Third_Party/FreeRTOS/Source/portable/GCC/ARM_CM4F/port.c ****  * Exception handlers.
 168:Middlewares/Third_Party/FreeRTOS/Source/portable/GCC/ARM_CM4F/port.c ****  */
 169:Middlewares/Third_Party/FreeRTOS/Source/portable/GCC/ARM_CM4F/port.c **** void xPortPendSVHandler( void ) __attribute__ (( naked ));
 170:Middlewares/Third_Party/FreeRTOS/Source/portable/GCC/ARM_CM4F/port.c **** void xPortSysTickHandler( void );
 171:Middlewares/Third_Party/FreeRTOS/Source/portable/GCC/ARM_CM4F/port.c **** void vPortSVCHandler( void ) __attribute__ (( naked ));
 172:Middlewares/Third_Party/FreeRTOS/Source/portable/GCC/ARM_CM4F/port.c **** 
 173:Middlewares/Third_Party/FreeRTOS/Source/portable/GCC/ARM_CM4F/port.c **** /*
 174:Middlewares/Third_Party/FreeRTOS/Source/portable/GCC/ARM_CM4F/port.c ****  * Start first task is a separate function so it can be tested in isolation.
 175:Middlewares/Third_Party/FreeRTOS/Source/portable/GCC/ARM_CM4F/port.c ****  */
 176:Middlewares/Third_Party/FreeRTOS/Source/portable/GCC/ARM_CM4F/port.c **** static void prvPortStartFirstTask( void ) __attribute__ (( naked ));
 177:Middlewares/Third_Party/FreeRTOS/Source/portable/GCC/ARM_CM4F/port.c **** 
 178:Middlewares/Third_Party/FreeRTOS/Source/portable/GCC/ARM_CM4F/port.c **** /*
 179:Middlewares/Third_Party/FreeRTOS/Source/portable/GCC/ARM_CM4F/port.c ****  * Function to enable the VFP.
 180:Middlewares/Third_Party/FreeRTOS/Source/portable/GCC/ARM_CM4F/port.c ****  */
 181:Middlewares/Third_Party/FreeRTOS/Source/portable/GCC/ARM_CM4F/port.c **** static void vPortEnableVFP( void ) __attribute__ (( naked ));
 182:Middlewares/Third_Party/FreeRTOS/Source/portable/GCC/ARM_CM4F/port.c **** 
 183:Middlewares/Third_Party/FreeRTOS/Source/portable/GCC/ARM_CM4F/port.c **** /*
 184:Middlewares/Third_Party/FreeRTOS/Source/portable/GCC/ARM_CM4F/port.c ****  * Used to catch tasks that attempt to return from their implementing function.
 185:Middlewares/Third_Party/FreeRTOS/Source/portable/GCC/ARM_CM4F/port.c ****  */
 186:Middlewares/Third_Party/FreeRTOS/Source/portable/GCC/ARM_CM4F/port.c **** static void prvTaskExitError( void );
 187:Middlewares/Third_Party/FreeRTOS/Source/portable/GCC/ARM_CM4F/port.c **** 
ARM GAS  /tmp/cclcvJlT.s 			page 5


 188:Middlewares/Third_Party/FreeRTOS/Source/portable/GCC/ARM_CM4F/port.c **** /*-----------------------------------------------------------*/
 189:Middlewares/Third_Party/FreeRTOS/Source/portable/GCC/ARM_CM4F/port.c **** 
 190:Middlewares/Third_Party/FreeRTOS/Source/portable/GCC/ARM_CM4F/port.c **** /*
 191:Middlewares/Third_Party/FreeRTOS/Source/portable/GCC/ARM_CM4F/port.c ****  * The number of SysTick increments that make up one tick period.
 192:Middlewares/Third_Party/FreeRTOS/Source/portable/GCC/ARM_CM4F/port.c ****  */
 193:Middlewares/Third_Party/FreeRTOS/Source/portable/GCC/ARM_CM4F/port.c **** #if configUSE_TICKLESS_IDLE == 1
 194:Middlewares/Third_Party/FreeRTOS/Source/portable/GCC/ARM_CM4F/port.c **** 	static uint32_t ulTimerCountsForOneTick = 0;
 195:Middlewares/Third_Party/FreeRTOS/Source/portable/GCC/ARM_CM4F/port.c **** #endif /* configUSE_TICKLESS_IDLE */
 196:Middlewares/Third_Party/FreeRTOS/Source/portable/GCC/ARM_CM4F/port.c **** 
 197:Middlewares/Third_Party/FreeRTOS/Source/portable/GCC/ARM_CM4F/port.c **** /*
 198:Middlewares/Third_Party/FreeRTOS/Source/portable/GCC/ARM_CM4F/port.c ****  * The maximum number of tick periods that can be suppressed is limited by the
 199:Middlewares/Third_Party/FreeRTOS/Source/portable/GCC/ARM_CM4F/port.c ****  * 24 bit resolution of the SysTick timer.
 200:Middlewares/Third_Party/FreeRTOS/Source/portable/GCC/ARM_CM4F/port.c ****  */
 201:Middlewares/Third_Party/FreeRTOS/Source/portable/GCC/ARM_CM4F/port.c **** #if configUSE_TICKLESS_IDLE == 1
 202:Middlewares/Third_Party/FreeRTOS/Source/portable/GCC/ARM_CM4F/port.c **** 	static uint32_t xMaximumPossibleSuppressedTicks = 0;
 203:Middlewares/Third_Party/FreeRTOS/Source/portable/GCC/ARM_CM4F/port.c **** #endif /* configUSE_TICKLESS_IDLE */
 204:Middlewares/Third_Party/FreeRTOS/Source/portable/GCC/ARM_CM4F/port.c **** 
 205:Middlewares/Third_Party/FreeRTOS/Source/portable/GCC/ARM_CM4F/port.c **** /*
 206:Middlewares/Third_Party/FreeRTOS/Source/portable/GCC/ARM_CM4F/port.c ****  * Compensate for the CPU cycles that pass while the SysTick is stopped (low
 207:Middlewares/Third_Party/FreeRTOS/Source/portable/GCC/ARM_CM4F/port.c ****  * power functionality only.
 208:Middlewares/Third_Party/FreeRTOS/Source/portable/GCC/ARM_CM4F/port.c ****  */
 209:Middlewares/Third_Party/FreeRTOS/Source/portable/GCC/ARM_CM4F/port.c **** #if configUSE_TICKLESS_IDLE == 1
 210:Middlewares/Third_Party/FreeRTOS/Source/portable/GCC/ARM_CM4F/port.c **** 	static uint32_t ulStoppedTimerCompensation = 0;
 211:Middlewares/Third_Party/FreeRTOS/Source/portable/GCC/ARM_CM4F/port.c **** #endif /* configUSE_TICKLESS_IDLE */
 212:Middlewares/Third_Party/FreeRTOS/Source/portable/GCC/ARM_CM4F/port.c **** 
 213:Middlewares/Third_Party/FreeRTOS/Source/portable/GCC/ARM_CM4F/port.c **** /*
 214:Middlewares/Third_Party/FreeRTOS/Source/portable/GCC/ARM_CM4F/port.c ****  * Used by the portASSERT_IF_INTERRUPT_PRIORITY_INVALID() macro to ensure
 215:Middlewares/Third_Party/FreeRTOS/Source/portable/GCC/ARM_CM4F/port.c ****  * FreeRTOS API functions are not called from interrupts that have been assigned
 216:Middlewares/Third_Party/FreeRTOS/Source/portable/GCC/ARM_CM4F/port.c ****  * a priority above configMAX_SYSCALL_INTERRUPT_PRIORITY.
 217:Middlewares/Third_Party/FreeRTOS/Source/portable/GCC/ARM_CM4F/port.c ****  */
 218:Middlewares/Third_Party/FreeRTOS/Source/portable/GCC/ARM_CM4F/port.c **** #if ( configASSERT_DEFINED == 1 )
 219:Middlewares/Third_Party/FreeRTOS/Source/portable/GCC/ARM_CM4F/port.c **** 	 static uint8_t ucMaxSysCallPriority = 0;
 220:Middlewares/Third_Party/FreeRTOS/Source/portable/GCC/ARM_CM4F/port.c **** 	 static uint32_t ulMaxPRIGROUPValue = 0;
 221:Middlewares/Third_Party/FreeRTOS/Source/portable/GCC/ARM_CM4F/port.c **** 	 static const volatile uint8_t * const pcInterruptPriorityRegisters = ( const volatile uint8_t * c
 222:Middlewares/Third_Party/FreeRTOS/Source/portable/GCC/ARM_CM4F/port.c **** #endif /* configASSERT_DEFINED */
 223:Middlewares/Third_Party/FreeRTOS/Source/portable/GCC/ARM_CM4F/port.c **** 
 224:Middlewares/Third_Party/FreeRTOS/Source/portable/GCC/ARM_CM4F/port.c **** /*-----------------------------------------------------------*/
 225:Middlewares/Third_Party/FreeRTOS/Source/portable/GCC/ARM_CM4F/port.c **** 
 226:Middlewares/Third_Party/FreeRTOS/Source/portable/GCC/ARM_CM4F/port.c **** /*
 227:Middlewares/Third_Party/FreeRTOS/Source/portable/GCC/ARM_CM4F/port.c ****  * See header file for description.
 228:Middlewares/Third_Party/FreeRTOS/Source/portable/GCC/ARM_CM4F/port.c ****  */
 229:Middlewares/Third_Party/FreeRTOS/Source/portable/GCC/ARM_CM4F/port.c **** StackType_t *pxPortInitialiseStack( StackType_t *pxTopOfStack, TaskFunction_t pxCode, void *pvParam
 230:Middlewares/Third_Party/FreeRTOS/Source/portable/GCC/ARM_CM4F/port.c **** {
  51              		.loc 1 230 0
  52              		.cfi_startproc
  53              		@ args = 0, pretend = 0, frame = 16
  54              		@ frame_needed = 1, uses_anonymous_args = 0
  55              		@ link register save eliminated.
  56 0000 80B4     		push	{r7}
  57              	.LCFI0:
  58              		.cfi_def_cfa_offset 4
  59              		.cfi_offset 7, -4
  60 0002 85B0     		sub	sp, sp, #20
  61              	.LCFI1:
  62              		.cfi_def_cfa_offset 24
  63 0004 00AF     		add	r7, sp, #0
  64              	.LCFI2:
ARM GAS  /tmp/cclcvJlT.s 			page 6


  65              		.cfi_def_cfa_register 7
  66 0006 F860     		str	r0, [r7, #12]
  67 0008 B960     		str	r1, [r7, #8]
  68 000a 7A60     		str	r2, [r7, #4]
 231:Middlewares/Third_Party/FreeRTOS/Source/portable/GCC/ARM_CM4F/port.c **** 	/* Simulate the stack frame as it would be created by a context switch
 232:Middlewares/Third_Party/FreeRTOS/Source/portable/GCC/ARM_CM4F/port.c **** 	interrupt. */
 233:Middlewares/Third_Party/FreeRTOS/Source/portable/GCC/ARM_CM4F/port.c **** 
 234:Middlewares/Third_Party/FreeRTOS/Source/portable/GCC/ARM_CM4F/port.c **** 	/* Offset added to account for the way the MCU uses the stack on entry/exit
 235:Middlewares/Third_Party/FreeRTOS/Source/portable/GCC/ARM_CM4F/port.c **** 	of interrupts, and to ensure alignment. */
 236:Middlewares/Third_Party/FreeRTOS/Source/portable/GCC/ARM_CM4F/port.c **** 	pxTopOfStack--;
  69              		.loc 1 236 0
  70 000c FB68     		ldr	r3, [r7, #12]
  71 000e 043B     		subs	r3, r3, #4
  72 0010 FB60     		str	r3, [r7, #12]
 237:Middlewares/Third_Party/FreeRTOS/Source/portable/GCC/ARM_CM4F/port.c **** 
 238:Middlewares/Third_Party/FreeRTOS/Source/portable/GCC/ARM_CM4F/port.c **** 	*pxTopOfStack = portINITIAL_XPSR;	/* xPSR */
  73              		.loc 1 238 0
  74 0012 FB68     		ldr	r3, [r7, #12]
  75 0014 4FF08072 		mov	r2, #16777216
  76 0018 1A60     		str	r2, [r3]
 239:Middlewares/Third_Party/FreeRTOS/Source/portable/GCC/ARM_CM4F/port.c **** 	pxTopOfStack--;
  77              		.loc 1 239 0
  78 001a FB68     		ldr	r3, [r7, #12]
  79 001c 043B     		subs	r3, r3, #4
  80 001e FB60     		str	r3, [r7, #12]
 240:Middlewares/Third_Party/FreeRTOS/Source/portable/GCC/ARM_CM4F/port.c **** 	*pxTopOfStack = ( ( StackType_t ) pxCode ) & portSTART_ADDRESS_MASK;	/* PC */
  81              		.loc 1 240 0
  82 0020 BB68     		ldr	r3, [r7, #8]
  83 0022 23F00102 		bic	r2, r3, #1
  84 0026 FB68     		ldr	r3, [r7, #12]
  85 0028 1A60     		str	r2, [r3]
 241:Middlewares/Third_Party/FreeRTOS/Source/portable/GCC/ARM_CM4F/port.c **** 	pxTopOfStack--;
  86              		.loc 1 241 0
  87 002a FB68     		ldr	r3, [r7, #12]
  88 002c 043B     		subs	r3, r3, #4
  89 002e FB60     		str	r3, [r7, #12]
 242:Middlewares/Third_Party/FreeRTOS/Source/portable/GCC/ARM_CM4F/port.c **** 	*pxTopOfStack = ( StackType_t ) portTASK_RETURN_ADDRESS;	/* LR */
  90              		.loc 1 242 0
  91 0030 0C4A     		ldr	r2, .L3
  92 0032 FB68     		ldr	r3, [r7, #12]
  93 0034 1A60     		str	r2, [r3]
 243:Middlewares/Third_Party/FreeRTOS/Source/portable/GCC/ARM_CM4F/port.c **** 
 244:Middlewares/Third_Party/FreeRTOS/Source/portable/GCC/ARM_CM4F/port.c **** 	/* Save code space by skipping register initialisation. */
 245:Middlewares/Third_Party/FreeRTOS/Source/portable/GCC/ARM_CM4F/port.c **** 	pxTopOfStack -= 5;	/* R12, R3, R2 and R1. */
  94              		.loc 1 245 0
  95 0036 FB68     		ldr	r3, [r7, #12]
  96 0038 143B     		subs	r3, r3, #20
  97 003a FB60     		str	r3, [r7, #12]
 246:Middlewares/Third_Party/FreeRTOS/Source/portable/GCC/ARM_CM4F/port.c **** 	*pxTopOfStack = ( StackType_t ) pvParameters;	/* R0 */
  98              		.loc 1 246 0
  99 003c 7A68     		ldr	r2, [r7, #4]
 100 003e FB68     		ldr	r3, [r7, #12]
 101 0040 1A60     		str	r2, [r3]
 247:Middlewares/Third_Party/FreeRTOS/Source/portable/GCC/ARM_CM4F/port.c **** 
 248:Middlewares/Third_Party/FreeRTOS/Source/portable/GCC/ARM_CM4F/port.c **** 	/* A save method is being used that requires each task to maintain its
 249:Middlewares/Third_Party/FreeRTOS/Source/portable/GCC/ARM_CM4F/port.c **** 	own exec return value. */
 250:Middlewares/Third_Party/FreeRTOS/Source/portable/GCC/ARM_CM4F/port.c **** 	pxTopOfStack--;
ARM GAS  /tmp/cclcvJlT.s 			page 7


 102              		.loc 1 250 0
 103 0042 FB68     		ldr	r3, [r7, #12]
 104 0044 043B     		subs	r3, r3, #4
 105 0046 FB60     		str	r3, [r7, #12]
 251:Middlewares/Third_Party/FreeRTOS/Source/portable/GCC/ARM_CM4F/port.c **** 	*pxTopOfStack = portINITIAL_EXEC_RETURN;
 106              		.loc 1 251 0
 107 0048 FB68     		ldr	r3, [r7, #12]
 108 004a 6FF00202 		mvn	r2, #2
 109 004e 1A60     		str	r2, [r3]
 252:Middlewares/Third_Party/FreeRTOS/Source/portable/GCC/ARM_CM4F/port.c **** 
 253:Middlewares/Third_Party/FreeRTOS/Source/portable/GCC/ARM_CM4F/port.c **** 	pxTopOfStack -= 8;	/* R11, R10, R9, R8, R7, R6, R5 and R4. */
 110              		.loc 1 253 0
 111 0050 FB68     		ldr	r3, [r7, #12]
 112 0052 203B     		subs	r3, r3, #32
 113 0054 FB60     		str	r3, [r7, #12]
 254:Middlewares/Third_Party/FreeRTOS/Source/portable/GCC/ARM_CM4F/port.c **** 
 255:Middlewares/Third_Party/FreeRTOS/Source/portable/GCC/ARM_CM4F/port.c **** 	return pxTopOfStack;
 114              		.loc 1 255 0
 115 0056 FB68     		ldr	r3, [r7, #12]
 256:Middlewares/Third_Party/FreeRTOS/Source/portable/GCC/ARM_CM4F/port.c **** }
 116              		.loc 1 256 0
 117 0058 1846     		mov	r0, r3
 118 005a 1437     		adds	r7, r7, #20
 119              	.LCFI3:
 120              		.cfi_def_cfa_offset 4
 121 005c BD46     		mov	sp, r7
 122              	.LCFI4:
 123              		.cfi_def_cfa_register 13
 124              		@ sp needed
 125 005e 5DF8047B 		ldr	r7, [sp], #4
 126              	.LCFI5:
 127              		.cfi_restore 7
 128              		.cfi_def_cfa_offset 0
 129 0062 7047     		bx	lr
 130              	.L4:
 131              		.align	2
 132              	.L3:
 133 0064 00000000 		.word	prvTaskExitError
 134              		.cfi_endproc
 135              	.LFE5:
 137              		.section	.text.prvTaskExitError,"ax",%progbits
 138              		.align	1
 139              		.syntax unified
 140              		.thumb
 141              		.thumb_func
 142              		.fpu fpv4-sp-d16
 144              	prvTaskExitError:
 145              	.LFB6:
 257:Middlewares/Third_Party/FreeRTOS/Source/portable/GCC/ARM_CM4F/port.c **** /*-----------------------------------------------------------*/
 258:Middlewares/Third_Party/FreeRTOS/Source/portable/GCC/ARM_CM4F/port.c **** 
 259:Middlewares/Third_Party/FreeRTOS/Source/portable/GCC/ARM_CM4F/port.c **** static void prvTaskExitError( void )
 260:Middlewares/Third_Party/FreeRTOS/Source/portable/GCC/ARM_CM4F/port.c **** {
 146              		.loc 1 260 0
 147              		.cfi_startproc
 148              		@ args = 0, pretend = 0, frame = 8
 149              		@ frame_needed = 1, uses_anonymous_args = 0
 150              		@ link register save eliminated.
ARM GAS  /tmp/cclcvJlT.s 			page 8


 151 0000 80B4     		push	{r7}
 152              	.LCFI6:
 153              		.cfi_def_cfa_offset 4
 154              		.cfi_offset 7, -4
 155 0002 83B0     		sub	sp, sp, #12
 156              	.LCFI7:
 157              		.cfi_def_cfa_offset 16
 158 0004 00AF     		add	r7, sp, #0
 159              	.LCFI8:
 160              		.cfi_def_cfa_register 7
 261:Middlewares/Third_Party/FreeRTOS/Source/portable/GCC/ARM_CM4F/port.c **** 	/* A function that implements a task must not exit or attempt to return to
 262:Middlewares/Third_Party/FreeRTOS/Source/portable/GCC/ARM_CM4F/port.c **** 	its caller as there is nothing to return to.  If a task wants to exit it
 263:Middlewares/Third_Party/FreeRTOS/Source/portable/GCC/ARM_CM4F/port.c **** 	should instead call vTaskDelete( NULL ).
 264:Middlewares/Third_Party/FreeRTOS/Source/portable/GCC/ARM_CM4F/port.c **** 
 265:Middlewares/Third_Party/FreeRTOS/Source/portable/GCC/ARM_CM4F/port.c **** 	Artificially force an assert() to be triggered if configASSERT() is
 266:Middlewares/Third_Party/FreeRTOS/Source/portable/GCC/ARM_CM4F/port.c **** 	defined, then stop here so application writers can catch the error. */
 267:Middlewares/Third_Party/FreeRTOS/Source/portable/GCC/ARM_CM4F/port.c **** 	configASSERT( uxCriticalNesting == ~0UL );
 161              		.loc 1 267 0
 162 0006 0C4B     		ldr	r3, .L9
 163 0008 1B68     		ldr	r3, [r3]
 164 000a B3F1FF3F 		cmp	r3, #-1
 165 000e 09D0     		beq	.L6
 166              	.LBB29:
 167              	.LBB30:
 168              		.file 2 "Middlewares/Third_Party/FreeRTOS/Source/portable/GCC/ARM_CM4F/portmacro.h"
   1:Middlewares/Third_Party/FreeRTOS/Source/portable/GCC/ARM_CM4F/portmacro.h **** /*
   2:Middlewares/Third_Party/FreeRTOS/Source/portable/GCC/ARM_CM4F/portmacro.h ****     FreeRTOS V9.0.0 - Copyright (C) 2016 Real Time Engineers Ltd.
   3:Middlewares/Third_Party/FreeRTOS/Source/portable/GCC/ARM_CM4F/portmacro.h ****     All rights reserved
   4:Middlewares/Third_Party/FreeRTOS/Source/portable/GCC/ARM_CM4F/portmacro.h **** 
   5:Middlewares/Third_Party/FreeRTOS/Source/portable/GCC/ARM_CM4F/portmacro.h ****     VISIT http://www.FreeRTOS.org TO ENSURE YOU ARE USING THE LATEST VERSION.
   6:Middlewares/Third_Party/FreeRTOS/Source/portable/GCC/ARM_CM4F/portmacro.h **** 
   7:Middlewares/Third_Party/FreeRTOS/Source/portable/GCC/ARM_CM4F/portmacro.h ****     This file is part of the FreeRTOS distribution.
   8:Middlewares/Third_Party/FreeRTOS/Source/portable/GCC/ARM_CM4F/portmacro.h **** 
   9:Middlewares/Third_Party/FreeRTOS/Source/portable/GCC/ARM_CM4F/portmacro.h ****     FreeRTOS is free software; you can redistribute it and/or modify it under
  10:Middlewares/Third_Party/FreeRTOS/Source/portable/GCC/ARM_CM4F/portmacro.h ****     the terms of the GNU General Public License (version 2) as published by the
  11:Middlewares/Third_Party/FreeRTOS/Source/portable/GCC/ARM_CM4F/portmacro.h ****     Free Software Foundation >>>> AND MODIFIED BY <<<< the FreeRTOS exception.
  12:Middlewares/Third_Party/FreeRTOS/Source/portable/GCC/ARM_CM4F/portmacro.h **** 
  13:Middlewares/Third_Party/FreeRTOS/Source/portable/GCC/ARM_CM4F/portmacro.h ****     ***************************************************************************
  14:Middlewares/Third_Party/FreeRTOS/Source/portable/GCC/ARM_CM4F/portmacro.h ****     >>!   NOTE: The modification to the GPL is included to allow you to     !<<
  15:Middlewares/Third_Party/FreeRTOS/Source/portable/GCC/ARM_CM4F/portmacro.h ****     >>!   distribute a combined work that includes FreeRTOS without being   !<<
  16:Middlewares/Third_Party/FreeRTOS/Source/portable/GCC/ARM_CM4F/portmacro.h ****     >>!   obliged to provide the source code for proprietary components     !<<
  17:Middlewares/Third_Party/FreeRTOS/Source/portable/GCC/ARM_CM4F/portmacro.h ****     >>!   outside of the FreeRTOS kernel.                                   !<<
  18:Middlewares/Third_Party/FreeRTOS/Source/portable/GCC/ARM_CM4F/portmacro.h ****     ***************************************************************************
  19:Middlewares/Third_Party/FreeRTOS/Source/portable/GCC/ARM_CM4F/portmacro.h **** 
  20:Middlewares/Third_Party/FreeRTOS/Source/portable/GCC/ARM_CM4F/portmacro.h ****     FreeRTOS is distributed in the hope that it will be useful, but WITHOUT ANY
  21:Middlewares/Third_Party/FreeRTOS/Source/portable/GCC/ARM_CM4F/portmacro.h ****     WARRANTY; without even the implied warranty of MERCHANTABILITY or FITNESS
  22:Middlewares/Third_Party/FreeRTOS/Source/portable/GCC/ARM_CM4F/portmacro.h ****     FOR A PARTICULAR PURPOSE.  Full license text is available on the following
  23:Middlewares/Third_Party/FreeRTOS/Source/portable/GCC/ARM_CM4F/portmacro.h ****     link: http://www.freertos.org/a00114.html
  24:Middlewares/Third_Party/FreeRTOS/Source/portable/GCC/ARM_CM4F/portmacro.h **** 
  25:Middlewares/Third_Party/FreeRTOS/Source/portable/GCC/ARM_CM4F/portmacro.h ****     ***************************************************************************
  26:Middlewares/Third_Party/FreeRTOS/Source/portable/GCC/ARM_CM4F/portmacro.h ****      *                                                                       *
  27:Middlewares/Third_Party/FreeRTOS/Source/portable/GCC/ARM_CM4F/portmacro.h ****      *    FreeRTOS provides completely free yet professionally developed,    *
  28:Middlewares/Third_Party/FreeRTOS/Source/portable/GCC/ARM_CM4F/portmacro.h ****      *    robust, strictly quality controlled, supported, and cross          *
  29:Middlewares/Third_Party/FreeRTOS/Source/portable/GCC/ARM_CM4F/portmacro.h ****      *    platform software that is more than just the market leader, it     *
  30:Middlewares/Third_Party/FreeRTOS/Source/portable/GCC/ARM_CM4F/portmacro.h ****      *    is the industry's de facto standard.                               *
  31:Middlewares/Third_Party/FreeRTOS/Source/portable/GCC/ARM_CM4F/portmacro.h ****      *                                                                       *
  32:Middlewares/Third_Party/FreeRTOS/Source/portable/GCC/ARM_CM4F/portmacro.h ****      *    Help yourself get started quickly while simultaneously helping     *
ARM GAS  /tmp/cclcvJlT.s 			page 9


  33:Middlewares/Third_Party/FreeRTOS/Source/portable/GCC/ARM_CM4F/portmacro.h ****      *    to support the FreeRTOS project by purchasing a FreeRTOS           *
  34:Middlewares/Third_Party/FreeRTOS/Source/portable/GCC/ARM_CM4F/portmacro.h ****      *    tutorial book, reference manual, or both:                          *
  35:Middlewares/Third_Party/FreeRTOS/Source/portable/GCC/ARM_CM4F/portmacro.h ****      *    http://www.FreeRTOS.org/Documentation                              *
  36:Middlewares/Third_Party/FreeRTOS/Source/portable/GCC/ARM_CM4F/portmacro.h ****      *                                                                       *
  37:Middlewares/Third_Party/FreeRTOS/Source/portable/GCC/ARM_CM4F/portmacro.h ****     ***************************************************************************
  38:Middlewares/Third_Party/FreeRTOS/Source/portable/GCC/ARM_CM4F/portmacro.h **** 
  39:Middlewares/Third_Party/FreeRTOS/Source/portable/GCC/ARM_CM4F/portmacro.h ****     http://www.FreeRTOS.org/FAQHelp.html - Having a problem?  Start by reading
  40:Middlewares/Third_Party/FreeRTOS/Source/portable/GCC/ARM_CM4F/portmacro.h ****     the FAQ page "My application does not run, what could be wrong?".  Have you
  41:Middlewares/Third_Party/FreeRTOS/Source/portable/GCC/ARM_CM4F/portmacro.h ****     defined configASSERT()?
  42:Middlewares/Third_Party/FreeRTOS/Source/portable/GCC/ARM_CM4F/portmacro.h **** 
  43:Middlewares/Third_Party/FreeRTOS/Source/portable/GCC/ARM_CM4F/portmacro.h ****     http://www.FreeRTOS.org/support - In return for receiving this top quality
  44:Middlewares/Third_Party/FreeRTOS/Source/portable/GCC/ARM_CM4F/portmacro.h ****     embedded software for free we request you assist our global community by
  45:Middlewares/Third_Party/FreeRTOS/Source/portable/GCC/ARM_CM4F/portmacro.h ****     participating in the support forum.
  46:Middlewares/Third_Party/FreeRTOS/Source/portable/GCC/ARM_CM4F/portmacro.h **** 
  47:Middlewares/Third_Party/FreeRTOS/Source/portable/GCC/ARM_CM4F/portmacro.h ****     http://www.FreeRTOS.org/training - Investing in training allows your team to
  48:Middlewares/Third_Party/FreeRTOS/Source/portable/GCC/ARM_CM4F/portmacro.h ****     be as productive as possible as early as possible.  Now you can receive
  49:Middlewares/Third_Party/FreeRTOS/Source/portable/GCC/ARM_CM4F/portmacro.h ****     FreeRTOS training directly from Richard Barry, CEO of Real Time Engineers
  50:Middlewares/Third_Party/FreeRTOS/Source/portable/GCC/ARM_CM4F/portmacro.h ****     Ltd, and the world's leading authority on the world's leading RTOS.
  51:Middlewares/Third_Party/FreeRTOS/Source/portable/GCC/ARM_CM4F/portmacro.h **** 
  52:Middlewares/Third_Party/FreeRTOS/Source/portable/GCC/ARM_CM4F/portmacro.h ****     http://www.FreeRTOS.org/plus - A selection of FreeRTOS ecosystem products,
  53:Middlewares/Third_Party/FreeRTOS/Source/portable/GCC/ARM_CM4F/portmacro.h ****     including FreeRTOS+Trace - an indispensable productivity tool, a DOS
  54:Middlewares/Third_Party/FreeRTOS/Source/portable/GCC/ARM_CM4F/portmacro.h ****     compatible FAT file system, and our tiny thread aware UDP/IP stack.
  55:Middlewares/Third_Party/FreeRTOS/Source/portable/GCC/ARM_CM4F/portmacro.h **** 
  56:Middlewares/Third_Party/FreeRTOS/Source/portable/GCC/ARM_CM4F/portmacro.h ****     http://www.FreeRTOS.org/labs - Where new FreeRTOS products go to incubate.
  57:Middlewares/Third_Party/FreeRTOS/Source/portable/GCC/ARM_CM4F/portmacro.h ****     Come and try FreeRTOS+TCP, our new open source TCP/IP stack for FreeRTOS.
  58:Middlewares/Third_Party/FreeRTOS/Source/portable/GCC/ARM_CM4F/portmacro.h **** 
  59:Middlewares/Third_Party/FreeRTOS/Source/portable/GCC/ARM_CM4F/portmacro.h ****     http://www.OpenRTOS.com - Real Time Engineers ltd. license FreeRTOS to High
  60:Middlewares/Third_Party/FreeRTOS/Source/portable/GCC/ARM_CM4F/portmacro.h ****     Integrity Systems ltd. to sell under the OpenRTOS brand.  Low cost OpenRTOS
  61:Middlewares/Third_Party/FreeRTOS/Source/portable/GCC/ARM_CM4F/portmacro.h ****     licenses offer ticketed support, indemnification and commercial middleware.
  62:Middlewares/Third_Party/FreeRTOS/Source/portable/GCC/ARM_CM4F/portmacro.h **** 
  63:Middlewares/Third_Party/FreeRTOS/Source/portable/GCC/ARM_CM4F/portmacro.h ****     http://www.SafeRTOS.com - High Integrity Systems also provide a safety
  64:Middlewares/Third_Party/FreeRTOS/Source/portable/GCC/ARM_CM4F/portmacro.h ****     engineered and independently SIL3 certified version for use in safety and
  65:Middlewares/Third_Party/FreeRTOS/Source/portable/GCC/ARM_CM4F/portmacro.h ****     mission critical applications that require provable dependability.
  66:Middlewares/Third_Party/FreeRTOS/Source/portable/GCC/ARM_CM4F/portmacro.h **** 
  67:Middlewares/Third_Party/FreeRTOS/Source/portable/GCC/ARM_CM4F/portmacro.h ****     1 tab == 4 spaces!
  68:Middlewares/Third_Party/FreeRTOS/Source/portable/GCC/ARM_CM4F/portmacro.h **** */
  69:Middlewares/Third_Party/FreeRTOS/Source/portable/GCC/ARM_CM4F/portmacro.h **** 
  70:Middlewares/Third_Party/FreeRTOS/Source/portable/GCC/ARM_CM4F/portmacro.h **** 
  71:Middlewares/Third_Party/FreeRTOS/Source/portable/GCC/ARM_CM4F/portmacro.h **** #ifndef PORTMACRO_H
  72:Middlewares/Third_Party/FreeRTOS/Source/portable/GCC/ARM_CM4F/portmacro.h **** #define PORTMACRO_H
  73:Middlewares/Third_Party/FreeRTOS/Source/portable/GCC/ARM_CM4F/portmacro.h **** 
  74:Middlewares/Third_Party/FreeRTOS/Source/portable/GCC/ARM_CM4F/portmacro.h **** #ifdef __cplusplus
  75:Middlewares/Third_Party/FreeRTOS/Source/portable/GCC/ARM_CM4F/portmacro.h **** extern "C" {
  76:Middlewares/Third_Party/FreeRTOS/Source/portable/GCC/ARM_CM4F/portmacro.h **** #endif
  77:Middlewares/Third_Party/FreeRTOS/Source/portable/GCC/ARM_CM4F/portmacro.h **** 
  78:Middlewares/Third_Party/FreeRTOS/Source/portable/GCC/ARM_CM4F/portmacro.h **** /*-----------------------------------------------------------
  79:Middlewares/Third_Party/FreeRTOS/Source/portable/GCC/ARM_CM4F/portmacro.h ****  * Port specific definitions.
  80:Middlewares/Third_Party/FreeRTOS/Source/portable/GCC/ARM_CM4F/portmacro.h ****  *
  81:Middlewares/Third_Party/FreeRTOS/Source/portable/GCC/ARM_CM4F/portmacro.h ****  * The settings in this file configure FreeRTOS correctly for the
  82:Middlewares/Third_Party/FreeRTOS/Source/portable/GCC/ARM_CM4F/portmacro.h ****  * given hardware and compiler.
  83:Middlewares/Third_Party/FreeRTOS/Source/portable/GCC/ARM_CM4F/portmacro.h ****  *
  84:Middlewares/Third_Party/FreeRTOS/Source/portable/GCC/ARM_CM4F/portmacro.h ****  * These settings should not be altered.
  85:Middlewares/Third_Party/FreeRTOS/Source/portable/GCC/ARM_CM4F/portmacro.h ****  *-----------------------------------------------------------
  86:Middlewares/Third_Party/FreeRTOS/Source/portable/GCC/ARM_CM4F/portmacro.h ****  */
  87:Middlewares/Third_Party/FreeRTOS/Source/portable/GCC/ARM_CM4F/portmacro.h **** 
  88:Middlewares/Third_Party/FreeRTOS/Source/portable/GCC/ARM_CM4F/portmacro.h **** /* Type definitions. */
  89:Middlewares/Third_Party/FreeRTOS/Source/portable/GCC/ARM_CM4F/portmacro.h **** #define portCHAR		char
ARM GAS  /tmp/cclcvJlT.s 			page 10


  90:Middlewares/Third_Party/FreeRTOS/Source/portable/GCC/ARM_CM4F/portmacro.h **** #define portFLOAT		float
  91:Middlewares/Third_Party/FreeRTOS/Source/portable/GCC/ARM_CM4F/portmacro.h **** #define portDOUBLE		double
  92:Middlewares/Third_Party/FreeRTOS/Source/portable/GCC/ARM_CM4F/portmacro.h **** #define portLONG		long
  93:Middlewares/Third_Party/FreeRTOS/Source/portable/GCC/ARM_CM4F/portmacro.h **** #define portSHORT		short
  94:Middlewares/Third_Party/FreeRTOS/Source/portable/GCC/ARM_CM4F/portmacro.h **** #define portSTACK_TYPE	uint32_t
  95:Middlewares/Third_Party/FreeRTOS/Source/portable/GCC/ARM_CM4F/portmacro.h **** #define portBASE_TYPE	long
  96:Middlewares/Third_Party/FreeRTOS/Source/portable/GCC/ARM_CM4F/portmacro.h **** 
  97:Middlewares/Third_Party/FreeRTOS/Source/portable/GCC/ARM_CM4F/portmacro.h **** typedef portSTACK_TYPE StackType_t;
  98:Middlewares/Third_Party/FreeRTOS/Source/portable/GCC/ARM_CM4F/portmacro.h **** typedef long BaseType_t;
  99:Middlewares/Third_Party/FreeRTOS/Source/portable/GCC/ARM_CM4F/portmacro.h **** typedef unsigned long UBaseType_t;
 100:Middlewares/Third_Party/FreeRTOS/Source/portable/GCC/ARM_CM4F/portmacro.h **** 
 101:Middlewares/Third_Party/FreeRTOS/Source/portable/GCC/ARM_CM4F/portmacro.h **** #if( configUSE_16_BIT_TICKS == 1 )
 102:Middlewares/Third_Party/FreeRTOS/Source/portable/GCC/ARM_CM4F/portmacro.h **** 	typedef uint16_t TickType_t;
 103:Middlewares/Third_Party/FreeRTOS/Source/portable/GCC/ARM_CM4F/portmacro.h **** 	#define portMAX_DELAY ( TickType_t ) 0xffff
 104:Middlewares/Third_Party/FreeRTOS/Source/portable/GCC/ARM_CM4F/portmacro.h **** #else
 105:Middlewares/Third_Party/FreeRTOS/Source/portable/GCC/ARM_CM4F/portmacro.h **** 	typedef uint32_t TickType_t;
 106:Middlewares/Third_Party/FreeRTOS/Source/portable/GCC/ARM_CM4F/portmacro.h **** 	#define portMAX_DELAY ( TickType_t ) 0xffffffffUL
 107:Middlewares/Third_Party/FreeRTOS/Source/portable/GCC/ARM_CM4F/portmacro.h **** 
 108:Middlewares/Third_Party/FreeRTOS/Source/portable/GCC/ARM_CM4F/portmacro.h **** 	/* 32-bit tick type on a 32-bit architecture, so reads of the tick count do
 109:Middlewares/Third_Party/FreeRTOS/Source/portable/GCC/ARM_CM4F/portmacro.h **** 	not need to be guarded with a critical section. */
 110:Middlewares/Third_Party/FreeRTOS/Source/portable/GCC/ARM_CM4F/portmacro.h **** 	#define portTICK_TYPE_IS_ATOMIC 1
 111:Middlewares/Third_Party/FreeRTOS/Source/portable/GCC/ARM_CM4F/portmacro.h **** #endif
 112:Middlewares/Third_Party/FreeRTOS/Source/portable/GCC/ARM_CM4F/portmacro.h **** /*-----------------------------------------------------------*/
 113:Middlewares/Third_Party/FreeRTOS/Source/portable/GCC/ARM_CM4F/portmacro.h **** 
 114:Middlewares/Third_Party/FreeRTOS/Source/portable/GCC/ARM_CM4F/portmacro.h **** /* Architecture specifics. */
 115:Middlewares/Third_Party/FreeRTOS/Source/portable/GCC/ARM_CM4F/portmacro.h **** #define portSTACK_GROWTH			( -1 )
 116:Middlewares/Third_Party/FreeRTOS/Source/portable/GCC/ARM_CM4F/portmacro.h **** #define portTICK_PERIOD_MS			( ( TickType_t ) 1000 / configTICK_RATE_HZ )
 117:Middlewares/Third_Party/FreeRTOS/Source/portable/GCC/ARM_CM4F/portmacro.h **** #define portBYTE_ALIGNMENT			8
 118:Middlewares/Third_Party/FreeRTOS/Source/portable/GCC/ARM_CM4F/portmacro.h **** /*-----------------------------------------------------------*/
 119:Middlewares/Third_Party/FreeRTOS/Source/portable/GCC/ARM_CM4F/portmacro.h **** 
 120:Middlewares/Third_Party/FreeRTOS/Source/portable/GCC/ARM_CM4F/portmacro.h **** /* Scheduler utilities. */
 121:Middlewares/Third_Party/FreeRTOS/Source/portable/GCC/ARM_CM4F/portmacro.h **** #define portYIELD() 															\
 122:Middlewares/Third_Party/FreeRTOS/Source/portable/GCC/ARM_CM4F/portmacro.h **** {																				\
 123:Middlewares/Third_Party/FreeRTOS/Source/portable/GCC/ARM_CM4F/portmacro.h **** 	/* Set a PendSV to request a context switch. */								\
 124:Middlewares/Third_Party/FreeRTOS/Source/portable/GCC/ARM_CM4F/portmacro.h **** 	portNVIC_INT_CTRL_REG = portNVIC_PENDSVSET_BIT;								\
 125:Middlewares/Third_Party/FreeRTOS/Source/portable/GCC/ARM_CM4F/portmacro.h **** 																				\
 126:Middlewares/Third_Party/FreeRTOS/Source/portable/GCC/ARM_CM4F/portmacro.h **** 	/* Barriers are normally not required but do ensure the code is completely	\
 127:Middlewares/Third_Party/FreeRTOS/Source/portable/GCC/ARM_CM4F/portmacro.h **** 	within the specified behaviour for the architecture. */						\
 128:Middlewares/Third_Party/FreeRTOS/Source/portable/GCC/ARM_CM4F/portmacro.h **** 	__asm volatile( "dsb" );													\
 129:Middlewares/Third_Party/FreeRTOS/Source/portable/GCC/ARM_CM4F/portmacro.h **** 	__asm volatile( "isb" );													\
 130:Middlewares/Third_Party/FreeRTOS/Source/portable/GCC/ARM_CM4F/portmacro.h **** }
 131:Middlewares/Third_Party/FreeRTOS/Source/portable/GCC/ARM_CM4F/portmacro.h **** 
 132:Middlewares/Third_Party/FreeRTOS/Source/portable/GCC/ARM_CM4F/portmacro.h **** #define portNVIC_INT_CTRL_REG		( * ( ( volatile uint32_t * ) 0xe000ed04 ) )
 133:Middlewares/Third_Party/FreeRTOS/Source/portable/GCC/ARM_CM4F/portmacro.h **** #define portNVIC_PENDSVSET_BIT		( 1UL << 28UL )
 134:Middlewares/Third_Party/FreeRTOS/Source/portable/GCC/ARM_CM4F/portmacro.h **** #define portEND_SWITCHING_ISR( xSwitchRequired ) if( xSwitchRequired != pdFALSE ) portYIELD()
 135:Middlewares/Third_Party/FreeRTOS/Source/portable/GCC/ARM_CM4F/portmacro.h **** #define portYIELD_FROM_ISR( x ) portEND_SWITCHING_ISR( x )
 136:Middlewares/Third_Party/FreeRTOS/Source/portable/GCC/ARM_CM4F/portmacro.h **** /*-----------------------------------------------------------*/
 137:Middlewares/Third_Party/FreeRTOS/Source/portable/GCC/ARM_CM4F/portmacro.h **** 
 138:Middlewares/Third_Party/FreeRTOS/Source/portable/GCC/ARM_CM4F/portmacro.h **** /* Critical section management. */
 139:Middlewares/Third_Party/FreeRTOS/Source/portable/GCC/ARM_CM4F/portmacro.h **** extern void vPortEnterCritical( void );
 140:Middlewares/Third_Party/FreeRTOS/Source/portable/GCC/ARM_CM4F/portmacro.h **** extern void vPortExitCritical( void );
 141:Middlewares/Third_Party/FreeRTOS/Source/portable/GCC/ARM_CM4F/portmacro.h **** #define portSET_INTERRUPT_MASK_FROM_ISR()		ulPortRaiseBASEPRI()
 142:Middlewares/Third_Party/FreeRTOS/Source/portable/GCC/ARM_CM4F/portmacro.h **** #define portCLEAR_INTERRUPT_MASK_FROM_ISR(x)	vPortSetBASEPRI(x)
 143:Middlewares/Third_Party/FreeRTOS/Source/portable/GCC/ARM_CM4F/portmacro.h **** #define portDISABLE_INTERRUPTS()				vPortRaiseBASEPRI()
 144:Middlewares/Third_Party/FreeRTOS/Source/portable/GCC/ARM_CM4F/portmacro.h **** #define portENABLE_INTERRUPTS()					vPortSetBASEPRI(0)
 145:Middlewares/Third_Party/FreeRTOS/Source/portable/GCC/ARM_CM4F/portmacro.h **** #define portENTER_CRITICAL()					vPortEnterCritical()
 146:Middlewares/Third_Party/FreeRTOS/Source/portable/GCC/ARM_CM4F/portmacro.h **** #define portEXIT_CRITICAL()						vPortExitCritical()
ARM GAS  /tmp/cclcvJlT.s 			page 11


 147:Middlewares/Third_Party/FreeRTOS/Source/portable/GCC/ARM_CM4F/portmacro.h **** 
 148:Middlewares/Third_Party/FreeRTOS/Source/portable/GCC/ARM_CM4F/portmacro.h **** /*-----------------------------------------------------------*/
 149:Middlewares/Third_Party/FreeRTOS/Source/portable/GCC/ARM_CM4F/portmacro.h **** 
 150:Middlewares/Third_Party/FreeRTOS/Source/portable/GCC/ARM_CM4F/portmacro.h **** /* Task function macros as described on the FreeRTOS.org WEB site.  These are
 151:Middlewares/Third_Party/FreeRTOS/Source/portable/GCC/ARM_CM4F/portmacro.h **** not necessary for to use this port.  They are defined so the common demo files
 152:Middlewares/Third_Party/FreeRTOS/Source/portable/GCC/ARM_CM4F/portmacro.h **** (which build with all the ports) will build. */
 153:Middlewares/Third_Party/FreeRTOS/Source/portable/GCC/ARM_CM4F/portmacro.h **** #define portTASK_FUNCTION_PROTO( vFunction, pvParameters ) void vFunction( void *pvParameters )
 154:Middlewares/Third_Party/FreeRTOS/Source/portable/GCC/ARM_CM4F/portmacro.h **** #define portTASK_FUNCTION( vFunction, pvParameters ) void vFunction( void *pvParameters )
 155:Middlewares/Third_Party/FreeRTOS/Source/portable/GCC/ARM_CM4F/portmacro.h **** /*-----------------------------------------------------------*/
 156:Middlewares/Third_Party/FreeRTOS/Source/portable/GCC/ARM_CM4F/portmacro.h **** 
 157:Middlewares/Third_Party/FreeRTOS/Source/portable/GCC/ARM_CM4F/portmacro.h **** /* Tickless idle/low power functionality. */
 158:Middlewares/Third_Party/FreeRTOS/Source/portable/GCC/ARM_CM4F/portmacro.h **** #ifndef portSUPPRESS_TICKS_AND_SLEEP
 159:Middlewares/Third_Party/FreeRTOS/Source/portable/GCC/ARM_CM4F/portmacro.h **** 	extern void vPortSuppressTicksAndSleep( TickType_t xExpectedIdleTime );
 160:Middlewares/Third_Party/FreeRTOS/Source/portable/GCC/ARM_CM4F/portmacro.h **** 	#define portSUPPRESS_TICKS_AND_SLEEP( xExpectedIdleTime ) vPortSuppressTicksAndSleep( xExpectedIdl
 161:Middlewares/Third_Party/FreeRTOS/Source/portable/GCC/ARM_CM4F/portmacro.h **** #endif
 162:Middlewares/Third_Party/FreeRTOS/Source/portable/GCC/ARM_CM4F/portmacro.h **** /*-----------------------------------------------------------*/
 163:Middlewares/Third_Party/FreeRTOS/Source/portable/GCC/ARM_CM4F/portmacro.h **** 
 164:Middlewares/Third_Party/FreeRTOS/Source/portable/GCC/ARM_CM4F/portmacro.h **** /* Architecture specific optimisations. */
 165:Middlewares/Third_Party/FreeRTOS/Source/portable/GCC/ARM_CM4F/portmacro.h **** #ifndef configUSE_PORT_OPTIMISED_TASK_SELECTION
 166:Middlewares/Third_Party/FreeRTOS/Source/portable/GCC/ARM_CM4F/portmacro.h **** 	#define configUSE_PORT_OPTIMISED_TASK_SELECTION 1
 167:Middlewares/Third_Party/FreeRTOS/Source/portable/GCC/ARM_CM4F/portmacro.h **** #endif
 168:Middlewares/Third_Party/FreeRTOS/Source/portable/GCC/ARM_CM4F/portmacro.h **** 
 169:Middlewares/Third_Party/FreeRTOS/Source/portable/GCC/ARM_CM4F/portmacro.h **** #if configUSE_PORT_OPTIMISED_TASK_SELECTION == 1
 170:Middlewares/Third_Party/FreeRTOS/Source/portable/GCC/ARM_CM4F/portmacro.h **** 
 171:Middlewares/Third_Party/FreeRTOS/Source/portable/GCC/ARM_CM4F/portmacro.h **** 	/* Generic helper function. */
 172:Middlewares/Third_Party/FreeRTOS/Source/portable/GCC/ARM_CM4F/portmacro.h **** 	__attribute__( ( always_inline ) ) static inline uint8_t ucPortCountLeadingZeros( uint32_t ulBitma
 173:Middlewares/Third_Party/FreeRTOS/Source/portable/GCC/ARM_CM4F/portmacro.h **** 	{
 174:Middlewares/Third_Party/FreeRTOS/Source/portable/GCC/ARM_CM4F/portmacro.h **** 	uint8_t ucReturn;
 175:Middlewares/Third_Party/FreeRTOS/Source/portable/GCC/ARM_CM4F/portmacro.h **** 
 176:Middlewares/Third_Party/FreeRTOS/Source/portable/GCC/ARM_CM4F/portmacro.h **** 		__asm volatile ( "clz %0, %1" : "=r" ( ucReturn ) : "r" ( ulBitmap ) );
 177:Middlewares/Third_Party/FreeRTOS/Source/portable/GCC/ARM_CM4F/portmacro.h **** 		return ucReturn;
 178:Middlewares/Third_Party/FreeRTOS/Source/portable/GCC/ARM_CM4F/portmacro.h **** 	}
 179:Middlewares/Third_Party/FreeRTOS/Source/portable/GCC/ARM_CM4F/portmacro.h **** 
 180:Middlewares/Third_Party/FreeRTOS/Source/portable/GCC/ARM_CM4F/portmacro.h **** 	/* Check the configuration. */
 181:Middlewares/Third_Party/FreeRTOS/Source/portable/GCC/ARM_CM4F/portmacro.h **** 	#if( configMAX_PRIORITIES > 32 )
 182:Middlewares/Third_Party/FreeRTOS/Source/portable/GCC/ARM_CM4F/portmacro.h **** 		#error configUSE_PORT_OPTIMISED_TASK_SELECTION can only be set to 1 when configMAX_PRIORITIES is 
 183:Middlewares/Third_Party/FreeRTOS/Source/portable/GCC/ARM_CM4F/portmacro.h **** 	#endif
 184:Middlewares/Third_Party/FreeRTOS/Source/portable/GCC/ARM_CM4F/portmacro.h **** 
 185:Middlewares/Third_Party/FreeRTOS/Source/portable/GCC/ARM_CM4F/portmacro.h **** 	/* Store/clear the ready priorities in a bit map. */
 186:Middlewares/Third_Party/FreeRTOS/Source/portable/GCC/ARM_CM4F/portmacro.h **** 	#define portRECORD_READY_PRIORITY( uxPriority, uxReadyPriorities ) ( uxReadyPriorities ) |= ( 1UL 
 187:Middlewares/Third_Party/FreeRTOS/Source/portable/GCC/ARM_CM4F/portmacro.h **** 	#define portRESET_READY_PRIORITY( uxPriority, uxReadyPriorities ) ( uxReadyPriorities ) &= ~( 1UL 
 188:Middlewares/Third_Party/FreeRTOS/Source/portable/GCC/ARM_CM4F/portmacro.h **** 
 189:Middlewares/Third_Party/FreeRTOS/Source/portable/GCC/ARM_CM4F/portmacro.h **** 	/*-----------------------------------------------------------*/
 190:Middlewares/Third_Party/FreeRTOS/Source/portable/GCC/ARM_CM4F/portmacro.h **** 
 191:Middlewares/Third_Party/FreeRTOS/Source/portable/GCC/ARM_CM4F/portmacro.h **** 	#define portGET_HIGHEST_PRIORITY( uxTopPriority, uxReadyPriorities ) uxTopPriority = ( 31UL - ( ui
 192:Middlewares/Third_Party/FreeRTOS/Source/portable/GCC/ARM_CM4F/portmacro.h **** 
 193:Middlewares/Third_Party/FreeRTOS/Source/portable/GCC/ARM_CM4F/portmacro.h **** #endif /* configUSE_PORT_OPTIMISED_TASK_SELECTION */
 194:Middlewares/Third_Party/FreeRTOS/Source/portable/GCC/ARM_CM4F/portmacro.h **** 
 195:Middlewares/Third_Party/FreeRTOS/Source/portable/GCC/ARM_CM4F/portmacro.h **** /*-----------------------------------------------------------*/
 196:Middlewares/Third_Party/FreeRTOS/Source/portable/GCC/ARM_CM4F/portmacro.h **** 
 197:Middlewares/Third_Party/FreeRTOS/Source/portable/GCC/ARM_CM4F/portmacro.h **** #ifdef configASSERT
 198:Middlewares/Third_Party/FreeRTOS/Source/portable/GCC/ARM_CM4F/portmacro.h **** 	void vPortValidateInterruptPriority( void );
 199:Middlewares/Third_Party/FreeRTOS/Source/portable/GCC/ARM_CM4F/portmacro.h **** 	#define portASSERT_IF_INTERRUPT_PRIORITY_INVALID() 	vPortValidateInterruptPriority()
 200:Middlewares/Third_Party/FreeRTOS/Source/portable/GCC/ARM_CM4F/portmacro.h **** #endif
 201:Middlewares/Third_Party/FreeRTOS/Source/portable/GCC/ARM_CM4F/portmacro.h **** 
 202:Middlewares/Third_Party/FreeRTOS/Source/portable/GCC/ARM_CM4F/portmacro.h **** /* portNOP() is not required by this port. */
 203:Middlewares/Third_Party/FreeRTOS/Source/portable/GCC/ARM_CM4F/portmacro.h **** #define portNOP()
ARM GAS  /tmp/cclcvJlT.s 			page 12


 204:Middlewares/Third_Party/FreeRTOS/Source/portable/GCC/ARM_CM4F/portmacro.h **** 
 205:Middlewares/Third_Party/FreeRTOS/Source/portable/GCC/ARM_CM4F/portmacro.h **** #define portINLINE	__inline
 206:Middlewares/Third_Party/FreeRTOS/Source/portable/GCC/ARM_CM4F/portmacro.h **** 
 207:Middlewares/Third_Party/FreeRTOS/Source/portable/GCC/ARM_CM4F/portmacro.h **** #ifndef portFORCE_INLINE
 208:Middlewares/Third_Party/FreeRTOS/Source/portable/GCC/ARM_CM4F/portmacro.h **** 	#define portFORCE_INLINE inline __attribute__(( always_inline))
 209:Middlewares/Third_Party/FreeRTOS/Source/portable/GCC/ARM_CM4F/portmacro.h **** #endif
 210:Middlewares/Third_Party/FreeRTOS/Source/portable/GCC/ARM_CM4F/portmacro.h **** 
 211:Middlewares/Third_Party/FreeRTOS/Source/portable/GCC/ARM_CM4F/portmacro.h **** portFORCE_INLINE static BaseType_t xPortIsInsideInterrupt( void )
 212:Middlewares/Third_Party/FreeRTOS/Source/portable/GCC/ARM_CM4F/portmacro.h **** {
 213:Middlewares/Third_Party/FreeRTOS/Source/portable/GCC/ARM_CM4F/portmacro.h **** uint32_t ulCurrentInterrupt;
 214:Middlewares/Third_Party/FreeRTOS/Source/portable/GCC/ARM_CM4F/portmacro.h **** BaseType_t xReturn;
 215:Middlewares/Third_Party/FreeRTOS/Source/portable/GCC/ARM_CM4F/portmacro.h **** 
 216:Middlewares/Third_Party/FreeRTOS/Source/portable/GCC/ARM_CM4F/portmacro.h **** 	/* Obtain the number of the currently executing interrupt. */
 217:Middlewares/Third_Party/FreeRTOS/Source/portable/GCC/ARM_CM4F/portmacro.h **** 	__asm volatile( "mrs %0, ipsr" : "=r"( ulCurrentInterrupt ) );
 218:Middlewares/Third_Party/FreeRTOS/Source/portable/GCC/ARM_CM4F/portmacro.h **** 
 219:Middlewares/Third_Party/FreeRTOS/Source/portable/GCC/ARM_CM4F/portmacro.h **** 	if( ulCurrentInterrupt == 0 )
 220:Middlewares/Third_Party/FreeRTOS/Source/portable/GCC/ARM_CM4F/portmacro.h **** 	{
 221:Middlewares/Third_Party/FreeRTOS/Source/portable/GCC/ARM_CM4F/portmacro.h **** 		xReturn = pdFALSE;
 222:Middlewares/Third_Party/FreeRTOS/Source/portable/GCC/ARM_CM4F/portmacro.h **** 	}
 223:Middlewares/Third_Party/FreeRTOS/Source/portable/GCC/ARM_CM4F/portmacro.h **** 	else
 224:Middlewares/Third_Party/FreeRTOS/Source/portable/GCC/ARM_CM4F/portmacro.h **** 	{
 225:Middlewares/Third_Party/FreeRTOS/Source/portable/GCC/ARM_CM4F/portmacro.h **** 		xReturn = pdTRUE;
 226:Middlewares/Third_Party/FreeRTOS/Source/portable/GCC/ARM_CM4F/portmacro.h **** 	}
 227:Middlewares/Third_Party/FreeRTOS/Source/portable/GCC/ARM_CM4F/portmacro.h **** 
 228:Middlewares/Third_Party/FreeRTOS/Source/portable/GCC/ARM_CM4F/portmacro.h **** 	return xReturn;
 229:Middlewares/Third_Party/FreeRTOS/Source/portable/GCC/ARM_CM4F/portmacro.h **** }
 230:Middlewares/Third_Party/FreeRTOS/Source/portable/GCC/ARM_CM4F/portmacro.h **** 
 231:Middlewares/Third_Party/FreeRTOS/Source/portable/GCC/ARM_CM4F/portmacro.h **** /*-----------------------------------------------------------*/
 232:Middlewares/Third_Party/FreeRTOS/Source/portable/GCC/ARM_CM4F/portmacro.h **** 
 233:Middlewares/Third_Party/FreeRTOS/Source/portable/GCC/ARM_CM4F/portmacro.h **** portFORCE_INLINE static void vPortRaiseBASEPRI( void )
 234:Middlewares/Third_Party/FreeRTOS/Source/portable/GCC/ARM_CM4F/portmacro.h **** {
 235:Middlewares/Third_Party/FreeRTOS/Source/portable/GCC/ARM_CM4F/portmacro.h **** uint32_t ulNewBASEPRI;
 236:Middlewares/Third_Party/FreeRTOS/Source/portable/GCC/ARM_CM4F/portmacro.h **** 
 237:Middlewares/Third_Party/FreeRTOS/Source/portable/GCC/ARM_CM4F/portmacro.h **** 	__asm volatile
 169              		.loc 2 237 0 discriminator 1
 170              		.syntax unified
 171              	@ 237 "Middlewares/Third_Party/FreeRTOS/Source/portable/GCC/ARM_CM4F/portmacro.h" 1
 172 0010 4FF05003 			mov r3, #80												
 173 0014 83F31188 		msr basepri, r3											
 174 0018 BFF36F8F 		isb														
 175 001c BFF34F8F 		dsb														
 176              	
 177              	@ 0 "" 2
 178              		.thumb
 179              		.syntax unified
 180 0020 7B60     		str	r3, [r7, #4]
 181              	.L7:
 182              	.LBE30:
 183              	.LBE29:
 184              		.loc 1 267 0 discriminator 1
 185 0022 FEE7     		b	.L7
 186              	.L6:
 187              	.LBB31:
 188              	.LBB32:
 189              		.loc 2 237 0
 190              		.syntax unified
 191              	@ 237 "Middlewares/Third_Party/FreeRTOS/Source/portable/GCC/ARM_CM4F/portmacro.h" 1
ARM GAS  /tmp/cclcvJlT.s 			page 13


 192 0024 4FF05003 			mov r3, #80												
 193 0028 83F31188 		msr basepri, r3											
 194 002c BFF36F8F 		isb														
 195 0030 BFF34F8F 		dsb														
 196              	
 197              	@ 0 "" 2
 198              		.thumb
 199              		.syntax unified
 200 0034 3B60     		str	r3, [r7]
 201              	.L8:
 202              	.LBE32:
 203              	.LBE31:
 268:Middlewares/Third_Party/FreeRTOS/Source/portable/GCC/ARM_CM4F/port.c **** 	portDISABLE_INTERRUPTS();
 269:Middlewares/Third_Party/FreeRTOS/Source/portable/GCC/ARM_CM4F/port.c **** 	for( ;; );
 204              		.loc 1 269 0 discriminator 2
 205 0036 FEE7     		b	.L8
 206              	.L10:
 207              		.align	2
 208              	.L9:
 209 0038 00000000 		.word	uxCriticalNesting
 210              		.cfi_endproc
 211              	.LFE6:
 213              		.section	.text.SVC_Handler,"ax",%progbits
 214              		.align	1
 215              		.global	SVC_Handler
 216              		.syntax unified
 217              		.thumb
 218              		.thumb_func
 219              		.fpu fpv4-sp-d16
 221              	SVC_Handler:
 222              	.LFB7:
 270:Middlewares/Third_Party/FreeRTOS/Source/portable/GCC/ARM_CM4F/port.c **** }
 271:Middlewares/Third_Party/FreeRTOS/Source/portable/GCC/ARM_CM4F/port.c **** /*-----------------------------------------------------------*/
 272:Middlewares/Third_Party/FreeRTOS/Source/portable/GCC/ARM_CM4F/port.c **** 
 273:Middlewares/Third_Party/FreeRTOS/Source/portable/GCC/ARM_CM4F/port.c **** void vPortSVCHandler( void )
 274:Middlewares/Third_Party/FreeRTOS/Source/portable/GCC/ARM_CM4F/port.c **** {
 223              		.loc 1 274 0
 224              		.cfi_startproc
 225              		@ Naked Function: prologue and epilogue provided by programmer.
 226              		@ args = 0, pretend = 0, frame = 0
 227              		@ frame_needed = 1, uses_anonymous_args = 0
 275:Middlewares/Third_Party/FreeRTOS/Source/portable/GCC/ARM_CM4F/port.c **** 	__asm volatile (
 228              		.loc 1 275 0
 229              		.syntax unified
 230              	@ 275 "Middlewares/Third_Party/FreeRTOS/Source/portable/GCC/ARM_CM4F/port.c" 1
 231 0000 074B     			ldr	r3, pxCurrentTCBConst2		
 232 0002 1968     		ldr r1, [r3]					
 233 0004 0868     		ldr r0, [r1]					
 234 0006 B0E8F04F 		ldmia r0!, {r4-r11, r14}		
 235 000a 80F30988 		msr psp, r0						
 236 000e BFF36F8F 		isb								
 237 0012 4FF00000 		mov r0, #0 						
 238 0016 80F31188 		msr	basepri, r0					
 239 001a 7047     		bx r14							
 240              										
 241 001c AFF30080 		.align 4						
 242 0020 00000000 	pxCurrentTCBConst2: .word pxCurrentTCB				
ARM GAS  /tmp/cclcvJlT.s 			page 14


 243              	
 244              	@ 0 "" 2
 276:Middlewares/Third_Party/FreeRTOS/Source/portable/GCC/ARM_CM4F/port.c **** 					"	ldr	r3, pxCurrentTCBConst2		\n" /* Restore the context. */
 277:Middlewares/Third_Party/FreeRTOS/Source/portable/GCC/ARM_CM4F/port.c **** 					"	ldr r1, [r3]					\n" /* Use pxCurrentTCBConst to get the pxCurrentTCB address. */
 278:Middlewares/Third_Party/FreeRTOS/Source/portable/GCC/ARM_CM4F/port.c **** 					"	ldr r0, [r1]					\n" /* The first item in pxCurrentTCB is the task top of stack. */
 279:Middlewares/Third_Party/FreeRTOS/Source/portable/GCC/ARM_CM4F/port.c **** 					"	ldmia r0!, {r4-r11, r14}		\n" /* Pop the registers that are not automatically saved on excep
 280:Middlewares/Third_Party/FreeRTOS/Source/portable/GCC/ARM_CM4F/port.c **** 					"	msr psp, r0						\n" /* Restore the task stack pointer. */
 281:Middlewares/Third_Party/FreeRTOS/Source/portable/GCC/ARM_CM4F/port.c **** 					"	isb								\n"
 282:Middlewares/Third_Party/FreeRTOS/Source/portable/GCC/ARM_CM4F/port.c **** 					"	mov r0, #0 						\n"
 283:Middlewares/Third_Party/FreeRTOS/Source/portable/GCC/ARM_CM4F/port.c **** 					"	msr	basepri, r0					\n"
 284:Middlewares/Third_Party/FreeRTOS/Source/portable/GCC/ARM_CM4F/port.c **** 					"	bx r14							\n"
 285:Middlewares/Third_Party/FreeRTOS/Source/portable/GCC/ARM_CM4F/port.c **** 					"									\n"
 286:Middlewares/Third_Party/FreeRTOS/Source/portable/GCC/ARM_CM4F/port.c **** 					"	.align 4						\n"
 287:Middlewares/Third_Party/FreeRTOS/Source/portable/GCC/ARM_CM4F/port.c **** 					"pxCurrentTCBConst2: .word pxCurrentTCB				\n"
 288:Middlewares/Third_Party/FreeRTOS/Source/portable/GCC/ARM_CM4F/port.c **** 				);
 289:Middlewares/Third_Party/FreeRTOS/Source/portable/GCC/ARM_CM4F/port.c **** }
 245              		.loc 1 289 0
 246              		.thumb
 247              		.syntax unified
 248 0024 00BF     		nop
 249              		.cfi_endproc
 250              	.LFE7:
 252 0026 00BF     		.section	.text.prvPortStartFirstTask,"ax",%progbits
 253              		.align	1
 254              		.syntax unified
 255              		.thumb
 256              		.thumb_func
 257              		.fpu fpv4-sp-d16
 259              	prvPortStartFirstTask:
 260              	.LFB8:
 290:Middlewares/Third_Party/FreeRTOS/Source/portable/GCC/ARM_CM4F/port.c **** /*-----------------------------------------------------------*/
 291:Middlewares/Third_Party/FreeRTOS/Source/portable/GCC/ARM_CM4F/port.c **** 
 292:Middlewares/Third_Party/FreeRTOS/Source/portable/GCC/ARM_CM4F/port.c **** static void prvPortStartFirstTask( void )
 293:Middlewares/Third_Party/FreeRTOS/Source/portable/GCC/ARM_CM4F/port.c **** {
 261              		.loc 1 293 0
 262              		.cfi_startproc
 263              		@ Naked Function: prologue and epilogue provided by programmer.
 264              		@ args = 0, pretend = 0, frame = 0
 265              		@ frame_needed = 1, uses_anonymous_args = 0
 294:Middlewares/Third_Party/FreeRTOS/Source/portable/GCC/ARM_CM4F/port.c **** 	__asm volatile(
 266              		.loc 1 294 0
 267              		.syntax unified
 268              	@ 294 "Middlewares/Third_Party/FreeRTOS/Source/portable/GCC/ARM_CM4F/port.c" 1
 269 0000 0648     		 ldr r0, =0xE000ED08 	
 270 0002 0068     	 ldr r0, [r0] 			
 271 0004 0068     	 ldr r0, [r0] 			
 272 0006 80F30888 	 msr msp, r0			
 273 000a 62B6     	 cpsie i				
 274 000c 61B6     	 cpsie f				
 275 000e BFF34F8F 	 dsb					
 276 0012 BFF36F8F 	 isb					
 277 0016 00DF     	 svc 0					
 278 0018 00BF     	 nop					
 279              	
 280              	@ 0 "" 2
 295:Middlewares/Third_Party/FreeRTOS/Source/portable/GCC/ARM_CM4F/port.c **** 					" ldr r0, =0xE000ED08 	\n" /* Use the NVIC offset register to locate the stack. */
 296:Middlewares/Third_Party/FreeRTOS/Source/portable/GCC/ARM_CM4F/port.c **** 					" ldr r0, [r0] 			\n"
ARM GAS  /tmp/cclcvJlT.s 			page 15


 297:Middlewares/Third_Party/FreeRTOS/Source/portable/GCC/ARM_CM4F/port.c **** 					" ldr r0, [r0] 			\n"
 298:Middlewares/Third_Party/FreeRTOS/Source/portable/GCC/ARM_CM4F/port.c **** 					" msr msp, r0			\n" /* Set the msp back to the start of the stack. */
 299:Middlewares/Third_Party/FreeRTOS/Source/portable/GCC/ARM_CM4F/port.c **** 					" cpsie i				\n" /* Globally enable interrupts. */
 300:Middlewares/Third_Party/FreeRTOS/Source/portable/GCC/ARM_CM4F/port.c **** 					" cpsie f				\n"
 301:Middlewares/Third_Party/FreeRTOS/Source/portable/GCC/ARM_CM4F/port.c **** 					" dsb					\n"
 302:Middlewares/Third_Party/FreeRTOS/Source/portable/GCC/ARM_CM4F/port.c **** 					" isb					\n"
 303:Middlewares/Third_Party/FreeRTOS/Source/portable/GCC/ARM_CM4F/port.c **** 					" svc 0					\n" /* System call to start first task. */
 304:Middlewares/Third_Party/FreeRTOS/Source/portable/GCC/ARM_CM4F/port.c **** 					" nop					\n"
 305:Middlewares/Third_Party/FreeRTOS/Source/portable/GCC/ARM_CM4F/port.c **** 				);
 306:Middlewares/Third_Party/FreeRTOS/Source/portable/GCC/ARM_CM4F/port.c **** }
 281              		.loc 1 306 0
 282              		.thumb
 283              		.syntax unified
 284 001a 00BF     		nop
 285              		.cfi_endproc
 286              	.LFE8:
 288              		.section	.text.xPortStartScheduler,"ax",%progbits
 289              		.align	1
 290              		.global	xPortStartScheduler
 291              		.syntax unified
 292              		.thumb
 293              		.thumb_func
 294              		.fpu fpv4-sp-d16
 296              	xPortStartScheduler:
 297              	.LFB9:
 307:Middlewares/Third_Party/FreeRTOS/Source/portable/GCC/ARM_CM4F/port.c **** /*-----------------------------------------------------------*/
 308:Middlewares/Third_Party/FreeRTOS/Source/portable/GCC/ARM_CM4F/port.c **** 
 309:Middlewares/Third_Party/FreeRTOS/Source/portable/GCC/ARM_CM4F/port.c **** /*
 310:Middlewares/Third_Party/FreeRTOS/Source/portable/GCC/ARM_CM4F/port.c ****  * See header file for description.
 311:Middlewares/Third_Party/FreeRTOS/Source/portable/GCC/ARM_CM4F/port.c ****  */
 312:Middlewares/Third_Party/FreeRTOS/Source/portable/GCC/ARM_CM4F/port.c **** BaseType_t xPortStartScheduler( void )
 313:Middlewares/Third_Party/FreeRTOS/Source/portable/GCC/ARM_CM4F/port.c **** {
 298              		.loc 1 313 0
 299              		.cfi_startproc
 300              		@ args = 0, pretend = 0, frame = 24
 301              		@ frame_needed = 1, uses_anonymous_args = 0
 302 0000 80B5     		push	{r7, lr}
 303              	.LCFI9:
 304              		.cfi_def_cfa_offset 8
 305              		.cfi_offset 7, -8
 306              		.cfi_offset 14, -4
 307 0002 86B0     		sub	sp, sp, #24
 308              	.LCFI10:
 309              		.cfi_def_cfa_offset 32
 310 0004 00AF     		add	r7, sp, #0
 311              	.LCFI11:
 312              		.cfi_def_cfa_register 7
 314:Middlewares/Third_Party/FreeRTOS/Source/portable/GCC/ARM_CM4F/port.c **** 	/* configMAX_SYSCALL_INTERRUPT_PRIORITY must not be set to 0.
 315:Middlewares/Third_Party/FreeRTOS/Source/portable/GCC/ARM_CM4F/port.c **** 	See http://www.FreeRTOS.org/RTOS-Cortex-M3-M4.html */
 316:Middlewares/Third_Party/FreeRTOS/Source/portable/GCC/ARM_CM4F/port.c **** 	configASSERT( configMAX_SYSCALL_INTERRUPT_PRIORITY );
 317:Middlewares/Third_Party/FreeRTOS/Source/portable/GCC/ARM_CM4F/port.c **** 
 318:Middlewares/Third_Party/FreeRTOS/Source/portable/GCC/ARM_CM4F/port.c **** 	/* This port can be used on all revisions of the Cortex-M7 core other than
 319:Middlewares/Third_Party/FreeRTOS/Source/portable/GCC/ARM_CM4F/port.c **** 	the r0p1 parts.  r0p1 parts should use the port from the
 320:Middlewares/Third_Party/FreeRTOS/Source/portable/GCC/ARM_CM4F/port.c **** 	/source/portable/GCC/ARM_CM7/r0p1 directory. */
 321:Middlewares/Third_Party/FreeRTOS/Source/portable/GCC/ARM_CM4F/port.c **** 	configASSERT( portCPUID != portCORTEX_M7_r0p1_ID );
 313              		.loc 1 321 0
 314 0006 3B4B     		ldr	r3, .L21
ARM GAS  /tmp/cclcvJlT.s 			page 16


 315 0008 1B68     		ldr	r3, [r3]
 316 000a 3B4A     		ldr	r2, .L21+4
 317 000c 9342     		cmp	r3, r2
 318 000e 09D1     		bne	.L14
 319              	.LBB33:
 320              	.LBB34:
 321              		.loc 2 237 0 discriminator 1
 322              		.syntax unified
 323              	@ 237 "Middlewares/Third_Party/FreeRTOS/Source/portable/GCC/ARM_CM4F/portmacro.h" 1
 324 0010 4FF05003 			mov r3, #80												
 325 0014 83F31188 		msr basepri, r3											
 326 0018 BFF36F8F 		isb														
 327 001c BFF34F8F 		dsb														
 328              	
 329              	@ 0 "" 2
 330              		.thumb
 331              		.syntax unified
 332 0020 3B61     		str	r3, [r7, #16]
 333              	.L15:
 334              	.LBE34:
 335              	.LBE33:
 336              		.loc 1 321 0 discriminator 2
 337 0022 FEE7     		b	.L15
 338              	.L14:
 322:Middlewares/Third_Party/FreeRTOS/Source/portable/GCC/ARM_CM4F/port.c **** 	configASSERT( portCPUID != portCORTEX_M7_r0p0_ID );
 339              		.loc 1 322 0
 340 0024 334B     		ldr	r3, .L21
 341 0026 1B68     		ldr	r3, [r3]
 342 0028 344A     		ldr	r2, .L21+8
 343 002a 9342     		cmp	r3, r2
 344 002c 09D1     		bne	.L16
 345              	.LBB35:
 346              	.LBB36:
 347              		.loc 2 237 0 discriminator 1
 348              		.syntax unified
 349              	@ 237 "Middlewares/Third_Party/FreeRTOS/Source/portable/GCC/ARM_CM4F/portmacro.h" 1
 350 002e 4FF05003 			mov r3, #80												
 351 0032 83F31188 		msr basepri, r3											
 352 0036 BFF36F8F 		isb														
 353 003a BFF34F8F 		dsb														
 354              	
 355              	@ 0 "" 2
 356              		.thumb
 357              		.syntax unified
 358 003e FB60     		str	r3, [r7, #12]
 359              	.L17:
 360              	.LBE36:
 361              	.LBE35:
 362              		.loc 1 322 0 discriminator 3
 363 0040 FEE7     		b	.L17
 364              	.L16:
 365              	.LBB37:
 323:Middlewares/Third_Party/FreeRTOS/Source/portable/GCC/ARM_CM4F/port.c **** 
 324:Middlewares/Third_Party/FreeRTOS/Source/portable/GCC/ARM_CM4F/port.c **** 	#if( configASSERT_DEFINED == 1 )
 325:Middlewares/Third_Party/FreeRTOS/Source/portable/GCC/ARM_CM4F/port.c **** 	{
 326:Middlewares/Third_Party/FreeRTOS/Source/portable/GCC/ARM_CM4F/port.c **** 		volatile uint32_t ulOriginalPriority;
 327:Middlewares/Third_Party/FreeRTOS/Source/portable/GCC/ARM_CM4F/port.c **** 		volatile uint8_t * const pucFirstUserPriorityRegister = ( volatile uint8_t * const ) ( portNVIC_I
ARM GAS  /tmp/cclcvJlT.s 			page 17


 366              		.loc 1 327 0
 367 0042 2F4B     		ldr	r3, .L21+12
 368 0044 7B61     		str	r3, [r7, #20]
 328:Middlewares/Third_Party/FreeRTOS/Source/portable/GCC/ARM_CM4F/port.c **** 		volatile uint8_t ucMaxPriorityValue;
 329:Middlewares/Third_Party/FreeRTOS/Source/portable/GCC/ARM_CM4F/port.c **** 
 330:Middlewares/Third_Party/FreeRTOS/Source/portable/GCC/ARM_CM4F/port.c **** 		/* Determine the maximum priority from which ISR safe FreeRTOS API
 331:Middlewares/Third_Party/FreeRTOS/Source/portable/GCC/ARM_CM4F/port.c **** 		functions can be called.  ISR safe functions are those that end in
 332:Middlewares/Third_Party/FreeRTOS/Source/portable/GCC/ARM_CM4F/port.c **** 		"FromISR".  FreeRTOS maintains separate thread and ISR API functions to
 333:Middlewares/Third_Party/FreeRTOS/Source/portable/GCC/ARM_CM4F/port.c **** 		ensure interrupt entry is as fast and simple as possible.
 334:Middlewares/Third_Party/FreeRTOS/Source/portable/GCC/ARM_CM4F/port.c **** 
 335:Middlewares/Third_Party/FreeRTOS/Source/portable/GCC/ARM_CM4F/port.c **** 		Save the interrupt priority value that is about to be clobbered. */
 336:Middlewares/Third_Party/FreeRTOS/Source/portable/GCC/ARM_CM4F/port.c **** 		ulOriginalPriority = *pucFirstUserPriorityRegister;
 369              		.loc 1 336 0
 370 0046 7B69     		ldr	r3, [r7, #20]
 371 0048 1B78     		ldrb	r3, [r3]
 372 004a DBB2     		uxtb	r3, r3
 373 004c BB60     		str	r3, [r7, #8]
 337:Middlewares/Third_Party/FreeRTOS/Source/portable/GCC/ARM_CM4F/port.c **** 
 338:Middlewares/Third_Party/FreeRTOS/Source/portable/GCC/ARM_CM4F/port.c **** 		/* Determine the number of priority bits available.  First write to all
 339:Middlewares/Third_Party/FreeRTOS/Source/portable/GCC/ARM_CM4F/port.c **** 		possible bits. */
 340:Middlewares/Third_Party/FreeRTOS/Source/portable/GCC/ARM_CM4F/port.c **** 		*pucFirstUserPriorityRegister = portMAX_8_BIT_VALUE;
 374              		.loc 1 340 0
 375 004e 7B69     		ldr	r3, [r7, #20]
 376 0050 FF22     		movs	r2, #255
 377 0052 1A70     		strb	r2, [r3]
 341:Middlewares/Third_Party/FreeRTOS/Source/portable/GCC/ARM_CM4F/port.c **** 
 342:Middlewares/Third_Party/FreeRTOS/Source/portable/GCC/ARM_CM4F/port.c **** 		/* Read the value back to see how many bits stuck. */
 343:Middlewares/Third_Party/FreeRTOS/Source/portable/GCC/ARM_CM4F/port.c **** 		ucMaxPriorityValue = *pucFirstUserPriorityRegister;
 378              		.loc 1 343 0
 379 0054 7B69     		ldr	r3, [r7, #20]
 380 0056 1B78     		ldrb	r3, [r3]
 381 0058 DBB2     		uxtb	r3, r3
 382 005a FB71     		strb	r3, [r7, #7]
 344:Middlewares/Third_Party/FreeRTOS/Source/portable/GCC/ARM_CM4F/port.c **** 
 345:Middlewares/Third_Party/FreeRTOS/Source/portable/GCC/ARM_CM4F/port.c **** 		/* Use the same mask on the maximum system call priority. */
 346:Middlewares/Third_Party/FreeRTOS/Source/portable/GCC/ARM_CM4F/port.c **** 		ucMaxSysCallPriority = configMAX_SYSCALL_INTERRUPT_PRIORITY & ucMaxPriorityValue;
 383              		.loc 1 346 0
 384 005c FB79     		ldrb	r3, [r7, #7]
 385 005e DBB2     		uxtb	r3, r3
 386 0060 03F05003 		and	r3, r3, #80
 387 0064 DAB2     		uxtb	r2, r3
 388 0066 274B     		ldr	r3, .L21+16
 389 0068 1A70     		strb	r2, [r3]
 347:Middlewares/Third_Party/FreeRTOS/Source/portable/GCC/ARM_CM4F/port.c **** 
 348:Middlewares/Third_Party/FreeRTOS/Source/portable/GCC/ARM_CM4F/port.c **** 		/* Calculate the maximum acceptable priority group value for the number
 349:Middlewares/Third_Party/FreeRTOS/Source/portable/GCC/ARM_CM4F/port.c **** 		of bits read back. */
 350:Middlewares/Third_Party/FreeRTOS/Source/portable/GCC/ARM_CM4F/port.c **** 		ulMaxPRIGROUPValue = portMAX_PRIGROUP_BITS;
 390              		.loc 1 350 0
 391 006a 274B     		ldr	r3, .L21+20
 392 006c 0722     		movs	r2, #7
 393 006e 1A60     		str	r2, [r3]
 351:Middlewares/Third_Party/FreeRTOS/Source/portable/GCC/ARM_CM4F/port.c **** 		while( ( ucMaxPriorityValue & portTOP_BIT_OF_BYTE ) == portTOP_BIT_OF_BYTE )
 394              		.loc 1 351 0
 395 0070 09E0     		b	.L18
 396              	.L19:
 352:Middlewares/Third_Party/FreeRTOS/Source/portable/GCC/ARM_CM4F/port.c **** 		{
 353:Middlewares/Third_Party/FreeRTOS/Source/portable/GCC/ARM_CM4F/port.c **** 			ulMaxPRIGROUPValue--;
ARM GAS  /tmp/cclcvJlT.s 			page 18


 397              		.loc 1 353 0
 398 0072 254B     		ldr	r3, .L21+20
 399 0074 1B68     		ldr	r3, [r3]
 400 0076 013B     		subs	r3, r3, #1
 401 0078 234A     		ldr	r2, .L21+20
 402 007a 1360     		str	r3, [r2]
 354:Middlewares/Third_Party/FreeRTOS/Source/portable/GCC/ARM_CM4F/port.c **** 			ucMaxPriorityValue <<= ( uint8_t ) 0x01;
 403              		.loc 1 354 0
 404 007c FB79     		ldrb	r3, [r7, #7]
 405 007e DBB2     		uxtb	r3, r3
 406 0080 5B00     		lsls	r3, r3, #1
 407 0082 DBB2     		uxtb	r3, r3
 408 0084 FB71     		strb	r3, [r7, #7]
 409              	.L18:
 351:Middlewares/Third_Party/FreeRTOS/Source/portable/GCC/ARM_CM4F/port.c **** 		while( ( ucMaxPriorityValue & portTOP_BIT_OF_BYTE ) == portTOP_BIT_OF_BYTE )
 410              		.loc 1 351 0
 411 0086 FB79     		ldrb	r3, [r7, #7]
 412 0088 DBB2     		uxtb	r3, r3
 413 008a 03F08003 		and	r3, r3, #128
 414 008e 802B     		cmp	r3, #128
 415 0090 EFD0     		beq	.L19
 355:Middlewares/Third_Party/FreeRTOS/Source/portable/GCC/ARM_CM4F/port.c **** 		}
 356:Middlewares/Third_Party/FreeRTOS/Source/portable/GCC/ARM_CM4F/port.c **** 
 357:Middlewares/Third_Party/FreeRTOS/Source/portable/GCC/ARM_CM4F/port.c **** 		/* Shift the priority group value back to its position within the AIRCR
 358:Middlewares/Third_Party/FreeRTOS/Source/portable/GCC/ARM_CM4F/port.c **** 		register. */
 359:Middlewares/Third_Party/FreeRTOS/Source/portable/GCC/ARM_CM4F/port.c **** 		ulMaxPRIGROUPValue <<= portPRIGROUP_SHIFT;
 416              		.loc 1 359 0
 417 0092 1D4B     		ldr	r3, .L21+20
 418 0094 1B68     		ldr	r3, [r3]
 419 0096 1B02     		lsls	r3, r3, #8
 420 0098 1B4A     		ldr	r2, .L21+20
 421 009a 1360     		str	r3, [r2]
 360:Middlewares/Third_Party/FreeRTOS/Source/portable/GCC/ARM_CM4F/port.c **** 		ulMaxPRIGROUPValue &= portPRIORITY_GROUP_MASK;
 422              		.loc 1 360 0
 423 009c 1A4B     		ldr	r3, .L21+20
 424 009e 1B68     		ldr	r3, [r3]
 425 00a0 03F4E063 		and	r3, r3, #1792
 426 00a4 184A     		ldr	r2, .L21+20
 427 00a6 1360     		str	r3, [r2]
 361:Middlewares/Third_Party/FreeRTOS/Source/portable/GCC/ARM_CM4F/port.c **** 
 362:Middlewares/Third_Party/FreeRTOS/Source/portable/GCC/ARM_CM4F/port.c **** 		/* Restore the clobbered interrupt priority register to its original
 363:Middlewares/Third_Party/FreeRTOS/Source/portable/GCC/ARM_CM4F/port.c **** 		value. */
 364:Middlewares/Third_Party/FreeRTOS/Source/portable/GCC/ARM_CM4F/port.c **** 		*pucFirstUserPriorityRegister = ulOriginalPriority;
 428              		.loc 1 364 0
 429 00a8 BB68     		ldr	r3, [r7, #8]
 430 00aa DAB2     		uxtb	r2, r3
 431 00ac 7B69     		ldr	r3, [r7, #20]
 432 00ae 1A70     		strb	r2, [r3]
 433              	.LBE37:
 365:Middlewares/Third_Party/FreeRTOS/Source/portable/GCC/ARM_CM4F/port.c **** 	}
 366:Middlewares/Third_Party/FreeRTOS/Source/portable/GCC/ARM_CM4F/port.c **** 	#endif /* conifgASSERT_DEFINED */
 367:Middlewares/Third_Party/FreeRTOS/Source/portable/GCC/ARM_CM4F/port.c **** 
 368:Middlewares/Third_Party/FreeRTOS/Source/portable/GCC/ARM_CM4F/port.c **** 	/* Make PendSV and SysTick the lowest priority interrupts. */
 369:Middlewares/Third_Party/FreeRTOS/Source/portable/GCC/ARM_CM4F/port.c **** 	portNVIC_SYSPRI2_REG |= portNVIC_PENDSV_PRI;
 434              		.loc 1 369 0
 435 00b0 164A     		ldr	r2, .L21+24
 436 00b2 164B     		ldr	r3, .L21+24
ARM GAS  /tmp/cclcvJlT.s 			page 19


 437 00b4 1B68     		ldr	r3, [r3]
 438 00b6 43F47003 		orr	r3, r3, #15728640
 439 00ba 1360     		str	r3, [r2]
 370:Middlewares/Third_Party/FreeRTOS/Source/portable/GCC/ARM_CM4F/port.c **** 	portNVIC_SYSPRI2_REG |= portNVIC_SYSTICK_PRI;
 440              		.loc 1 370 0
 441 00bc 134A     		ldr	r2, .L21+24
 442 00be 134B     		ldr	r3, .L21+24
 443 00c0 1B68     		ldr	r3, [r3]
 444 00c2 43F07043 		orr	r3, r3, #-268435456
 445 00c6 1360     		str	r3, [r2]
 371:Middlewares/Third_Party/FreeRTOS/Source/portable/GCC/ARM_CM4F/port.c **** 
 372:Middlewares/Third_Party/FreeRTOS/Source/portable/GCC/ARM_CM4F/port.c **** 	/* Start the timer that generates the tick ISR.  Interrupts are disabled
 373:Middlewares/Third_Party/FreeRTOS/Source/portable/GCC/ARM_CM4F/port.c **** 	here already. */
 374:Middlewares/Third_Party/FreeRTOS/Source/portable/GCC/ARM_CM4F/port.c **** 	vPortSetupTimerInterrupt();
 446              		.loc 1 374 0
 447 00c8 FFF7FEFF 		bl	vPortSetupTimerInterrupt
 375:Middlewares/Third_Party/FreeRTOS/Source/portable/GCC/ARM_CM4F/port.c **** 
 376:Middlewares/Third_Party/FreeRTOS/Source/portable/GCC/ARM_CM4F/port.c **** 	/* Initialise the critical nesting count ready for the first task. */
 377:Middlewares/Third_Party/FreeRTOS/Source/portable/GCC/ARM_CM4F/port.c **** 	uxCriticalNesting = 0;
 448              		.loc 1 377 0
 449 00cc 104B     		ldr	r3, .L21+28
 450 00ce 0022     		movs	r2, #0
 451 00d0 1A60     		str	r2, [r3]
 378:Middlewares/Third_Party/FreeRTOS/Source/portable/GCC/ARM_CM4F/port.c **** 
 379:Middlewares/Third_Party/FreeRTOS/Source/portable/GCC/ARM_CM4F/port.c **** 	/* Ensure the VFP is enabled - it should be anyway. */
 380:Middlewares/Third_Party/FreeRTOS/Source/portable/GCC/ARM_CM4F/port.c **** 	vPortEnableVFP();
 452              		.loc 1 380 0
 453 00d2 FFF7FEFF 		bl	vPortEnableVFP
 381:Middlewares/Third_Party/FreeRTOS/Source/portable/GCC/ARM_CM4F/port.c **** 
 382:Middlewares/Third_Party/FreeRTOS/Source/portable/GCC/ARM_CM4F/port.c **** 	/* Lazy save always. */
 383:Middlewares/Third_Party/FreeRTOS/Source/portable/GCC/ARM_CM4F/port.c **** 	*( portFPCCR ) |= portASPEN_AND_LSPEN_BITS;
 454              		.loc 1 383 0
 455 00d6 0F4A     		ldr	r2, .L21+32
 456 00d8 0E4B     		ldr	r3, .L21+32
 457 00da 1B68     		ldr	r3, [r3]
 458 00dc 43F04043 		orr	r3, r3, #-1073741824
 459 00e0 1360     		str	r3, [r2]
 384:Middlewares/Third_Party/FreeRTOS/Source/portable/GCC/ARM_CM4F/port.c **** 
 385:Middlewares/Third_Party/FreeRTOS/Source/portable/GCC/ARM_CM4F/port.c **** 	/* Start the first task. */
 386:Middlewares/Third_Party/FreeRTOS/Source/portable/GCC/ARM_CM4F/port.c **** 	prvPortStartFirstTask();
 460              		.loc 1 386 0
 461 00e2 FFF7FEFF 		bl	prvPortStartFirstTask
 387:Middlewares/Third_Party/FreeRTOS/Source/portable/GCC/ARM_CM4F/port.c **** 
 388:Middlewares/Third_Party/FreeRTOS/Source/portable/GCC/ARM_CM4F/port.c **** 	/* Should never get here as the tasks will now be executing!  Call the task
 389:Middlewares/Third_Party/FreeRTOS/Source/portable/GCC/ARM_CM4F/port.c **** 	exit error function to prevent compiler warnings about a static function
 390:Middlewares/Third_Party/FreeRTOS/Source/portable/GCC/ARM_CM4F/port.c **** 	not being called in the case that the application writer overrides this
 391:Middlewares/Third_Party/FreeRTOS/Source/portable/GCC/ARM_CM4F/port.c **** 	functionality by defining configTASK_RETURN_ADDRESS. */
 392:Middlewares/Third_Party/FreeRTOS/Source/portable/GCC/ARM_CM4F/port.c **** 	prvTaskExitError();
 462              		.loc 1 392 0
 463 00e6 FFF7FEFF 		bl	prvTaskExitError
 393:Middlewares/Third_Party/FreeRTOS/Source/portable/GCC/ARM_CM4F/port.c **** 
 394:Middlewares/Third_Party/FreeRTOS/Source/portable/GCC/ARM_CM4F/port.c **** 	/* Should not get here! */
 395:Middlewares/Third_Party/FreeRTOS/Source/portable/GCC/ARM_CM4F/port.c **** 	return 0;
 464              		.loc 1 395 0
 465 00ea 0023     		movs	r3, #0
 396:Middlewares/Third_Party/FreeRTOS/Source/portable/GCC/ARM_CM4F/port.c **** }
 466              		.loc 1 396 0
ARM GAS  /tmp/cclcvJlT.s 			page 20


 467 00ec 1846     		mov	r0, r3
 468 00ee 1837     		adds	r7, r7, #24
 469              	.LCFI12:
 470              		.cfi_def_cfa_offset 8
 471 00f0 BD46     		mov	sp, r7
 472              	.LCFI13:
 473              		.cfi_def_cfa_register 13
 474              		@ sp needed
 475 00f2 80BD     		pop	{r7, pc}
 476              	.L22:
 477              		.align	2
 478              	.L21:
 479 00f4 00ED00E0 		.word	-536810240
 480 00f8 71C20F41 		.word	1091551857
 481 00fc 70C20F41 		.word	1091551856
 482 0100 00E400E0 		.word	-536812544
 483 0104 00000000 		.word	ucMaxSysCallPriority
 484 0108 00000000 		.word	ulMaxPRIGROUPValue
 485 010c 20ED00E0 		.word	-536810208
 486 0110 00000000 		.word	uxCriticalNesting
 487 0114 34EF00E0 		.word	-536809676
 488              		.cfi_endproc
 489              	.LFE9:
 491              		.section	.text.vPortEndScheduler,"ax",%progbits
 492              		.align	1
 493              		.global	vPortEndScheduler
 494              		.syntax unified
 495              		.thumb
 496              		.thumb_func
 497              		.fpu fpv4-sp-d16
 499              	vPortEndScheduler:
 500              	.LFB10:
 397:Middlewares/Third_Party/FreeRTOS/Source/portable/GCC/ARM_CM4F/port.c **** /*-----------------------------------------------------------*/
 398:Middlewares/Third_Party/FreeRTOS/Source/portable/GCC/ARM_CM4F/port.c **** 
 399:Middlewares/Third_Party/FreeRTOS/Source/portable/GCC/ARM_CM4F/port.c **** void vPortEndScheduler( void )
 400:Middlewares/Third_Party/FreeRTOS/Source/portable/GCC/ARM_CM4F/port.c **** {
 501              		.loc 1 400 0
 502              		.cfi_startproc
 503              		@ args = 0, pretend = 0, frame = 8
 504              		@ frame_needed = 1, uses_anonymous_args = 0
 505              		@ link register save eliminated.
 506 0000 80B4     		push	{r7}
 507              	.LCFI14:
 508              		.cfi_def_cfa_offset 4
 509              		.cfi_offset 7, -4
 510 0002 83B0     		sub	sp, sp, #12
 511              	.LCFI15:
 512              		.cfi_def_cfa_offset 16
 513 0004 00AF     		add	r7, sp, #0
 514              	.LCFI16:
 515              		.cfi_def_cfa_register 7
 401:Middlewares/Third_Party/FreeRTOS/Source/portable/GCC/ARM_CM4F/port.c **** 	/* Not implemented in ports where there is nothing to return to.
 402:Middlewares/Third_Party/FreeRTOS/Source/portable/GCC/ARM_CM4F/port.c **** 	Artificially force an assert. */
 403:Middlewares/Third_Party/FreeRTOS/Source/portable/GCC/ARM_CM4F/port.c **** 	configASSERT( uxCriticalNesting == 1000UL );
 516              		.loc 1 403 0
 517 0006 0A4B     		ldr	r3, .L27
 518 0008 1B68     		ldr	r3, [r3]
ARM GAS  /tmp/cclcvJlT.s 			page 21


 519 000a B3F57A7F 		cmp	r3, #1000
 520 000e 09D0     		beq	.L26
 521              	.LBB38:
 522              	.LBB39:
 523              		.loc 2 237 0 discriminator 1
 524              		.syntax unified
 525              	@ 237 "Middlewares/Third_Party/FreeRTOS/Source/portable/GCC/ARM_CM4F/portmacro.h" 1
 526 0010 4FF05003 			mov r3, #80												
 527 0014 83F31188 		msr basepri, r3											
 528 0018 BFF36F8F 		isb														
 529 001c BFF34F8F 		dsb														
 530              	
 531              	@ 0 "" 2
 532              		.thumb
 533              		.syntax unified
 534 0020 7B60     		str	r3, [r7, #4]
 535              	.L25:
 536              	.LBE39:
 537              	.LBE38:
 538              		.loc 1 403 0 discriminator 1
 539 0022 FEE7     		b	.L25
 540              	.L26:
 404:Middlewares/Third_Party/FreeRTOS/Source/portable/GCC/ARM_CM4F/port.c **** }
 541              		.loc 1 404 0
 542 0024 00BF     		nop
 543 0026 0C37     		adds	r7, r7, #12
 544              	.LCFI17:
 545              		.cfi_def_cfa_offset 4
 546 0028 BD46     		mov	sp, r7
 547              	.LCFI18:
 548              		.cfi_def_cfa_register 13
 549              		@ sp needed
 550 002a 5DF8047B 		ldr	r7, [sp], #4
 551              	.LCFI19:
 552              		.cfi_restore 7
 553              		.cfi_def_cfa_offset 0
 554 002e 7047     		bx	lr
 555              	.L28:
 556              		.align	2
 557              	.L27:
 558 0030 00000000 		.word	uxCriticalNesting
 559              		.cfi_endproc
 560              	.LFE10:
 562              		.section	.text.vPortEnterCritical,"ax",%progbits
 563              		.align	1
 564              		.global	vPortEnterCritical
 565              		.syntax unified
 566              		.thumb
 567              		.thumb_func
 568              		.fpu fpv4-sp-d16
 570              	vPortEnterCritical:
 571              	.LFB11:
 405:Middlewares/Third_Party/FreeRTOS/Source/portable/GCC/ARM_CM4F/port.c **** /*-----------------------------------------------------------*/
 406:Middlewares/Third_Party/FreeRTOS/Source/portable/GCC/ARM_CM4F/port.c **** 
 407:Middlewares/Third_Party/FreeRTOS/Source/portable/GCC/ARM_CM4F/port.c **** void vPortEnterCritical( void )
 408:Middlewares/Third_Party/FreeRTOS/Source/portable/GCC/ARM_CM4F/port.c **** {
 572              		.loc 1 408 0
ARM GAS  /tmp/cclcvJlT.s 			page 22


 573              		.cfi_startproc
 574              		@ args = 0, pretend = 0, frame = 8
 575              		@ frame_needed = 1, uses_anonymous_args = 0
 576              		@ link register save eliminated.
 577 0000 80B4     		push	{r7}
 578              	.LCFI20:
 579              		.cfi_def_cfa_offset 4
 580              		.cfi_offset 7, -4
 581 0002 83B0     		sub	sp, sp, #12
 582              	.LCFI21:
 583              		.cfi_def_cfa_offset 16
 584 0004 00AF     		add	r7, sp, #0
 585              	.LCFI22:
 586              		.cfi_def_cfa_register 7
 587              	.LBB40:
 588              	.LBB41:
 589              		.loc 2 237 0
 590              		.syntax unified
 591              	@ 237 "Middlewares/Third_Party/FreeRTOS/Source/portable/GCC/ARM_CM4F/portmacro.h" 1
 592 0006 4FF05003 			mov r3, #80												
 593 000a 83F31188 		msr basepri, r3											
 594 000e BFF36F8F 		isb														
 595 0012 BFF34F8F 		dsb														
 596              	
 597              	@ 0 "" 2
 598              		.thumb
 599              		.syntax unified
 600 0016 7B60     		str	r3, [r7, #4]
 601              	.LBE41:
 602              	.LBE40:
 409:Middlewares/Third_Party/FreeRTOS/Source/portable/GCC/ARM_CM4F/port.c **** 	portDISABLE_INTERRUPTS();
 410:Middlewares/Third_Party/FreeRTOS/Source/portable/GCC/ARM_CM4F/port.c **** 	uxCriticalNesting++;
 603              		.loc 1 410 0
 604 0018 0E4B     		ldr	r3, .L33
 605 001a 1B68     		ldr	r3, [r3]
 606 001c 0133     		adds	r3, r3, #1
 607 001e 0D4A     		ldr	r2, .L33
 608 0020 1360     		str	r3, [r2]
 411:Middlewares/Third_Party/FreeRTOS/Source/portable/GCC/ARM_CM4F/port.c **** 
 412:Middlewares/Third_Party/FreeRTOS/Source/portable/GCC/ARM_CM4F/port.c **** 	/* This is not the interrupt safe version of the enter critical function so
 413:Middlewares/Third_Party/FreeRTOS/Source/portable/GCC/ARM_CM4F/port.c **** 	assert() if it is being called from an interrupt context.  Only API
 414:Middlewares/Third_Party/FreeRTOS/Source/portable/GCC/ARM_CM4F/port.c **** 	functions that end in "FromISR" can be used in an interrupt.  Only assert if
 415:Middlewares/Third_Party/FreeRTOS/Source/portable/GCC/ARM_CM4F/port.c **** 	the critical nesting count is 1 to protect against recursive calls if the
 416:Middlewares/Third_Party/FreeRTOS/Source/portable/GCC/ARM_CM4F/port.c **** 	assert function also uses a critical section. */
 417:Middlewares/Third_Party/FreeRTOS/Source/portable/GCC/ARM_CM4F/port.c **** 	if( uxCriticalNesting == 1 )
 609              		.loc 1 417 0
 610 0022 0C4B     		ldr	r3, .L33
 611 0024 1B68     		ldr	r3, [r3]
 612 0026 012B     		cmp	r3, #1
 613 0028 0ED1     		bne	.L32
 418:Middlewares/Third_Party/FreeRTOS/Source/portable/GCC/ARM_CM4F/port.c **** 	{
 419:Middlewares/Third_Party/FreeRTOS/Source/portable/GCC/ARM_CM4F/port.c **** 		configASSERT( ( portNVIC_INT_CTRL_REG & portVECTACTIVE_MASK ) == 0 );
 614              		.loc 1 419 0
 615 002a 0B4B     		ldr	r3, .L33+4
 616 002c 1B68     		ldr	r3, [r3]
 617 002e DBB2     		uxtb	r3, r3
 618 0030 002B     		cmp	r3, #0
ARM GAS  /tmp/cclcvJlT.s 			page 23


 619 0032 09D0     		beq	.L32
 620              	.LBB42:
 621              	.LBB43:
 622              		.loc 2 237 0 discriminator 1
 623              		.syntax unified
 624              	@ 237 "Middlewares/Third_Party/FreeRTOS/Source/portable/GCC/ARM_CM4F/portmacro.h" 1
 625 0034 4FF05003 			mov r3, #80												
 626 0038 83F31188 		msr basepri, r3											
 627 003c BFF36F8F 		isb														
 628 0040 BFF34F8F 		dsb														
 629              	
 630              	@ 0 "" 2
 631              		.thumb
 632              		.syntax unified
 633 0044 3B60     		str	r3, [r7]
 634              	.L31:
 635              	.LBE43:
 636              	.LBE42:
 637              		.loc 1 419 0 discriminator 1
 638 0046 FEE7     		b	.L31
 639              	.L32:
 420:Middlewares/Third_Party/FreeRTOS/Source/portable/GCC/ARM_CM4F/port.c **** 	}
 421:Middlewares/Third_Party/FreeRTOS/Source/portable/GCC/ARM_CM4F/port.c **** }
 640              		.loc 1 421 0
 641 0048 00BF     		nop
 642 004a 0C37     		adds	r7, r7, #12
 643              	.LCFI23:
 644              		.cfi_def_cfa_offset 4
 645 004c BD46     		mov	sp, r7
 646              	.LCFI24:
 647              		.cfi_def_cfa_register 13
 648              		@ sp needed
 649 004e 5DF8047B 		ldr	r7, [sp], #4
 650              	.LCFI25:
 651              		.cfi_restore 7
 652              		.cfi_def_cfa_offset 0
 653 0052 7047     		bx	lr
 654              	.L34:
 655              		.align	2
 656              	.L33:
 657 0054 00000000 		.word	uxCriticalNesting
 658 0058 04ED00E0 		.word	-536810236
 659              		.cfi_endproc
 660              	.LFE11:
 662              		.section	.text.vPortExitCritical,"ax",%progbits
 663              		.align	1
 664              		.global	vPortExitCritical
 665              		.syntax unified
 666              		.thumb
 667              		.thumb_func
 668              		.fpu fpv4-sp-d16
 670              	vPortExitCritical:
 671              	.LFB12:
 422:Middlewares/Third_Party/FreeRTOS/Source/portable/GCC/ARM_CM4F/port.c **** /*-----------------------------------------------------------*/
 423:Middlewares/Third_Party/FreeRTOS/Source/portable/GCC/ARM_CM4F/port.c **** 
 424:Middlewares/Third_Party/FreeRTOS/Source/portable/GCC/ARM_CM4F/port.c **** void vPortExitCritical( void )
 425:Middlewares/Third_Party/FreeRTOS/Source/portable/GCC/ARM_CM4F/port.c **** {
ARM GAS  /tmp/cclcvJlT.s 			page 24


 672              		.loc 1 425 0
 673              		.cfi_startproc
 674              		@ args = 0, pretend = 0, frame = 8
 675              		@ frame_needed = 1, uses_anonymous_args = 0
 676              		@ link register save eliminated.
 677 0000 80B4     		push	{r7}
 678              	.LCFI26:
 679              		.cfi_def_cfa_offset 4
 680              		.cfi_offset 7, -4
 681 0002 83B0     		sub	sp, sp, #12
 682              	.LCFI27:
 683              		.cfi_def_cfa_offset 16
 684 0004 00AF     		add	r7, sp, #0
 685              	.LCFI28:
 686              		.cfi_def_cfa_register 7
 426:Middlewares/Third_Party/FreeRTOS/Source/portable/GCC/ARM_CM4F/port.c **** 	configASSERT( uxCriticalNesting );
 687              		.loc 1 426 0
 688 0006 114B     		ldr	r3, .L40
 689 0008 1B68     		ldr	r3, [r3]
 690 000a 002B     		cmp	r3, #0
 691 000c 09D1     		bne	.L36
 692              	.LBB44:
 693              	.LBB45:
 694              		.loc 2 237 0 discriminator 1
 695              		.syntax unified
 696              	@ 237 "Middlewares/Third_Party/FreeRTOS/Source/portable/GCC/ARM_CM4F/portmacro.h" 1
 697 000e 4FF05003 			mov r3, #80												
 698 0012 83F31188 		msr basepri, r3											
 699 0016 BFF36F8F 		isb														
 700 001a BFF34F8F 		dsb														
 701              	
 702              	@ 0 "" 2
 703              		.thumb
 704              		.syntax unified
 705 001e 7B60     		str	r3, [r7, #4]
 706              	.L37:
 707              	.LBE45:
 708              	.LBE44:
 709              		.loc 1 426 0 discriminator 1
 710 0020 FEE7     		b	.L37
 711              	.L36:
 427:Middlewares/Third_Party/FreeRTOS/Source/portable/GCC/ARM_CM4F/port.c **** 	uxCriticalNesting--;
 712              		.loc 1 427 0
 713 0022 0A4B     		ldr	r3, .L40
 714 0024 1B68     		ldr	r3, [r3]
 715 0026 013B     		subs	r3, r3, #1
 716 0028 084A     		ldr	r2, .L40
 717 002a 1360     		str	r3, [r2]
 428:Middlewares/Third_Party/FreeRTOS/Source/portable/GCC/ARM_CM4F/port.c **** 	if( uxCriticalNesting == 0 )
 718              		.loc 1 428 0
 719 002c 074B     		ldr	r3, .L40
 720 002e 1B68     		ldr	r3, [r3]
 721 0030 002B     		cmp	r3, #0
 722 0032 04D1     		bne	.L39
 723 0034 0023     		movs	r3, #0
 724 0036 3B60     		str	r3, [r7]
 725              	.LBB46:
ARM GAS  /tmp/cclcvJlT.s 			page 25


 726              	.LBB47:
 238:Middlewares/Third_Party/FreeRTOS/Source/portable/GCC/ARM_CM4F/portmacro.h **** 	(
 239:Middlewares/Third_Party/FreeRTOS/Source/portable/GCC/ARM_CM4F/portmacro.h **** 		"	mov %0, %1												\n"	\
 240:Middlewares/Third_Party/FreeRTOS/Source/portable/GCC/ARM_CM4F/portmacro.h **** 		"	msr basepri, %0											\n" \
 241:Middlewares/Third_Party/FreeRTOS/Source/portable/GCC/ARM_CM4F/portmacro.h **** 		"	isb														\n" \
 242:Middlewares/Third_Party/FreeRTOS/Source/portable/GCC/ARM_CM4F/portmacro.h **** 		"	dsb														\n" \
 243:Middlewares/Third_Party/FreeRTOS/Source/portable/GCC/ARM_CM4F/portmacro.h **** 		:"=r" (ulNewBASEPRI) : "i" ( configMAX_SYSCALL_INTERRUPT_PRIORITY )
 244:Middlewares/Third_Party/FreeRTOS/Source/portable/GCC/ARM_CM4F/portmacro.h **** 	);
 245:Middlewares/Third_Party/FreeRTOS/Source/portable/GCC/ARM_CM4F/portmacro.h **** }
 246:Middlewares/Third_Party/FreeRTOS/Source/portable/GCC/ARM_CM4F/portmacro.h **** 
 247:Middlewares/Third_Party/FreeRTOS/Source/portable/GCC/ARM_CM4F/portmacro.h **** /*-----------------------------------------------------------*/
 248:Middlewares/Third_Party/FreeRTOS/Source/portable/GCC/ARM_CM4F/portmacro.h **** 
 249:Middlewares/Third_Party/FreeRTOS/Source/portable/GCC/ARM_CM4F/portmacro.h **** portFORCE_INLINE static uint32_t ulPortRaiseBASEPRI( void )
 250:Middlewares/Third_Party/FreeRTOS/Source/portable/GCC/ARM_CM4F/portmacro.h **** {
 251:Middlewares/Third_Party/FreeRTOS/Source/portable/GCC/ARM_CM4F/portmacro.h **** uint32_t ulOriginalBASEPRI, ulNewBASEPRI;
 252:Middlewares/Third_Party/FreeRTOS/Source/portable/GCC/ARM_CM4F/portmacro.h **** 
 253:Middlewares/Third_Party/FreeRTOS/Source/portable/GCC/ARM_CM4F/portmacro.h **** 	__asm volatile
 254:Middlewares/Third_Party/FreeRTOS/Source/portable/GCC/ARM_CM4F/portmacro.h **** 	(
 255:Middlewares/Third_Party/FreeRTOS/Source/portable/GCC/ARM_CM4F/portmacro.h **** 		"	mrs %0, basepri											\n" \
 256:Middlewares/Third_Party/FreeRTOS/Source/portable/GCC/ARM_CM4F/portmacro.h **** 		"	mov %1, %2												\n"	\
 257:Middlewares/Third_Party/FreeRTOS/Source/portable/GCC/ARM_CM4F/portmacro.h **** 		"	msr basepri, %1											\n" \
 258:Middlewares/Third_Party/FreeRTOS/Source/portable/GCC/ARM_CM4F/portmacro.h **** 		"	isb														\n" \
 259:Middlewares/Third_Party/FreeRTOS/Source/portable/GCC/ARM_CM4F/portmacro.h **** 		"	dsb														\n" \
 260:Middlewares/Third_Party/FreeRTOS/Source/portable/GCC/ARM_CM4F/portmacro.h **** 		:"=r" (ulOriginalBASEPRI), "=r" (ulNewBASEPRI) : "i" ( configMAX_SYSCALL_INTERRUPT_PRIORITY )
 261:Middlewares/Third_Party/FreeRTOS/Source/portable/GCC/ARM_CM4F/portmacro.h **** 	);
 262:Middlewares/Third_Party/FreeRTOS/Source/portable/GCC/ARM_CM4F/portmacro.h **** 
 263:Middlewares/Third_Party/FreeRTOS/Source/portable/GCC/ARM_CM4F/portmacro.h **** 	/* This return will not be reached but is necessary to prevent compiler
 264:Middlewares/Third_Party/FreeRTOS/Source/portable/GCC/ARM_CM4F/portmacro.h **** 	warnings. */
 265:Middlewares/Third_Party/FreeRTOS/Source/portable/GCC/ARM_CM4F/portmacro.h **** 	return ulOriginalBASEPRI;
 266:Middlewares/Third_Party/FreeRTOS/Source/portable/GCC/ARM_CM4F/portmacro.h **** }
 267:Middlewares/Third_Party/FreeRTOS/Source/portable/GCC/ARM_CM4F/portmacro.h **** /*-----------------------------------------------------------*/
 268:Middlewares/Third_Party/FreeRTOS/Source/portable/GCC/ARM_CM4F/portmacro.h **** 
 269:Middlewares/Third_Party/FreeRTOS/Source/portable/GCC/ARM_CM4F/portmacro.h **** portFORCE_INLINE static void vPortSetBASEPRI( uint32_t ulNewMaskValue )
 270:Middlewares/Third_Party/FreeRTOS/Source/portable/GCC/ARM_CM4F/portmacro.h **** {
 271:Middlewares/Third_Party/FreeRTOS/Source/portable/GCC/ARM_CM4F/portmacro.h **** 	__asm volatile
 727              		.loc 2 271 0
 728 0038 3B68     		ldr	r3, [r7]
 729              		.syntax unified
 730              	@ 271 "Middlewares/Third_Party/FreeRTOS/Source/portable/GCC/ARM_CM4F/portmacro.h" 1
 731 003a 83F31188 			msr basepri, r3	
 732              	@ 0 "" 2
 733              		.thumb
 734              		.syntax unified
 735              	.L39:
 736              	.LBE47:
 737              	.LBE46:
 429:Middlewares/Third_Party/FreeRTOS/Source/portable/GCC/ARM_CM4F/port.c **** 	{
 430:Middlewares/Third_Party/FreeRTOS/Source/portable/GCC/ARM_CM4F/port.c **** 		portENABLE_INTERRUPTS();
 431:Middlewares/Third_Party/FreeRTOS/Source/portable/GCC/ARM_CM4F/port.c **** 	}
 432:Middlewares/Third_Party/FreeRTOS/Source/portable/GCC/ARM_CM4F/port.c **** }
 738              		.loc 1 432 0
 739 003e 00BF     		nop
 740 0040 0C37     		adds	r7, r7, #12
 741              	.LCFI29:
 742              		.cfi_def_cfa_offset 4
 743 0042 BD46     		mov	sp, r7
 744              	.LCFI30:
ARM GAS  /tmp/cclcvJlT.s 			page 26


 745              		.cfi_def_cfa_register 13
 746              		@ sp needed
 747 0044 5DF8047B 		ldr	r7, [sp], #4
 748              	.LCFI31:
 749              		.cfi_restore 7
 750              		.cfi_def_cfa_offset 0
 751 0048 7047     		bx	lr
 752              	.L41:
 753 004a 00BF     		.align	2
 754              	.L40:
 755 004c 00000000 		.word	uxCriticalNesting
 756              		.cfi_endproc
 757              	.LFE12:
 759              		.section	.text.PendSV_Handler,"ax",%progbits
 760              		.align	1
 761              		.global	PendSV_Handler
 762              		.syntax unified
 763              		.thumb
 764              		.thumb_func
 765              		.fpu fpv4-sp-d16
 767              	PendSV_Handler:
 768              	.LFB13:
 433:Middlewares/Third_Party/FreeRTOS/Source/portable/GCC/ARM_CM4F/port.c **** /*-----------------------------------------------------------*/
 434:Middlewares/Third_Party/FreeRTOS/Source/portable/GCC/ARM_CM4F/port.c **** 
 435:Middlewares/Third_Party/FreeRTOS/Source/portable/GCC/ARM_CM4F/port.c **** void xPortPendSVHandler( void )
 436:Middlewares/Third_Party/FreeRTOS/Source/portable/GCC/ARM_CM4F/port.c **** {
 769              		.loc 1 436 0
 770              		.cfi_startproc
 771              		@ Naked Function: prologue and epilogue provided by programmer.
 772              		@ args = 0, pretend = 0, frame = 0
 773              		@ frame_needed = 1, uses_anonymous_args = 0
 437:Middlewares/Third_Party/FreeRTOS/Source/portable/GCC/ARM_CM4F/port.c **** 	/* This is a naked function. */
 438:Middlewares/Third_Party/FreeRTOS/Source/portable/GCC/ARM_CM4F/port.c **** 
 439:Middlewares/Third_Party/FreeRTOS/Source/portable/GCC/ARM_CM4F/port.c **** 	__asm volatile
 774              		.loc 1 439 0
 775              		.syntax unified
 776              	@ 439 "Middlewares/Third_Party/FreeRTOS/Source/portable/GCC/ARM_CM4F/port.c" 1
 777 0000 EFF30980 			mrs r0, psp							
 778 0004 BFF36F8F 		isb									
 779              											
 780 0008 154B     		ldr	r3, pxCurrentTCBConst			
 781 000a 1A68     		ldr	r2, [r3]						
 782              											
 783 000c 1EF0100F 		tst r14, #0x10						
 784 0010 08BF     		it eq								
 785 0012 20ED108A 		vstmdbeq r0!, {s16-s31}				
 786              											
 787 0016 20E9F04F 		stmdb r0!, {r4-r11, r14}			
 788              											
 789 001a 1060     		str r0, [r2]						
 790              											
 791 001c 4DF8043D 		stmdb sp!, {r3}						
 792 0020 4FF05000 		mov r0, #80 							
 793 0024 80F31188 		msr basepri, r0						
 794 0028 BFF34F8F 		dsb									
 795 002c BFF36F8F 		isb									
 796 0030 FFF7FEFF 		bl vTaskSwitchContext				
ARM GAS  /tmp/cclcvJlT.s 			page 27


 797 0034 4FF00000 		mov r0, #0							
 798 0038 80F31188 		msr basepri, r0						
 799 003c 08BC     		ldmia sp!, {r3}						
 800              											
 801 003e 1968     		ldr r1, [r3]						
 802 0040 0868     		ldr r0, [r1]						
 803              											
 804 0042 B0E8F04F 		ldmia r0!, {r4-r11, r14}			
 805              											
 806 0046 1EF0100F 		tst r14, #0x10						
 807 004a 08BF     		it eq								
 808 004c B0EC108A 		vldmiaeq r0!, {s16-s31}				
 809              											
 810 0050 80F30988 		msr psp, r0							
 811 0054 BFF36F8F 		isb									
 812              											
 813              											
 814 0058 7047     		bx r14								
 815              											
 816 005a 00BFAFF3 		.align 4							
 816      0080
 817 0060 00000000 	pxCurrentTCBConst: .word pxCurrentTCB	
 818              	
 819              	@ 0 "" 2
 440:Middlewares/Third_Party/FreeRTOS/Source/portable/GCC/ARM_CM4F/port.c **** 	(
 441:Middlewares/Third_Party/FreeRTOS/Source/portable/GCC/ARM_CM4F/port.c **** 	"	mrs r0, psp							\n"
 442:Middlewares/Third_Party/FreeRTOS/Source/portable/GCC/ARM_CM4F/port.c **** 	"	isb									\n"
 443:Middlewares/Third_Party/FreeRTOS/Source/portable/GCC/ARM_CM4F/port.c **** 	"										\n"
 444:Middlewares/Third_Party/FreeRTOS/Source/portable/GCC/ARM_CM4F/port.c **** 	"	ldr	r3, pxCurrentTCBConst			\n" /* Get the location of the current TCB. */
 445:Middlewares/Third_Party/FreeRTOS/Source/portable/GCC/ARM_CM4F/port.c **** 	"	ldr	r2, [r3]						\n"
 446:Middlewares/Third_Party/FreeRTOS/Source/portable/GCC/ARM_CM4F/port.c **** 	"										\n"
 447:Middlewares/Third_Party/FreeRTOS/Source/portable/GCC/ARM_CM4F/port.c **** 	"	tst r14, #0x10						\n" /* Is the task using the FPU context?  If so, push high vfp registers. *
 448:Middlewares/Third_Party/FreeRTOS/Source/portable/GCC/ARM_CM4F/port.c **** 	"	it eq								\n"
 449:Middlewares/Third_Party/FreeRTOS/Source/portable/GCC/ARM_CM4F/port.c **** 	"	vstmdbeq r0!, {s16-s31}				\n"
 450:Middlewares/Third_Party/FreeRTOS/Source/portable/GCC/ARM_CM4F/port.c **** 	"										\n"
 451:Middlewares/Third_Party/FreeRTOS/Source/portable/GCC/ARM_CM4F/port.c **** 	"	stmdb r0!, {r4-r11, r14}			\n" /* Save the core registers. */
 452:Middlewares/Third_Party/FreeRTOS/Source/portable/GCC/ARM_CM4F/port.c **** 	"										\n"
 453:Middlewares/Third_Party/FreeRTOS/Source/portable/GCC/ARM_CM4F/port.c **** 	"	str r0, [r2]						\n" /* Save the new top of stack into the first member of the TCB. */
 454:Middlewares/Third_Party/FreeRTOS/Source/portable/GCC/ARM_CM4F/port.c **** 	"										\n"
 455:Middlewares/Third_Party/FreeRTOS/Source/portable/GCC/ARM_CM4F/port.c **** 	"	stmdb sp!, {r3}						\n"
 456:Middlewares/Third_Party/FreeRTOS/Source/portable/GCC/ARM_CM4F/port.c **** 	"	mov r0, %0 							\n"
 457:Middlewares/Third_Party/FreeRTOS/Source/portable/GCC/ARM_CM4F/port.c **** 	"	msr basepri, r0						\n"
 458:Middlewares/Third_Party/FreeRTOS/Source/portable/GCC/ARM_CM4F/port.c **** 	"	dsb									\n"
 459:Middlewares/Third_Party/FreeRTOS/Source/portable/GCC/ARM_CM4F/port.c **** 	"	isb									\n"
 460:Middlewares/Third_Party/FreeRTOS/Source/portable/GCC/ARM_CM4F/port.c **** 	"	bl vTaskSwitchContext				\n"
 461:Middlewares/Third_Party/FreeRTOS/Source/portable/GCC/ARM_CM4F/port.c **** 	"	mov r0, #0							\n"
 462:Middlewares/Third_Party/FreeRTOS/Source/portable/GCC/ARM_CM4F/port.c **** 	"	msr basepri, r0						\n"
 463:Middlewares/Third_Party/FreeRTOS/Source/portable/GCC/ARM_CM4F/port.c **** 	"	ldmia sp!, {r3}						\n"
 464:Middlewares/Third_Party/FreeRTOS/Source/portable/GCC/ARM_CM4F/port.c **** 	"										\n"
 465:Middlewares/Third_Party/FreeRTOS/Source/portable/GCC/ARM_CM4F/port.c **** 	"	ldr r1, [r3]						\n" /* The first item in pxCurrentTCB is the task top of stack. */
 466:Middlewares/Third_Party/FreeRTOS/Source/portable/GCC/ARM_CM4F/port.c **** 	"	ldr r0, [r1]						\n"
 467:Middlewares/Third_Party/FreeRTOS/Source/portable/GCC/ARM_CM4F/port.c **** 	"										\n"
 468:Middlewares/Third_Party/FreeRTOS/Source/portable/GCC/ARM_CM4F/port.c **** 	"	ldmia r0!, {r4-r11, r14}			\n" /* Pop the core registers. */
 469:Middlewares/Third_Party/FreeRTOS/Source/portable/GCC/ARM_CM4F/port.c **** 	"										\n"
 470:Middlewares/Third_Party/FreeRTOS/Source/portable/GCC/ARM_CM4F/port.c **** 	"	tst r14, #0x10						\n" /* Is the task using the FPU context?  If so, pop the high vfp registers
 471:Middlewares/Third_Party/FreeRTOS/Source/portable/GCC/ARM_CM4F/port.c **** 	"	it eq								\n"
 472:Middlewares/Third_Party/FreeRTOS/Source/portable/GCC/ARM_CM4F/port.c **** 	"	vldmiaeq r0!, {s16-s31}				\n"
ARM GAS  /tmp/cclcvJlT.s 			page 28


 473:Middlewares/Third_Party/FreeRTOS/Source/portable/GCC/ARM_CM4F/port.c **** 	"										\n"
 474:Middlewares/Third_Party/FreeRTOS/Source/portable/GCC/ARM_CM4F/port.c **** 	"	msr psp, r0							\n"
 475:Middlewares/Third_Party/FreeRTOS/Source/portable/GCC/ARM_CM4F/port.c **** 	"	isb									\n"
 476:Middlewares/Third_Party/FreeRTOS/Source/portable/GCC/ARM_CM4F/port.c **** 	"										\n"
 477:Middlewares/Third_Party/FreeRTOS/Source/portable/GCC/ARM_CM4F/port.c **** 	#ifdef WORKAROUND_PMU_CM001 /* XMC4000 specific errata workaround. */
 478:Middlewares/Third_Party/FreeRTOS/Source/portable/GCC/ARM_CM4F/port.c **** 		#if WORKAROUND_PMU_CM001 == 1
 479:Middlewares/Third_Party/FreeRTOS/Source/portable/GCC/ARM_CM4F/port.c **** 	"			push { r14 }				\n"
 480:Middlewares/Third_Party/FreeRTOS/Source/portable/GCC/ARM_CM4F/port.c **** 	"			pop { pc }					\n"
 481:Middlewares/Third_Party/FreeRTOS/Source/portable/GCC/ARM_CM4F/port.c **** 		#endif
 482:Middlewares/Third_Party/FreeRTOS/Source/portable/GCC/ARM_CM4F/port.c **** 	#endif
 483:Middlewares/Third_Party/FreeRTOS/Source/portable/GCC/ARM_CM4F/port.c **** 	"										\n"
 484:Middlewares/Third_Party/FreeRTOS/Source/portable/GCC/ARM_CM4F/port.c **** 	"	bx r14								\n"
 485:Middlewares/Third_Party/FreeRTOS/Source/portable/GCC/ARM_CM4F/port.c **** 	"										\n"
 486:Middlewares/Third_Party/FreeRTOS/Source/portable/GCC/ARM_CM4F/port.c **** 	"	.align 4							\n"
 487:Middlewares/Third_Party/FreeRTOS/Source/portable/GCC/ARM_CM4F/port.c **** 	"pxCurrentTCBConst: .word pxCurrentTCB	\n"
 488:Middlewares/Third_Party/FreeRTOS/Source/portable/GCC/ARM_CM4F/port.c **** 	::"i"(configMAX_SYSCALL_INTERRUPT_PRIORITY)
 489:Middlewares/Third_Party/FreeRTOS/Source/portable/GCC/ARM_CM4F/port.c **** 	);
 490:Middlewares/Third_Party/FreeRTOS/Source/portable/GCC/ARM_CM4F/port.c **** }
 820              		.loc 1 490 0
 821              		.thumb
 822              		.syntax unified
 823 0064 00BF     		nop
 824              		.cfi_endproc
 825              	.LFE13:
 827 0066 00BF     		.section	.text.xPortSysTickHandler,"ax",%progbits
 828              		.align	1
 829              		.global	xPortSysTickHandler
 830              		.syntax unified
 831              		.thumb
 832              		.thumb_func
 833              		.fpu fpv4-sp-d16
 835              	xPortSysTickHandler:
 836              	.LFB14:
 491:Middlewares/Third_Party/FreeRTOS/Source/portable/GCC/ARM_CM4F/port.c **** /*-----------------------------------------------------------*/
 492:Middlewares/Third_Party/FreeRTOS/Source/portable/GCC/ARM_CM4F/port.c **** 
 493:Middlewares/Third_Party/FreeRTOS/Source/portable/GCC/ARM_CM4F/port.c **** void xPortSysTickHandler( void )
 494:Middlewares/Third_Party/FreeRTOS/Source/portable/GCC/ARM_CM4F/port.c **** {
 837              		.loc 1 494 0
 838              		.cfi_startproc
 839              		@ args = 0, pretend = 0, frame = 8
 840              		@ frame_needed = 1, uses_anonymous_args = 0
 841 0000 80B5     		push	{r7, lr}
 842              	.LCFI32:
 843              		.cfi_def_cfa_offset 8
 844              		.cfi_offset 7, -8
 845              		.cfi_offset 14, -4
 846 0002 82B0     		sub	sp, sp, #8
 847              	.LCFI33:
 848              		.cfi_def_cfa_offset 16
 849 0004 00AF     		add	r7, sp, #0
 850              	.LCFI34:
 851              		.cfi_def_cfa_register 7
 852              	.LBB48:
 853              	.LBB49:
 237:Middlewares/Third_Party/FreeRTOS/Source/portable/GCC/ARM_CM4F/portmacro.h **** 	(
 854              		.loc 2 237 0
 855              		.syntax unified
ARM GAS  /tmp/cclcvJlT.s 			page 29


 856              	@ 237 "Middlewares/Third_Party/FreeRTOS/Source/portable/GCC/ARM_CM4F/portmacro.h" 1
 857 0006 4FF05003 			mov r3, #80												
 858 000a 83F31188 		msr basepri, r3											
 859 000e BFF36F8F 		isb														
 860 0012 BFF34F8F 		dsb														
 861              	
 862              	@ 0 "" 2
 863              		.thumb
 864              		.syntax unified
 865 0016 7B60     		str	r3, [r7, #4]
 866              	.LBE49:
 867              	.LBE48:
 495:Middlewares/Third_Party/FreeRTOS/Source/portable/GCC/ARM_CM4F/port.c **** 	/* The SysTick runs at the lowest interrupt priority, so when this interrupt
 496:Middlewares/Third_Party/FreeRTOS/Source/portable/GCC/ARM_CM4F/port.c **** 	executes all interrupts must be unmasked.  There is therefore no need to
 497:Middlewares/Third_Party/FreeRTOS/Source/portable/GCC/ARM_CM4F/port.c **** 	save and then restore the interrupt mask value as its value is already
 498:Middlewares/Third_Party/FreeRTOS/Source/portable/GCC/ARM_CM4F/port.c **** 	known. */
 499:Middlewares/Third_Party/FreeRTOS/Source/portable/GCC/ARM_CM4F/port.c **** 	portDISABLE_INTERRUPTS();
 500:Middlewares/Third_Party/FreeRTOS/Source/portable/GCC/ARM_CM4F/port.c **** 	{
 501:Middlewares/Third_Party/FreeRTOS/Source/portable/GCC/ARM_CM4F/port.c **** 		/* Increment the RTOS tick. */
 502:Middlewares/Third_Party/FreeRTOS/Source/portable/GCC/ARM_CM4F/port.c **** 		if( xTaskIncrementTick() != pdFALSE )
 868              		.loc 1 502 0
 869 0018 FFF7FEFF 		bl	xTaskIncrementTick
 870 001c 0346     		mov	r3, r0
 871 001e 002B     		cmp	r3, #0
 872 0020 03D0     		beq	.L44
 503:Middlewares/Third_Party/FreeRTOS/Source/portable/GCC/ARM_CM4F/port.c **** 		{
 504:Middlewares/Third_Party/FreeRTOS/Source/portable/GCC/ARM_CM4F/port.c **** 			/* A context switch is required.  Context switching is performed in
 505:Middlewares/Third_Party/FreeRTOS/Source/portable/GCC/ARM_CM4F/port.c **** 			the PendSV interrupt.  Pend the PendSV interrupt. */
 506:Middlewares/Third_Party/FreeRTOS/Source/portable/GCC/ARM_CM4F/port.c **** 			portNVIC_INT_CTRL_REG = portNVIC_PENDSVSET_BIT;
 873              		.loc 1 506 0
 874 0022 064B     		ldr	r3, .L45
 875 0024 4FF08052 		mov	r2, #268435456
 876 0028 1A60     		str	r2, [r3]
 877              	.L44:
 878 002a 0023     		movs	r3, #0
 879 002c 3B60     		str	r3, [r7]
 880              	.LBB50:
 881              	.LBB51:
 882              		.loc 2 271 0
 883 002e 3B68     		ldr	r3, [r7]
 884              		.syntax unified
 885              	@ 271 "Middlewares/Third_Party/FreeRTOS/Source/portable/GCC/ARM_CM4F/portmacro.h" 1
 886 0030 83F31188 			msr basepri, r3	
 887              	@ 0 "" 2
 888              		.thumb
 889              		.syntax unified
 890              	.LBE51:
 891              	.LBE50:
 507:Middlewares/Third_Party/FreeRTOS/Source/portable/GCC/ARM_CM4F/port.c **** 		}
 508:Middlewares/Third_Party/FreeRTOS/Source/portable/GCC/ARM_CM4F/port.c **** 	}
 509:Middlewares/Third_Party/FreeRTOS/Source/portable/GCC/ARM_CM4F/port.c **** 	portENABLE_INTERRUPTS();
 510:Middlewares/Third_Party/FreeRTOS/Source/portable/GCC/ARM_CM4F/port.c **** }
 892              		.loc 1 510 0
 893 0034 00BF     		nop
 894 0036 0837     		adds	r7, r7, #8
 895              	.LCFI35:
 896              		.cfi_def_cfa_offset 8
ARM GAS  /tmp/cclcvJlT.s 			page 30


 897 0038 BD46     		mov	sp, r7
 898              	.LCFI36:
 899              		.cfi_def_cfa_register 13
 900              		@ sp needed
 901 003a 80BD     		pop	{r7, pc}
 902              	.L46:
 903              		.align	2
 904              	.L45:
 905 003c 04ED00E0 		.word	-536810236
 906              		.cfi_endproc
 907              	.LFE14:
 909              		.section	.text.vPortSetupTimerInterrupt,"ax",%progbits
 910              		.align	1
 911              		.weak	vPortSetupTimerInterrupt
 912              		.syntax unified
 913              		.thumb
 914              		.thumb_func
 915              		.fpu fpv4-sp-d16
 917              	vPortSetupTimerInterrupt:
 918              	.LFB15:
 511:Middlewares/Third_Party/FreeRTOS/Source/portable/GCC/ARM_CM4F/port.c **** /*-----------------------------------------------------------*/
 512:Middlewares/Third_Party/FreeRTOS/Source/portable/GCC/ARM_CM4F/port.c **** 
 513:Middlewares/Third_Party/FreeRTOS/Source/portable/GCC/ARM_CM4F/port.c **** #if configUSE_TICKLESS_IDLE == 1
 514:Middlewares/Third_Party/FreeRTOS/Source/portable/GCC/ARM_CM4F/port.c **** 
 515:Middlewares/Third_Party/FreeRTOS/Source/portable/GCC/ARM_CM4F/port.c **** 	__attribute__((weak)) void vPortSuppressTicksAndSleep( TickType_t xExpectedIdleTime )
 516:Middlewares/Third_Party/FreeRTOS/Source/portable/GCC/ARM_CM4F/port.c **** 	{
 517:Middlewares/Third_Party/FreeRTOS/Source/portable/GCC/ARM_CM4F/port.c **** 	uint32_t ulReloadValue, ulCompleteTickPeriods, ulCompletedSysTickDecrements, ulSysTickCTRL;
 518:Middlewares/Third_Party/FreeRTOS/Source/portable/GCC/ARM_CM4F/port.c **** 	TickType_t xModifiableIdleTime;
 519:Middlewares/Third_Party/FreeRTOS/Source/portable/GCC/ARM_CM4F/port.c **** 
 520:Middlewares/Third_Party/FreeRTOS/Source/portable/GCC/ARM_CM4F/port.c **** 		/* Make sure the SysTick reload value does not overflow the counter. */
 521:Middlewares/Third_Party/FreeRTOS/Source/portable/GCC/ARM_CM4F/port.c **** 		if( xExpectedIdleTime > xMaximumPossibleSuppressedTicks )
 522:Middlewares/Third_Party/FreeRTOS/Source/portable/GCC/ARM_CM4F/port.c **** 		{
 523:Middlewares/Third_Party/FreeRTOS/Source/portable/GCC/ARM_CM4F/port.c **** 			xExpectedIdleTime = xMaximumPossibleSuppressedTicks;
 524:Middlewares/Third_Party/FreeRTOS/Source/portable/GCC/ARM_CM4F/port.c **** 		}
 525:Middlewares/Third_Party/FreeRTOS/Source/portable/GCC/ARM_CM4F/port.c **** 
 526:Middlewares/Third_Party/FreeRTOS/Source/portable/GCC/ARM_CM4F/port.c **** 		/* Stop the SysTick momentarily.  The time the SysTick is stopped for
 527:Middlewares/Third_Party/FreeRTOS/Source/portable/GCC/ARM_CM4F/port.c **** 		is accounted for as best it can be, but using the tickless mode will
 528:Middlewares/Third_Party/FreeRTOS/Source/portable/GCC/ARM_CM4F/port.c **** 		inevitably result in some tiny drift of the time maintained by the
 529:Middlewares/Third_Party/FreeRTOS/Source/portable/GCC/ARM_CM4F/port.c **** 		kernel with respect to calendar time. */
 530:Middlewares/Third_Party/FreeRTOS/Source/portable/GCC/ARM_CM4F/port.c **** 		portNVIC_SYSTICK_CTRL_REG &= ~portNVIC_SYSTICK_ENABLE_BIT;
 531:Middlewares/Third_Party/FreeRTOS/Source/portable/GCC/ARM_CM4F/port.c **** 
 532:Middlewares/Third_Party/FreeRTOS/Source/portable/GCC/ARM_CM4F/port.c **** 		/* Calculate the reload value required to wait xExpectedIdleTime
 533:Middlewares/Third_Party/FreeRTOS/Source/portable/GCC/ARM_CM4F/port.c **** 		tick periods.  -1 is used because this code will execute part way
 534:Middlewares/Third_Party/FreeRTOS/Source/portable/GCC/ARM_CM4F/port.c **** 		through one of the tick periods. */
 535:Middlewares/Third_Party/FreeRTOS/Source/portable/GCC/ARM_CM4F/port.c **** 		ulReloadValue = portNVIC_SYSTICK_CURRENT_VALUE_REG + ( ulTimerCountsForOneTick * ( xExpectedIdleT
 536:Middlewares/Third_Party/FreeRTOS/Source/portable/GCC/ARM_CM4F/port.c **** 		if( ulReloadValue > ulStoppedTimerCompensation )
 537:Middlewares/Third_Party/FreeRTOS/Source/portable/GCC/ARM_CM4F/port.c **** 		{
 538:Middlewares/Third_Party/FreeRTOS/Source/portable/GCC/ARM_CM4F/port.c **** 			ulReloadValue -= ulStoppedTimerCompensation;
 539:Middlewares/Third_Party/FreeRTOS/Source/portable/GCC/ARM_CM4F/port.c **** 		}
 540:Middlewares/Third_Party/FreeRTOS/Source/portable/GCC/ARM_CM4F/port.c **** 
 541:Middlewares/Third_Party/FreeRTOS/Source/portable/GCC/ARM_CM4F/port.c **** 		/* Enter a critical section but don't use the taskENTER_CRITICAL()
 542:Middlewares/Third_Party/FreeRTOS/Source/portable/GCC/ARM_CM4F/port.c **** 		method as that will mask interrupts that should exit sleep mode. */
 543:Middlewares/Third_Party/FreeRTOS/Source/portable/GCC/ARM_CM4F/port.c **** 		__asm volatile( "cpsid i" );
 544:Middlewares/Third_Party/FreeRTOS/Source/portable/GCC/ARM_CM4F/port.c **** 		__asm volatile( "dsb" );
 545:Middlewares/Third_Party/FreeRTOS/Source/portable/GCC/ARM_CM4F/port.c **** 		__asm volatile( "isb" );
 546:Middlewares/Third_Party/FreeRTOS/Source/portable/GCC/ARM_CM4F/port.c **** 
 547:Middlewares/Third_Party/FreeRTOS/Source/portable/GCC/ARM_CM4F/port.c **** 		/* If a context switch is pending or a task is waiting for the scheduler
ARM GAS  /tmp/cclcvJlT.s 			page 31


 548:Middlewares/Third_Party/FreeRTOS/Source/portable/GCC/ARM_CM4F/port.c **** 		to be unsuspended then abandon the low power entry. */
 549:Middlewares/Third_Party/FreeRTOS/Source/portable/GCC/ARM_CM4F/port.c **** 		if( eTaskConfirmSleepModeStatus() == eAbortSleep )
 550:Middlewares/Third_Party/FreeRTOS/Source/portable/GCC/ARM_CM4F/port.c **** 		{
 551:Middlewares/Third_Party/FreeRTOS/Source/portable/GCC/ARM_CM4F/port.c **** 			/* Restart from whatever is left in the count register to complete
 552:Middlewares/Third_Party/FreeRTOS/Source/portable/GCC/ARM_CM4F/port.c **** 			this tick period. */
 553:Middlewares/Third_Party/FreeRTOS/Source/portable/GCC/ARM_CM4F/port.c **** 			portNVIC_SYSTICK_LOAD_REG = portNVIC_SYSTICK_CURRENT_VALUE_REG;
 554:Middlewares/Third_Party/FreeRTOS/Source/portable/GCC/ARM_CM4F/port.c **** 
 555:Middlewares/Third_Party/FreeRTOS/Source/portable/GCC/ARM_CM4F/port.c **** 			/* Restart SysTick. */
 556:Middlewares/Third_Party/FreeRTOS/Source/portable/GCC/ARM_CM4F/port.c **** 			portNVIC_SYSTICK_CTRL_REG |= portNVIC_SYSTICK_ENABLE_BIT;
 557:Middlewares/Third_Party/FreeRTOS/Source/portable/GCC/ARM_CM4F/port.c **** 
 558:Middlewares/Third_Party/FreeRTOS/Source/portable/GCC/ARM_CM4F/port.c **** 			/* Reset the reload register to the value required for normal tick
 559:Middlewares/Third_Party/FreeRTOS/Source/portable/GCC/ARM_CM4F/port.c **** 			periods. */
 560:Middlewares/Third_Party/FreeRTOS/Source/portable/GCC/ARM_CM4F/port.c **** 			portNVIC_SYSTICK_LOAD_REG = ulTimerCountsForOneTick - 1UL;
 561:Middlewares/Third_Party/FreeRTOS/Source/portable/GCC/ARM_CM4F/port.c **** 
 562:Middlewares/Third_Party/FreeRTOS/Source/portable/GCC/ARM_CM4F/port.c **** 			/* Re-enable interrupts - see comments above the cpsid instruction()
 563:Middlewares/Third_Party/FreeRTOS/Source/portable/GCC/ARM_CM4F/port.c **** 			above. */
 564:Middlewares/Third_Party/FreeRTOS/Source/portable/GCC/ARM_CM4F/port.c **** 			__asm volatile( "cpsie i" );
 565:Middlewares/Third_Party/FreeRTOS/Source/portable/GCC/ARM_CM4F/port.c **** 		}
 566:Middlewares/Third_Party/FreeRTOS/Source/portable/GCC/ARM_CM4F/port.c **** 		else
 567:Middlewares/Third_Party/FreeRTOS/Source/portable/GCC/ARM_CM4F/port.c **** 		{
 568:Middlewares/Third_Party/FreeRTOS/Source/portable/GCC/ARM_CM4F/port.c **** 			/* Set the new reload value. */
 569:Middlewares/Third_Party/FreeRTOS/Source/portable/GCC/ARM_CM4F/port.c **** 			portNVIC_SYSTICK_LOAD_REG = ulReloadValue;
 570:Middlewares/Third_Party/FreeRTOS/Source/portable/GCC/ARM_CM4F/port.c **** 
 571:Middlewares/Third_Party/FreeRTOS/Source/portable/GCC/ARM_CM4F/port.c **** 			/* Clear the SysTick count flag and set the count value back to
 572:Middlewares/Third_Party/FreeRTOS/Source/portable/GCC/ARM_CM4F/port.c **** 			zero. */
 573:Middlewares/Third_Party/FreeRTOS/Source/portable/GCC/ARM_CM4F/port.c **** 			portNVIC_SYSTICK_CURRENT_VALUE_REG = 0UL;
 574:Middlewares/Third_Party/FreeRTOS/Source/portable/GCC/ARM_CM4F/port.c **** 
 575:Middlewares/Third_Party/FreeRTOS/Source/portable/GCC/ARM_CM4F/port.c **** 			/* Restart SysTick. */
 576:Middlewares/Third_Party/FreeRTOS/Source/portable/GCC/ARM_CM4F/port.c **** 			portNVIC_SYSTICK_CTRL_REG |= portNVIC_SYSTICK_ENABLE_BIT;
 577:Middlewares/Third_Party/FreeRTOS/Source/portable/GCC/ARM_CM4F/port.c **** 
 578:Middlewares/Third_Party/FreeRTOS/Source/portable/GCC/ARM_CM4F/port.c **** 			/* Sleep until something happens.  configPRE_SLEEP_PROCESSING() can
 579:Middlewares/Third_Party/FreeRTOS/Source/portable/GCC/ARM_CM4F/port.c **** 			set its parameter to 0 to indicate that its implementation contains
 580:Middlewares/Third_Party/FreeRTOS/Source/portable/GCC/ARM_CM4F/port.c **** 			its own wait for interrupt or wait for event instruction, and so wfi
 581:Middlewares/Third_Party/FreeRTOS/Source/portable/GCC/ARM_CM4F/port.c **** 			should not be executed again.  However, the original expected idle
 582:Middlewares/Third_Party/FreeRTOS/Source/portable/GCC/ARM_CM4F/port.c **** 			time variable must remain unmodified, so a copy is taken. */
 583:Middlewares/Third_Party/FreeRTOS/Source/portable/GCC/ARM_CM4F/port.c **** 			xModifiableIdleTime = xExpectedIdleTime;
 584:Middlewares/Third_Party/FreeRTOS/Source/portable/GCC/ARM_CM4F/port.c **** 			configPRE_SLEEP_PROCESSING( &xModifiableIdleTime );
 585:Middlewares/Third_Party/FreeRTOS/Source/portable/GCC/ARM_CM4F/port.c **** 			if( xModifiableIdleTime > 0 )
 586:Middlewares/Third_Party/FreeRTOS/Source/portable/GCC/ARM_CM4F/port.c **** 			{
 587:Middlewares/Third_Party/FreeRTOS/Source/portable/GCC/ARM_CM4F/port.c **** 				__asm volatile( "dsb" );
 588:Middlewares/Third_Party/FreeRTOS/Source/portable/GCC/ARM_CM4F/port.c **** 				__asm volatile( "wfi" );
 589:Middlewares/Third_Party/FreeRTOS/Source/portable/GCC/ARM_CM4F/port.c **** 				__asm volatile( "isb" );
 590:Middlewares/Third_Party/FreeRTOS/Source/portable/GCC/ARM_CM4F/port.c **** 			}
 591:Middlewares/Third_Party/FreeRTOS/Source/portable/GCC/ARM_CM4F/port.c **** 			configPOST_SLEEP_PROCESSING( &xExpectedIdleTime );
 592:Middlewares/Third_Party/FreeRTOS/Source/portable/GCC/ARM_CM4F/port.c **** 
 593:Middlewares/Third_Party/FreeRTOS/Source/portable/GCC/ARM_CM4F/port.c **** 			/* Stop SysTick.  Again, the time the SysTick is stopped for is
 594:Middlewares/Third_Party/FreeRTOS/Source/portable/GCC/ARM_CM4F/port.c **** 			accounted for as best it can be, but using the tickless mode will
 595:Middlewares/Third_Party/FreeRTOS/Source/portable/GCC/ARM_CM4F/port.c **** 			inevitably result in some tiny drift of the time maintained by the
 596:Middlewares/Third_Party/FreeRTOS/Source/portable/GCC/ARM_CM4F/port.c **** 			kernel with respect to calendar time. */
 597:Middlewares/Third_Party/FreeRTOS/Source/portable/GCC/ARM_CM4F/port.c **** 			ulSysTickCTRL = portNVIC_SYSTICK_CTRL_REG;
 598:Middlewares/Third_Party/FreeRTOS/Source/portable/GCC/ARM_CM4F/port.c **** 			portNVIC_SYSTICK_CTRL_REG = ( ulSysTickCTRL & ~portNVIC_SYSTICK_ENABLE_BIT );
 599:Middlewares/Third_Party/FreeRTOS/Source/portable/GCC/ARM_CM4F/port.c **** 
 600:Middlewares/Third_Party/FreeRTOS/Source/portable/GCC/ARM_CM4F/port.c **** 			/* Re-enable interrupts - see comments above the cpsid instruction()
 601:Middlewares/Third_Party/FreeRTOS/Source/portable/GCC/ARM_CM4F/port.c **** 			above. */
 602:Middlewares/Third_Party/FreeRTOS/Source/portable/GCC/ARM_CM4F/port.c **** 			__asm volatile( "cpsie i" );
 603:Middlewares/Third_Party/FreeRTOS/Source/portable/GCC/ARM_CM4F/port.c **** 
 604:Middlewares/Third_Party/FreeRTOS/Source/portable/GCC/ARM_CM4F/port.c **** 			if( ( ulSysTickCTRL & portNVIC_SYSTICK_COUNT_FLAG_BIT ) != 0 )
ARM GAS  /tmp/cclcvJlT.s 			page 32


 605:Middlewares/Third_Party/FreeRTOS/Source/portable/GCC/ARM_CM4F/port.c **** 			{
 606:Middlewares/Third_Party/FreeRTOS/Source/portable/GCC/ARM_CM4F/port.c **** 				uint32_t ulCalculatedLoadValue;
 607:Middlewares/Third_Party/FreeRTOS/Source/portable/GCC/ARM_CM4F/port.c **** 
 608:Middlewares/Third_Party/FreeRTOS/Source/portable/GCC/ARM_CM4F/port.c **** 				/* The tick interrupt has already executed, and the SysTick
 609:Middlewares/Third_Party/FreeRTOS/Source/portable/GCC/ARM_CM4F/port.c **** 				count reloaded with ulReloadValue.  Reset the
 610:Middlewares/Third_Party/FreeRTOS/Source/portable/GCC/ARM_CM4F/port.c **** 				portNVIC_SYSTICK_LOAD_REG with whatever remains of this tick
 611:Middlewares/Third_Party/FreeRTOS/Source/portable/GCC/ARM_CM4F/port.c **** 				period. */
 612:Middlewares/Third_Party/FreeRTOS/Source/portable/GCC/ARM_CM4F/port.c **** 				ulCalculatedLoadValue = ( ulTimerCountsForOneTick - 1UL ) - ( ulReloadValue - portNVIC_SYSTICK_
 613:Middlewares/Third_Party/FreeRTOS/Source/portable/GCC/ARM_CM4F/port.c **** 
 614:Middlewares/Third_Party/FreeRTOS/Source/portable/GCC/ARM_CM4F/port.c **** 				/* Don't allow a tiny value, or values that have somehow
 615:Middlewares/Third_Party/FreeRTOS/Source/portable/GCC/ARM_CM4F/port.c **** 				underflowed because the post sleep hook did something
 616:Middlewares/Third_Party/FreeRTOS/Source/portable/GCC/ARM_CM4F/port.c **** 				that took too long. */
 617:Middlewares/Third_Party/FreeRTOS/Source/portable/GCC/ARM_CM4F/port.c **** 				if( ( ulCalculatedLoadValue < ulStoppedTimerCompensation ) || ( ulCalculatedLoadValue > ulTimer
 618:Middlewares/Third_Party/FreeRTOS/Source/portable/GCC/ARM_CM4F/port.c **** 				{
 619:Middlewares/Third_Party/FreeRTOS/Source/portable/GCC/ARM_CM4F/port.c **** 					ulCalculatedLoadValue = ( ulTimerCountsForOneTick - 1UL );
 620:Middlewares/Third_Party/FreeRTOS/Source/portable/GCC/ARM_CM4F/port.c **** 				}
 621:Middlewares/Third_Party/FreeRTOS/Source/portable/GCC/ARM_CM4F/port.c **** 
 622:Middlewares/Third_Party/FreeRTOS/Source/portable/GCC/ARM_CM4F/port.c **** 				portNVIC_SYSTICK_LOAD_REG = ulCalculatedLoadValue;
 623:Middlewares/Third_Party/FreeRTOS/Source/portable/GCC/ARM_CM4F/port.c **** 
 624:Middlewares/Third_Party/FreeRTOS/Source/portable/GCC/ARM_CM4F/port.c **** 				/* The tick interrupt handler will already have pended the tick
 625:Middlewares/Third_Party/FreeRTOS/Source/portable/GCC/ARM_CM4F/port.c **** 				processing in the kernel.  As the pending tick will be
 626:Middlewares/Third_Party/FreeRTOS/Source/portable/GCC/ARM_CM4F/port.c **** 				processed as soon as this function exits, the tick value
 627:Middlewares/Third_Party/FreeRTOS/Source/portable/GCC/ARM_CM4F/port.c **** 				maintained by the tick is stepped forward by one less than the
 628:Middlewares/Third_Party/FreeRTOS/Source/portable/GCC/ARM_CM4F/port.c **** 				time spent waiting. */
 629:Middlewares/Third_Party/FreeRTOS/Source/portable/GCC/ARM_CM4F/port.c **** 				ulCompleteTickPeriods = xExpectedIdleTime - 1UL;
 630:Middlewares/Third_Party/FreeRTOS/Source/portable/GCC/ARM_CM4F/port.c **** 			}
 631:Middlewares/Third_Party/FreeRTOS/Source/portable/GCC/ARM_CM4F/port.c **** 			else
 632:Middlewares/Third_Party/FreeRTOS/Source/portable/GCC/ARM_CM4F/port.c **** 			{
 633:Middlewares/Third_Party/FreeRTOS/Source/portable/GCC/ARM_CM4F/port.c **** 				/* Something other than the tick interrupt ended the sleep.
 634:Middlewares/Third_Party/FreeRTOS/Source/portable/GCC/ARM_CM4F/port.c **** 				Work out how long the sleep lasted rounded to complete tick
 635:Middlewares/Third_Party/FreeRTOS/Source/portable/GCC/ARM_CM4F/port.c **** 				periods (not the ulReload value which accounted for part
 636:Middlewares/Third_Party/FreeRTOS/Source/portable/GCC/ARM_CM4F/port.c **** 				ticks). */
 637:Middlewares/Third_Party/FreeRTOS/Source/portable/GCC/ARM_CM4F/port.c **** 				ulCompletedSysTickDecrements = ( xExpectedIdleTime * ulTimerCountsForOneTick ) - portNVIC_SYSTI
 638:Middlewares/Third_Party/FreeRTOS/Source/portable/GCC/ARM_CM4F/port.c **** 
 639:Middlewares/Third_Party/FreeRTOS/Source/portable/GCC/ARM_CM4F/port.c **** 				/* How many complete tick periods passed while the processor
 640:Middlewares/Third_Party/FreeRTOS/Source/portable/GCC/ARM_CM4F/port.c **** 				was waiting? */
 641:Middlewares/Third_Party/FreeRTOS/Source/portable/GCC/ARM_CM4F/port.c **** 				ulCompleteTickPeriods = ulCompletedSysTickDecrements / ulTimerCountsForOneTick;
 642:Middlewares/Third_Party/FreeRTOS/Source/portable/GCC/ARM_CM4F/port.c **** 
 643:Middlewares/Third_Party/FreeRTOS/Source/portable/GCC/ARM_CM4F/port.c **** 				/* The reload value is set to whatever fraction of a single tick
 644:Middlewares/Third_Party/FreeRTOS/Source/portable/GCC/ARM_CM4F/port.c **** 				period remains. */
 645:Middlewares/Third_Party/FreeRTOS/Source/portable/GCC/ARM_CM4F/port.c **** 				portNVIC_SYSTICK_LOAD_REG = ( ( ulCompleteTickPeriods + 1UL ) * ulTimerCountsForOneTick ) - ulC
 646:Middlewares/Third_Party/FreeRTOS/Source/portable/GCC/ARM_CM4F/port.c **** 			}
 647:Middlewares/Third_Party/FreeRTOS/Source/portable/GCC/ARM_CM4F/port.c **** 
 648:Middlewares/Third_Party/FreeRTOS/Source/portable/GCC/ARM_CM4F/port.c **** 			/* Restart SysTick so it runs from portNVIC_SYSTICK_LOAD_REG
 649:Middlewares/Third_Party/FreeRTOS/Source/portable/GCC/ARM_CM4F/port.c **** 			again, then set portNVIC_SYSTICK_LOAD_REG back to its standard
 650:Middlewares/Third_Party/FreeRTOS/Source/portable/GCC/ARM_CM4F/port.c **** 			value.  The critical section is used to ensure the tick interrupt
 651:Middlewares/Third_Party/FreeRTOS/Source/portable/GCC/ARM_CM4F/port.c **** 			can only execute once in the case that the reload register is near
 652:Middlewares/Third_Party/FreeRTOS/Source/portable/GCC/ARM_CM4F/port.c **** 			zero. */
 653:Middlewares/Third_Party/FreeRTOS/Source/portable/GCC/ARM_CM4F/port.c **** 			portNVIC_SYSTICK_CURRENT_VALUE_REG = 0UL;
 654:Middlewares/Third_Party/FreeRTOS/Source/portable/GCC/ARM_CM4F/port.c **** 			portENTER_CRITICAL();
 655:Middlewares/Third_Party/FreeRTOS/Source/portable/GCC/ARM_CM4F/port.c **** 			{
 656:Middlewares/Third_Party/FreeRTOS/Source/portable/GCC/ARM_CM4F/port.c **** 				portNVIC_SYSTICK_CTRL_REG |= portNVIC_SYSTICK_ENABLE_BIT;
 657:Middlewares/Third_Party/FreeRTOS/Source/portable/GCC/ARM_CM4F/port.c **** 				vTaskStepTick( ulCompleteTickPeriods );
 658:Middlewares/Third_Party/FreeRTOS/Source/portable/GCC/ARM_CM4F/port.c **** 				portNVIC_SYSTICK_LOAD_REG = ulTimerCountsForOneTick - 1UL;
 659:Middlewares/Third_Party/FreeRTOS/Source/portable/GCC/ARM_CM4F/port.c **** 			}
 660:Middlewares/Third_Party/FreeRTOS/Source/portable/GCC/ARM_CM4F/port.c **** 			portEXIT_CRITICAL();
 661:Middlewares/Third_Party/FreeRTOS/Source/portable/GCC/ARM_CM4F/port.c **** 		}
ARM GAS  /tmp/cclcvJlT.s 			page 33


 662:Middlewares/Third_Party/FreeRTOS/Source/portable/GCC/ARM_CM4F/port.c **** 	}
 663:Middlewares/Third_Party/FreeRTOS/Source/portable/GCC/ARM_CM4F/port.c **** 
 664:Middlewares/Third_Party/FreeRTOS/Source/portable/GCC/ARM_CM4F/port.c **** #endif /* #if configUSE_TICKLESS_IDLE */
 665:Middlewares/Third_Party/FreeRTOS/Source/portable/GCC/ARM_CM4F/port.c **** /*-----------------------------------------------------------*/
 666:Middlewares/Third_Party/FreeRTOS/Source/portable/GCC/ARM_CM4F/port.c **** 
 667:Middlewares/Third_Party/FreeRTOS/Source/portable/GCC/ARM_CM4F/port.c **** /*
 668:Middlewares/Third_Party/FreeRTOS/Source/portable/GCC/ARM_CM4F/port.c ****  * Setup the systick timer to generate the tick interrupts at the required
 669:Middlewares/Third_Party/FreeRTOS/Source/portable/GCC/ARM_CM4F/port.c ****  * frequency.
 670:Middlewares/Third_Party/FreeRTOS/Source/portable/GCC/ARM_CM4F/port.c ****  */
 671:Middlewares/Third_Party/FreeRTOS/Source/portable/GCC/ARM_CM4F/port.c **** __attribute__(( weak )) void vPortSetupTimerInterrupt( void )
 672:Middlewares/Third_Party/FreeRTOS/Source/portable/GCC/ARM_CM4F/port.c **** {
 919              		.loc 1 672 0
 920              		.cfi_startproc
 921              		@ args = 0, pretend = 0, frame = 0
 922              		@ frame_needed = 1, uses_anonymous_args = 0
 923              		@ link register save eliminated.
 924 0000 80B4     		push	{r7}
 925              	.LCFI37:
 926              		.cfi_def_cfa_offset 4
 927              		.cfi_offset 7, -4
 928 0002 00AF     		add	r7, sp, #0
 929              	.LCFI38:
 930              		.cfi_def_cfa_register 7
 673:Middlewares/Third_Party/FreeRTOS/Source/portable/GCC/ARM_CM4F/port.c **** 	/* Calculate the constants required to configure the tick interrupt. */
 674:Middlewares/Third_Party/FreeRTOS/Source/portable/GCC/ARM_CM4F/port.c **** 	#if configUSE_TICKLESS_IDLE == 1
 675:Middlewares/Third_Party/FreeRTOS/Source/portable/GCC/ARM_CM4F/port.c **** 	{
 676:Middlewares/Third_Party/FreeRTOS/Source/portable/GCC/ARM_CM4F/port.c **** 		ulTimerCountsForOneTick = ( configSYSTICK_CLOCK_HZ / configTICK_RATE_HZ );
 677:Middlewares/Third_Party/FreeRTOS/Source/portable/GCC/ARM_CM4F/port.c **** 		xMaximumPossibleSuppressedTicks = portMAX_24_BIT_NUMBER / ulTimerCountsForOneTick;
 678:Middlewares/Third_Party/FreeRTOS/Source/portable/GCC/ARM_CM4F/port.c **** 		ulStoppedTimerCompensation = portMISSED_COUNTS_FACTOR / ( configCPU_CLOCK_HZ / configSYSTICK_CLOC
 679:Middlewares/Third_Party/FreeRTOS/Source/portable/GCC/ARM_CM4F/port.c **** 	}
 680:Middlewares/Third_Party/FreeRTOS/Source/portable/GCC/ARM_CM4F/port.c **** 	#endif /* configUSE_TICKLESS_IDLE */
 681:Middlewares/Third_Party/FreeRTOS/Source/portable/GCC/ARM_CM4F/port.c **** 
 682:Middlewares/Third_Party/FreeRTOS/Source/portable/GCC/ARM_CM4F/port.c **** 	/* Configure SysTick to interrupt at the requested rate. */
 683:Middlewares/Third_Party/FreeRTOS/Source/portable/GCC/ARM_CM4F/port.c **** 	portNVIC_SYSTICK_LOAD_REG = ( configSYSTICK_CLOCK_HZ / configTICK_RATE_HZ ) - 1UL;
 931              		.loc 1 683 0
 932 0004 084A     		ldr	r2, .L48
 933 0006 094B     		ldr	r3, .L48+4
 934 0008 1B68     		ldr	r3, [r3]
 935 000a 0949     		ldr	r1, .L48+8
 936 000c A1FB0313 		umull	r1, r3, r1, r3
 937 0010 9B09     		lsrs	r3, r3, #6
 938 0012 013B     		subs	r3, r3, #1
 939 0014 1360     		str	r3, [r2]
 684:Middlewares/Third_Party/FreeRTOS/Source/portable/GCC/ARM_CM4F/port.c **** 	portNVIC_SYSTICK_CTRL_REG = ( portNVIC_SYSTICK_CLK_BIT | portNVIC_SYSTICK_INT_BIT | portNVIC_SYSTI
 940              		.loc 1 684 0
 941 0016 074B     		ldr	r3, .L48+12
 942 0018 0722     		movs	r2, #7
 943 001a 1A60     		str	r2, [r3]
 685:Middlewares/Third_Party/FreeRTOS/Source/portable/GCC/ARM_CM4F/port.c **** }
 944              		.loc 1 685 0
 945 001c 00BF     		nop
 946 001e BD46     		mov	sp, r7
 947              	.LCFI39:
 948              		.cfi_def_cfa_register 13
 949              		@ sp needed
 950 0020 5DF8047B 		ldr	r7, [sp], #4
 951              	.LCFI40:
ARM GAS  /tmp/cclcvJlT.s 			page 34


 952              		.cfi_restore 7
 953              		.cfi_def_cfa_offset 0
 954 0024 7047     		bx	lr
 955              	.L49:
 956 0026 00BF     		.align	2
 957              	.L48:
 958 0028 14E000E0 		.word	-536813548
 959 002c 00000000 		.word	SystemCoreClock
 960 0030 D34D6210 		.word	274877907
 961 0034 10E000E0 		.word	-536813552
 962              		.cfi_endproc
 963              	.LFE15:
 965              		.section	.text.vPortEnableVFP,"ax",%progbits
 966              		.align	1
 967              		.syntax unified
 968              		.thumb
 969              		.thumb_func
 970              		.fpu fpv4-sp-d16
 972              	vPortEnableVFP:
 973              	.LFB16:
 686:Middlewares/Third_Party/FreeRTOS/Source/portable/GCC/ARM_CM4F/port.c **** /*-----------------------------------------------------------*/
 687:Middlewares/Third_Party/FreeRTOS/Source/portable/GCC/ARM_CM4F/port.c **** 
 688:Middlewares/Third_Party/FreeRTOS/Source/portable/GCC/ARM_CM4F/port.c **** /* This is a naked function. */
 689:Middlewares/Third_Party/FreeRTOS/Source/portable/GCC/ARM_CM4F/port.c **** static void vPortEnableVFP( void )
 690:Middlewares/Third_Party/FreeRTOS/Source/portable/GCC/ARM_CM4F/port.c **** {
 974              		.loc 1 690 0
 975              		.cfi_startproc
 976              		@ Naked Function: prologue and epilogue provided by programmer.
 977              		@ args = 0, pretend = 0, frame = 0
 978              		@ frame_needed = 1, uses_anonymous_args = 0
 691:Middlewares/Third_Party/FreeRTOS/Source/portable/GCC/ARM_CM4F/port.c **** 	__asm volatile
 979              		.loc 1 691 0
 980              		.syntax unified
 981              	@ 691 "Middlewares/Third_Party/FreeRTOS/Source/portable/GCC/ARM_CM4F/port.c" 1
 982 0000 DFF80C00 			ldr.w r0, =0xE000ED88		
 983 0004 0168     		ldr r1, [r0]				
 984              									
 985 0006 41F47001 		orr r1, r1, #( 0xf << 20 )	
 986 000a 0160     		str r1, [r0]				
 987 000c 7047     		bx r14						
 988              	@ 0 "" 2
 692:Middlewares/Third_Party/FreeRTOS/Source/portable/GCC/ARM_CM4F/port.c **** 	(
 693:Middlewares/Third_Party/FreeRTOS/Source/portable/GCC/ARM_CM4F/port.c **** 		"	ldr.w r0, =0xE000ED88		\n" /* The FPU enable bits are in the CPACR. */
 694:Middlewares/Third_Party/FreeRTOS/Source/portable/GCC/ARM_CM4F/port.c **** 		"	ldr r1, [r0]				\n"
 695:Middlewares/Third_Party/FreeRTOS/Source/portable/GCC/ARM_CM4F/port.c **** 		"								\n"
 696:Middlewares/Third_Party/FreeRTOS/Source/portable/GCC/ARM_CM4F/port.c **** 		"	orr r1, r1, #( 0xf << 20 )	\n" /* Enable CP10 and CP11 coprocessors, then save back. */
 697:Middlewares/Third_Party/FreeRTOS/Source/portable/GCC/ARM_CM4F/port.c **** 		"	str r1, [r0]				\n"
 698:Middlewares/Third_Party/FreeRTOS/Source/portable/GCC/ARM_CM4F/port.c **** 		"	bx r14						"
 699:Middlewares/Third_Party/FreeRTOS/Source/portable/GCC/ARM_CM4F/port.c **** 	);
 700:Middlewares/Third_Party/FreeRTOS/Source/portable/GCC/ARM_CM4F/port.c **** }
 989              		.loc 1 700 0
 990              		.thumb
 991              		.syntax unified
 992 000e 00BF     		nop
 993              		.cfi_endproc
 994              	.LFE16:
 996              		.section	.text.vPortValidateInterruptPriority,"ax",%progbits
ARM GAS  /tmp/cclcvJlT.s 			page 35


 997              		.align	1
 998              		.global	vPortValidateInterruptPriority
 999              		.syntax unified
 1000              		.thumb
 1001              		.thumb_func
 1002              		.fpu fpv4-sp-d16
 1004              	vPortValidateInterruptPriority:
 1005              	.LFB17:
 701:Middlewares/Third_Party/FreeRTOS/Source/portable/GCC/ARM_CM4F/port.c **** /*-----------------------------------------------------------*/
 702:Middlewares/Third_Party/FreeRTOS/Source/portable/GCC/ARM_CM4F/port.c **** 
 703:Middlewares/Third_Party/FreeRTOS/Source/portable/GCC/ARM_CM4F/port.c **** #if( configASSERT_DEFINED == 1 )
 704:Middlewares/Third_Party/FreeRTOS/Source/portable/GCC/ARM_CM4F/port.c **** 
 705:Middlewares/Third_Party/FreeRTOS/Source/portable/GCC/ARM_CM4F/port.c **** 	void vPortValidateInterruptPriority( void )
 706:Middlewares/Third_Party/FreeRTOS/Source/portable/GCC/ARM_CM4F/port.c **** 	{
 1006              		.loc 1 706 0
 1007              		.cfi_startproc
 1008              		@ args = 0, pretend = 0, frame = 16
 1009              		@ frame_needed = 1, uses_anonymous_args = 0
 1010              		@ link register save eliminated.
 1011 0000 80B4     		push	{r7}
 1012              	.LCFI41:
 1013              		.cfi_def_cfa_offset 4
 1014              		.cfi_offset 7, -4
 1015 0002 85B0     		sub	sp, sp, #20
 1016              	.LCFI42:
 1017              		.cfi_def_cfa_offset 24
 1018 0004 00AF     		add	r7, sp, #0
 1019              	.LCFI43:
 1020              		.cfi_def_cfa_register 7
 707:Middlewares/Third_Party/FreeRTOS/Source/portable/GCC/ARM_CM4F/port.c **** 	uint32_t ulCurrentInterrupt;
 708:Middlewares/Third_Party/FreeRTOS/Source/portable/GCC/ARM_CM4F/port.c **** 	uint8_t ucCurrentPriority;
 709:Middlewares/Third_Party/FreeRTOS/Source/portable/GCC/ARM_CM4F/port.c **** 
 710:Middlewares/Third_Party/FreeRTOS/Source/portable/GCC/ARM_CM4F/port.c **** 		/* Obtain the number of the currently executing interrupt. */
 711:Middlewares/Third_Party/FreeRTOS/Source/portable/GCC/ARM_CM4F/port.c **** 		__asm volatile( "mrs %0, ipsr" : "=r"( ulCurrentInterrupt ) );
 1021              		.loc 1 711 0
 1022              		.syntax unified
 1023              	@ 711 "Middlewares/Third_Party/FreeRTOS/Source/portable/GCC/ARM_CM4F/port.c" 1
 1024 0006 EFF30583 		mrs r3, ipsr
 1025              	@ 0 "" 2
 1026              		.thumb
 1027              		.syntax unified
 1028 000a FB60     		str	r3, [r7, #12]
 712:Middlewares/Third_Party/FreeRTOS/Source/portable/GCC/ARM_CM4F/port.c **** 
 713:Middlewares/Third_Party/FreeRTOS/Source/portable/GCC/ARM_CM4F/port.c **** 		/* Is the interrupt number a user defined interrupt? */
 714:Middlewares/Third_Party/FreeRTOS/Source/portable/GCC/ARM_CM4F/port.c **** 		if( ulCurrentInterrupt >= portFIRST_USER_INTERRUPT_NUMBER )
 1029              		.loc 1 714 0
 1030 000c FB68     		ldr	r3, [r7, #12]
 1031 000e 0F2B     		cmp	r3, #15
 1032 0010 13D9     		bls	.L52
 715:Middlewares/Third_Party/FreeRTOS/Source/portable/GCC/ARM_CM4F/port.c **** 		{
 716:Middlewares/Third_Party/FreeRTOS/Source/portable/GCC/ARM_CM4F/port.c **** 			/* Look up the interrupt's priority. */
 717:Middlewares/Third_Party/FreeRTOS/Source/portable/GCC/ARM_CM4F/port.c **** 			ucCurrentPriority = pcInterruptPriorityRegisters[ ulCurrentInterrupt ];
 1033              		.loc 1 717 0
 1034 0012 164A     		ldr	r2, .L57
 1035 0014 FB68     		ldr	r3, [r7, #12]
 1036 0016 1344     		add	r3, r3, r2
 1037 0018 1B78     		ldrb	r3, [r3]
ARM GAS  /tmp/cclcvJlT.s 			page 36


 1038 001a FB72     		strb	r3, [r7, #11]
 718:Middlewares/Third_Party/FreeRTOS/Source/portable/GCC/ARM_CM4F/port.c **** 
 719:Middlewares/Third_Party/FreeRTOS/Source/portable/GCC/ARM_CM4F/port.c **** 			/* The following assertion will fail if a service routine (ISR) for
 720:Middlewares/Third_Party/FreeRTOS/Source/portable/GCC/ARM_CM4F/port.c **** 			an interrupt that has been assigned a priority above
 721:Middlewares/Third_Party/FreeRTOS/Source/portable/GCC/ARM_CM4F/port.c **** 			configMAX_SYSCALL_INTERRUPT_PRIORITY calls an ISR safe FreeRTOS API
 722:Middlewares/Third_Party/FreeRTOS/Source/portable/GCC/ARM_CM4F/port.c **** 			function.  ISR safe FreeRTOS API functions must *only* be called
 723:Middlewares/Third_Party/FreeRTOS/Source/portable/GCC/ARM_CM4F/port.c **** 			from interrupts that have been assigned a priority at or below
 724:Middlewares/Third_Party/FreeRTOS/Source/portable/GCC/ARM_CM4F/port.c **** 			configMAX_SYSCALL_INTERRUPT_PRIORITY.
 725:Middlewares/Third_Party/FreeRTOS/Source/portable/GCC/ARM_CM4F/port.c **** 
 726:Middlewares/Third_Party/FreeRTOS/Source/portable/GCC/ARM_CM4F/port.c **** 			Numerically low interrupt priority numbers represent logically high
 727:Middlewares/Third_Party/FreeRTOS/Source/portable/GCC/ARM_CM4F/port.c **** 			interrupt priorities, therefore the priority of the interrupt must
 728:Middlewares/Third_Party/FreeRTOS/Source/portable/GCC/ARM_CM4F/port.c **** 			be set to a value equal to or numerically *higher* than
 729:Middlewares/Third_Party/FreeRTOS/Source/portable/GCC/ARM_CM4F/port.c **** 			configMAX_SYSCALL_INTERRUPT_PRIORITY.
 730:Middlewares/Third_Party/FreeRTOS/Source/portable/GCC/ARM_CM4F/port.c **** 
 731:Middlewares/Third_Party/FreeRTOS/Source/portable/GCC/ARM_CM4F/port.c **** 			Interrupts that	use the FreeRTOS API must not be left at their
 732:Middlewares/Third_Party/FreeRTOS/Source/portable/GCC/ARM_CM4F/port.c **** 			default priority of	zero as that is the highest possible priority,
 733:Middlewares/Third_Party/FreeRTOS/Source/portable/GCC/ARM_CM4F/port.c **** 			which is guaranteed to be above configMAX_SYSCALL_INTERRUPT_PRIORITY,
 734:Middlewares/Third_Party/FreeRTOS/Source/portable/GCC/ARM_CM4F/port.c **** 			and	therefore also guaranteed to be invalid.
 735:Middlewares/Third_Party/FreeRTOS/Source/portable/GCC/ARM_CM4F/port.c **** 
 736:Middlewares/Third_Party/FreeRTOS/Source/portable/GCC/ARM_CM4F/port.c **** 			FreeRTOS maintains separate thread and ISR API functions to ensure
 737:Middlewares/Third_Party/FreeRTOS/Source/portable/GCC/ARM_CM4F/port.c **** 			interrupt entry is as fast and simple as possible.
 738:Middlewares/Third_Party/FreeRTOS/Source/portable/GCC/ARM_CM4F/port.c **** 
 739:Middlewares/Third_Party/FreeRTOS/Source/portable/GCC/ARM_CM4F/port.c **** 			The following links provide detailed information:
 740:Middlewares/Third_Party/FreeRTOS/Source/portable/GCC/ARM_CM4F/port.c **** 			http://www.freertos.org/RTOS-Cortex-M3-M4.html
 741:Middlewares/Third_Party/FreeRTOS/Source/portable/GCC/ARM_CM4F/port.c **** 			http://www.freertos.org/FAQHelp.html */
 742:Middlewares/Third_Party/FreeRTOS/Source/portable/GCC/ARM_CM4F/port.c **** 			configASSERT( ucCurrentPriority >= ucMaxSysCallPriority );
 1039              		.loc 1 742 0
 1040 001c 144B     		ldr	r3, .L57+4
 1041 001e 1B78     		ldrb	r3, [r3]	@ zero_extendqisi2
 1042 0020 FA7A     		ldrb	r2, [r7, #11]	@ zero_extendqisi2
 1043 0022 9A42     		cmp	r2, r3
 1044 0024 09D2     		bcs	.L52
 1045              	.LBB52:
 1046              	.LBB53:
 237:Middlewares/Third_Party/FreeRTOS/Source/portable/GCC/ARM_CM4F/portmacro.h **** 	(
 1047              		.loc 2 237 0 discriminator 1
 1048              		.syntax unified
 1049              	@ 237 "Middlewares/Third_Party/FreeRTOS/Source/portable/GCC/ARM_CM4F/portmacro.h" 1
 1050 0026 4FF05003 			mov r3, #80												
 1051 002a 83F31188 		msr basepri, r3											
 1052 002e BFF36F8F 		isb														
 1053 0032 BFF34F8F 		dsb														
 1054              	
 1055              	@ 0 "" 2
 1056              		.thumb
 1057              		.syntax unified
 1058 0036 7B60     		str	r3, [r7, #4]
 1059              	.L53:
 1060              	.LBE53:
 1061              	.LBE52:
 1062              		.loc 1 742 0 discriminator 1
 1063 0038 FEE7     		b	.L53
 1064              	.L52:
 743:Middlewares/Third_Party/FreeRTOS/Source/portable/GCC/ARM_CM4F/port.c **** 		}
 744:Middlewares/Third_Party/FreeRTOS/Source/portable/GCC/ARM_CM4F/port.c **** 
 745:Middlewares/Third_Party/FreeRTOS/Source/portable/GCC/ARM_CM4F/port.c **** 		/* Priority grouping:  The interrupt controller (NVIC) allows the bits
 746:Middlewares/Third_Party/FreeRTOS/Source/portable/GCC/ARM_CM4F/port.c **** 		that define each interrupt's priority to be split between bits that
ARM GAS  /tmp/cclcvJlT.s 			page 37


 747:Middlewares/Third_Party/FreeRTOS/Source/portable/GCC/ARM_CM4F/port.c **** 		define the interrupt's pre-emption priority bits and bits that define
 748:Middlewares/Third_Party/FreeRTOS/Source/portable/GCC/ARM_CM4F/port.c **** 		the interrupt's sub-priority.  For simplicity all bits must be defined
 749:Middlewares/Third_Party/FreeRTOS/Source/portable/GCC/ARM_CM4F/port.c **** 		to be pre-emption priority bits.  The following assertion will fail if
 750:Middlewares/Third_Party/FreeRTOS/Source/portable/GCC/ARM_CM4F/port.c **** 		this is not the case (if some bits represent a sub-priority).
 751:Middlewares/Third_Party/FreeRTOS/Source/portable/GCC/ARM_CM4F/port.c **** 
 752:Middlewares/Third_Party/FreeRTOS/Source/portable/GCC/ARM_CM4F/port.c **** 		If the application only uses CMSIS libraries for interrupt
 753:Middlewares/Third_Party/FreeRTOS/Source/portable/GCC/ARM_CM4F/port.c **** 		configuration then the correct setting can be achieved on all Cortex-M
 754:Middlewares/Third_Party/FreeRTOS/Source/portable/GCC/ARM_CM4F/port.c **** 		devices by calling NVIC_SetPriorityGrouping( 0 ); before starting the
 755:Middlewares/Third_Party/FreeRTOS/Source/portable/GCC/ARM_CM4F/port.c **** 		scheduler.  Note however that some vendor specific peripheral libraries
 756:Middlewares/Third_Party/FreeRTOS/Source/portable/GCC/ARM_CM4F/port.c **** 		assume a non-zero priority group setting, in which cases using a value
 757:Middlewares/Third_Party/FreeRTOS/Source/portable/GCC/ARM_CM4F/port.c **** 		of zero will result in unpredicable behaviour. */
 758:Middlewares/Third_Party/FreeRTOS/Source/portable/GCC/ARM_CM4F/port.c **** 		configASSERT( ( portAIRCR_REG & portPRIORITY_GROUP_MASK ) <= ulMaxPRIGROUPValue );
 1065              		.loc 1 758 0
 1066 003a 0E4B     		ldr	r3, .L57+8
 1067 003c 1B68     		ldr	r3, [r3]
 1068 003e 03F4E062 		and	r2, r3, #1792
 1069 0042 0D4B     		ldr	r3, .L57+12
 1070 0044 1B68     		ldr	r3, [r3]
 1071 0046 9A42     		cmp	r2, r3
 1072 0048 09D9     		bls	.L56
 1073              	.LBB54:
 1074              	.LBB55:
 237:Middlewares/Third_Party/FreeRTOS/Source/portable/GCC/ARM_CM4F/portmacro.h **** 	(
 1075              		.loc 2 237 0 discriminator 1
 1076              		.syntax unified
 1077              	@ 237 "Middlewares/Third_Party/FreeRTOS/Source/portable/GCC/ARM_CM4F/portmacro.h" 1
 1078 004a 4FF05003 			mov r3, #80												
 1079 004e 83F31188 		msr basepri, r3											
 1080 0052 BFF36F8F 		isb														
 1081 0056 BFF34F8F 		dsb														
 1082              	
 1083              	@ 0 "" 2
 1084              		.thumb
 1085              		.syntax unified
 1086 005a 3B60     		str	r3, [r7]
 1087              	.L55:
 1088              	.LBE55:
 1089              	.LBE54:
 1090              		.loc 1 758 0 discriminator 2
 1091 005c FEE7     		b	.L55
 1092              	.L56:
 759:Middlewares/Third_Party/FreeRTOS/Source/portable/GCC/ARM_CM4F/port.c **** 	}
 1093              		.loc 1 759 0
 1094 005e 00BF     		nop
 1095 0060 1437     		adds	r7, r7, #20
 1096              	.LCFI44:
 1097              		.cfi_def_cfa_offset 4
 1098 0062 BD46     		mov	sp, r7
 1099              	.LCFI45:
 1100              		.cfi_def_cfa_register 13
 1101              		@ sp needed
 1102 0064 5DF8047B 		ldr	r7, [sp], #4
 1103              	.LCFI46:
 1104              		.cfi_restore 7
 1105              		.cfi_def_cfa_offset 0
 1106 0068 7047     		bx	lr
 1107              	.L58:
ARM GAS  /tmp/cclcvJlT.s 			page 38


 1108 006a 00BF     		.align	2
 1109              	.L57:
 1110 006c F0E300E0 		.word	-536812560
 1111 0070 00000000 		.word	ucMaxSysCallPriority
 1112 0074 0CED00E0 		.word	-536810228
 1113 0078 00000000 		.word	ulMaxPRIGROUPValue
 1114              		.cfi_endproc
 1115              	.LFE17:
 1117              		.text
 1118              	.Letext0:
 1119              		.file 3 "/opt/gcc4mbed/gcc-arm-none-eabi/arm-none-eabi/include/machine/_default_types.h"
 1120              		.file 4 "/opt/gcc4mbed/gcc-arm-none-eabi/arm-none-eabi/include/sys/_stdint.h"
 1121              		.file 5 "Middlewares/Third_Party/FreeRTOS/Source/include/projdefs.h"
 1122              		.file 6 "Inc/FreeRTOSConfig.h"
ARM GAS  /tmp/cclcvJlT.s 			page 39

