ARM GAS  /tmp/ccphsAb6.s 			page 1


   1              		.cpu cortex-m4
   2              		.eabi_attribute 27, 1
   3              		.eabi_attribute 28, 1
   4              		.eabi_attribute 20, 1
   5              		.eabi_attribute 21, 1
   6              		.eabi_attribute 23, 3
   7              		.eabi_attribute 24, 1
   8              		.eabi_attribute 25, 1
   9              		.eabi_attribute 26, 1
  10              		.eabi_attribute 30, 6
  11              		.eabi_attribute 34, 1
  12              		.eabi_attribute 18, 4
  13              		.file	"stm32f4xx_hal_tim_ex.c"
  14              		.text
  15              	.Ltext0:
  16              		.cfi_sections	.debug_frame
  17              		.section	.text.HAL_TIMEx_HallSensor_Init,"ax",%progbits
  18              		.align	1
  19              		.global	HAL_TIMEx_HallSensor_Init
  20              		.syntax unified
  21              		.thumb
  22              		.thumb_func
  23              		.fpu fpv4-sp-d16
  25              	HAL_TIMEx_HallSensor_Init:
  26              	.LFB124:
  27              		.file 1 "Drivers/STM32F4xx_HAL_Driver/Src/stm32f4xx_hal_tim_ex.c"
   1:Drivers/STM32F4xx_HAL_Driver/Src/stm32f4xx_hal_tim_ex.c **** /**
   2:Drivers/STM32F4xx_HAL_Driver/Src/stm32f4xx_hal_tim_ex.c ****   ******************************************************************************
   3:Drivers/STM32F4xx_HAL_Driver/Src/stm32f4xx_hal_tim_ex.c ****   * @file    stm32f4xx_hal_tim_ex.c
   4:Drivers/STM32F4xx_HAL_Driver/Src/stm32f4xx_hal_tim_ex.c ****   * @author  MCD Application Team
   5:Drivers/STM32F4xx_HAL_Driver/Src/stm32f4xx_hal_tim_ex.c ****   * @brief   TIM HAL module driver.
   6:Drivers/STM32F4xx_HAL_Driver/Src/stm32f4xx_hal_tim_ex.c ****   *          This file provides firmware functions to manage the following 
   7:Drivers/STM32F4xx_HAL_Driver/Src/stm32f4xx_hal_tim_ex.c ****   *          functionalities of the Timer extension peripheral:
   8:Drivers/STM32F4xx_HAL_Driver/Src/stm32f4xx_hal_tim_ex.c ****   *           + Time Hall Sensor Interface Initialization
   9:Drivers/STM32F4xx_HAL_Driver/Src/stm32f4xx_hal_tim_ex.c ****   *           + Time Hall Sensor Interface Start
  10:Drivers/STM32F4xx_HAL_Driver/Src/stm32f4xx_hal_tim_ex.c ****   *           + Time Complementary signal bread and dead time configuration  
  11:Drivers/STM32F4xx_HAL_Driver/Src/stm32f4xx_hal_tim_ex.c ****   *           + Time Master and Slave synchronization configuration
  12:Drivers/STM32F4xx_HAL_Driver/Src/stm32f4xx_hal_tim_ex.c ****   @verbatim 
  13:Drivers/STM32F4xx_HAL_Driver/Src/stm32f4xx_hal_tim_ex.c ****   ==============================================================================
  14:Drivers/STM32F4xx_HAL_Driver/Src/stm32f4xx_hal_tim_ex.c ****                       ##### TIMER Extended features #####
  15:Drivers/STM32F4xx_HAL_Driver/Src/stm32f4xx_hal_tim_ex.c ****   ==============================================================================
  16:Drivers/STM32F4xx_HAL_Driver/Src/stm32f4xx_hal_tim_ex.c ****   [..] 
  17:Drivers/STM32F4xx_HAL_Driver/Src/stm32f4xx_hal_tim_ex.c ****     The Timer Extension features include: 
  18:Drivers/STM32F4xx_HAL_Driver/Src/stm32f4xx_hal_tim_ex.c ****     (#) Complementary outputs with programmable dead-time for :
  19:Drivers/STM32F4xx_HAL_Driver/Src/stm32f4xx_hal_tim_ex.c ****         (++) Input Capture
  20:Drivers/STM32F4xx_HAL_Driver/Src/stm32f4xx_hal_tim_ex.c ****         (++) Output Compare
  21:Drivers/STM32F4xx_HAL_Driver/Src/stm32f4xx_hal_tim_ex.c ****         (++) PWM generation (Edge and Center-aligned Mode)
  22:Drivers/STM32F4xx_HAL_Driver/Src/stm32f4xx_hal_tim_ex.c ****         (++) One-pulse mode output
  23:Drivers/STM32F4xx_HAL_Driver/Src/stm32f4xx_hal_tim_ex.c ****     (#) Synchronization circuit to control the timer with external signals and to 
  24:Drivers/STM32F4xx_HAL_Driver/Src/stm32f4xx_hal_tim_ex.c ****         interconnect several timers together.
  25:Drivers/STM32F4xx_HAL_Driver/Src/stm32f4xx_hal_tim_ex.c ****     (#) Break input to put the timer output signals in reset state or in a known state.
  26:Drivers/STM32F4xx_HAL_Driver/Src/stm32f4xx_hal_tim_ex.c ****     (#) Supports incremental (quadrature) encoder and hall-sensor circuitry for 
  27:Drivers/STM32F4xx_HAL_Driver/Src/stm32f4xx_hal_tim_ex.c ****         positioning purposes                
  28:Drivers/STM32F4xx_HAL_Driver/Src/stm32f4xx_hal_tim_ex.c ****    
  29:Drivers/STM32F4xx_HAL_Driver/Src/stm32f4xx_hal_tim_ex.c ****                         ##### How to use this driver #####
  30:Drivers/STM32F4xx_HAL_Driver/Src/stm32f4xx_hal_tim_ex.c ****   ==============================================================================
  31:Drivers/STM32F4xx_HAL_Driver/Src/stm32f4xx_hal_tim_ex.c ****   [..]
ARM GAS  /tmp/ccphsAb6.s 			page 2


  32:Drivers/STM32F4xx_HAL_Driver/Src/stm32f4xx_hal_tim_ex.c ****      (#) Initialize the TIM low level resources by implementing the following functions 
  33:Drivers/STM32F4xx_HAL_Driver/Src/stm32f4xx_hal_tim_ex.c ****          depending from feature used :
  34:Drivers/STM32F4xx_HAL_Driver/Src/stm32f4xx_hal_tim_ex.c ****            (++) Complementary Output Compare : HAL_TIM_OC_MspInit()
  35:Drivers/STM32F4xx_HAL_Driver/Src/stm32f4xx_hal_tim_ex.c ****            (++) Complementary PWM generation : HAL_TIM_PWM_MspInit()
  36:Drivers/STM32F4xx_HAL_Driver/Src/stm32f4xx_hal_tim_ex.c ****            (++) Complementary One-pulse mode output : HAL_TIM_OnePulse_MspInit()
  37:Drivers/STM32F4xx_HAL_Driver/Src/stm32f4xx_hal_tim_ex.c ****            (++) Hall Sensor output : HAL_TIM_HallSensor_MspInit()
  38:Drivers/STM32F4xx_HAL_Driver/Src/stm32f4xx_hal_tim_ex.c ****            
  39:Drivers/STM32F4xx_HAL_Driver/Src/stm32f4xx_hal_tim_ex.c ****      (#) Initialize the TIM low level resources :
  40:Drivers/STM32F4xx_HAL_Driver/Src/stm32f4xx_hal_tim_ex.c ****         (##) Enable the TIM interface clock using __TIMx_CLK_ENABLE(); 
  41:Drivers/STM32F4xx_HAL_Driver/Src/stm32f4xx_hal_tim_ex.c ****         (##) TIM pins configuration
  42:Drivers/STM32F4xx_HAL_Driver/Src/stm32f4xx_hal_tim_ex.c ****             (+++) Enable the clock for the TIM GPIOs using the following function:
  43:Drivers/STM32F4xx_HAL_Driver/Src/stm32f4xx_hal_tim_ex.c ****                  __GPIOx_CLK_ENABLE();   
  44:Drivers/STM32F4xx_HAL_Driver/Src/stm32f4xx_hal_tim_ex.c ****             (+++) Configure these TIM pins in Alternate function mode using HAL_GPIO_Init();  
  45:Drivers/STM32F4xx_HAL_Driver/Src/stm32f4xx_hal_tim_ex.c **** 
  46:Drivers/STM32F4xx_HAL_Driver/Src/stm32f4xx_hal_tim_ex.c ****      (#) The external Clock can be configured, if needed (the default clock is the 
  47:Drivers/STM32F4xx_HAL_Driver/Src/stm32f4xx_hal_tim_ex.c ****          internal clock from the APBx), using the following function:
  48:Drivers/STM32F4xx_HAL_Driver/Src/stm32f4xx_hal_tim_ex.c ****          HAL_TIM_ConfigClockSource, the clock configuration should be done before 
  49:Drivers/STM32F4xx_HAL_Driver/Src/stm32f4xx_hal_tim_ex.c ****          any start function.
  50:Drivers/STM32F4xx_HAL_Driver/Src/stm32f4xx_hal_tim_ex.c ****   
  51:Drivers/STM32F4xx_HAL_Driver/Src/stm32f4xx_hal_tim_ex.c ****     (#) Configure the TIM in the desired functioning mode using one of the 
  52:Drivers/STM32F4xx_HAL_Driver/Src/stm32f4xx_hal_tim_ex.c ****         initialization function of this driver:
  53:Drivers/STM32F4xx_HAL_Driver/Src/stm32f4xx_hal_tim_ex.c ****         (++) HAL_TIMEx_HallSensor_Init and HAL_TIMEx_ConfigCommutationEvent: to use the 
  54:Drivers/STM32F4xx_HAL_Driver/Src/stm32f4xx_hal_tim_ex.c ****              Timer Hall Sensor Interface and the commutation event with the corresponding 
  55:Drivers/STM32F4xx_HAL_Driver/Src/stm32f4xx_hal_tim_ex.c ****              Interrupt and DMA request if needed (Note that One Timer is used to interface 
  56:Drivers/STM32F4xx_HAL_Driver/Src/stm32f4xx_hal_tim_ex.c ****              with the Hall sensor Interface and another Timer should be used to use 
  57:Drivers/STM32F4xx_HAL_Driver/Src/stm32f4xx_hal_tim_ex.c ****              the commutation event).
  58:Drivers/STM32F4xx_HAL_Driver/Src/stm32f4xx_hal_tim_ex.c **** 
  59:Drivers/STM32F4xx_HAL_Driver/Src/stm32f4xx_hal_tim_ex.c ****     (#) Activate the TIM peripheral using one of the start functions: 
  60:Drivers/STM32F4xx_HAL_Driver/Src/stm32f4xx_hal_tim_ex.c ****            (++) Complementary Output Compare : HAL_TIMEx_OCN_Start(), HAL_TIMEx_OCN_Start_DMA(), HA
  61:Drivers/STM32F4xx_HAL_Driver/Src/stm32f4xx_hal_tim_ex.c ****            (++) Complementary PWM generation : HAL_TIMEx_PWMN_Start(), HAL_TIMEx_PWMN_Start_DMA(), 
  62:Drivers/STM32F4xx_HAL_Driver/Src/stm32f4xx_hal_tim_ex.c ****            (++) Complementary One-pulse mode output : HAL_TIMEx_OnePulseN_Start(), HAL_TIMEx_OnePul
  63:Drivers/STM32F4xx_HAL_Driver/Src/stm32f4xx_hal_tim_ex.c ****            (++) Hall Sensor output : HAL_TIMEx_HallSensor_Start(), HAL_TIMEx_HallSensor_Start_DMA()
  64:Drivers/STM32F4xx_HAL_Driver/Src/stm32f4xx_hal_tim_ex.c **** 
  65:Drivers/STM32F4xx_HAL_Driver/Src/stm32f4xx_hal_tim_ex.c ****   
  66:Drivers/STM32F4xx_HAL_Driver/Src/stm32f4xx_hal_tim_ex.c ****   @endverbatim
  67:Drivers/STM32F4xx_HAL_Driver/Src/stm32f4xx_hal_tim_ex.c ****   ******************************************************************************
  68:Drivers/STM32F4xx_HAL_Driver/Src/stm32f4xx_hal_tim_ex.c ****   * @attention
  69:Drivers/STM32F4xx_HAL_Driver/Src/stm32f4xx_hal_tim_ex.c ****   *
  70:Drivers/STM32F4xx_HAL_Driver/Src/stm32f4xx_hal_tim_ex.c ****   * <h2><center>&copy; COPYRIGHT(c) 2017 STMicroelectronics</center></h2>
  71:Drivers/STM32F4xx_HAL_Driver/Src/stm32f4xx_hal_tim_ex.c ****   *
  72:Drivers/STM32F4xx_HAL_Driver/Src/stm32f4xx_hal_tim_ex.c ****   * Redistribution and use in source and binary forms, with or without modification,
  73:Drivers/STM32F4xx_HAL_Driver/Src/stm32f4xx_hal_tim_ex.c ****   * are permitted provided that the following conditions are met:
  74:Drivers/STM32F4xx_HAL_Driver/Src/stm32f4xx_hal_tim_ex.c ****   *   1. Redistributions of source code must retain the above copyright notice,
  75:Drivers/STM32F4xx_HAL_Driver/Src/stm32f4xx_hal_tim_ex.c ****   *      this list of conditions and the following disclaimer.
  76:Drivers/STM32F4xx_HAL_Driver/Src/stm32f4xx_hal_tim_ex.c ****   *   2. Redistributions in binary form must reproduce the above copyright notice,
  77:Drivers/STM32F4xx_HAL_Driver/Src/stm32f4xx_hal_tim_ex.c ****   *      this list of conditions and the following disclaimer in the documentation
  78:Drivers/STM32F4xx_HAL_Driver/Src/stm32f4xx_hal_tim_ex.c ****   *      and/or other materials provided with the distribution.
  79:Drivers/STM32F4xx_HAL_Driver/Src/stm32f4xx_hal_tim_ex.c ****   *   3. Neither the name of STMicroelectronics nor the names of its contributors
  80:Drivers/STM32F4xx_HAL_Driver/Src/stm32f4xx_hal_tim_ex.c ****   *      may be used to endorse or promote products derived from this software
  81:Drivers/STM32F4xx_HAL_Driver/Src/stm32f4xx_hal_tim_ex.c ****   *      without specific prior written permission.
  82:Drivers/STM32F4xx_HAL_Driver/Src/stm32f4xx_hal_tim_ex.c ****   *
  83:Drivers/STM32F4xx_HAL_Driver/Src/stm32f4xx_hal_tim_ex.c ****   * THIS SOFTWARE IS PROVIDED BY THE COPYRIGHT HOLDERS AND CONTRIBUTORS "AS IS"
  84:Drivers/STM32F4xx_HAL_Driver/Src/stm32f4xx_hal_tim_ex.c ****   * AND ANY EXPRESS OR IMPLIED WARRANTIES, INCLUDING, BUT NOT LIMITED TO, THE
  85:Drivers/STM32F4xx_HAL_Driver/Src/stm32f4xx_hal_tim_ex.c ****   * IMPLIED WARRANTIES OF MERCHANTABILITY AND FITNESS FOR A PARTICULAR PURPOSE ARE
  86:Drivers/STM32F4xx_HAL_Driver/Src/stm32f4xx_hal_tim_ex.c ****   * DISCLAIMED. IN NO EVENT SHALL THE COPYRIGHT HOLDER OR CONTRIBUTORS BE LIABLE
  87:Drivers/STM32F4xx_HAL_Driver/Src/stm32f4xx_hal_tim_ex.c ****   * FOR ANY DIRECT, INDIRECT, INCIDENTAL, SPECIAL, EXEMPLARY, OR CONSEQUENTIAL
  88:Drivers/STM32F4xx_HAL_Driver/Src/stm32f4xx_hal_tim_ex.c ****   * DAMAGES (INCLUDING, BUT NOT LIMITED TO, PROCUREMENT OF SUBSTITUTE GOODS OR
ARM GAS  /tmp/ccphsAb6.s 			page 3


  89:Drivers/STM32F4xx_HAL_Driver/Src/stm32f4xx_hal_tim_ex.c ****   * SERVICES; LOSS OF USE, DATA, OR PROFITS; OR BUSINESS INTERRUPTION) HOWEVER
  90:Drivers/STM32F4xx_HAL_Driver/Src/stm32f4xx_hal_tim_ex.c ****   * CAUSED AND ON ANY THEORY OF LIABILITY, WHETHER IN CONTRACT, STRICT LIABILITY,
  91:Drivers/STM32F4xx_HAL_Driver/Src/stm32f4xx_hal_tim_ex.c ****   * OR TORT (INCLUDING NEGLIGENCE OR OTHERWISE) ARISING IN ANY WAY OUT OF THE USE
  92:Drivers/STM32F4xx_HAL_Driver/Src/stm32f4xx_hal_tim_ex.c ****   * OF THIS SOFTWARE, EVEN IF ADVISED OF THE POSSIBILITY OF SUCH DAMAGE.
  93:Drivers/STM32F4xx_HAL_Driver/Src/stm32f4xx_hal_tim_ex.c ****   *
  94:Drivers/STM32F4xx_HAL_Driver/Src/stm32f4xx_hal_tim_ex.c ****   ******************************************************************************
  95:Drivers/STM32F4xx_HAL_Driver/Src/stm32f4xx_hal_tim_ex.c ****   */ 
  96:Drivers/STM32F4xx_HAL_Driver/Src/stm32f4xx_hal_tim_ex.c **** 
  97:Drivers/STM32F4xx_HAL_Driver/Src/stm32f4xx_hal_tim_ex.c **** /* Includes ------------------------------------------------------------------*/
  98:Drivers/STM32F4xx_HAL_Driver/Src/stm32f4xx_hal_tim_ex.c **** #include "stm32f4xx_hal.h"
  99:Drivers/STM32F4xx_HAL_Driver/Src/stm32f4xx_hal_tim_ex.c **** 
 100:Drivers/STM32F4xx_HAL_Driver/Src/stm32f4xx_hal_tim_ex.c **** /** @addtogroup STM32F4xx_HAL_Driver
 101:Drivers/STM32F4xx_HAL_Driver/Src/stm32f4xx_hal_tim_ex.c ****   * @{
 102:Drivers/STM32F4xx_HAL_Driver/Src/stm32f4xx_hal_tim_ex.c ****   */
 103:Drivers/STM32F4xx_HAL_Driver/Src/stm32f4xx_hal_tim_ex.c **** 
 104:Drivers/STM32F4xx_HAL_Driver/Src/stm32f4xx_hal_tim_ex.c **** /** @defgroup TIMEx  TIMEx
 105:Drivers/STM32F4xx_HAL_Driver/Src/stm32f4xx_hal_tim_ex.c ****   * @brief TIM HAL module driver
 106:Drivers/STM32F4xx_HAL_Driver/Src/stm32f4xx_hal_tim_ex.c ****   * @{
 107:Drivers/STM32F4xx_HAL_Driver/Src/stm32f4xx_hal_tim_ex.c ****   */
 108:Drivers/STM32F4xx_HAL_Driver/Src/stm32f4xx_hal_tim_ex.c **** 
 109:Drivers/STM32F4xx_HAL_Driver/Src/stm32f4xx_hal_tim_ex.c **** #ifdef HAL_TIM_MODULE_ENABLED
 110:Drivers/STM32F4xx_HAL_Driver/Src/stm32f4xx_hal_tim_ex.c **** 
 111:Drivers/STM32F4xx_HAL_Driver/Src/stm32f4xx_hal_tim_ex.c **** /* Private typedef -----------------------------------------------------------*/
 112:Drivers/STM32F4xx_HAL_Driver/Src/stm32f4xx_hal_tim_ex.c **** /* Private define ------------------------------------------------------------*/
 113:Drivers/STM32F4xx_HAL_Driver/Src/stm32f4xx_hal_tim_ex.c **** /* Private macro -------------------------------------------------------------*/
 114:Drivers/STM32F4xx_HAL_Driver/Src/stm32f4xx_hal_tim_ex.c **** /* Private variables ---------------------------------------------------------*/
 115:Drivers/STM32F4xx_HAL_Driver/Src/stm32f4xx_hal_tim_ex.c **** /** @addtogroup TIMEx_Private_Functions
 116:Drivers/STM32F4xx_HAL_Driver/Src/stm32f4xx_hal_tim_ex.c ****   * @{
 117:Drivers/STM32F4xx_HAL_Driver/Src/stm32f4xx_hal_tim_ex.c ****   */
 118:Drivers/STM32F4xx_HAL_Driver/Src/stm32f4xx_hal_tim_ex.c **** /* Private function prototypes -----------------------------------------------*/
 119:Drivers/STM32F4xx_HAL_Driver/Src/stm32f4xx_hal_tim_ex.c **** static void TIM_CCxNChannelCmd(TIM_TypeDef* TIMx, uint32_t Channel, uint32_t ChannelNState);
 120:Drivers/STM32F4xx_HAL_Driver/Src/stm32f4xx_hal_tim_ex.c **** /**
 121:Drivers/STM32F4xx_HAL_Driver/Src/stm32f4xx_hal_tim_ex.c ****   * @}
 122:Drivers/STM32F4xx_HAL_Driver/Src/stm32f4xx_hal_tim_ex.c ****   */
 123:Drivers/STM32F4xx_HAL_Driver/Src/stm32f4xx_hal_tim_ex.c ****       
 124:Drivers/STM32F4xx_HAL_Driver/Src/stm32f4xx_hal_tim_ex.c **** /* Exported functions --------------------------------------------------------*/
 125:Drivers/STM32F4xx_HAL_Driver/Src/stm32f4xx_hal_tim_ex.c **** /** @defgroup TIMEx_Exported_Functions TIM Exported Functions
 126:Drivers/STM32F4xx_HAL_Driver/Src/stm32f4xx_hal_tim_ex.c ****   * @{
 127:Drivers/STM32F4xx_HAL_Driver/Src/stm32f4xx_hal_tim_ex.c ****   */
 128:Drivers/STM32F4xx_HAL_Driver/Src/stm32f4xx_hal_tim_ex.c **** 
 129:Drivers/STM32F4xx_HAL_Driver/Src/stm32f4xx_hal_tim_ex.c **** /** @defgroup TIMEx_Exported_Functions_Group1 Timer Hall Sensor functions 
 130:Drivers/STM32F4xx_HAL_Driver/Src/stm32f4xx_hal_tim_ex.c ****  *  @brief    Timer Hall Sensor functions 
 131:Drivers/STM32F4xx_HAL_Driver/Src/stm32f4xx_hal_tim_ex.c ****  *
 132:Drivers/STM32F4xx_HAL_Driver/Src/stm32f4xx_hal_tim_ex.c **** @verbatim    
 133:Drivers/STM32F4xx_HAL_Driver/Src/stm32f4xx_hal_tim_ex.c ****   ==============================================================================
 134:Drivers/STM32F4xx_HAL_Driver/Src/stm32f4xx_hal_tim_ex.c ****                       ##### Timer Hall Sensor functions #####
 135:Drivers/STM32F4xx_HAL_Driver/Src/stm32f4xx_hal_tim_ex.c ****   ==============================================================================
 136:Drivers/STM32F4xx_HAL_Driver/Src/stm32f4xx_hal_tim_ex.c ****   [..]  
 137:Drivers/STM32F4xx_HAL_Driver/Src/stm32f4xx_hal_tim_ex.c ****     This section provides functions allowing to:
 138:Drivers/STM32F4xx_HAL_Driver/Src/stm32f4xx_hal_tim_ex.c ****     (+) Initialize and configure TIM HAL Sensor. 
 139:Drivers/STM32F4xx_HAL_Driver/Src/stm32f4xx_hal_tim_ex.c ****     (+) De-initialize TIM HAL Sensor.
 140:Drivers/STM32F4xx_HAL_Driver/Src/stm32f4xx_hal_tim_ex.c ****     (+) Start the Hall Sensor Interface.
 141:Drivers/STM32F4xx_HAL_Driver/Src/stm32f4xx_hal_tim_ex.c ****     (+) Stop the Hall Sensor Interface.
 142:Drivers/STM32F4xx_HAL_Driver/Src/stm32f4xx_hal_tim_ex.c ****     (+) Start the Hall Sensor Interface and enable interrupts.
 143:Drivers/STM32F4xx_HAL_Driver/Src/stm32f4xx_hal_tim_ex.c ****     (+) Stop the Hall Sensor Interface and disable interrupts.
 144:Drivers/STM32F4xx_HAL_Driver/Src/stm32f4xx_hal_tim_ex.c ****     (+) Start the Hall Sensor Interface and enable DMA transfers.
 145:Drivers/STM32F4xx_HAL_Driver/Src/stm32f4xx_hal_tim_ex.c ****     (+) Stop the Hall Sensor Interface and disable DMA transfers.
ARM GAS  /tmp/ccphsAb6.s 			page 4


 146:Drivers/STM32F4xx_HAL_Driver/Src/stm32f4xx_hal_tim_ex.c ****  
 147:Drivers/STM32F4xx_HAL_Driver/Src/stm32f4xx_hal_tim_ex.c **** @endverbatim
 148:Drivers/STM32F4xx_HAL_Driver/Src/stm32f4xx_hal_tim_ex.c ****   * @{
 149:Drivers/STM32F4xx_HAL_Driver/Src/stm32f4xx_hal_tim_ex.c ****   */
 150:Drivers/STM32F4xx_HAL_Driver/Src/stm32f4xx_hal_tim_ex.c **** /**
 151:Drivers/STM32F4xx_HAL_Driver/Src/stm32f4xx_hal_tim_ex.c ****   * @brief  Initializes the TIM Hall Sensor Interface and create the associated handle.
 152:Drivers/STM32F4xx_HAL_Driver/Src/stm32f4xx_hal_tim_ex.c ****   * @param  htim pointer to a TIM_HandleTypeDef structure that contains
 153:Drivers/STM32F4xx_HAL_Driver/Src/stm32f4xx_hal_tim_ex.c ****   *                the configuration information for TIM module.
 154:Drivers/STM32F4xx_HAL_Driver/Src/stm32f4xx_hal_tim_ex.c ****   * @param  sConfig TIM Hall Sensor configuration structure
 155:Drivers/STM32F4xx_HAL_Driver/Src/stm32f4xx_hal_tim_ex.c ****   * @retval HAL status
 156:Drivers/STM32F4xx_HAL_Driver/Src/stm32f4xx_hal_tim_ex.c ****   */
 157:Drivers/STM32F4xx_HAL_Driver/Src/stm32f4xx_hal_tim_ex.c **** HAL_StatusTypeDef HAL_TIMEx_HallSensor_Init(TIM_HandleTypeDef *htim, TIM_HallSensor_InitTypeDef* sC
 158:Drivers/STM32F4xx_HAL_Driver/Src/stm32f4xx_hal_tim_ex.c **** {
  28              		.loc 1 158 0
  29              		.cfi_startproc
  30              		@ args = 0, pretend = 0, frame = 40
  31              		@ frame_needed = 1, uses_anonymous_args = 0
  32 0000 80B5     		push	{r7, lr}
  33              	.LCFI0:
  34              		.cfi_def_cfa_offset 8
  35              		.cfi_offset 7, -8
  36              		.cfi_offset 14, -4
  37 0002 8AB0     		sub	sp, sp, #40
  38              	.LCFI1:
  39              		.cfi_def_cfa_offset 48
  40 0004 00AF     		add	r7, sp, #0
  41              	.LCFI2:
  42              		.cfi_def_cfa_register 7
  43 0006 7860     		str	r0, [r7, #4]
  44 0008 3960     		str	r1, [r7]
 159:Drivers/STM32F4xx_HAL_Driver/Src/stm32f4xx_hal_tim_ex.c ****   TIM_OC_InitTypeDef OC_Config;
 160:Drivers/STM32F4xx_HAL_Driver/Src/stm32f4xx_hal_tim_ex.c ****     
 161:Drivers/STM32F4xx_HAL_Driver/Src/stm32f4xx_hal_tim_ex.c ****   /* Check the TIM handle allocation */
 162:Drivers/STM32F4xx_HAL_Driver/Src/stm32f4xx_hal_tim_ex.c ****   if(htim == NULL)
  45              		.loc 1 162 0
  46 000a 7B68     		ldr	r3, [r7, #4]
  47 000c 002B     		cmp	r3, #0
  48 000e 01D1     		bne	.L2
 163:Drivers/STM32F4xx_HAL_Driver/Src/stm32f4xx_hal_tim_ex.c ****   {
 164:Drivers/STM32F4xx_HAL_Driver/Src/stm32f4xx_hal_tim_ex.c ****     return HAL_ERROR;
  49              		.loc 1 164 0
  50 0010 0123     		movs	r3, #1
  51 0012 7CE0     		b	.L4
  52              	.L2:
 165:Drivers/STM32F4xx_HAL_Driver/Src/stm32f4xx_hal_tim_ex.c ****   }
 166:Drivers/STM32F4xx_HAL_Driver/Src/stm32f4xx_hal_tim_ex.c ****   
 167:Drivers/STM32F4xx_HAL_Driver/Src/stm32f4xx_hal_tim_ex.c ****   assert_param(IS_TIM_XOR_INSTANCE(htim->Instance));
 168:Drivers/STM32F4xx_HAL_Driver/Src/stm32f4xx_hal_tim_ex.c ****   assert_param(IS_TIM_COUNTER_MODE(htim->Init.CounterMode));
 169:Drivers/STM32F4xx_HAL_Driver/Src/stm32f4xx_hal_tim_ex.c ****   assert_param(IS_TIM_CLOCKDIVISION_DIV(htim->Init.ClockDivision));
 170:Drivers/STM32F4xx_HAL_Driver/Src/stm32f4xx_hal_tim_ex.c ****   assert_param(IS_TIM_IC_POLARITY(sConfig->IC1Polarity));
 171:Drivers/STM32F4xx_HAL_Driver/Src/stm32f4xx_hal_tim_ex.c ****   assert_param(IS_TIM_IC_PRESCALER(sConfig->IC1Prescaler));
 172:Drivers/STM32F4xx_HAL_Driver/Src/stm32f4xx_hal_tim_ex.c ****   assert_param(IS_TIM_IC_FILTER(sConfig->IC1Filter));
 173:Drivers/STM32F4xx_HAL_Driver/Src/stm32f4xx_hal_tim_ex.c **** 
 174:Drivers/STM32F4xx_HAL_Driver/Src/stm32f4xx_hal_tim_ex.c ****   /* Set the TIM state */
 175:Drivers/STM32F4xx_HAL_Driver/Src/stm32f4xx_hal_tim_ex.c ****   htim->State= HAL_TIM_STATE_BUSY;
  53              		.loc 1 175 0
  54 0014 7B68     		ldr	r3, [r7, #4]
ARM GAS  /tmp/ccphsAb6.s 			page 5


  55 0016 0222     		movs	r2, #2
  56 0018 83F83920 		strb	r2, [r3, #57]
 176:Drivers/STM32F4xx_HAL_Driver/Src/stm32f4xx_hal_tim_ex.c ****   
 177:Drivers/STM32F4xx_HAL_Driver/Src/stm32f4xx_hal_tim_ex.c ****   /* Init the low level hardware : GPIO, CLOCK, NVIC and DMA */
 178:Drivers/STM32F4xx_HAL_Driver/Src/stm32f4xx_hal_tim_ex.c ****   HAL_TIMEx_HallSensor_MspInit(htim);
  57              		.loc 1 178 0
  58 001c 7868     		ldr	r0, [r7, #4]
  59 001e FFF7FEFF 		bl	HAL_TIMEx_HallSensor_MspInit
 179:Drivers/STM32F4xx_HAL_Driver/Src/stm32f4xx_hal_tim_ex.c ****   
 180:Drivers/STM32F4xx_HAL_Driver/Src/stm32f4xx_hal_tim_ex.c ****   /* Configure the Time base in the Encoder Mode */
 181:Drivers/STM32F4xx_HAL_Driver/Src/stm32f4xx_hal_tim_ex.c ****   TIM_Base_SetConfig(htim->Instance, &htim->Init);
  60              		.loc 1 181 0
  61 0022 7B68     		ldr	r3, [r7, #4]
  62 0024 1A68     		ldr	r2, [r3]
  63 0026 7B68     		ldr	r3, [r7, #4]
  64 0028 0433     		adds	r3, r3, #4
  65 002a 1946     		mov	r1, r3
  66 002c 1046     		mov	r0, r2
  67 002e FFF7FEFF 		bl	TIM_Base_SetConfig
 182:Drivers/STM32F4xx_HAL_Driver/Src/stm32f4xx_hal_tim_ex.c ****   
 183:Drivers/STM32F4xx_HAL_Driver/Src/stm32f4xx_hal_tim_ex.c ****   /* Configure the Channel 1 as Input Channel to interface with the three Outputs of the  Hall sens
 184:Drivers/STM32F4xx_HAL_Driver/Src/stm32f4xx_hal_tim_ex.c ****   TIM_TI1_SetConfig(htim->Instance, sConfig->IC1Polarity, TIM_ICSELECTION_TRC, sConfig->IC1Filter);
  68              		.loc 1 184 0
  69 0032 7B68     		ldr	r3, [r7, #4]
  70 0034 1868     		ldr	r0, [r3]
  71 0036 3B68     		ldr	r3, [r7]
  72 0038 1968     		ldr	r1, [r3]
  73 003a 3B68     		ldr	r3, [r7]
  74 003c 9B68     		ldr	r3, [r3, #8]
  75 003e 0322     		movs	r2, #3
  76 0040 FFF7FEFF 		bl	TIM_TI1_SetConfig
 185:Drivers/STM32F4xx_HAL_Driver/Src/stm32f4xx_hal_tim_ex.c ****   
 186:Drivers/STM32F4xx_HAL_Driver/Src/stm32f4xx_hal_tim_ex.c ****   /* Reset the IC1PSC Bits */
 187:Drivers/STM32F4xx_HAL_Driver/Src/stm32f4xx_hal_tim_ex.c ****   htim->Instance->CCMR1 &= ~TIM_CCMR1_IC1PSC;
  77              		.loc 1 187 0
  78 0044 7B68     		ldr	r3, [r7, #4]
  79 0046 1B68     		ldr	r3, [r3]
  80 0048 7A68     		ldr	r2, [r7, #4]
  81 004a 1268     		ldr	r2, [r2]
  82 004c 9269     		ldr	r2, [r2, #24]
  83 004e 22F00C02 		bic	r2, r2, #12
  84 0052 9A61     		str	r2, [r3, #24]
 188:Drivers/STM32F4xx_HAL_Driver/Src/stm32f4xx_hal_tim_ex.c ****   /* Set the IC1PSC value */
 189:Drivers/STM32F4xx_HAL_Driver/Src/stm32f4xx_hal_tim_ex.c ****   htim->Instance->CCMR1 |= sConfig->IC1Prescaler;
  85              		.loc 1 189 0
  86 0054 7B68     		ldr	r3, [r7, #4]
  87 0056 1B68     		ldr	r3, [r3]
  88 0058 7A68     		ldr	r2, [r7, #4]
  89 005a 1268     		ldr	r2, [r2]
  90 005c 9169     		ldr	r1, [r2, #24]
  91 005e 3A68     		ldr	r2, [r7]
  92 0060 5268     		ldr	r2, [r2, #4]
  93 0062 0A43     		orrs	r2, r2, r1
  94 0064 9A61     		str	r2, [r3, #24]
 190:Drivers/STM32F4xx_HAL_Driver/Src/stm32f4xx_hal_tim_ex.c ****   
 191:Drivers/STM32F4xx_HAL_Driver/Src/stm32f4xx_hal_tim_ex.c ****   /* Enable the Hall sensor interface (XOR function of the three inputs) */
 192:Drivers/STM32F4xx_HAL_Driver/Src/stm32f4xx_hal_tim_ex.c ****   htim->Instance->CR2 |= TIM_CR2_TI1S;
ARM GAS  /tmp/ccphsAb6.s 			page 6


  95              		.loc 1 192 0
  96 0066 7B68     		ldr	r3, [r7, #4]
  97 0068 1B68     		ldr	r3, [r3]
  98 006a 7A68     		ldr	r2, [r7, #4]
  99 006c 1268     		ldr	r2, [r2]
 100 006e 5268     		ldr	r2, [r2, #4]
 101 0070 42F08002 		orr	r2, r2, #128
 102 0074 5A60     		str	r2, [r3, #4]
 193:Drivers/STM32F4xx_HAL_Driver/Src/stm32f4xx_hal_tim_ex.c ****   
 194:Drivers/STM32F4xx_HAL_Driver/Src/stm32f4xx_hal_tim_ex.c ****   /* Select the TIM_TS_TI1F_ED signal as Input trigger for the TIM */
 195:Drivers/STM32F4xx_HAL_Driver/Src/stm32f4xx_hal_tim_ex.c ****   htim->Instance->SMCR &= ~TIM_SMCR_TS;
 103              		.loc 1 195 0
 104 0076 7B68     		ldr	r3, [r7, #4]
 105 0078 1B68     		ldr	r3, [r3]
 106 007a 7A68     		ldr	r2, [r7, #4]
 107 007c 1268     		ldr	r2, [r2]
 108 007e 9268     		ldr	r2, [r2, #8]
 109 0080 22F07002 		bic	r2, r2, #112
 110 0084 9A60     		str	r2, [r3, #8]
 196:Drivers/STM32F4xx_HAL_Driver/Src/stm32f4xx_hal_tim_ex.c ****   htim->Instance->SMCR |= TIM_TS_TI1F_ED;
 111              		.loc 1 196 0
 112 0086 7B68     		ldr	r3, [r7, #4]
 113 0088 1B68     		ldr	r3, [r3]
 114 008a 7A68     		ldr	r2, [r7, #4]
 115 008c 1268     		ldr	r2, [r2]
 116 008e 9268     		ldr	r2, [r2, #8]
 117 0090 42F04002 		orr	r2, r2, #64
 118 0094 9A60     		str	r2, [r3, #8]
 197:Drivers/STM32F4xx_HAL_Driver/Src/stm32f4xx_hal_tim_ex.c ****   
 198:Drivers/STM32F4xx_HAL_Driver/Src/stm32f4xx_hal_tim_ex.c ****   /* Use the TIM_TS_TI1F_ED signal to reset the TIM counter each edge detection */  
 199:Drivers/STM32F4xx_HAL_Driver/Src/stm32f4xx_hal_tim_ex.c ****   htim->Instance->SMCR &= ~TIM_SMCR_SMS;
 119              		.loc 1 199 0
 120 0096 7B68     		ldr	r3, [r7, #4]
 121 0098 1B68     		ldr	r3, [r3]
 122 009a 7A68     		ldr	r2, [r7, #4]
 123 009c 1268     		ldr	r2, [r2]
 124 009e 9268     		ldr	r2, [r2, #8]
 125 00a0 22F00702 		bic	r2, r2, #7
 126 00a4 9A60     		str	r2, [r3, #8]
 200:Drivers/STM32F4xx_HAL_Driver/Src/stm32f4xx_hal_tim_ex.c ****   htim->Instance->SMCR |= TIM_SLAVEMODE_RESET;
 127              		.loc 1 200 0
 128 00a6 7B68     		ldr	r3, [r7, #4]
 129 00a8 1B68     		ldr	r3, [r3]
 130 00aa 7A68     		ldr	r2, [r7, #4]
 131 00ac 1268     		ldr	r2, [r2]
 132 00ae 9268     		ldr	r2, [r2, #8]
 133 00b0 42F00402 		orr	r2, r2, #4
 134 00b4 9A60     		str	r2, [r3, #8]
 201:Drivers/STM32F4xx_HAL_Driver/Src/stm32f4xx_hal_tim_ex.c ****   
 202:Drivers/STM32F4xx_HAL_Driver/Src/stm32f4xx_hal_tim_ex.c ****   /* Program channel 2 in PWM 2 mode with the desired Commutation_Delay*/
 203:Drivers/STM32F4xx_HAL_Driver/Src/stm32f4xx_hal_tim_ex.c ****   OC_Config.OCFastMode = TIM_OCFAST_DISABLE;
 135              		.loc 1 203 0
 136 00b6 0023     		movs	r3, #0
 137 00b8 FB61     		str	r3, [r7, #28]
 204:Drivers/STM32F4xx_HAL_Driver/Src/stm32f4xx_hal_tim_ex.c ****   OC_Config.OCIdleState = TIM_OCIDLESTATE_RESET;
 138              		.loc 1 204 0
 139 00ba 0023     		movs	r3, #0
ARM GAS  /tmp/ccphsAb6.s 			page 7


 140 00bc 3B62     		str	r3, [r7, #32]
 205:Drivers/STM32F4xx_HAL_Driver/Src/stm32f4xx_hal_tim_ex.c ****   OC_Config.OCMode = TIM_OCMODE_PWM2;
 141              		.loc 1 205 0
 142 00be 7023     		movs	r3, #112
 143 00c0 FB60     		str	r3, [r7, #12]
 206:Drivers/STM32F4xx_HAL_Driver/Src/stm32f4xx_hal_tim_ex.c ****   OC_Config.OCNIdleState = TIM_OCNIDLESTATE_RESET;
 144              		.loc 1 206 0
 145 00c2 0023     		movs	r3, #0
 146 00c4 7B62     		str	r3, [r7, #36]
 207:Drivers/STM32F4xx_HAL_Driver/Src/stm32f4xx_hal_tim_ex.c ****   OC_Config.OCNPolarity = TIM_OCNPOLARITY_HIGH;
 147              		.loc 1 207 0
 148 00c6 0023     		movs	r3, #0
 149 00c8 BB61     		str	r3, [r7, #24]
 208:Drivers/STM32F4xx_HAL_Driver/Src/stm32f4xx_hal_tim_ex.c ****   OC_Config.OCPolarity = TIM_OCPOLARITY_HIGH;
 150              		.loc 1 208 0
 151 00ca 0023     		movs	r3, #0
 152 00cc 7B61     		str	r3, [r7, #20]
 209:Drivers/STM32F4xx_HAL_Driver/Src/stm32f4xx_hal_tim_ex.c ****   OC_Config.Pulse = sConfig->Commutation_Delay; 
 153              		.loc 1 209 0
 154 00ce 3B68     		ldr	r3, [r7]
 155 00d0 DB68     		ldr	r3, [r3, #12]
 156 00d2 3B61     		str	r3, [r7, #16]
 210:Drivers/STM32F4xx_HAL_Driver/Src/stm32f4xx_hal_tim_ex.c ****     
 211:Drivers/STM32F4xx_HAL_Driver/Src/stm32f4xx_hal_tim_ex.c ****   TIM_OC2_SetConfig(htim->Instance, &OC_Config);
 157              		.loc 1 211 0
 158 00d4 7B68     		ldr	r3, [r7, #4]
 159 00d6 1B68     		ldr	r3, [r3]
 160 00d8 07F10C02 		add	r2, r7, #12
 161 00dc 1146     		mov	r1, r2
 162 00de 1846     		mov	r0, r3
 163 00e0 FFF7FEFF 		bl	TIM_OC2_SetConfig
 212:Drivers/STM32F4xx_HAL_Driver/Src/stm32f4xx_hal_tim_ex.c ****   
 213:Drivers/STM32F4xx_HAL_Driver/Src/stm32f4xx_hal_tim_ex.c ****   /* Select OC2REF as trigger output on TRGO: write the MMS bits in the TIMx_CR2
 214:Drivers/STM32F4xx_HAL_Driver/Src/stm32f4xx_hal_tim_ex.c ****     register to 101 */
 215:Drivers/STM32F4xx_HAL_Driver/Src/stm32f4xx_hal_tim_ex.c ****   htim->Instance->CR2 &= ~TIM_CR2_MMS;
 164              		.loc 1 215 0
 165 00e4 7B68     		ldr	r3, [r7, #4]
 166 00e6 1B68     		ldr	r3, [r3]
 167 00e8 7A68     		ldr	r2, [r7, #4]
 168 00ea 1268     		ldr	r2, [r2]
 169 00ec 5268     		ldr	r2, [r2, #4]
 170 00ee 22F07002 		bic	r2, r2, #112
 171 00f2 5A60     		str	r2, [r3, #4]
 216:Drivers/STM32F4xx_HAL_Driver/Src/stm32f4xx_hal_tim_ex.c ****   htim->Instance->CR2 |= TIM_TRGO_OC2REF; 
 172              		.loc 1 216 0
 173 00f4 7B68     		ldr	r3, [r7, #4]
 174 00f6 1B68     		ldr	r3, [r3]
 175 00f8 7A68     		ldr	r2, [r7, #4]
 176 00fa 1268     		ldr	r2, [r2]
 177 00fc 5268     		ldr	r2, [r2, #4]
 178 00fe 42F05002 		orr	r2, r2, #80
 179 0102 5A60     		str	r2, [r3, #4]
 217:Drivers/STM32F4xx_HAL_Driver/Src/stm32f4xx_hal_tim_ex.c ****   
 218:Drivers/STM32F4xx_HAL_Driver/Src/stm32f4xx_hal_tim_ex.c ****   /* Initialize the TIM state*/
 219:Drivers/STM32F4xx_HAL_Driver/Src/stm32f4xx_hal_tim_ex.c ****   htim->State= HAL_TIM_STATE_READY;
 180              		.loc 1 219 0
 181 0104 7B68     		ldr	r3, [r7, #4]
ARM GAS  /tmp/ccphsAb6.s 			page 8


 182 0106 0122     		movs	r2, #1
 183 0108 83F83920 		strb	r2, [r3, #57]
 220:Drivers/STM32F4xx_HAL_Driver/Src/stm32f4xx_hal_tim_ex.c **** 
 221:Drivers/STM32F4xx_HAL_Driver/Src/stm32f4xx_hal_tim_ex.c ****   return HAL_OK;
 184              		.loc 1 221 0
 185 010c 0023     		movs	r3, #0
 186              	.L4:
 222:Drivers/STM32F4xx_HAL_Driver/Src/stm32f4xx_hal_tim_ex.c **** }
 187              		.loc 1 222 0 discriminator 1
 188 010e 1846     		mov	r0, r3
 189 0110 2837     		adds	r7, r7, #40
 190              	.LCFI3:
 191              		.cfi_def_cfa_offset 8
 192 0112 BD46     		mov	sp, r7
 193              	.LCFI4:
 194              		.cfi_def_cfa_register 13
 195              		@ sp needed
 196 0114 80BD     		pop	{r7, pc}
 197              		.cfi_endproc
 198              	.LFE124:
 200              		.section	.text.HAL_TIMEx_HallSensor_DeInit,"ax",%progbits
 201              		.align	1
 202              		.global	HAL_TIMEx_HallSensor_DeInit
 203              		.syntax unified
 204              		.thumb
 205              		.thumb_func
 206              		.fpu fpv4-sp-d16
 208              	HAL_TIMEx_HallSensor_DeInit:
 209              	.LFB125:
 223:Drivers/STM32F4xx_HAL_Driver/Src/stm32f4xx_hal_tim_ex.c **** 
 224:Drivers/STM32F4xx_HAL_Driver/Src/stm32f4xx_hal_tim_ex.c **** /**
 225:Drivers/STM32F4xx_HAL_Driver/Src/stm32f4xx_hal_tim_ex.c ****   * @brief  DeInitializes the TIM Hall Sensor interface  
 226:Drivers/STM32F4xx_HAL_Driver/Src/stm32f4xx_hal_tim_ex.c ****   * @param  htim pointer to a TIM_HandleTypeDef structure that contains
 227:Drivers/STM32F4xx_HAL_Driver/Src/stm32f4xx_hal_tim_ex.c ****   *                the configuration information for TIM module.
 228:Drivers/STM32F4xx_HAL_Driver/Src/stm32f4xx_hal_tim_ex.c ****   * @retval HAL status
 229:Drivers/STM32F4xx_HAL_Driver/Src/stm32f4xx_hal_tim_ex.c ****   */
 230:Drivers/STM32F4xx_HAL_Driver/Src/stm32f4xx_hal_tim_ex.c **** HAL_StatusTypeDef HAL_TIMEx_HallSensor_DeInit(TIM_HandleTypeDef *htim)
 231:Drivers/STM32F4xx_HAL_Driver/Src/stm32f4xx_hal_tim_ex.c **** {
 210              		.loc 1 231 0
 211              		.cfi_startproc
 212              		@ args = 0, pretend = 0, frame = 8
 213              		@ frame_needed = 1, uses_anonymous_args = 0
 214 0000 80B5     		push	{r7, lr}
 215              	.LCFI5:
 216              		.cfi_def_cfa_offset 8
 217              		.cfi_offset 7, -8
 218              		.cfi_offset 14, -4
 219 0002 82B0     		sub	sp, sp, #8
 220              	.LCFI6:
 221              		.cfi_def_cfa_offset 16
 222 0004 00AF     		add	r7, sp, #0
 223              	.LCFI7:
 224              		.cfi_def_cfa_register 7
 225 0006 7860     		str	r0, [r7, #4]
 232:Drivers/STM32F4xx_HAL_Driver/Src/stm32f4xx_hal_tim_ex.c ****   /* Check the parameters */
 233:Drivers/STM32F4xx_HAL_Driver/Src/stm32f4xx_hal_tim_ex.c ****   assert_param(IS_TIM_INSTANCE(htim->Instance));
 234:Drivers/STM32F4xx_HAL_Driver/Src/stm32f4xx_hal_tim_ex.c **** 
ARM GAS  /tmp/ccphsAb6.s 			page 9


 235:Drivers/STM32F4xx_HAL_Driver/Src/stm32f4xx_hal_tim_ex.c ****   htim->State = HAL_TIM_STATE_BUSY;
 226              		.loc 1 235 0
 227 0008 7B68     		ldr	r3, [r7, #4]
 228 000a 0222     		movs	r2, #2
 229 000c 83F83920 		strb	r2, [r3, #57]
 236:Drivers/STM32F4xx_HAL_Driver/Src/stm32f4xx_hal_tim_ex.c ****   
 237:Drivers/STM32F4xx_HAL_Driver/Src/stm32f4xx_hal_tim_ex.c ****   /* Disable the TIM Peripheral Clock */
 238:Drivers/STM32F4xx_HAL_Driver/Src/stm32f4xx_hal_tim_ex.c ****   __HAL_TIM_DISABLE(htim);
 230              		.loc 1 238 0
 231 0010 7B68     		ldr	r3, [r7, #4]
 232 0012 1B68     		ldr	r3, [r3]
 233 0014 1A6A     		ldr	r2, [r3, #32]
 234 0016 41F21113 		movw	r3, #4369
 235 001a 1340     		ands	r3, r3, r2
 236 001c 002B     		cmp	r3, #0
 237 001e 0FD1     		bne	.L6
 238              		.loc 1 238 0 is_stmt 0 discriminator 1
 239 0020 7B68     		ldr	r3, [r7, #4]
 240 0022 1B68     		ldr	r3, [r3]
 241 0024 1A6A     		ldr	r2, [r3, #32]
 242 0026 40F24443 		movw	r3, #1092
 243 002a 1340     		ands	r3, r3, r2
 244 002c 002B     		cmp	r3, #0
 245 002e 07D1     		bne	.L6
 246              		.loc 1 238 0 discriminator 2
 247 0030 7B68     		ldr	r3, [r7, #4]
 248 0032 1B68     		ldr	r3, [r3]
 249 0034 7A68     		ldr	r2, [r7, #4]
 250 0036 1268     		ldr	r2, [r2]
 251 0038 1268     		ldr	r2, [r2]
 252 003a 22F00102 		bic	r2, r2, #1
 253 003e 1A60     		str	r2, [r3]
 254              	.L6:
 239:Drivers/STM32F4xx_HAL_Driver/Src/stm32f4xx_hal_tim_ex.c ****     
 240:Drivers/STM32F4xx_HAL_Driver/Src/stm32f4xx_hal_tim_ex.c ****   /* DeInit the low level hardware: GPIO, CLOCK, NVIC */
 241:Drivers/STM32F4xx_HAL_Driver/Src/stm32f4xx_hal_tim_ex.c ****   HAL_TIMEx_HallSensor_MspDeInit(htim);
 255              		.loc 1 241 0 is_stmt 1
 256 0040 7868     		ldr	r0, [r7, #4]
 257 0042 FFF7FEFF 		bl	HAL_TIMEx_HallSensor_MspDeInit
 242:Drivers/STM32F4xx_HAL_Driver/Src/stm32f4xx_hal_tim_ex.c ****     
 243:Drivers/STM32F4xx_HAL_Driver/Src/stm32f4xx_hal_tim_ex.c ****   /* Change TIM state */  
 244:Drivers/STM32F4xx_HAL_Driver/Src/stm32f4xx_hal_tim_ex.c ****   htim->State = HAL_TIM_STATE_RESET; 
 258              		.loc 1 244 0
 259 0046 7B68     		ldr	r3, [r7, #4]
 260 0048 0022     		movs	r2, #0
 261 004a 83F83920 		strb	r2, [r3, #57]
 245:Drivers/STM32F4xx_HAL_Driver/Src/stm32f4xx_hal_tim_ex.c **** 
 246:Drivers/STM32F4xx_HAL_Driver/Src/stm32f4xx_hal_tim_ex.c ****   /* Release Lock */
 247:Drivers/STM32F4xx_HAL_Driver/Src/stm32f4xx_hal_tim_ex.c ****   __HAL_UNLOCK(htim);
 262              		.loc 1 247 0
 263 004e 7B68     		ldr	r3, [r7, #4]
 264 0050 0022     		movs	r2, #0
 265 0052 83F83820 		strb	r2, [r3, #56]
 248:Drivers/STM32F4xx_HAL_Driver/Src/stm32f4xx_hal_tim_ex.c **** 
 249:Drivers/STM32F4xx_HAL_Driver/Src/stm32f4xx_hal_tim_ex.c ****   return HAL_OK;
 266              		.loc 1 249 0
 267 0056 0023     		movs	r3, #0
ARM GAS  /tmp/ccphsAb6.s 			page 10


 250:Drivers/STM32F4xx_HAL_Driver/Src/stm32f4xx_hal_tim_ex.c **** }
 268              		.loc 1 250 0
 269 0058 1846     		mov	r0, r3
 270 005a 0837     		adds	r7, r7, #8
 271              	.LCFI8:
 272              		.cfi_def_cfa_offset 8
 273 005c BD46     		mov	sp, r7
 274              	.LCFI9:
 275              		.cfi_def_cfa_register 13
 276              		@ sp needed
 277 005e 80BD     		pop	{r7, pc}
 278              		.cfi_endproc
 279              	.LFE125:
 281              		.section	.text.HAL_TIMEx_HallSensor_MspInit,"ax",%progbits
 282              		.align	1
 283              		.weak	HAL_TIMEx_HallSensor_MspInit
 284              		.syntax unified
 285              		.thumb
 286              		.thumb_func
 287              		.fpu fpv4-sp-d16
 289              	HAL_TIMEx_HallSensor_MspInit:
 290              	.LFB126:
 251:Drivers/STM32F4xx_HAL_Driver/Src/stm32f4xx_hal_tim_ex.c **** 
 252:Drivers/STM32F4xx_HAL_Driver/Src/stm32f4xx_hal_tim_ex.c **** /**
 253:Drivers/STM32F4xx_HAL_Driver/Src/stm32f4xx_hal_tim_ex.c ****   * @brief  Initializes the TIM Hall Sensor MSP.
 254:Drivers/STM32F4xx_HAL_Driver/Src/stm32f4xx_hal_tim_ex.c ****   * @param  htim pointer to a TIM_HandleTypeDef structure that contains
 255:Drivers/STM32F4xx_HAL_Driver/Src/stm32f4xx_hal_tim_ex.c ****   *                the configuration information for TIM module.
 256:Drivers/STM32F4xx_HAL_Driver/Src/stm32f4xx_hal_tim_ex.c ****   * @retval None
 257:Drivers/STM32F4xx_HAL_Driver/Src/stm32f4xx_hal_tim_ex.c ****   */
 258:Drivers/STM32F4xx_HAL_Driver/Src/stm32f4xx_hal_tim_ex.c **** __weak void HAL_TIMEx_HallSensor_MspInit(TIM_HandleTypeDef *htim)
 259:Drivers/STM32F4xx_HAL_Driver/Src/stm32f4xx_hal_tim_ex.c **** {
 291              		.loc 1 259 0
 292              		.cfi_startproc
 293              		@ args = 0, pretend = 0, frame = 8
 294              		@ frame_needed = 1, uses_anonymous_args = 0
 295              		@ link register save eliminated.
 296 0000 80B4     		push	{r7}
 297              	.LCFI10:
 298              		.cfi_def_cfa_offset 4
 299              		.cfi_offset 7, -4
 300 0002 83B0     		sub	sp, sp, #12
 301              	.LCFI11:
 302              		.cfi_def_cfa_offset 16
 303 0004 00AF     		add	r7, sp, #0
 304              	.LCFI12:
 305              		.cfi_def_cfa_register 7
 306 0006 7860     		str	r0, [r7, #4]
 260:Drivers/STM32F4xx_HAL_Driver/Src/stm32f4xx_hal_tim_ex.c ****   /* Prevent unused argument(s) compilation warning */
 261:Drivers/STM32F4xx_HAL_Driver/Src/stm32f4xx_hal_tim_ex.c ****   UNUSED(htim);
 262:Drivers/STM32F4xx_HAL_Driver/Src/stm32f4xx_hal_tim_ex.c ****   /* NOTE : This function Should not be modified, when the callback is needed,
 263:Drivers/STM32F4xx_HAL_Driver/Src/stm32f4xx_hal_tim_ex.c ****             the HAL_TIMEx_HallSensor_MspInit could be implemented in the user file
 264:Drivers/STM32F4xx_HAL_Driver/Src/stm32f4xx_hal_tim_ex.c ****    */
 265:Drivers/STM32F4xx_HAL_Driver/Src/stm32f4xx_hal_tim_ex.c **** }
 307              		.loc 1 265 0
 308 0008 00BF     		nop
 309 000a 0C37     		adds	r7, r7, #12
 310              	.LCFI13:
ARM GAS  /tmp/ccphsAb6.s 			page 11


 311              		.cfi_def_cfa_offset 4
 312 000c BD46     		mov	sp, r7
 313              	.LCFI14:
 314              		.cfi_def_cfa_register 13
 315              		@ sp needed
 316 000e 5DF8047B 		ldr	r7, [sp], #4
 317              	.LCFI15:
 318              		.cfi_restore 7
 319              		.cfi_def_cfa_offset 0
 320 0012 7047     		bx	lr
 321              		.cfi_endproc
 322              	.LFE126:
 324              		.section	.text.HAL_TIMEx_HallSensor_MspDeInit,"ax",%progbits
 325              		.align	1
 326              		.weak	HAL_TIMEx_HallSensor_MspDeInit
 327              		.syntax unified
 328              		.thumb
 329              		.thumb_func
 330              		.fpu fpv4-sp-d16
 332              	HAL_TIMEx_HallSensor_MspDeInit:
 333              	.LFB127:
 266:Drivers/STM32F4xx_HAL_Driver/Src/stm32f4xx_hal_tim_ex.c **** 
 267:Drivers/STM32F4xx_HAL_Driver/Src/stm32f4xx_hal_tim_ex.c **** /**
 268:Drivers/STM32F4xx_HAL_Driver/Src/stm32f4xx_hal_tim_ex.c ****   * @brief  DeInitializes TIM Hall Sensor MSP.
 269:Drivers/STM32F4xx_HAL_Driver/Src/stm32f4xx_hal_tim_ex.c ****   * @param  htim pointer to a TIM_HandleTypeDef structure that contains
 270:Drivers/STM32F4xx_HAL_Driver/Src/stm32f4xx_hal_tim_ex.c ****   *                the configuration information for TIM module.
 271:Drivers/STM32F4xx_HAL_Driver/Src/stm32f4xx_hal_tim_ex.c ****   * @retval None
 272:Drivers/STM32F4xx_HAL_Driver/Src/stm32f4xx_hal_tim_ex.c ****   */
 273:Drivers/STM32F4xx_HAL_Driver/Src/stm32f4xx_hal_tim_ex.c **** __weak void HAL_TIMEx_HallSensor_MspDeInit(TIM_HandleTypeDef *htim)
 274:Drivers/STM32F4xx_HAL_Driver/Src/stm32f4xx_hal_tim_ex.c **** {
 334              		.loc 1 274 0
 335              		.cfi_startproc
 336              		@ args = 0, pretend = 0, frame = 8
 337              		@ frame_needed = 1, uses_anonymous_args = 0
 338              		@ link register save eliminated.
 339 0000 80B4     		push	{r7}
 340              	.LCFI16:
 341              		.cfi_def_cfa_offset 4
 342              		.cfi_offset 7, -4
 343 0002 83B0     		sub	sp, sp, #12
 344              	.LCFI17:
 345              		.cfi_def_cfa_offset 16
 346 0004 00AF     		add	r7, sp, #0
 347              	.LCFI18:
 348              		.cfi_def_cfa_register 7
 349 0006 7860     		str	r0, [r7, #4]
 275:Drivers/STM32F4xx_HAL_Driver/Src/stm32f4xx_hal_tim_ex.c ****   /* Prevent unused argument(s) compilation warning */
 276:Drivers/STM32F4xx_HAL_Driver/Src/stm32f4xx_hal_tim_ex.c ****   UNUSED(htim);
 277:Drivers/STM32F4xx_HAL_Driver/Src/stm32f4xx_hal_tim_ex.c ****   /* NOTE : This function Should not be modified, when the callback is needed,
 278:Drivers/STM32F4xx_HAL_Driver/Src/stm32f4xx_hal_tim_ex.c ****             the HAL_TIMEx_HallSensor_MspDeInit could be implemented in the user file
 279:Drivers/STM32F4xx_HAL_Driver/Src/stm32f4xx_hal_tim_ex.c ****    */
 280:Drivers/STM32F4xx_HAL_Driver/Src/stm32f4xx_hal_tim_ex.c **** }
 350              		.loc 1 280 0
 351 0008 00BF     		nop
 352 000a 0C37     		adds	r7, r7, #12
 353              	.LCFI19:
 354              		.cfi_def_cfa_offset 4
ARM GAS  /tmp/ccphsAb6.s 			page 12


 355 000c BD46     		mov	sp, r7
 356              	.LCFI20:
 357              		.cfi_def_cfa_register 13
 358              		@ sp needed
 359 000e 5DF8047B 		ldr	r7, [sp], #4
 360              	.LCFI21:
 361              		.cfi_restore 7
 362              		.cfi_def_cfa_offset 0
 363 0012 7047     		bx	lr
 364              		.cfi_endproc
 365              	.LFE127:
 367              		.section	.text.HAL_TIMEx_HallSensor_Start,"ax",%progbits
 368              		.align	1
 369              		.global	HAL_TIMEx_HallSensor_Start
 370              		.syntax unified
 371              		.thumb
 372              		.thumb_func
 373              		.fpu fpv4-sp-d16
 375              	HAL_TIMEx_HallSensor_Start:
 376              	.LFB128:
 281:Drivers/STM32F4xx_HAL_Driver/Src/stm32f4xx_hal_tim_ex.c **** 
 282:Drivers/STM32F4xx_HAL_Driver/Src/stm32f4xx_hal_tim_ex.c **** /**
 283:Drivers/STM32F4xx_HAL_Driver/Src/stm32f4xx_hal_tim_ex.c ****   * @brief  Starts the TIM Hall Sensor Interface.
 284:Drivers/STM32F4xx_HAL_Driver/Src/stm32f4xx_hal_tim_ex.c ****   * @param  htim pointer to a TIM_HandleTypeDef structure that contains
 285:Drivers/STM32F4xx_HAL_Driver/Src/stm32f4xx_hal_tim_ex.c ****   *                the configuration information for TIM module.
 286:Drivers/STM32F4xx_HAL_Driver/Src/stm32f4xx_hal_tim_ex.c ****   * @retval HAL status
 287:Drivers/STM32F4xx_HAL_Driver/Src/stm32f4xx_hal_tim_ex.c ****   */
 288:Drivers/STM32F4xx_HAL_Driver/Src/stm32f4xx_hal_tim_ex.c **** HAL_StatusTypeDef HAL_TIMEx_HallSensor_Start(TIM_HandleTypeDef *htim)
 289:Drivers/STM32F4xx_HAL_Driver/Src/stm32f4xx_hal_tim_ex.c **** {
 377              		.loc 1 289 0
 378              		.cfi_startproc
 379              		@ args = 0, pretend = 0, frame = 8
 380              		@ frame_needed = 1, uses_anonymous_args = 0
 381 0000 80B5     		push	{r7, lr}
 382              	.LCFI22:
 383              		.cfi_def_cfa_offset 8
 384              		.cfi_offset 7, -8
 385              		.cfi_offset 14, -4
 386 0002 82B0     		sub	sp, sp, #8
 387              	.LCFI23:
 388              		.cfi_def_cfa_offset 16
 389 0004 00AF     		add	r7, sp, #0
 390              	.LCFI24:
 391              		.cfi_def_cfa_register 7
 392 0006 7860     		str	r0, [r7, #4]
 290:Drivers/STM32F4xx_HAL_Driver/Src/stm32f4xx_hal_tim_ex.c ****   /* Check the parameters */
 291:Drivers/STM32F4xx_HAL_Driver/Src/stm32f4xx_hal_tim_ex.c ****   assert_param(IS_TIM_XOR_INSTANCE(htim->Instance));
 292:Drivers/STM32F4xx_HAL_Driver/Src/stm32f4xx_hal_tim_ex.c ****   
 293:Drivers/STM32F4xx_HAL_Driver/Src/stm32f4xx_hal_tim_ex.c ****   /* Enable the Input Capture channels 1
 294:Drivers/STM32F4xx_HAL_Driver/Src/stm32f4xx_hal_tim_ex.c ****     (in the Hall Sensor Interface the Three possible channels that can be used are TIM_CHANNEL_1, T
 295:Drivers/STM32F4xx_HAL_Driver/Src/stm32f4xx_hal_tim_ex.c ****   TIM_CCxChannelCmd(htim->Instance, TIM_CHANNEL_1, TIM_CCx_ENABLE); 
 393              		.loc 1 295 0
 394 0008 7B68     		ldr	r3, [r7, #4]
 395 000a 1B68     		ldr	r3, [r3]
 396 000c 0122     		movs	r2, #1
 397 000e 0021     		movs	r1, #0
 398 0010 1846     		mov	r0, r3
ARM GAS  /tmp/ccphsAb6.s 			page 13


 399 0012 FFF7FEFF 		bl	TIM_CCxChannelCmd
 296:Drivers/STM32F4xx_HAL_Driver/Src/stm32f4xx_hal_tim_ex.c ****   
 297:Drivers/STM32F4xx_HAL_Driver/Src/stm32f4xx_hal_tim_ex.c ****   /* Enable the Peripheral */
 298:Drivers/STM32F4xx_HAL_Driver/Src/stm32f4xx_hal_tim_ex.c ****   __HAL_TIM_ENABLE(htim);
 400              		.loc 1 298 0
 401 0016 7B68     		ldr	r3, [r7, #4]
 402 0018 1B68     		ldr	r3, [r3]
 403 001a 7A68     		ldr	r2, [r7, #4]
 404 001c 1268     		ldr	r2, [r2]
 405 001e 1268     		ldr	r2, [r2]
 406 0020 42F00102 		orr	r2, r2, #1
 407 0024 1A60     		str	r2, [r3]
 299:Drivers/STM32F4xx_HAL_Driver/Src/stm32f4xx_hal_tim_ex.c ****   
 300:Drivers/STM32F4xx_HAL_Driver/Src/stm32f4xx_hal_tim_ex.c ****   /* Return function status */
 301:Drivers/STM32F4xx_HAL_Driver/Src/stm32f4xx_hal_tim_ex.c ****   return HAL_OK;
 408              		.loc 1 301 0
 409 0026 0023     		movs	r3, #0
 302:Drivers/STM32F4xx_HAL_Driver/Src/stm32f4xx_hal_tim_ex.c **** }
 410              		.loc 1 302 0
 411 0028 1846     		mov	r0, r3
 412 002a 0837     		adds	r7, r7, #8
 413              	.LCFI25:
 414              		.cfi_def_cfa_offset 8
 415 002c BD46     		mov	sp, r7
 416              	.LCFI26:
 417              		.cfi_def_cfa_register 13
 418              		@ sp needed
 419 002e 80BD     		pop	{r7, pc}
 420              		.cfi_endproc
 421              	.LFE128:
 423              		.section	.text.HAL_TIMEx_HallSensor_Stop,"ax",%progbits
 424              		.align	1
 425              		.global	HAL_TIMEx_HallSensor_Stop
 426              		.syntax unified
 427              		.thumb
 428              		.thumb_func
 429              		.fpu fpv4-sp-d16
 431              	HAL_TIMEx_HallSensor_Stop:
 432              	.LFB129:
 303:Drivers/STM32F4xx_HAL_Driver/Src/stm32f4xx_hal_tim_ex.c **** 
 304:Drivers/STM32F4xx_HAL_Driver/Src/stm32f4xx_hal_tim_ex.c **** /**
 305:Drivers/STM32F4xx_HAL_Driver/Src/stm32f4xx_hal_tim_ex.c ****   * @brief  Stops the TIM Hall sensor Interface.
 306:Drivers/STM32F4xx_HAL_Driver/Src/stm32f4xx_hal_tim_ex.c ****   * @param  htim pointer to a TIM_HandleTypeDef structure that contains
 307:Drivers/STM32F4xx_HAL_Driver/Src/stm32f4xx_hal_tim_ex.c ****   *                the configuration information for TIM module.
 308:Drivers/STM32F4xx_HAL_Driver/Src/stm32f4xx_hal_tim_ex.c ****   * @retval HAL status
 309:Drivers/STM32F4xx_HAL_Driver/Src/stm32f4xx_hal_tim_ex.c ****   */
 310:Drivers/STM32F4xx_HAL_Driver/Src/stm32f4xx_hal_tim_ex.c **** HAL_StatusTypeDef HAL_TIMEx_HallSensor_Stop(TIM_HandleTypeDef *htim)
 311:Drivers/STM32F4xx_HAL_Driver/Src/stm32f4xx_hal_tim_ex.c **** {
 433              		.loc 1 311 0
 434              		.cfi_startproc
 435              		@ args = 0, pretend = 0, frame = 8
 436              		@ frame_needed = 1, uses_anonymous_args = 0
 437 0000 80B5     		push	{r7, lr}
 438              	.LCFI27:
 439              		.cfi_def_cfa_offset 8
 440              		.cfi_offset 7, -8
 441              		.cfi_offset 14, -4
ARM GAS  /tmp/ccphsAb6.s 			page 14


 442 0002 82B0     		sub	sp, sp, #8
 443              	.LCFI28:
 444              		.cfi_def_cfa_offset 16
 445 0004 00AF     		add	r7, sp, #0
 446              	.LCFI29:
 447              		.cfi_def_cfa_register 7
 448 0006 7860     		str	r0, [r7, #4]
 312:Drivers/STM32F4xx_HAL_Driver/Src/stm32f4xx_hal_tim_ex.c ****   /* Check the parameters */
 313:Drivers/STM32F4xx_HAL_Driver/Src/stm32f4xx_hal_tim_ex.c ****   assert_param(IS_TIM_XOR_INSTANCE(htim->Instance));
 314:Drivers/STM32F4xx_HAL_Driver/Src/stm32f4xx_hal_tim_ex.c ****   
 315:Drivers/STM32F4xx_HAL_Driver/Src/stm32f4xx_hal_tim_ex.c ****   /* Disable the Input Capture channels 1, 2 and 3
 316:Drivers/STM32F4xx_HAL_Driver/Src/stm32f4xx_hal_tim_ex.c ****     (in the Hall Sensor Interface the Three possible channels that can be used are TIM_CHANNEL_1, T
 317:Drivers/STM32F4xx_HAL_Driver/Src/stm32f4xx_hal_tim_ex.c ****   TIM_CCxChannelCmd(htim->Instance, TIM_CHANNEL_1, TIM_CCx_DISABLE); 
 449              		.loc 1 317 0
 450 0008 7B68     		ldr	r3, [r7, #4]
 451 000a 1B68     		ldr	r3, [r3]
 452 000c 0022     		movs	r2, #0
 453 000e 0021     		movs	r1, #0
 454 0010 1846     		mov	r0, r3
 455 0012 FFF7FEFF 		bl	TIM_CCxChannelCmd
 318:Drivers/STM32F4xx_HAL_Driver/Src/stm32f4xx_hal_tim_ex.c **** 
 319:Drivers/STM32F4xx_HAL_Driver/Src/stm32f4xx_hal_tim_ex.c ****   /* Disable the Peripheral */
 320:Drivers/STM32F4xx_HAL_Driver/Src/stm32f4xx_hal_tim_ex.c ****   __HAL_TIM_DISABLE(htim);
 456              		.loc 1 320 0
 457 0016 7B68     		ldr	r3, [r7, #4]
 458 0018 1B68     		ldr	r3, [r3]
 459 001a 1A6A     		ldr	r2, [r3, #32]
 460 001c 41F21113 		movw	r3, #4369
 461 0020 1340     		ands	r3, r3, r2
 462 0022 002B     		cmp	r3, #0
 463 0024 0FD1     		bne	.L13
 464              		.loc 1 320 0 is_stmt 0 discriminator 1
 465 0026 7B68     		ldr	r3, [r7, #4]
 466 0028 1B68     		ldr	r3, [r3]
 467 002a 1A6A     		ldr	r2, [r3, #32]
 468 002c 40F24443 		movw	r3, #1092
 469 0030 1340     		ands	r3, r3, r2
 470 0032 002B     		cmp	r3, #0
 471 0034 07D1     		bne	.L13
 472              		.loc 1 320 0 discriminator 2
 473 0036 7B68     		ldr	r3, [r7, #4]
 474 0038 1B68     		ldr	r3, [r3]
 475 003a 7A68     		ldr	r2, [r7, #4]
 476 003c 1268     		ldr	r2, [r2]
 477 003e 1268     		ldr	r2, [r2]
 478 0040 22F00102 		bic	r2, r2, #1
 479 0044 1A60     		str	r2, [r3]
 480              	.L13:
 321:Drivers/STM32F4xx_HAL_Driver/Src/stm32f4xx_hal_tim_ex.c ****   
 322:Drivers/STM32F4xx_HAL_Driver/Src/stm32f4xx_hal_tim_ex.c ****   /* Return function status */
 323:Drivers/STM32F4xx_HAL_Driver/Src/stm32f4xx_hal_tim_ex.c ****   return HAL_OK;
 481              		.loc 1 323 0 is_stmt 1
 482 0046 0023     		movs	r3, #0
 324:Drivers/STM32F4xx_HAL_Driver/Src/stm32f4xx_hal_tim_ex.c **** }
 483              		.loc 1 324 0
 484 0048 1846     		mov	r0, r3
 485 004a 0837     		adds	r7, r7, #8
ARM GAS  /tmp/ccphsAb6.s 			page 15


 486              	.LCFI30:
 487              		.cfi_def_cfa_offset 8
 488 004c BD46     		mov	sp, r7
 489              	.LCFI31:
 490              		.cfi_def_cfa_register 13
 491              		@ sp needed
 492 004e 80BD     		pop	{r7, pc}
 493              		.cfi_endproc
 494              	.LFE129:
 496              		.section	.text.HAL_TIMEx_HallSensor_Start_IT,"ax",%progbits
 497              		.align	1
 498              		.global	HAL_TIMEx_HallSensor_Start_IT
 499              		.syntax unified
 500              		.thumb
 501              		.thumb_func
 502              		.fpu fpv4-sp-d16
 504              	HAL_TIMEx_HallSensor_Start_IT:
 505              	.LFB130:
 325:Drivers/STM32F4xx_HAL_Driver/Src/stm32f4xx_hal_tim_ex.c **** 
 326:Drivers/STM32F4xx_HAL_Driver/Src/stm32f4xx_hal_tim_ex.c **** /**
 327:Drivers/STM32F4xx_HAL_Driver/Src/stm32f4xx_hal_tim_ex.c ****   * @brief  Starts the TIM Hall Sensor Interface in interrupt mode.
 328:Drivers/STM32F4xx_HAL_Driver/Src/stm32f4xx_hal_tim_ex.c ****   * @param  htim pointer to a TIM_HandleTypeDef structure that contains
 329:Drivers/STM32F4xx_HAL_Driver/Src/stm32f4xx_hal_tim_ex.c ****   *                the configuration information for TIM module.
 330:Drivers/STM32F4xx_HAL_Driver/Src/stm32f4xx_hal_tim_ex.c ****   * @retval HAL status
 331:Drivers/STM32F4xx_HAL_Driver/Src/stm32f4xx_hal_tim_ex.c ****   */
 332:Drivers/STM32F4xx_HAL_Driver/Src/stm32f4xx_hal_tim_ex.c **** HAL_StatusTypeDef HAL_TIMEx_HallSensor_Start_IT(TIM_HandleTypeDef *htim)
 333:Drivers/STM32F4xx_HAL_Driver/Src/stm32f4xx_hal_tim_ex.c **** { 
 506              		.loc 1 333 0
 507              		.cfi_startproc
 508              		@ args = 0, pretend = 0, frame = 8
 509              		@ frame_needed = 1, uses_anonymous_args = 0
 510 0000 80B5     		push	{r7, lr}
 511              	.LCFI32:
 512              		.cfi_def_cfa_offset 8
 513              		.cfi_offset 7, -8
 514              		.cfi_offset 14, -4
 515 0002 82B0     		sub	sp, sp, #8
 516              	.LCFI33:
 517              		.cfi_def_cfa_offset 16
 518 0004 00AF     		add	r7, sp, #0
 519              	.LCFI34:
 520              		.cfi_def_cfa_register 7
 521 0006 7860     		str	r0, [r7, #4]
 334:Drivers/STM32F4xx_HAL_Driver/Src/stm32f4xx_hal_tim_ex.c ****   /* Check the parameters */
 335:Drivers/STM32F4xx_HAL_Driver/Src/stm32f4xx_hal_tim_ex.c ****   assert_param(IS_TIM_XOR_INSTANCE(htim->Instance));
 336:Drivers/STM32F4xx_HAL_Driver/Src/stm32f4xx_hal_tim_ex.c ****   
 337:Drivers/STM32F4xx_HAL_Driver/Src/stm32f4xx_hal_tim_ex.c ****   /* Enable the capture compare Interrupts 1 event */
 338:Drivers/STM32F4xx_HAL_Driver/Src/stm32f4xx_hal_tim_ex.c ****   __HAL_TIM_ENABLE_IT(htim, TIM_IT_CC1);
 522              		.loc 1 338 0
 523 0008 7B68     		ldr	r3, [r7, #4]
 524 000a 1B68     		ldr	r3, [r3]
 525 000c 7A68     		ldr	r2, [r7, #4]
 526 000e 1268     		ldr	r2, [r2]
 527 0010 D268     		ldr	r2, [r2, #12]
 528 0012 42F00202 		orr	r2, r2, #2
 529 0016 DA60     		str	r2, [r3, #12]
 339:Drivers/STM32F4xx_HAL_Driver/Src/stm32f4xx_hal_tim_ex.c ****   
ARM GAS  /tmp/ccphsAb6.s 			page 16


 340:Drivers/STM32F4xx_HAL_Driver/Src/stm32f4xx_hal_tim_ex.c ****   /* Enable the Input Capture channels 1
 341:Drivers/STM32F4xx_HAL_Driver/Src/stm32f4xx_hal_tim_ex.c ****     (in the Hall Sensor Interface the Three possible channels that can be used are TIM_CHANNEL_1, T
 342:Drivers/STM32F4xx_HAL_Driver/Src/stm32f4xx_hal_tim_ex.c ****   TIM_CCxChannelCmd(htim->Instance, TIM_CHANNEL_1, TIM_CCx_ENABLE);  
 530              		.loc 1 342 0
 531 0018 7B68     		ldr	r3, [r7, #4]
 532 001a 1B68     		ldr	r3, [r3]
 533 001c 0122     		movs	r2, #1
 534 001e 0021     		movs	r1, #0
 535 0020 1846     		mov	r0, r3
 536 0022 FFF7FEFF 		bl	TIM_CCxChannelCmd
 343:Drivers/STM32F4xx_HAL_Driver/Src/stm32f4xx_hal_tim_ex.c ****   
 344:Drivers/STM32F4xx_HAL_Driver/Src/stm32f4xx_hal_tim_ex.c ****   /* Enable the Peripheral */
 345:Drivers/STM32F4xx_HAL_Driver/Src/stm32f4xx_hal_tim_ex.c ****   __HAL_TIM_ENABLE(htim);
 537              		.loc 1 345 0
 538 0026 7B68     		ldr	r3, [r7, #4]
 539 0028 1B68     		ldr	r3, [r3]
 540 002a 7A68     		ldr	r2, [r7, #4]
 541 002c 1268     		ldr	r2, [r2]
 542 002e 1268     		ldr	r2, [r2]
 543 0030 42F00102 		orr	r2, r2, #1
 544 0034 1A60     		str	r2, [r3]
 346:Drivers/STM32F4xx_HAL_Driver/Src/stm32f4xx_hal_tim_ex.c ****   
 347:Drivers/STM32F4xx_HAL_Driver/Src/stm32f4xx_hal_tim_ex.c ****   /* Return function status */
 348:Drivers/STM32F4xx_HAL_Driver/Src/stm32f4xx_hal_tim_ex.c ****   return HAL_OK;
 545              		.loc 1 348 0
 546 0036 0023     		movs	r3, #0
 349:Drivers/STM32F4xx_HAL_Driver/Src/stm32f4xx_hal_tim_ex.c **** }
 547              		.loc 1 349 0
 548 0038 1846     		mov	r0, r3
 549 003a 0837     		adds	r7, r7, #8
 550              	.LCFI35:
 551              		.cfi_def_cfa_offset 8
 552 003c BD46     		mov	sp, r7
 553              	.LCFI36:
 554              		.cfi_def_cfa_register 13
 555              		@ sp needed
 556 003e 80BD     		pop	{r7, pc}
 557              		.cfi_endproc
 558              	.LFE130:
 560              		.section	.text.HAL_TIMEx_HallSensor_Stop_IT,"ax",%progbits
 561              		.align	1
 562              		.global	HAL_TIMEx_HallSensor_Stop_IT
 563              		.syntax unified
 564              		.thumb
 565              		.thumb_func
 566              		.fpu fpv4-sp-d16
 568              	HAL_TIMEx_HallSensor_Stop_IT:
 569              	.LFB131:
 350:Drivers/STM32F4xx_HAL_Driver/Src/stm32f4xx_hal_tim_ex.c **** 
 351:Drivers/STM32F4xx_HAL_Driver/Src/stm32f4xx_hal_tim_ex.c **** /**
 352:Drivers/STM32F4xx_HAL_Driver/Src/stm32f4xx_hal_tim_ex.c ****   * @brief  Stops the TIM Hall Sensor Interface in interrupt mode.
 353:Drivers/STM32F4xx_HAL_Driver/Src/stm32f4xx_hal_tim_ex.c ****   * @param  htim pointer to a TIM_HandleTypeDef structure that contains
 354:Drivers/STM32F4xx_HAL_Driver/Src/stm32f4xx_hal_tim_ex.c ****   *                the configuration information for TIM module.
 355:Drivers/STM32F4xx_HAL_Driver/Src/stm32f4xx_hal_tim_ex.c ****   * @retval HAL status
 356:Drivers/STM32F4xx_HAL_Driver/Src/stm32f4xx_hal_tim_ex.c ****   */
 357:Drivers/STM32F4xx_HAL_Driver/Src/stm32f4xx_hal_tim_ex.c **** HAL_StatusTypeDef HAL_TIMEx_HallSensor_Stop_IT(TIM_HandleTypeDef *htim)
 358:Drivers/STM32F4xx_HAL_Driver/Src/stm32f4xx_hal_tim_ex.c **** {
ARM GAS  /tmp/ccphsAb6.s 			page 17


 570              		.loc 1 358 0
 571              		.cfi_startproc
 572              		@ args = 0, pretend = 0, frame = 8
 573              		@ frame_needed = 1, uses_anonymous_args = 0
 574 0000 80B5     		push	{r7, lr}
 575              	.LCFI37:
 576              		.cfi_def_cfa_offset 8
 577              		.cfi_offset 7, -8
 578              		.cfi_offset 14, -4
 579 0002 82B0     		sub	sp, sp, #8
 580              	.LCFI38:
 581              		.cfi_def_cfa_offset 16
 582 0004 00AF     		add	r7, sp, #0
 583              	.LCFI39:
 584              		.cfi_def_cfa_register 7
 585 0006 7860     		str	r0, [r7, #4]
 359:Drivers/STM32F4xx_HAL_Driver/Src/stm32f4xx_hal_tim_ex.c ****   /* Check the parameters */
 360:Drivers/STM32F4xx_HAL_Driver/Src/stm32f4xx_hal_tim_ex.c ****   assert_param(IS_TIM_XOR_INSTANCE(htim->Instance));
 361:Drivers/STM32F4xx_HAL_Driver/Src/stm32f4xx_hal_tim_ex.c ****   
 362:Drivers/STM32F4xx_HAL_Driver/Src/stm32f4xx_hal_tim_ex.c ****   /* Disable the Input Capture channels 1
 363:Drivers/STM32F4xx_HAL_Driver/Src/stm32f4xx_hal_tim_ex.c ****     (in the Hall Sensor Interface the Three possible channels that can be used are TIM_CHANNEL_1, T
 364:Drivers/STM32F4xx_HAL_Driver/Src/stm32f4xx_hal_tim_ex.c ****   TIM_CCxChannelCmd(htim->Instance, TIM_CHANNEL_1, TIM_CCx_DISABLE); 
 586              		.loc 1 364 0
 587 0008 7B68     		ldr	r3, [r7, #4]
 588 000a 1B68     		ldr	r3, [r3]
 589 000c 0022     		movs	r2, #0
 590 000e 0021     		movs	r1, #0
 591 0010 1846     		mov	r0, r3
 592 0012 FFF7FEFF 		bl	TIM_CCxChannelCmd
 365:Drivers/STM32F4xx_HAL_Driver/Src/stm32f4xx_hal_tim_ex.c ****   
 366:Drivers/STM32F4xx_HAL_Driver/Src/stm32f4xx_hal_tim_ex.c ****   /* Disable the capture compare Interrupts event */
 367:Drivers/STM32F4xx_HAL_Driver/Src/stm32f4xx_hal_tim_ex.c ****   __HAL_TIM_DISABLE_IT(htim, TIM_IT_CC1);
 593              		.loc 1 367 0
 594 0016 7B68     		ldr	r3, [r7, #4]
 595 0018 1B68     		ldr	r3, [r3]
 596 001a 7A68     		ldr	r2, [r7, #4]
 597 001c 1268     		ldr	r2, [r2]
 598 001e D268     		ldr	r2, [r2, #12]
 599 0020 22F00202 		bic	r2, r2, #2
 600 0024 DA60     		str	r2, [r3, #12]
 368:Drivers/STM32F4xx_HAL_Driver/Src/stm32f4xx_hal_tim_ex.c ****   
 369:Drivers/STM32F4xx_HAL_Driver/Src/stm32f4xx_hal_tim_ex.c ****   /* Disable the Peripheral */
 370:Drivers/STM32F4xx_HAL_Driver/Src/stm32f4xx_hal_tim_ex.c ****   __HAL_TIM_DISABLE(htim);
 601              		.loc 1 370 0
 602 0026 7B68     		ldr	r3, [r7, #4]
 603 0028 1B68     		ldr	r3, [r3]
 604 002a 1A6A     		ldr	r2, [r3, #32]
 605 002c 41F21113 		movw	r3, #4369
 606 0030 1340     		ands	r3, r3, r2
 607 0032 002B     		cmp	r3, #0
 608 0034 0FD1     		bne	.L18
 609              		.loc 1 370 0 is_stmt 0 discriminator 1
 610 0036 7B68     		ldr	r3, [r7, #4]
 611 0038 1B68     		ldr	r3, [r3]
 612 003a 1A6A     		ldr	r2, [r3, #32]
 613 003c 40F24443 		movw	r3, #1092
 614 0040 1340     		ands	r3, r3, r2
ARM GAS  /tmp/ccphsAb6.s 			page 18


 615 0042 002B     		cmp	r3, #0
 616 0044 07D1     		bne	.L18
 617              		.loc 1 370 0 discriminator 2
 618 0046 7B68     		ldr	r3, [r7, #4]
 619 0048 1B68     		ldr	r3, [r3]
 620 004a 7A68     		ldr	r2, [r7, #4]
 621 004c 1268     		ldr	r2, [r2]
 622 004e 1268     		ldr	r2, [r2]
 623 0050 22F00102 		bic	r2, r2, #1
 624 0054 1A60     		str	r2, [r3]
 625              	.L18:
 371:Drivers/STM32F4xx_HAL_Driver/Src/stm32f4xx_hal_tim_ex.c ****   
 372:Drivers/STM32F4xx_HAL_Driver/Src/stm32f4xx_hal_tim_ex.c ****   /* Return function status */
 373:Drivers/STM32F4xx_HAL_Driver/Src/stm32f4xx_hal_tim_ex.c ****   return HAL_OK;
 626              		.loc 1 373 0 is_stmt 1
 627 0056 0023     		movs	r3, #0
 374:Drivers/STM32F4xx_HAL_Driver/Src/stm32f4xx_hal_tim_ex.c **** }
 628              		.loc 1 374 0
 629 0058 1846     		mov	r0, r3
 630 005a 0837     		adds	r7, r7, #8
 631              	.LCFI40:
 632              		.cfi_def_cfa_offset 8
 633 005c BD46     		mov	sp, r7
 634              	.LCFI41:
 635              		.cfi_def_cfa_register 13
 636              		@ sp needed
 637 005e 80BD     		pop	{r7, pc}
 638              		.cfi_endproc
 639              	.LFE131:
 641              		.section	.text.HAL_TIMEx_HallSensor_Start_DMA,"ax",%progbits
 642              		.align	1
 643              		.global	HAL_TIMEx_HallSensor_Start_DMA
 644              		.syntax unified
 645              		.thumb
 646              		.thumb_func
 647              		.fpu fpv4-sp-d16
 649              	HAL_TIMEx_HallSensor_Start_DMA:
 650              	.LFB132:
 375:Drivers/STM32F4xx_HAL_Driver/Src/stm32f4xx_hal_tim_ex.c **** 
 376:Drivers/STM32F4xx_HAL_Driver/Src/stm32f4xx_hal_tim_ex.c **** /**
 377:Drivers/STM32F4xx_HAL_Driver/Src/stm32f4xx_hal_tim_ex.c ****   * @brief  Starts the TIM Hall Sensor Interface in DMA mode.
 378:Drivers/STM32F4xx_HAL_Driver/Src/stm32f4xx_hal_tim_ex.c ****   * @param  htim pointer to a TIM_HandleTypeDef structure that contains
 379:Drivers/STM32F4xx_HAL_Driver/Src/stm32f4xx_hal_tim_ex.c ****   *                the configuration information for TIM module.
 380:Drivers/STM32F4xx_HAL_Driver/Src/stm32f4xx_hal_tim_ex.c ****   * @param  pData The destination Buffer address.
 381:Drivers/STM32F4xx_HAL_Driver/Src/stm32f4xx_hal_tim_ex.c ****   * @param  Length The length of data to be transferred from TIM peripheral to memory.
 382:Drivers/STM32F4xx_HAL_Driver/Src/stm32f4xx_hal_tim_ex.c ****   * @retval HAL status
 383:Drivers/STM32F4xx_HAL_Driver/Src/stm32f4xx_hal_tim_ex.c ****   */
 384:Drivers/STM32F4xx_HAL_Driver/Src/stm32f4xx_hal_tim_ex.c **** HAL_StatusTypeDef HAL_TIMEx_HallSensor_Start_DMA(TIM_HandleTypeDef *htim, uint32_t *pData, uint16_t
 385:Drivers/STM32F4xx_HAL_Driver/Src/stm32f4xx_hal_tim_ex.c **** {
 651              		.loc 1 385 0
 652              		.cfi_startproc
 653              		@ args = 0, pretend = 0, frame = 16
 654              		@ frame_needed = 1, uses_anonymous_args = 0
 655 0000 80B5     		push	{r7, lr}
 656              	.LCFI42:
 657              		.cfi_def_cfa_offset 8
 658              		.cfi_offset 7, -8
ARM GAS  /tmp/ccphsAb6.s 			page 19


 659              		.cfi_offset 14, -4
 660 0002 84B0     		sub	sp, sp, #16
 661              	.LCFI43:
 662              		.cfi_def_cfa_offset 24
 663 0004 00AF     		add	r7, sp, #0
 664              	.LCFI44:
 665              		.cfi_def_cfa_register 7
 666 0006 F860     		str	r0, [r7, #12]
 667 0008 B960     		str	r1, [r7, #8]
 668 000a 1346     		mov	r3, r2
 669 000c FB80     		strh	r3, [r7, #6]	@ movhi
 386:Drivers/STM32F4xx_HAL_Driver/Src/stm32f4xx_hal_tim_ex.c ****   /* Check the parameters */
 387:Drivers/STM32F4xx_HAL_Driver/Src/stm32f4xx_hal_tim_ex.c ****   assert_param(IS_TIM_XOR_INSTANCE(htim->Instance));
 388:Drivers/STM32F4xx_HAL_Driver/Src/stm32f4xx_hal_tim_ex.c ****   
 389:Drivers/STM32F4xx_HAL_Driver/Src/stm32f4xx_hal_tim_ex.c ****    if((htim->State == HAL_TIM_STATE_BUSY))
 670              		.loc 1 389 0
 671 000e FB68     		ldr	r3, [r7, #12]
 672 0010 93F83930 		ldrb	r3, [r3, #57]
 673 0014 DBB2     		uxtb	r3, r3
 674 0016 022B     		cmp	r3, #2
 675 0018 01D1     		bne	.L21
 390:Drivers/STM32F4xx_HAL_Driver/Src/stm32f4xx_hal_tim_ex.c ****   {
 391:Drivers/STM32F4xx_HAL_Driver/Src/stm32f4xx_hal_tim_ex.c ****      return HAL_BUSY;
 676              		.loc 1 391 0
 677 001a 0223     		movs	r3, #2
 678 001c 3BE0     		b	.L22
 679              	.L21:
 392:Drivers/STM32F4xx_HAL_Driver/Src/stm32f4xx_hal_tim_ex.c ****   }
 393:Drivers/STM32F4xx_HAL_Driver/Src/stm32f4xx_hal_tim_ex.c ****   else if((htim->State == HAL_TIM_STATE_READY))
 680              		.loc 1 393 0
 681 001e FB68     		ldr	r3, [r7, #12]
 682 0020 93F83930 		ldrb	r3, [r3, #57]
 683 0024 DBB2     		uxtb	r3, r3
 684 0026 012B     		cmp	r3, #1
 685 0028 0BD1     		bne	.L23
 394:Drivers/STM32F4xx_HAL_Driver/Src/stm32f4xx_hal_tim_ex.c ****   {
 395:Drivers/STM32F4xx_HAL_Driver/Src/stm32f4xx_hal_tim_ex.c ****     if(((uint32_t)pData == 0U) && (Length > 0)) 
 686              		.loc 1 395 0
 687 002a BB68     		ldr	r3, [r7, #8]
 688 002c 002B     		cmp	r3, #0
 689 002e 04D1     		bne	.L24
 690              		.loc 1 395 0 is_stmt 0 discriminator 1
 691 0030 FB88     		ldrh	r3, [r7, #6]
 692 0032 002B     		cmp	r3, #0
 693 0034 01D0     		beq	.L24
 396:Drivers/STM32F4xx_HAL_Driver/Src/stm32f4xx_hal_tim_ex.c ****     {
 397:Drivers/STM32F4xx_HAL_Driver/Src/stm32f4xx_hal_tim_ex.c ****       return HAL_ERROR;                                    
 694              		.loc 1 397 0 is_stmt 1
 695 0036 0123     		movs	r3, #1
 696 0038 2DE0     		b	.L22
 697              	.L24:
 398:Drivers/STM32F4xx_HAL_Driver/Src/stm32f4xx_hal_tim_ex.c ****     }
 399:Drivers/STM32F4xx_HAL_Driver/Src/stm32f4xx_hal_tim_ex.c ****     else
 400:Drivers/STM32F4xx_HAL_Driver/Src/stm32f4xx_hal_tim_ex.c ****     {
 401:Drivers/STM32F4xx_HAL_Driver/Src/stm32f4xx_hal_tim_ex.c ****       htim->State = HAL_TIM_STATE_BUSY;
 698              		.loc 1 401 0
 699 003a FB68     		ldr	r3, [r7, #12]
ARM GAS  /tmp/ccphsAb6.s 			page 20


 700 003c 0222     		movs	r2, #2
 701 003e 83F83920 		strb	r2, [r3, #57]
 702              	.L23:
 402:Drivers/STM32F4xx_HAL_Driver/Src/stm32f4xx_hal_tim_ex.c ****     }
 403:Drivers/STM32F4xx_HAL_Driver/Src/stm32f4xx_hal_tim_ex.c ****   }
 404:Drivers/STM32F4xx_HAL_Driver/Src/stm32f4xx_hal_tim_ex.c ****   /* Enable the Input Capture channels 1
 405:Drivers/STM32F4xx_HAL_Driver/Src/stm32f4xx_hal_tim_ex.c ****     (in the Hall Sensor Interface the Three possible channels that can be used are TIM_CHANNEL_1, T
 406:Drivers/STM32F4xx_HAL_Driver/Src/stm32f4xx_hal_tim_ex.c ****   TIM_CCxChannelCmd(htim->Instance, TIM_CHANNEL_1, TIM_CCx_ENABLE); 
 703              		.loc 1 406 0
 704 0042 FB68     		ldr	r3, [r7, #12]
 705 0044 1B68     		ldr	r3, [r3]
 706 0046 0122     		movs	r2, #1
 707 0048 0021     		movs	r1, #0
 708 004a 1846     		mov	r0, r3
 709 004c FFF7FEFF 		bl	TIM_CCxChannelCmd
 407:Drivers/STM32F4xx_HAL_Driver/Src/stm32f4xx_hal_tim_ex.c ****   
 408:Drivers/STM32F4xx_HAL_Driver/Src/stm32f4xx_hal_tim_ex.c ****   /* Set the DMA Input Capture 1 Callback */
 409:Drivers/STM32F4xx_HAL_Driver/Src/stm32f4xx_hal_tim_ex.c ****   htim->hdma[TIM_DMA_ID_CC1]->XferCpltCallback = TIM_DMACaptureCplt;     
 710              		.loc 1 409 0
 711 0050 FB68     		ldr	r3, [r7, #12]
 712 0052 1B6A     		ldr	r3, [r3, #32]
 713 0054 124A     		ldr	r2, .L25
 714 0056 DA63     		str	r2, [r3, #60]
 410:Drivers/STM32F4xx_HAL_Driver/Src/stm32f4xx_hal_tim_ex.c ****   /* Set the DMA error callback */
 411:Drivers/STM32F4xx_HAL_Driver/Src/stm32f4xx_hal_tim_ex.c ****   htim->hdma[TIM_DMA_ID_CC1]->XferErrorCallback = TIM_DMAError ;
 715              		.loc 1 411 0
 716 0058 FB68     		ldr	r3, [r7, #12]
 717 005a 1B6A     		ldr	r3, [r3, #32]
 718 005c 114A     		ldr	r2, .L25+4
 719 005e DA64     		str	r2, [r3, #76]
 412:Drivers/STM32F4xx_HAL_Driver/Src/stm32f4xx_hal_tim_ex.c ****   
 413:Drivers/STM32F4xx_HAL_Driver/Src/stm32f4xx_hal_tim_ex.c ****   /* Enable the DMA Stream for Capture 1*/
 414:Drivers/STM32F4xx_HAL_Driver/Src/stm32f4xx_hal_tim_ex.c ****   HAL_DMA_Start_IT(htim->hdma[TIM_DMA_ID_CC1], (uint32_t)&htim->Instance->CCR1, (uint32_t)pData, Le
 720              		.loc 1 414 0
 721 0060 FB68     		ldr	r3, [r7, #12]
 722 0062 186A     		ldr	r0, [r3, #32]
 723 0064 FB68     		ldr	r3, [r7, #12]
 724 0066 1B68     		ldr	r3, [r3]
 725 0068 3433     		adds	r3, r3, #52
 726 006a 1946     		mov	r1, r3
 727 006c BA68     		ldr	r2, [r7, #8]
 728 006e FB88     		ldrh	r3, [r7, #6]
 729 0070 FFF7FEFF 		bl	HAL_DMA_Start_IT
 415:Drivers/STM32F4xx_HAL_Driver/Src/stm32f4xx_hal_tim_ex.c ****   
 416:Drivers/STM32F4xx_HAL_Driver/Src/stm32f4xx_hal_tim_ex.c ****   /* Enable the capture compare 1 Interrupt */
 417:Drivers/STM32F4xx_HAL_Driver/Src/stm32f4xx_hal_tim_ex.c ****   __HAL_TIM_ENABLE_DMA(htim, TIM_DMA_CC1);
 730              		.loc 1 417 0
 731 0074 FB68     		ldr	r3, [r7, #12]
 732 0076 1B68     		ldr	r3, [r3]
 733 0078 FA68     		ldr	r2, [r7, #12]
 734 007a 1268     		ldr	r2, [r2]
 735 007c D268     		ldr	r2, [r2, #12]
 736 007e 42F40072 		orr	r2, r2, #512
 737 0082 DA60     		str	r2, [r3, #12]
 418:Drivers/STM32F4xx_HAL_Driver/Src/stm32f4xx_hal_tim_ex.c ****  
 419:Drivers/STM32F4xx_HAL_Driver/Src/stm32f4xx_hal_tim_ex.c ****   /* Enable the Peripheral */
 420:Drivers/STM32F4xx_HAL_Driver/Src/stm32f4xx_hal_tim_ex.c ****   __HAL_TIM_ENABLE(htim);
ARM GAS  /tmp/ccphsAb6.s 			page 21


 738              		.loc 1 420 0
 739 0084 FB68     		ldr	r3, [r7, #12]
 740 0086 1B68     		ldr	r3, [r3]
 741 0088 FA68     		ldr	r2, [r7, #12]
 742 008a 1268     		ldr	r2, [r2]
 743 008c 1268     		ldr	r2, [r2]
 744 008e 42F00102 		orr	r2, r2, #1
 745 0092 1A60     		str	r2, [r3]
 421:Drivers/STM32F4xx_HAL_Driver/Src/stm32f4xx_hal_tim_ex.c ****   
 422:Drivers/STM32F4xx_HAL_Driver/Src/stm32f4xx_hal_tim_ex.c ****   /* Return function status */
 423:Drivers/STM32F4xx_HAL_Driver/Src/stm32f4xx_hal_tim_ex.c ****   return HAL_OK;
 746              		.loc 1 423 0
 747 0094 0023     		movs	r3, #0
 748              	.L22:
 424:Drivers/STM32F4xx_HAL_Driver/Src/stm32f4xx_hal_tim_ex.c **** }
 749              		.loc 1 424 0
 750 0096 1846     		mov	r0, r3
 751 0098 1037     		adds	r7, r7, #16
 752              	.LCFI45:
 753              		.cfi_def_cfa_offset 8
 754 009a BD46     		mov	sp, r7
 755              	.LCFI46:
 756              		.cfi_def_cfa_register 13
 757              		@ sp needed
 758 009c 80BD     		pop	{r7, pc}
 759              	.L26:
 760 009e 00BF     		.align	2
 761              	.L25:
 762 00a0 00000000 		.word	TIM_DMACaptureCplt
 763 00a4 00000000 		.word	TIM_DMAError
 764              		.cfi_endproc
 765              	.LFE132:
 767              		.section	.text.HAL_TIMEx_HallSensor_Stop_DMA,"ax",%progbits
 768              		.align	1
 769              		.global	HAL_TIMEx_HallSensor_Stop_DMA
 770              		.syntax unified
 771              		.thumb
 772              		.thumb_func
 773              		.fpu fpv4-sp-d16
 775              	HAL_TIMEx_HallSensor_Stop_DMA:
 776              	.LFB133:
 425:Drivers/STM32F4xx_HAL_Driver/Src/stm32f4xx_hal_tim_ex.c **** 
 426:Drivers/STM32F4xx_HAL_Driver/Src/stm32f4xx_hal_tim_ex.c **** /**
 427:Drivers/STM32F4xx_HAL_Driver/Src/stm32f4xx_hal_tim_ex.c ****   * @brief  Stops the TIM Hall Sensor Interface in DMA mode.
 428:Drivers/STM32F4xx_HAL_Driver/Src/stm32f4xx_hal_tim_ex.c ****   * @param  htim pointer to a TIM_HandleTypeDef structure that contains
 429:Drivers/STM32F4xx_HAL_Driver/Src/stm32f4xx_hal_tim_ex.c ****   *                the configuration information for TIM module.
 430:Drivers/STM32F4xx_HAL_Driver/Src/stm32f4xx_hal_tim_ex.c ****   * @retval HAL status
 431:Drivers/STM32F4xx_HAL_Driver/Src/stm32f4xx_hal_tim_ex.c ****   */
 432:Drivers/STM32F4xx_HAL_Driver/Src/stm32f4xx_hal_tim_ex.c **** HAL_StatusTypeDef HAL_TIMEx_HallSensor_Stop_DMA(TIM_HandleTypeDef *htim)
 433:Drivers/STM32F4xx_HAL_Driver/Src/stm32f4xx_hal_tim_ex.c **** {
 777              		.loc 1 433 0
 778              		.cfi_startproc
 779              		@ args = 0, pretend = 0, frame = 8
 780              		@ frame_needed = 1, uses_anonymous_args = 0
 781 0000 80B5     		push	{r7, lr}
 782              	.LCFI47:
 783              		.cfi_def_cfa_offset 8
ARM GAS  /tmp/ccphsAb6.s 			page 22


 784              		.cfi_offset 7, -8
 785              		.cfi_offset 14, -4
 786 0002 82B0     		sub	sp, sp, #8
 787              	.LCFI48:
 788              		.cfi_def_cfa_offset 16
 789 0004 00AF     		add	r7, sp, #0
 790              	.LCFI49:
 791              		.cfi_def_cfa_register 7
 792 0006 7860     		str	r0, [r7, #4]
 434:Drivers/STM32F4xx_HAL_Driver/Src/stm32f4xx_hal_tim_ex.c ****   /* Check the parameters */
 435:Drivers/STM32F4xx_HAL_Driver/Src/stm32f4xx_hal_tim_ex.c ****   assert_param(IS_TIM_XOR_INSTANCE(htim->Instance));
 436:Drivers/STM32F4xx_HAL_Driver/Src/stm32f4xx_hal_tim_ex.c ****   
 437:Drivers/STM32F4xx_HAL_Driver/Src/stm32f4xx_hal_tim_ex.c ****   /* Disable the Input Capture channels 1
 438:Drivers/STM32F4xx_HAL_Driver/Src/stm32f4xx_hal_tim_ex.c ****     (in the Hall Sensor Interface the Three possible channels that can be used are TIM_CHANNEL_1, T
 439:Drivers/STM32F4xx_HAL_Driver/Src/stm32f4xx_hal_tim_ex.c ****   TIM_CCxChannelCmd(htim->Instance, TIM_CHANNEL_1, TIM_CCx_DISABLE); 
 793              		.loc 1 439 0
 794 0008 7B68     		ldr	r3, [r7, #4]
 795 000a 1B68     		ldr	r3, [r3]
 796 000c 0022     		movs	r2, #0
 797 000e 0021     		movs	r1, #0
 798 0010 1846     		mov	r0, r3
 799 0012 FFF7FEFF 		bl	TIM_CCxChannelCmd
 440:Drivers/STM32F4xx_HAL_Driver/Src/stm32f4xx_hal_tim_ex.c ****  
 441:Drivers/STM32F4xx_HAL_Driver/Src/stm32f4xx_hal_tim_ex.c ****   
 442:Drivers/STM32F4xx_HAL_Driver/Src/stm32f4xx_hal_tim_ex.c ****   /* Disable the capture compare Interrupts 1 event */
 443:Drivers/STM32F4xx_HAL_Driver/Src/stm32f4xx_hal_tim_ex.c ****   __HAL_TIM_DISABLE_DMA(htim, TIM_DMA_CC1);
 800              		.loc 1 443 0
 801 0016 7B68     		ldr	r3, [r7, #4]
 802 0018 1B68     		ldr	r3, [r3]
 803 001a 7A68     		ldr	r2, [r7, #4]
 804 001c 1268     		ldr	r2, [r2]
 805 001e D268     		ldr	r2, [r2, #12]
 806 0020 22F40072 		bic	r2, r2, #512
 807 0024 DA60     		str	r2, [r3, #12]
 444:Drivers/STM32F4xx_HAL_Driver/Src/stm32f4xx_hal_tim_ex.c ****  
 445:Drivers/STM32F4xx_HAL_Driver/Src/stm32f4xx_hal_tim_ex.c ****   /* Disable the Peripheral */
 446:Drivers/STM32F4xx_HAL_Driver/Src/stm32f4xx_hal_tim_ex.c ****   __HAL_TIM_DISABLE(htim);
 808              		.loc 1 446 0
 809 0026 7B68     		ldr	r3, [r7, #4]
 810 0028 1B68     		ldr	r3, [r3]
 811 002a 1A6A     		ldr	r2, [r3, #32]
 812 002c 41F21113 		movw	r3, #4369
 813 0030 1340     		ands	r3, r3, r2
 814 0032 002B     		cmp	r3, #0
 815 0034 0FD1     		bne	.L28
 816              		.loc 1 446 0 is_stmt 0 discriminator 1
 817 0036 7B68     		ldr	r3, [r7, #4]
 818 0038 1B68     		ldr	r3, [r3]
 819 003a 1A6A     		ldr	r2, [r3, #32]
 820 003c 40F24443 		movw	r3, #1092
 821 0040 1340     		ands	r3, r3, r2
 822 0042 002B     		cmp	r3, #0
 823 0044 07D1     		bne	.L28
 824              		.loc 1 446 0 discriminator 2
 825 0046 7B68     		ldr	r3, [r7, #4]
 826 0048 1B68     		ldr	r3, [r3]
 827 004a 7A68     		ldr	r2, [r7, #4]
ARM GAS  /tmp/ccphsAb6.s 			page 23


 828 004c 1268     		ldr	r2, [r2]
 829 004e 1268     		ldr	r2, [r2]
 830 0050 22F00102 		bic	r2, r2, #1
 831 0054 1A60     		str	r2, [r3]
 832              	.L28:
 447:Drivers/STM32F4xx_HAL_Driver/Src/stm32f4xx_hal_tim_ex.c ****   
 448:Drivers/STM32F4xx_HAL_Driver/Src/stm32f4xx_hal_tim_ex.c ****   /* Return function status */
 449:Drivers/STM32F4xx_HAL_Driver/Src/stm32f4xx_hal_tim_ex.c ****   return HAL_OK;
 833              		.loc 1 449 0 is_stmt 1
 834 0056 0023     		movs	r3, #0
 450:Drivers/STM32F4xx_HAL_Driver/Src/stm32f4xx_hal_tim_ex.c **** }
 835              		.loc 1 450 0
 836 0058 1846     		mov	r0, r3
 837 005a 0837     		adds	r7, r7, #8
 838              	.LCFI50:
 839              		.cfi_def_cfa_offset 8
 840 005c BD46     		mov	sp, r7
 841              	.LCFI51:
 842              		.cfi_def_cfa_register 13
 843              		@ sp needed
 844 005e 80BD     		pop	{r7, pc}
 845              		.cfi_endproc
 846              	.LFE133:
 848              		.section	.text.HAL_TIMEx_OCN_Start,"ax",%progbits
 849              		.align	1
 850              		.global	HAL_TIMEx_OCN_Start
 851              		.syntax unified
 852              		.thumb
 853              		.thumb_func
 854              		.fpu fpv4-sp-d16
 856              	HAL_TIMEx_OCN_Start:
 857              	.LFB134:
 451:Drivers/STM32F4xx_HAL_Driver/Src/stm32f4xx_hal_tim_ex.c **** /**
 452:Drivers/STM32F4xx_HAL_Driver/Src/stm32f4xx_hal_tim_ex.c ****   * @}
 453:Drivers/STM32F4xx_HAL_Driver/Src/stm32f4xx_hal_tim_ex.c ****   */
 454:Drivers/STM32F4xx_HAL_Driver/Src/stm32f4xx_hal_tim_ex.c ****   
 455:Drivers/STM32F4xx_HAL_Driver/Src/stm32f4xx_hal_tim_ex.c **** /** @defgroup TIMEx_Exported_Functions_Group2 Timer Complementary Output Compare functions
 456:Drivers/STM32F4xx_HAL_Driver/Src/stm32f4xx_hal_tim_ex.c ****  *  @brief    Timer Complementary Output Compare functions 
 457:Drivers/STM32F4xx_HAL_Driver/Src/stm32f4xx_hal_tim_ex.c ****  *
 458:Drivers/STM32F4xx_HAL_Driver/Src/stm32f4xx_hal_tim_ex.c **** @verbatim   
 459:Drivers/STM32F4xx_HAL_Driver/Src/stm32f4xx_hal_tim_ex.c ****   ==============================================================================
 460:Drivers/STM32F4xx_HAL_Driver/Src/stm32f4xx_hal_tim_ex.c ****               ##### Timer Complementary Output Compare functions #####
 461:Drivers/STM32F4xx_HAL_Driver/Src/stm32f4xx_hal_tim_ex.c ****   ==============================================================================  
 462:Drivers/STM32F4xx_HAL_Driver/Src/stm32f4xx_hal_tim_ex.c ****   [..]  
 463:Drivers/STM32F4xx_HAL_Driver/Src/stm32f4xx_hal_tim_ex.c ****     This section provides functions allowing to:
 464:Drivers/STM32F4xx_HAL_Driver/Src/stm32f4xx_hal_tim_ex.c ****     (+) Start the Complementary Output Compare/PWM.
 465:Drivers/STM32F4xx_HAL_Driver/Src/stm32f4xx_hal_tim_ex.c ****     (+) Stop the Complementary Output Compare/PWM.
 466:Drivers/STM32F4xx_HAL_Driver/Src/stm32f4xx_hal_tim_ex.c ****     (+) Start the Complementary Output Compare/PWM and enable interrupts.
 467:Drivers/STM32F4xx_HAL_Driver/Src/stm32f4xx_hal_tim_ex.c ****     (+) Stop the Complementary Output Compare/PWM and disable interrupts.
 468:Drivers/STM32F4xx_HAL_Driver/Src/stm32f4xx_hal_tim_ex.c ****     (+) Start the Complementary Output Compare/PWM and enable DMA transfers.
 469:Drivers/STM32F4xx_HAL_Driver/Src/stm32f4xx_hal_tim_ex.c ****     (+) Stop the Complementary Output Compare/PWM and disable DMA transfers.
 470:Drivers/STM32F4xx_HAL_Driver/Src/stm32f4xx_hal_tim_ex.c ****                
 471:Drivers/STM32F4xx_HAL_Driver/Src/stm32f4xx_hal_tim_ex.c **** @endverbatim
 472:Drivers/STM32F4xx_HAL_Driver/Src/stm32f4xx_hal_tim_ex.c ****   * @{
 473:Drivers/STM32F4xx_HAL_Driver/Src/stm32f4xx_hal_tim_ex.c ****   */
 474:Drivers/STM32F4xx_HAL_Driver/Src/stm32f4xx_hal_tim_ex.c ****   
 475:Drivers/STM32F4xx_HAL_Driver/Src/stm32f4xx_hal_tim_ex.c **** /**
ARM GAS  /tmp/ccphsAb6.s 			page 24


 476:Drivers/STM32F4xx_HAL_Driver/Src/stm32f4xx_hal_tim_ex.c ****   * @brief  Starts the TIM Output Compare signal generation on the complementary
 477:Drivers/STM32F4xx_HAL_Driver/Src/stm32f4xx_hal_tim_ex.c ****   *         output.
 478:Drivers/STM32F4xx_HAL_Driver/Src/stm32f4xx_hal_tim_ex.c ****   * @param  htim pointer to a TIM_HandleTypeDef structure that contains
 479:Drivers/STM32F4xx_HAL_Driver/Src/stm32f4xx_hal_tim_ex.c ****   *                the configuration information for TIM module.  
 480:Drivers/STM32F4xx_HAL_Driver/Src/stm32f4xx_hal_tim_ex.c ****   * @param  Channel TIM Channel to be enabled.
 481:Drivers/STM32F4xx_HAL_Driver/Src/stm32f4xx_hal_tim_ex.c ****   *          This parameter can be one of the following values:
 482:Drivers/STM32F4xx_HAL_Driver/Src/stm32f4xx_hal_tim_ex.c ****   *            @arg TIM_CHANNEL_1: TIM Channel 1 selected
 483:Drivers/STM32F4xx_HAL_Driver/Src/stm32f4xx_hal_tim_ex.c ****   *            @arg TIM_CHANNEL_2: TIM Channel 2 selected
 484:Drivers/STM32F4xx_HAL_Driver/Src/stm32f4xx_hal_tim_ex.c ****   *            @arg TIM_CHANNEL_3: TIM Channel 3 selected
 485:Drivers/STM32F4xx_HAL_Driver/Src/stm32f4xx_hal_tim_ex.c ****   * @retval HAL status
 486:Drivers/STM32F4xx_HAL_Driver/Src/stm32f4xx_hal_tim_ex.c ****   */
 487:Drivers/STM32F4xx_HAL_Driver/Src/stm32f4xx_hal_tim_ex.c **** HAL_StatusTypeDef HAL_TIMEx_OCN_Start(TIM_HandleTypeDef *htim, uint32_t Channel)
 488:Drivers/STM32F4xx_HAL_Driver/Src/stm32f4xx_hal_tim_ex.c **** {
 858              		.loc 1 488 0
 859              		.cfi_startproc
 860              		@ args = 0, pretend = 0, frame = 8
 861              		@ frame_needed = 1, uses_anonymous_args = 0
 862 0000 80B5     		push	{r7, lr}
 863              	.LCFI52:
 864              		.cfi_def_cfa_offset 8
 865              		.cfi_offset 7, -8
 866              		.cfi_offset 14, -4
 867 0002 82B0     		sub	sp, sp, #8
 868              	.LCFI53:
 869              		.cfi_def_cfa_offset 16
 870 0004 00AF     		add	r7, sp, #0
 871              	.LCFI54:
 872              		.cfi_def_cfa_register 7
 873 0006 7860     		str	r0, [r7, #4]
 874 0008 3960     		str	r1, [r7]
 489:Drivers/STM32F4xx_HAL_Driver/Src/stm32f4xx_hal_tim_ex.c ****   /* Check the parameters */
 490:Drivers/STM32F4xx_HAL_Driver/Src/stm32f4xx_hal_tim_ex.c ****   assert_param(IS_TIM_CCXN_INSTANCE(htim->Instance, Channel)); 
 491:Drivers/STM32F4xx_HAL_Driver/Src/stm32f4xx_hal_tim_ex.c ****   
 492:Drivers/STM32F4xx_HAL_Driver/Src/stm32f4xx_hal_tim_ex.c ****      /* Enable the Capture compare channel N */
 493:Drivers/STM32F4xx_HAL_Driver/Src/stm32f4xx_hal_tim_ex.c ****      TIM_CCxNChannelCmd(htim->Instance, Channel, TIM_CCxN_ENABLE);
 875              		.loc 1 493 0
 876 000a 7B68     		ldr	r3, [r7, #4]
 877 000c 1B68     		ldr	r3, [r3]
 878 000e 0422     		movs	r2, #4
 879 0010 3968     		ldr	r1, [r7]
 880 0012 1846     		mov	r0, r3
 881 0014 FFF7FEFF 		bl	TIM_CCxNChannelCmd
 494:Drivers/STM32F4xx_HAL_Driver/Src/stm32f4xx_hal_tim_ex.c ****     
 495:Drivers/STM32F4xx_HAL_Driver/Src/stm32f4xx_hal_tim_ex.c ****   /* Enable the Main Output */
 496:Drivers/STM32F4xx_HAL_Driver/Src/stm32f4xx_hal_tim_ex.c ****     __HAL_TIM_MOE_ENABLE(htim);
 882              		.loc 1 496 0
 883 0018 7B68     		ldr	r3, [r7, #4]
 884 001a 1B68     		ldr	r3, [r3]
 885 001c 7A68     		ldr	r2, [r7, #4]
 886 001e 1268     		ldr	r2, [r2]
 887 0020 526C     		ldr	r2, [r2, #68]
 888 0022 42F40042 		orr	r2, r2, #32768
 889 0026 5A64     		str	r2, [r3, #68]
 497:Drivers/STM32F4xx_HAL_Driver/Src/stm32f4xx_hal_tim_ex.c **** 
 498:Drivers/STM32F4xx_HAL_Driver/Src/stm32f4xx_hal_tim_ex.c ****   /* Enable the Peripheral */
 499:Drivers/STM32F4xx_HAL_Driver/Src/stm32f4xx_hal_tim_ex.c ****   __HAL_TIM_ENABLE(htim);
 890              		.loc 1 499 0
ARM GAS  /tmp/ccphsAb6.s 			page 25


 891 0028 7B68     		ldr	r3, [r7, #4]
 892 002a 1B68     		ldr	r3, [r3]
 893 002c 7A68     		ldr	r2, [r7, #4]
 894 002e 1268     		ldr	r2, [r2]
 895 0030 1268     		ldr	r2, [r2]
 896 0032 42F00102 		orr	r2, r2, #1
 897 0036 1A60     		str	r2, [r3]
 500:Drivers/STM32F4xx_HAL_Driver/Src/stm32f4xx_hal_tim_ex.c ****   
 501:Drivers/STM32F4xx_HAL_Driver/Src/stm32f4xx_hal_tim_ex.c ****   /* Return function status */
 502:Drivers/STM32F4xx_HAL_Driver/Src/stm32f4xx_hal_tim_ex.c ****   return HAL_OK;
 898              		.loc 1 502 0
 899 0038 0023     		movs	r3, #0
 503:Drivers/STM32F4xx_HAL_Driver/Src/stm32f4xx_hal_tim_ex.c **** } 
 900              		.loc 1 503 0
 901 003a 1846     		mov	r0, r3
 902 003c 0837     		adds	r7, r7, #8
 903              	.LCFI55:
 904              		.cfi_def_cfa_offset 8
 905 003e BD46     		mov	sp, r7
 906              	.LCFI56:
 907              		.cfi_def_cfa_register 13
 908              		@ sp needed
 909 0040 80BD     		pop	{r7, pc}
 910              		.cfi_endproc
 911              	.LFE134:
 913              		.section	.text.HAL_TIMEx_OCN_Stop,"ax",%progbits
 914              		.align	1
 915              		.global	HAL_TIMEx_OCN_Stop
 916              		.syntax unified
 917              		.thumb
 918              		.thumb_func
 919              		.fpu fpv4-sp-d16
 921              	HAL_TIMEx_OCN_Stop:
 922              	.LFB135:
 504:Drivers/STM32F4xx_HAL_Driver/Src/stm32f4xx_hal_tim_ex.c **** 
 505:Drivers/STM32F4xx_HAL_Driver/Src/stm32f4xx_hal_tim_ex.c **** /**
 506:Drivers/STM32F4xx_HAL_Driver/Src/stm32f4xx_hal_tim_ex.c ****   * @brief  Stops the TIM Output Compare signal generation on the complementary
 507:Drivers/STM32F4xx_HAL_Driver/Src/stm32f4xx_hal_tim_ex.c ****   *         output.
 508:Drivers/STM32F4xx_HAL_Driver/Src/stm32f4xx_hal_tim_ex.c ****   * @param  htim pointer to a TIM_HandleTypeDef structure that contains
 509:Drivers/STM32F4xx_HAL_Driver/Src/stm32f4xx_hal_tim_ex.c ****   *                the configuration information for TIM module.
 510:Drivers/STM32F4xx_HAL_Driver/Src/stm32f4xx_hal_tim_ex.c ****   * @param  Channel TIM Channel to be disabled.
 511:Drivers/STM32F4xx_HAL_Driver/Src/stm32f4xx_hal_tim_ex.c ****   *          This parameter can be one of the following values:
 512:Drivers/STM32F4xx_HAL_Driver/Src/stm32f4xx_hal_tim_ex.c ****   *            @arg TIM_CHANNEL_1: TIM Channel 1 selected
 513:Drivers/STM32F4xx_HAL_Driver/Src/stm32f4xx_hal_tim_ex.c ****   *            @arg TIM_CHANNEL_2: TIM Channel 2 selected
 514:Drivers/STM32F4xx_HAL_Driver/Src/stm32f4xx_hal_tim_ex.c ****   *            @arg TIM_CHANNEL_3: TIM Channel 3 selected
 515:Drivers/STM32F4xx_HAL_Driver/Src/stm32f4xx_hal_tim_ex.c ****   * @retval HAL status
 516:Drivers/STM32F4xx_HAL_Driver/Src/stm32f4xx_hal_tim_ex.c ****   */
 517:Drivers/STM32F4xx_HAL_Driver/Src/stm32f4xx_hal_tim_ex.c **** HAL_StatusTypeDef HAL_TIMEx_OCN_Stop(TIM_HandleTypeDef *htim, uint32_t Channel)
 518:Drivers/STM32F4xx_HAL_Driver/Src/stm32f4xx_hal_tim_ex.c **** { 
 923              		.loc 1 518 0
 924              		.cfi_startproc
 925              		@ args = 0, pretend = 0, frame = 8
 926              		@ frame_needed = 1, uses_anonymous_args = 0
 927 0000 80B5     		push	{r7, lr}
 928              	.LCFI57:
 929              		.cfi_def_cfa_offset 8
 930              		.cfi_offset 7, -8
ARM GAS  /tmp/ccphsAb6.s 			page 26


 931              		.cfi_offset 14, -4
 932 0002 82B0     		sub	sp, sp, #8
 933              	.LCFI58:
 934              		.cfi_def_cfa_offset 16
 935 0004 00AF     		add	r7, sp, #0
 936              	.LCFI59:
 937              		.cfi_def_cfa_register 7
 938 0006 7860     		str	r0, [r7, #4]
 939 0008 3960     		str	r1, [r7]
 519:Drivers/STM32F4xx_HAL_Driver/Src/stm32f4xx_hal_tim_ex.c ****   /* Check the parameters */
 520:Drivers/STM32F4xx_HAL_Driver/Src/stm32f4xx_hal_tim_ex.c ****   assert_param(IS_TIM_CCXN_INSTANCE(htim->Instance, Channel)); 
 521:Drivers/STM32F4xx_HAL_Driver/Src/stm32f4xx_hal_tim_ex.c ****   
 522:Drivers/STM32F4xx_HAL_Driver/Src/stm32f4xx_hal_tim_ex.c ****     /* Disable the Capture compare channel N */
 523:Drivers/STM32F4xx_HAL_Driver/Src/stm32f4xx_hal_tim_ex.c ****   TIM_CCxNChannelCmd(htim->Instance, Channel, TIM_CCxN_DISABLE);
 940              		.loc 1 523 0
 941 000a 7B68     		ldr	r3, [r7, #4]
 942 000c 1B68     		ldr	r3, [r3]
 943 000e 0022     		movs	r2, #0
 944 0010 3968     		ldr	r1, [r7]
 945 0012 1846     		mov	r0, r3
 946 0014 FFF7FEFF 		bl	TIM_CCxNChannelCmd
 524:Drivers/STM32F4xx_HAL_Driver/Src/stm32f4xx_hal_tim_ex.c ****     
 525:Drivers/STM32F4xx_HAL_Driver/Src/stm32f4xx_hal_tim_ex.c ****   /* Disable the Main Output */
 526:Drivers/STM32F4xx_HAL_Driver/Src/stm32f4xx_hal_tim_ex.c ****     __HAL_TIM_MOE_DISABLE(htim);
 947              		.loc 1 526 0
 948 0018 7B68     		ldr	r3, [r7, #4]
 949 001a 1B68     		ldr	r3, [r3]
 950 001c 1A6A     		ldr	r2, [r3, #32]
 951 001e 41F21113 		movw	r3, #4369
 952 0022 1340     		ands	r3, r3, r2
 953 0024 002B     		cmp	r3, #0
 954 0026 0FD1     		bne	.L33
 955              		.loc 1 526 0 is_stmt 0 discriminator 1
 956 0028 7B68     		ldr	r3, [r7, #4]
 957 002a 1B68     		ldr	r3, [r3]
 958 002c 1A6A     		ldr	r2, [r3, #32]
 959 002e 40F24443 		movw	r3, #1092
 960 0032 1340     		ands	r3, r3, r2
 961 0034 002B     		cmp	r3, #0
 962 0036 07D1     		bne	.L33
 963              		.loc 1 526 0 discriminator 2
 964 0038 7B68     		ldr	r3, [r7, #4]
 965 003a 1B68     		ldr	r3, [r3]
 966 003c 7A68     		ldr	r2, [r7, #4]
 967 003e 1268     		ldr	r2, [r2]
 968 0040 526C     		ldr	r2, [r2, #68]
 969 0042 22F40042 		bic	r2, r2, #32768
 970 0046 5A64     		str	r2, [r3, #68]
 971              	.L33:
 527:Drivers/STM32F4xx_HAL_Driver/Src/stm32f4xx_hal_tim_ex.c **** 
 528:Drivers/STM32F4xx_HAL_Driver/Src/stm32f4xx_hal_tim_ex.c ****   /* Disable the Peripheral */
 529:Drivers/STM32F4xx_HAL_Driver/Src/stm32f4xx_hal_tim_ex.c ****   __HAL_TIM_DISABLE(htim);
 972              		.loc 1 529 0 is_stmt 1
 973 0048 7B68     		ldr	r3, [r7, #4]
 974 004a 1B68     		ldr	r3, [r3]
 975 004c 1A6A     		ldr	r2, [r3, #32]
 976 004e 41F21113 		movw	r3, #4369
ARM GAS  /tmp/ccphsAb6.s 			page 27


 977 0052 1340     		ands	r3, r3, r2
 978 0054 002B     		cmp	r3, #0
 979 0056 0FD1     		bne	.L34
 980              		.loc 1 529 0 is_stmt 0 discriminator 1
 981 0058 7B68     		ldr	r3, [r7, #4]
 982 005a 1B68     		ldr	r3, [r3]
 983 005c 1A6A     		ldr	r2, [r3, #32]
 984 005e 40F24443 		movw	r3, #1092
 985 0062 1340     		ands	r3, r3, r2
 986 0064 002B     		cmp	r3, #0
 987 0066 07D1     		bne	.L34
 988              		.loc 1 529 0 discriminator 2
 989 0068 7B68     		ldr	r3, [r7, #4]
 990 006a 1B68     		ldr	r3, [r3]
 991 006c 7A68     		ldr	r2, [r7, #4]
 992 006e 1268     		ldr	r2, [r2]
 993 0070 1268     		ldr	r2, [r2]
 994 0072 22F00102 		bic	r2, r2, #1
 995 0076 1A60     		str	r2, [r3]
 996              	.L34:
 530:Drivers/STM32F4xx_HAL_Driver/Src/stm32f4xx_hal_tim_ex.c ****   
 531:Drivers/STM32F4xx_HAL_Driver/Src/stm32f4xx_hal_tim_ex.c ****   /* Return function status */
 532:Drivers/STM32F4xx_HAL_Driver/Src/stm32f4xx_hal_tim_ex.c ****   return HAL_OK;
 997              		.loc 1 532 0 is_stmt 1
 998 0078 0023     		movs	r3, #0
 533:Drivers/STM32F4xx_HAL_Driver/Src/stm32f4xx_hal_tim_ex.c **** } 
 999              		.loc 1 533 0
 1000 007a 1846     		mov	r0, r3
 1001 007c 0837     		adds	r7, r7, #8
 1002              	.LCFI60:
 1003              		.cfi_def_cfa_offset 8
 1004 007e BD46     		mov	sp, r7
 1005              	.LCFI61:
 1006              		.cfi_def_cfa_register 13
 1007              		@ sp needed
 1008 0080 80BD     		pop	{r7, pc}
 1009              		.cfi_endproc
 1010              	.LFE135:
 1012              		.section	.text.HAL_TIMEx_OCN_Start_IT,"ax",%progbits
 1013              		.align	1
 1014              		.global	HAL_TIMEx_OCN_Start_IT
 1015              		.syntax unified
 1016              		.thumb
 1017              		.thumb_func
 1018              		.fpu fpv4-sp-d16
 1020              	HAL_TIMEx_OCN_Start_IT:
 1021              	.LFB136:
 534:Drivers/STM32F4xx_HAL_Driver/Src/stm32f4xx_hal_tim_ex.c **** 
 535:Drivers/STM32F4xx_HAL_Driver/Src/stm32f4xx_hal_tim_ex.c **** /**
 536:Drivers/STM32F4xx_HAL_Driver/Src/stm32f4xx_hal_tim_ex.c ****   * @brief  Starts the TIM Output Compare signal generation in interrupt mode 
 537:Drivers/STM32F4xx_HAL_Driver/Src/stm32f4xx_hal_tim_ex.c ****   *         on the complementary output.
 538:Drivers/STM32F4xx_HAL_Driver/Src/stm32f4xx_hal_tim_ex.c ****   * @param  htim pointer to a TIM_HandleTypeDef structure that contains
 539:Drivers/STM32F4xx_HAL_Driver/Src/stm32f4xx_hal_tim_ex.c ****   *                the configuration information for TIM module.
 540:Drivers/STM32F4xx_HAL_Driver/Src/stm32f4xx_hal_tim_ex.c ****   * @param  Channel TIM Channel to be enabled.
 541:Drivers/STM32F4xx_HAL_Driver/Src/stm32f4xx_hal_tim_ex.c ****   *          This parameter can be one of the following values:
 542:Drivers/STM32F4xx_HAL_Driver/Src/stm32f4xx_hal_tim_ex.c ****   *            @arg TIM_CHANNEL_1: TIM Channel 1 selected
 543:Drivers/STM32F4xx_HAL_Driver/Src/stm32f4xx_hal_tim_ex.c ****   *            @arg TIM_CHANNEL_2: TIM Channel 2 selected
ARM GAS  /tmp/ccphsAb6.s 			page 28


 544:Drivers/STM32F4xx_HAL_Driver/Src/stm32f4xx_hal_tim_ex.c ****   *            @arg TIM_CHANNEL_3: TIM Channel 3 selected
 545:Drivers/STM32F4xx_HAL_Driver/Src/stm32f4xx_hal_tim_ex.c ****   * @retval HAL status
 546:Drivers/STM32F4xx_HAL_Driver/Src/stm32f4xx_hal_tim_ex.c ****   */
 547:Drivers/STM32F4xx_HAL_Driver/Src/stm32f4xx_hal_tim_ex.c **** HAL_StatusTypeDef HAL_TIMEx_OCN_Start_IT(TIM_HandleTypeDef *htim, uint32_t Channel)
 548:Drivers/STM32F4xx_HAL_Driver/Src/stm32f4xx_hal_tim_ex.c **** {
 1022              		.loc 1 548 0
 1023              		.cfi_startproc
 1024              		@ args = 0, pretend = 0, frame = 8
 1025              		@ frame_needed = 1, uses_anonymous_args = 0
 1026 0000 80B5     		push	{r7, lr}
 1027              	.LCFI62:
 1028              		.cfi_def_cfa_offset 8
 1029              		.cfi_offset 7, -8
 1030              		.cfi_offset 14, -4
 1031 0002 82B0     		sub	sp, sp, #8
 1032              	.LCFI63:
 1033              		.cfi_def_cfa_offset 16
 1034 0004 00AF     		add	r7, sp, #0
 1035              	.LCFI64:
 1036              		.cfi_def_cfa_register 7
 1037 0006 7860     		str	r0, [r7, #4]
 1038 0008 3960     		str	r1, [r7]
 549:Drivers/STM32F4xx_HAL_Driver/Src/stm32f4xx_hal_tim_ex.c ****   /* Check the parameters */
 550:Drivers/STM32F4xx_HAL_Driver/Src/stm32f4xx_hal_tim_ex.c ****   assert_param(IS_TIM_CCXN_INSTANCE(htim->Instance, Channel)); 
 551:Drivers/STM32F4xx_HAL_Driver/Src/stm32f4xx_hal_tim_ex.c ****   
 552:Drivers/STM32F4xx_HAL_Driver/Src/stm32f4xx_hal_tim_ex.c ****   switch (Channel)
 1039              		.loc 1 552 0
 1040 000a 3B68     		ldr	r3, [r7]
 1041 000c 0C2B     		cmp	r3, #12
 1042 000e 41D8     		bhi	.L45
 1043 0010 01A2     		adr	r2, .L39
 1044 0012 52F823F0 		ldr	pc, [r2, r3, lsl #2]
 1045 0016 00BF     		.p2align 2
 1046              	.L39:
 1047 0018 4D000000 		.word	.L38+1
 1048 001c 95000000 		.word	.L45+1
 1049 0020 95000000 		.word	.L45+1
 1050 0024 95000000 		.word	.L45+1
 1051 0028 5F000000 		.word	.L40+1
 1052 002c 95000000 		.word	.L45+1
 1053 0030 95000000 		.word	.L45+1
 1054 0034 95000000 		.word	.L45+1
 1055 0038 71000000 		.word	.L41+1
 1056 003c 95000000 		.word	.L45+1
 1057 0040 95000000 		.word	.L45+1
 1058 0044 95000000 		.word	.L45+1
 1059 0048 83000000 		.word	.L42+1
 1060              		.p2align 1
 1061              	.L38:
 553:Drivers/STM32F4xx_HAL_Driver/Src/stm32f4xx_hal_tim_ex.c ****   {
 554:Drivers/STM32F4xx_HAL_Driver/Src/stm32f4xx_hal_tim_ex.c ****     case TIM_CHANNEL_1:
 555:Drivers/STM32F4xx_HAL_Driver/Src/stm32f4xx_hal_tim_ex.c ****     {       
 556:Drivers/STM32F4xx_HAL_Driver/Src/stm32f4xx_hal_tim_ex.c ****       /* Enable the TIM Output Compare interrupt */
 557:Drivers/STM32F4xx_HAL_Driver/Src/stm32f4xx_hal_tim_ex.c ****       __HAL_TIM_ENABLE_IT(htim, TIM_IT_CC1);
 1062              		.loc 1 557 0
 1063 004c 7B68     		ldr	r3, [r7, #4]
 1064 004e 1B68     		ldr	r3, [r3]
ARM GAS  /tmp/ccphsAb6.s 			page 29


 1065 0050 7A68     		ldr	r2, [r7, #4]
 1066 0052 1268     		ldr	r2, [r2]
 1067 0054 D268     		ldr	r2, [r2, #12]
 1068 0056 42F00202 		orr	r2, r2, #2
 1069 005a DA60     		str	r2, [r3, #12]
 558:Drivers/STM32F4xx_HAL_Driver/Src/stm32f4xx_hal_tim_ex.c ****     }
 559:Drivers/STM32F4xx_HAL_Driver/Src/stm32f4xx_hal_tim_ex.c ****     break;
 1070              		.loc 1 559 0
 1071 005c 1BE0     		b	.L43
 1072              	.L40:
 560:Drivers/STM32F4xx_HAL_Driver/Src/stm32f4xx_hal_tim_ex.c ****     
 561:Drivers/STM32F4xx_HAL_Driver/Src/stm32f4xx_hal_tim_ex.c ****     case TIM_CHANNEL_2:
 562:Drivers/STM32F4xx_HAL_Driver/Src/stm32f4xx_hal_tim_ex.c ****     {
 563:Drivers/STM32F4xx_HAL_Driver/Src/stm32f4xx_hal_tim_ex.c ****       /* Enable the TIM Output Compare interrupt */
 564:Drivers/STM32F4xx_HAL_Driver/Src/stm32f4xx_hal_tim_ex.c ****       __HAL_TIM_ENABLE_IT(htim, TIM_IT_CC2);
 1073              		.loc 1 564 0
 1074 005e 7B68     		ldr	r3, [r7, #4]
 1075 0060 1B68     		ldr	r3, [r3]
 1076 0062 7A68     		ldr	r2, [r7, #4]
 1077 0064 1268     		ldr	r2, [r2]
 1078 0066 D268     		ldr	r2, [r2, #12]
 1079 0068 42F00402 		orr	r2, r2, #4
 1080 006c DA60     		str	r2, [r3, #12]
 565:Drivers/STM32F4xx_HAL_Driver/Src/stm32f4xx_hal_tim_ex.c ****     }
 566:Drivers/STM32F4xx_HAL_Driver/Src/stm32f4xx_hal_tim_ex.c ****     break;
 1081              		.loc 1 566 0
 1082 006e 12E0     		b	.L43
 1083              	.L41:
 567:Drivers/STM32F4xx_HAL_Driver/Src/stm32f4xx_hal_tim_ex.c ****     
 568:Drivers/STM32F4xx_HAL_Driver/Src/stm32f4xx_hal_tim_ex.c ****     case TIM_CHANNEL_3:
 569:Drivers/STM32F4xx_HAL_Driver/Src/stm32f4xx_hal_tim_ex.c ****     {
 570:Drivers/STM32F4xx_HAL_Driver/Src/stm32f4xx_hal_tim_ex.c ****       /* Enable the TIM Output Compare interrupt */
 571:Drivers/STM32F4xx_HAL_Driver/Src/stm32f4xx_hal_tim_ex.c ****       __HAL_TIM_ENABLE_IT(htim, TIM_IT_CC3);
 1084              		.loc 1 571 0
 1085 0070 7B68     		ldr	r3, [r7, #4]
 1086 0072 1B68     		ldr	r3, [r3]
 1087 0074 7A68     		ldr	r2, [r7, #4]
 1088 0076 1268     		ldr	r2, [r2]
 1089 0078 D268     		ldr	r2, [r2, #12]
 1090 007a 42F00802 		orr	r2, r2, #8
 1091 007e DA60     		str	r2, [r3, #12]
 572:Drivers/STM32F4xx_HAL_Driver/Src/stm32f4xx_hal_tim_ex.c ****     }
 573:Drivers/STM32F4xx_HAL_Driver/Src/stm32f4xx_hal_tim_ex.c ****     break;
 1092              		.loc 1 573 0
 1093 0080 09E0     		b	.L43
 1094              	.L42:
 574:Drivers/STM32F4xx_HAL_Driver/Src/stm32f4xx_hal_tim_ex.c ****     
 575:Drivers/STM32F4xx_HAL_Driver/Src/stm32f4xx_hal_tim_ex.c ****     case TIM_CHANNEL_4:
 576:Drivers/STM32F4xx_HAL_Driver/Src/stm32f4xx_hal_tim_ex.c ****     {
 577:Drivers/STM32F4xx_HAL_Driver/Src/stm32f4xx_hal_tim_ex.c ****       /* Enable the TIM Output Compare interrupt */
 578:Drivers/STM32F4xx_HAL_Driver/Src/stm32f4xx_hal_tim_ex.c ****       __HAL_TIM_ENABLE_IT(htim, TIM_IT_CC4);
 1095              		.loc 1 578 0
 1096 0082 7B68     		ldr	r3, [r7, #4]
 1097 0084 1B68     		ldr	r3, [r3]
 1098 0086 7A68     		ldr	r2, [r7, #4]
 1099 0088 1268     		ldr	r2, [r2]
 1100 008a D268     		ldr	r2, [r2, #12]
ARM GAS  /tmp/ccphsAb6.s 			page 30


 1101 008c 42F01002 		orr	r2, r2, #16
 1102 0090 DA60     		str	r2, [r3, #12]
 579:Drivers/STM32F4xx_HAL_Driver/Src/stm32f4xx_hal_tim_ex.c ****     }
 580:Drivers/STM32F4xx_HAL_Driver/Src/stm32f4xx_hal_tim_ex.c ****     break;
 1103              		.loc 1 580 0
 1104 0092 00E0     		b	.L43
 1105              	.L45:
 581:Drivers/STM32F4xx_HAL_Driver/Src/stm32f4xx_hal_tim_ex.c ****     
 582:Drivers/STM32F4xx_HAL_Driver/Src/stm32f4xx_hal_tim_ex.c ****     default:
 583:Drivers/STM32F4xx_HAL_Driver/Src/stm32f4xx_hal_tim_ex.c ****     break;
 1106              		.loc 1 583 0
 1107 0094 00BF     		nop
 1108              	.L43:
 584:Drivers/STM32F4xx_HAL_Driver/Src/stm32f4xx_hal_tim_ex.c ****   } 
 585:Drivers/STM32F4xx_HAL_Driver/Src/stm32f4xx_hal_tim_ex.c ****   
 586:Drivers/STM32F4xx_HAL_Driver/Src/stm32f4xx_hal_tim_ex.c ****   /* Enable the TIM Break interrupt */
 587:Drivers/STM32F4xx_HAL_Driver/Src/stm32f4xx_hal_tim_ex.c ****   __HAL_TIM_ENABLE_IT(htim, TIM_IT_BREAK);
 1109              		.loc 1 587 0
 1110 0096 7B68     		ldr	r3, [r7, #4]
 1111 0098 1B68     		ldr	r3, [r3]
 1112 009a 7A68     		ldr	r2, [r7, #4]
 1113 009c 1268     		ldr	r2, [r2]
 1114 009e D268     		ldr	r2, [r2, #12]
 1115 00a0 42F08002 		orr	r2, r2, #128
 1116 00a4 DA60     		str	r2, [r3, #12]
 588:Drivers/STM32F4xx_HAL_Driver/Src/stm32f4xx_hal_tim_ex.c ****   
 589:Drivers/STM32F4xx_HAL_Driver/Src/stm32f4xx_hal_tim_ex.c ****   /* Enable the Capture compare channel N */
 590:Drivers/STM32F4xx_HAL_Driver/Src/stm32f4xx_hal_tim_ex.c ****   TIM_CCxNChannelCmd(htim->Instance, Channel, TIM_CCxN_ENABLE);
 1117              		.loc 1 590 0
 1118 00a6 7B68     		ldr	r3, [r7, #4]
 1119 00a8 1B68     		ldr	r3, [r3]
 1120 00aa 0422     		movs	r2, #4
 1121 00ac 3968     		ldr	r1, [r7]
 1122 00ae 1846     		mov	r0, r3
 1123 00b0 FFF7FEFF 		bl	TIM_CCxNChannelCmd
 591:Drivers/STM32F4xx_HAL_Driver/Src/stm32f4xx_hal_tim_ex.c ****   
 592:Drivers/STM32F4xx_HAL_Driver/Src/stm32f4xx_hal_tim_ex.c ****   /* Enable the Main Output */
 593:Drivers/STM32F4xx_HAL_Driver/Src/stm32f4xx_hal_tim_ex.c ****   __HAL_TIM_MOE_ENABLE(htim);
 1124              		.loc 1 593 0
 1125 00b4 7B68     		ldr	r3, [r7, #4]
 1126 00b6 1B68     		ldr	r3, [r3]
 1127 00b8 7A68     		ldr	r2, [r7, #4]
 1128 00ba 1268     		ldr	r2, [r2]
 1129 00bc 526C     		ldr	r2, [r2, #68]
 1130 00be 42F40042 		orr	r2, r2, #32768
 1131 00c2 5A64     		str	r2, [r3, #68]
 594:Drivers/STM32F4xx_HAL_Driver/Src/stm32f4xx_hal_tim_ex.c ****   
 595:Drivers/STM32F4xx_HAL_Driver/Src/stm32f4xx_hal_tim_ex.c ****   /* Enable the Peripheral */
 596:Drivers/STM32F4xx_HAL_Driver/Src/stm32f4xx_hal_tim_ex.c ****   __HAL_TIM_ENABLE(htim);
 1132              		.loc 1 596 0
 1133 00c4 7B68     		ldr	r3, [r7, #4]
 1134 00c6 1B68     		ldr	r3, [r3]
 1135 00c8 7A68     		ldr	r2, [r7, #4]
 1136 00ca 1268     		ldr	r2, [r2]
 1137 00cc 1268     		ldr	r2, [r2]
 1138 00ce 42F00102 		orr	r2, r2, #1
 1139 00d2 1A60     		str	r2, [r3]
ARM GAS  /tmp/ccphsAb6.s 			page 31


 597:Drivers/STM32F4xx_HAL_Driver/Src/stm32f4xx_hal_tim_ex.c ****   
 598:Drivers/STM32F4xx_HAL_Driver/Src/stm32f4xx_hal_tim_ex.c ****   /* Return function status */
 599:Drivers/STM32F4xx_HAL_Driver/Src/stm32f4xx_hal_tim_ex.c ****   return HAL_OK;
 1140              		.loc 1 599 0
 1141 00d4 0023     		movs	r3, #0
 600:Drivers/STM32F4xx_HAL_Driver/Src/stm32f4xx_hal_tim_ex.c **** } 
 1142              		.loc 1 600 0
 1143 00d6 1846     		mov	r0, r3
 1144 00d8 0837     		adds	r7, r7, #8
 1145              	.LCFI65:
 1146              		.cfi_def_cfa_offset 8
 1147 00da BD46     		mov	sp, r7
 1148              	.LCFI66:
 1149              		.cfi_def_cfa_register 13
 1150              		@ sp needed
 1151 00dc 80BD     		pop	{r7, pc}
 1152              		.cfi_endproc
 1153              	.LFE136:
 1155 00de 00BF     		.section	.text.HAL_TIMEx_OCN_Stop_IT,"ax",%progbits
 1156              		.align	1
 1157              		.global	HAL_TIMEx_OCN_Stop_IT
 1158              		.syntax unified
 1159              		.thumb
 1160              		.thumb_func
 1161              		.fpu fpv4-sp-d16
 1163              	HAL_TIMEx_OCN_Stop_IT:
 1164              	.LFB137:
 601:Drivers/STM32F4xx_HAL_Driver/Src/stm32f4xx_hal_tim_ex.c **** 
 602:Drivers/STM32F4xx_HAL_Driver/Src/stm32f4xx_hal_tim_ex.c **** /**
 603:Drivers/STM32F4xx_HAL_Driver/Src/stm32f4xx_hal_tim_ex.c ****   * @brief  Stops the TIM Output Compare signal generation in interrupt mode 
 604:Drivers/STM32F4xx_HAL_Driver/Src/stm32f4xx_hal_tim_ex.c ****   *         on the complementary output.
 605:Drivers/STM32F4xx_HAL_Driver/Src/stm32f4xx_hal_tim_ex.c ****   * @param  htim pointer to a TIM_HandleTypeDef structure that contains
 606:Drivers/STM32F4xx_HAL_Driver/Src/stm32f4xx_hal_tim_ex.c ****   *                the configuration information for TIM module.
 607:Drivers/STM32F4xx_HAL_Driver/Src/stm32f4xx_hal_tim_ex.c ****   * @param  Channel TIM Channel to be disabled.
 608:Drivers/STM32F4xx_HAL_Driver/Src/stm32f4xx_hal_tim_ex.c ****   *          This parameter can be one of the following values:
 609:Drivers/STM32F4xx_HAL_Driver/Src/stm32f4xx_hal_tim_ex.c ****   *            @arg TIM_CHANNEL_1: TIM Channel 1 selected
 610:Drivers/STM32F4xx_HAL_Driver/Src/stm32f4xx_hal_tim_ex.c ****   *            @arg TIM_CHANNEL_2: TIM Channel 2 selected
 611:Drivers/STM32F4xx_HAL_Driver/Src/stm32f4xx_hal_tim_ex.c ****   *            @arg TIM_CHANNEL_3: TIM Channel 3 selected
 612:Drivers/STM32F4xx_HAL_Driver/Src/stm32f4xx_hal_tim_ex.c ****   * @retval HAL status
 613:Drivers/STM32F4xx_HAL_Driver/Src/stm32f4xx_hal_tim_ex.c ****   */
 614:Drivers/STM32F4xx_HAL_Driver/Src/stm32f4xx_hal_tim_ex.c **** HAL_StatusTypeDef HAL_TIMEx_OCN_Stop_IT(TIM_HandleTypeDef *htim, uint32_t Channel)
 615:Drivers/STM32F4xx_HAL_Driver/Src/stm32f4xx_hal_tim_ex.c **** {
 1165              		.loc 1 615 0
 1166              		.cfi_startproc
 1167              		@ args = 0, pretend = 0, frame = 8
 1168              		@ frame_needed = 1, uses_anonymous_args = 0
 1169 0000 80B5     		push	{r7, lr}
 1170              	.LCFI67:
 1171              		.cfi_def_cfa_offset 8
 1172              		.cfi_offset 7, -8
 1173              		.cfi_offset 14, -4
 1174 0002 82B0     		sub	sp, sp, #8
 1175              	.LCFI68:
 1176              		.cfi_def_cfa_offset 16
 1177 0004 00AF     		add	r7, sp, #0
 1178              	.LCFI69:
 1179              		.cfi_def_cfa_register 7
ARM GAS  /tmp/ccphsAb6.s 			page 32


 1180 0006 7860     		str	r0, [r7, #4]
 1181 0008 3960     		str	r1, [r7]
 616:Drivers/STM32F4xx_HAL_Driver/Src/stm32f4xx_hal_tim_ex.c ****   /* Check the parameters */
 617:Drivers/STM32F4xx_HAL_Driver/Src/stm32f4xx_hal_tim_ex.c ****   assert_param(IS_TIM_CCXN_INSTANCE(htim->Instance, Channel)); 
 618:Drivers/STM32F4xx_HAL_Driver/Src/stm32f4xx_hal_tim_ex.c ****   
 619:Drivers/STM32F4xx_HAL_Driver/Src/stm32f4xx_hal_tim_ex.c ****   switch (Channel)
 1182              		.loc 1 619 0
 1183 000a 3B68     		ldr	r3, [r7]
 1184 000c 0C2B     		cmp	r3, #12
 1185 000e 41D8     		bhi	.L58
 1186 0010 01A2     		adr	r2, .L49
 1187 0012 52F823F0 		ldr	pc, [r2, r3, lsl #2]
 1188 0016 00BF     		.p2align 2
 1189              	.L49:
 1190 0018 4D000000 		.word	.L48+1
 1191 001c 95000000 		.word	.L58+1
 1192 0020 95000000 		.word	.L58+1
 1193 0024 95000000 		.word	.L58+1
 1194 0028 5F000000 		.word	.L50+1
 1195 002c 95000000 		.word	.L58+1
 1196 0030 95000000 		.word	.L58+1
 1197 0034 95000000 		.word	.L58+1
 1198 0038 71000000 		.word	.L51+1
 1199 003c 95000000 		.word	.L58+1
 1200 0040 95000000 		.word	.L58+1
 1201 0044 95000000 		.word	.L58+1
 1202 0048 83000000 		.word	.L52+1
 1203              		.p2align 1
 1204              	.L48:
 620:Drivers/STM32F4xx_HAL_Driver/Src/stm32f4xx_hal_tim_ex.c ****   {
 621:Drivers/STM32F4xx_HAL_Driver/Src/stm32f4xx_hal_tim_ex.c ****     case TIM_CHANNEL_1:
 622:Drivers/STM32F4xx_HAL_Driver/Src/stm32f4xx_hal_tim_ex.c ****     {       
 623:Drivers/STM32F4xx_HAL_Driver/Src/stm32f4xx_hal_tim_ex.c ****       /* Disable the TIM Output Compare interrupt */
 624:Drivers/STM32F4xx_HAL_Driver/Src/stm32f4xx_hal_tim_ex.c ****       __HAL_TIM_DISABLE_IT(htim, TIM_IT_CC1);
 1205              		.loc 1 624 0
 1206 004c 7B68     		ldr	r3, [r7, #4]
 1207 004e 1B68     		ldr	r3, [r3]
 1208 0050 7A68     		ldr	r2, [r7, #4]
 1209 0052 1268     		ldr	r2, [r2]
 1210 0054 D268     		ldr	r2, [r2, #12]
 1211 0056 22F00202 		bic	r2, r2, #2
 1212 005a DA60     		str	r2, [r3, #12]
 625:Drivers/STM32F4xx_HAL_Driver/Src/stm32f4xx_hal_tim_ex.c ****     }
 626:Drivers/STM32F4xx_HAL_Driver/Src/stm32f4xx_hal_tim_ex.c ****     break;
 1213              		.loc 1 626 0
 1214 005c 1BE0     		b	.L53
 1215              	.L50:
 627:Drivers/STM32F4xx_HAL_Driver/Src/stm32f4xx_hal_tim_ex.c ****     
 628:Drivers/STM32F4xx_HAL_Driver/Src/stm32f4xx_hal_tim_ex.c ****     case TIM_CHANNEL_2:
 629:Drivers/STM32F4xx_HAL_Driver/Src/stm32f4xx_hal_tim_ex.c ****     {
 630:Drivers/STM32F4xx_HAL_Driver/Src/stm32f4xx_hal_tim_ex.c ****       /* Disable the TIM Output Compare interrupt */
 631:Drivers/STM32F4xx_HAL_Driver/Src/stm32f4xx_hal_tim_ex.c ****       __HAL_TIM_DISABLE_IT(htim, TIM_IT_CC2);
 1216              		.loc 1 631 0
 1217 005e 7B68     		ldr	r3, [r7, #4]
 1218 0060 1B68     		ldr	r3, [r3]
 1219 0062 7A68     		ldr	r2, [r7, #4]
 1220 0064 1268     		ldr	r2, [r2]
ARM GAS  /tmp/ccphsAb6.s 			page 33


 1221 0066 D268     		ldr	r2, [r2, #12]
 1222 0068 22F00402 		bic	r2, r2, #4
 1223 006c DA60     		str	r2, [r3, #12]
 632:Drivers/STM32F4xx_HAL_Driver/Src/stm32f4xx_hal_tim_ex.c ****     }
 633:Drivers/STM32F4xx_HAL_Driver/Src/stm32f4xx_hal_tim_ex.c ****     break;
 1224              		.loc 1 633 0
 1225 006e 12E0     		b	.L53
 1226              	.L51:
 634:Drivers/STM32F4xx_HAL_Driver/Src/stm32f4xx_hal_tim_ex.c ****     
 635:Drivers/STM32F4xx_HAL_Driver/Src/stm32f4xx_hal_tim_ex.c ****     case TIM_CHANNEL_3:
 636:Drivers/STM32F4xx_HAL_Driver/Src/stm32f4xx_hal_tim_ex.c ****     {
 637:Drivers/STM32F4xx_HAL_Driver/Src/stm32f4xx_hal_tim_ex.c ****       /* Disable the TIM Output Compare interrupt */
 638:Drivers/STM32F4xx_HAL_Driver/Src/stm32f4xx_hal_tim_ex.c ****       __HAL_TIM_DISABLE_IT(htim, TIM_IT_CC3);
 1227              		.loc 1 638 0
 1228 0070 7B68     		ldr	r3, [r7, #4]
 1229 0072 1B68     		ldr	r3, [r3]
 1230 0074 7A68     		ldr	r2, [r7, #4]
 1231 0076 1268     		ldr	r2, [r2]
 1232 0078 D268     		ldr	r2, [r2, #12]
 1233 007a 22F00802 		bic	r2, r2, #8
 1234 007e DA60     		str	r2, [r3, #12]
 639:Drivers/STM32F4xx_HAL_Driver/Src/stm32f4xx_hal_tim_ex.c ****     }
 640:Drivers/STM32F4xx_HAL_Driver/Src/stm32f4xx_hal_tim_ex.c ****     break;
 1235              		.loc 1 640 0
 1236 0080 09E0     		b	.L53
 1237              	.L52:
 641:Drivers/STM32F4xx_HAL_Driver/Src/stm32f4xx_hal_tim_ex.c ****     
 642:Drivers/STM32F4xx_HAL_Driver/Src/stm32f4xx_hal_tim_ex.c ****     case TIM_CHANNEL_4:
 643:Drivers/STM32F4xx_HAL_Driver/Src/stm32f4xx_hal_tim_ex.c ****     {
 644:Drivers/STM32F4xx_HAL_Driver/Src/stm32f4xx_hal_tim_ex.c ****       /* Disable the TIM Output Compare interrupt */
 645:Drivers/STM32F4xx_HAL_Driver/Src/stm32f4xx_hal_tim_ex.c ****       __HAL_TIM_DISABLE_IT(htim, TIM_IT_CC4);
 1238              		.loc 1 645 0
 1239 0082 7B68     		ldr	r3, [r7, #4]
 1240 0084 1B68     		ldr	r3, [r3]
 1241 0086 7A68     		ldr	r2, [r7, #4]
 1242 0088 1268     		ldr	r2, [r2]
 1243 008a D268     		ldr	r2, [r2, #12]
 1244 008c 22F01002 		bic	r2, r2, #16
 1245 0090 DA60     		str	r2, [r3, #12]
 646:Drivers/STM32F4xx_HAL_Driver/Src/stm32f4xx_hal_tim_ex.c ****     }
 647:Drivers/STM32F4xx_HAL_Driver/Src/stm32f4xx_hal_tim_ex.c ****     break;
 1246              		.loc 1 647 0
 1247 0092 00E0     		b	.L53
 1248              	.L58:
 648:Drivers/STM32F4xx_HAL_Driver/Src/stm32f4xx_hal_tim_ex.c ****     
 649:Drivers/STM32F4xx_HAL_Driver/Src/stm32f4xx_hal_tim_ex.c ****     default:
 650:Drivers/STM32F4xx_HAL_Driver/Src/stm32f4xx_hal_tim_ex.c ****     break; 
 1249              		.loc 1 650 0
 1250 0094 00BF     		nop
 1251              	.L53:
 651:Drivers/STM32F4xx_HAL_Driver/Src/stm32f4xx_hal_tim_ex.c ****   }
 652:Drivers/STM32F4xx_HAL_Driver/Src/stm32f4xx_hal_tim_ex.c ****   
 653:Drivers/STM32F4xx_HAL_Driver/Src/stm32f4xx_hal_tim_ex.c ****   /* Disable the Capture compare channel N */
 654:Drivers/STM32F4xx_HAL_Driver/Src/stm32f4xx_hal_tim_ex.c ****   TIM_CCxNChannelCmd(htim->Instance, Channel, TIM_CCxN_DISABLE);
 1252              		.loc 1 654 0
 1253 0096 7B68     		ldr	r3, [r7, #4]
 1254 0098 1B68     		ldr	r3, [r3]
ARM GAS  /tmp/ccphsAb6.s 			page 34


 1255 009a 0022     		movs	r2, #0
 1256 009c 3968     		ldr	r1, [r7]
 1257 009e 1846     		mov	r0, r3
 1258 00a0 FFF7FEFF 		bl	TIM_CCxNChannelCmd
 655:Drivers/STM32F4xx_HAL_Driver/Src/stm32f4xx_hal_tim_ex.c **** 
 656:Drivers/STM32F4xx_HAL_Driver/Src/stm32f4xx_hal_tim_ex.c ****   /* Disable the TIM Break interrupt (only if no more channel is active) */
 657:Drivers/STM32F4xx_HAL_Driver/Src/stm32f4xx_hal_tim_ex.c ****   if((READ_REG(htim->Instance->CCER) & (TIM_CCER_CC1NE | TIM_CCER_CC2NE | TIM_CCER_CC3NE)) == RESET
 1259              		.loc 1 657 0
 1260 00a4 7B68     		ldr	r3, [r7, #4]
 1261 00a6 1B68     		ldr	r3, [r3]
 1262 00a8 1A6A     		ldr	r2, [r3, #32]
 1263 00aa 40F24443 		movw	r3, #1092
 1264 00ae 1340     		ands	r3, r3, r2
 1265 00b0 002B     		cmp	r3, #0
 1266 00b2 07D1     		bne	.L54
 658:Drivers/STM32F4xx_HAL_Driver/Src/stm32f4xx_hal_tim_ex.c ****   {
 659:Drivers/STM32F4xx_HAL_Driver/Src/stm32f4xx_hal_tim_ex.c ****     __HAL_TIM_DISABLE_IT(htim, TIM_IT_BREAK);
 1267              		.loc 1 659 0
 1268 00b4 7B68     		ldr	r3, [r7, #4]
 1269 00b6 1B68     		ldr	r3, [r3]
 1270 00b8 7A68     		ldr	r2, [r7, #4]
 1271 00ba 1268     		ldr	r2, [r2]
 1272 00bc D268     		ldr	r2, [r2, #12]
 1273 00be 22F08002 		bic	r2, r2, #128
 1274 00c2 DA60     		str	r2, [r3, #12]
 1275              	.L54:
 660:Drivers/STM32F4xx_HAL_Driver/Src/stm32f4xx_hal_tim_ex.c ****   }
 661:Drivers/STM32F4xx_HAL_Driver/Src/stm32f4xx_hal_tim_ex.c ****   
 662:Drivers/STM32F4xx_HAL_Driver/Src/stm32f4xx_hal_tim_ex.c ****   /* Disable the Main Output */
 663:Drivers/STM32F4xx_HAL_Driver/Src/stm32f4xx_hal_tim_ex.c ****   __HAL_TIM_MOE_DISABLE(htim);
 1276              		.loc 1 663 0
 1277 00c4 7B68     		ldr	r3, [r7, #4]
 1278 00c6 1B68     		ldr	r3, [r3]
 1279 00c8 1A6A     		ldr	r2, [r3, #32]
 1280 00ca 41F21113 		movw	r3, #4369
 1281 00ce 1340     		ands	r3, r3, r2
 1282 00d0 002B     		cmp	r3, #0
 1283 00d2 0FD1     		bne	.L55
 1284              		.loc 1 663 0 is_stmt 0 discriminator 1
 1285 00d4 7B68     		ldr	r3, [r7, #4]
 1286 00d6 1B68     		ldr	r3, [r3]
 1287 00d8 1A6A     		ldr	r2, [r3, #32]
 1288 00da 40F24443 		movw	r3, #1092
 1289 00de 1340     		ands	r3, r3, r2
 1290 00e0 002B     		cmp	r3, #0
 1291 00e2 07D1     		bne	.L55
 1292              		.loc 1 663 0 discriminator 2
 1293 00e4 7B68     		ldr	r3, [r7, #4]
 1294 00e6 1B68     		ldr	r3, [r3]
 1295 00e8 7A68     		ldr	r2, [r7, #4]
 1296 00ea 1268     		ldr	r2, [r2]
 1297 00ec 526C     		ldr	r2, [r2, #68]
 1298 00ee 22F40042 		bic	r2, r2, #32768
 1299 00f2 5A64     		str	r2, [r3, #68]
 1300              	.L55:
 664:Drivers/STM32F4xx_HAL_Driver/Src/stm32f4xx_hal_tim_ex.c ****   
 665:Drivers/STM32F4xx_HAL_Driver/Src/stm32f4xx_hal_tim_ex.c ****   /* Disable the Peripheral */
ARM GAS  /tmp/ccphsAb6.s 			page 35


 666:Drivers/STM32F4xx_HAL_Driver/Src/stm32f4xx_hal_tim_ex.c ****   __HAL_TIM_DISABLE(htim);
 1301              		.loc 1 666 0 is_stmt 1
 1302 00f4 7B68     		ldr	r3, [r7, #4]
 1303 00f6 1B68     		ldr	r3, [r3]
 1304 00f8 1A6A     		ldr	r2, [r3, #32]
 1305 00fa 41F21113 		movw	r3, #4369
 1306 00fe 1340     		ands	r3, r3, r2
 1307 0100 002B     		cmp	r3, #0
 1308 0102 0FD1     		bne	.L56
 1309              		.loc 1 666 0 is_stmt 0 discriminator 1
 1310 0104 7B68     		ldr	r3, [r7, #4]
 1311 0106 1B68     		ldr	r3, [r3]
 1312 0108 1A6A     		ldr	r2, [r3, #32]
 1313 010a 40F24443 		movw	r3, #1092
 1314 010e 1340     		ands	r3, r3, r2
 1315 0110 002B     		cmp	r3, #0
 1316 0112 07D1     		bne	.L56
 1317              		.loc 1 666 0 discriminator 2
 1318 0114 7B68     		ldr	r3, [r7, #4]
 1319 0116 1B68     		ldr	r3, [r3]
 1320 0118 7A68     		ldr	r2, [r7, #4]
 1321 011a 1268     		ldr	r2, [r2]
 1322 011c 1268     		ldr	r2, [r2]
 1323 011e 22F00102 		bic	r2, r2, #1
 1324 0122 1A60     		str	r2, [r3]
 1325              	.L56:
 667:Drivers/STM32F4xx_HAL_Driver/Src/stm32f4xx_hal_tim_ex.c ****   
 668:Drivers/STM32F4xx_HAL_Driver/Src/stm32f4xx_hal_tim_ex.c ****   /* Return function status */
 669:Drivers/STM32F4xx_HAL_Driver/Src/stm32f4xx_hal_tim_ex.c ****   return HAL_OK;
 1326              		.loc 1 669 0 is_stmt 1
 1327 0124 0023     		movs	r3, #0
 670:Drivers/STM32F4xx_HAL_Driver/Src/stm32f4xx_hal_tim_ex.c **** } 
 1328              		.loc 1 670 0
 1329 0126 1846     		mov	r0, r3
 1330 0128 0837     		adds	r7, r7, #8
 1331              	.LCFI70:
 1332              		.cfi_def_cfa_offset 8
 1333 012a BD46     		mov	sp, r7
 1334              	.LCFI71:
 1335              		.cfi_def_cfa_register 13
 1336              		@ sp needed
 1337 012c 80BD     		pop	{r7, pc}
 1338              		.cfi_endproc
 1339              	.LFE137:
 1341 012e 00BF     		.section	.text.HAL_TIMEx_OCN_Start_DMA,"ax",%progbits
 1342              		.align	1
 1343              		.global	HAL_TIMEx_OCN_Start_DMA
 1344              		.syntax unified
 1345              		.thumb
 1346              		.thumb_func
 1347              		.fpu fpv4-sp-d16
 1349              	HAL_TIMEx_OCN_Start_DMA:
 1350              	.LFB138:
 671:Drivers/STM32F4xx_HAL_Driver/Src/stm32f4xx_hal_tim_ex.c **** 
 672:Drivers/STM32F4xx_HAL_Driver/Src/stm32f4xx_hal_tim_ex.c **** /**
 673:Drivers/STM32F4xx_HAL_Driver/Src/stm32f4xx_hal_tim_ex.c ****   * @brief  Starts the TIM Output Compare signal generation in DMA mode 
 674:Drivers/STM32F4xx_HAL_Driver/Src/stm32f4xx_hal_tim_ex.c ****   *         on the complementary output.
ARM GAS  /tmp/ccphsAb6.s 			page 36


 675:Drivers/STM32F4xx_HAL_Driver/Src/stm32f4xx_hal_tim_ex.c ****   * @param  htim pointer to a TIM_HandleTypeDef structure that contains
 676:Drivers/STM32F4xx_HAL_Driver/Src/stm32f4xx_hal_tim_ex.c ****   *                the configuration information for TIM module.
 677:Drivers/STM32F4xx_HAL_Driver/Src/stm32f4xx_hal_tim_ex.c ****   * @param  Channel TIM Channel to be enabled.
 678:Drivers/STM32F4xx_HAL_Driver/Src/stm32f4xx_hal_tim_ex.c ****   *          This parameter can be one of the following values:
 679:Drivers/STM32F4xx_HAL_Driver/Src/stm32f4xx_hal_tim_ex.c ****   *            @arg TIM_CHANNEL_1: TIM Channel 1 selected
 680:Drivers/STM32F4xx_HAL_Driver/Src/stm32f4xx_hal_tim_ex.c ****   *            @arg TIM_CHANNEL_2: TIM Channel 2 selected
 681:Drivers/STM32F4xx_HAL_Driver/Src/stm32f4xx_hal_tim_ex.c ****   *            @arg TIM_CHANNEL_3: TIM Channel 3 selected
 682:Drivers/STM32F4xx_HAL_Driver/Src/stm32f4xx_hal_tim_ex.c ****   * @param  pData The source Buffer address.
 683:Drivers/STM32F4xx_HAL_Driver/Src/stm32f4xx_hal_tim_ex.c ****   * @param  Length The length of data to be transferred from memory to TIM peripheral
 684:Drivers/STM32F4xx_HAL_Driver/Src/stm32f4xx_hal_tim_ex.c ****   * @retval HAL status
 685:Drivers/STM32F4xx_HAL_Driver/Src/stm32f4xx_hal_tim_ex.c ****   */
 686:Drivers/STM32F4xx_HAL_Driver/Src/stm32f4xx_hal_tim_ex.c **** HAL_StatusTypeDef HAL_TIMEx_OCN_Start_DMA(TIM_HandleTypeDef *htim, uint32_t Channel, uint32_t *pDat
 687:Drivers/STM32F4xx_HAL_Driver/Src/stm32f4xx_hal_tim_ex.c **** {
 1351              		.loc 1 687 0
 1352              		.cfi_startproc
 1353              		@ args = 0, pretend = 0, frame = 16
 1354              		@ frame_needed = 1, uses_anonymous_args = 0
 1355 0000 80B5     		push	{r7, lr}
 1356              	.LCFI72:
 1357              		.cfi_def_cfa_offset 8
 1358              		.cfi_offset 7, -8
 1359              		.cfi_offset 14, -4
 1360 0002 84B0     		sub	sp, sp, #16
 1361              	.LCFI73:
 1362              		.cfi_def_cfa_offset 24
 1363 0004 00AF     		add	r7, sp, #0
 1364              	.LCFI74:
 1365              		.cfi_def_cfa_register 7
 1366 0006 F860     		str	r0, [r7, #12]
 1367 0008 B960     		str	r1, [r7, #8]
 1368 000a 7A60     		str	r2, [r7, #4]
 1369 000c 7B80     		strh	r3, [r7, #2]	@ movhi
 688:Drivers/STM32F4xx_HAL_Driver/Src/stm32f4xx_hal_tim_ex.c ****   /* Check the parameters */
 689:Drivers/STM32F4xx_HAL_Driver/Src/stm32f4xx_hal_tim_ex.c ****   assert_param(IS_TIM_CCXN_INSTANCE(htim->Instance, Channel)); 
 690:Drivers/STM32F4xx_HAL_Driver/Src/stm32f4xx_hal_tim_ex.c ****   
 691:Drivers/STM32F4xx_HAL_Driver/Src/stm32f4xx_hal_tim_ex.c ****   if((htim->State == HAL_TIM_STATE_BUSY))
 1370              		.loc 1 691 0
 1371 000e FB68     		ldr	r3, [r7, #12]
 1372 0010 93F83930 		ldrb	r3, [r3, #57]
 1373 0014 DBB2     		uxtb	r3, r3
 1374 0016 022B     		cmp	r3, #2
 1375 0018 01D1     		bne	.L60
 692:Drivers/STM32F4xx_HAL_Driver/Src/stm32f4xx_hal_tim_ex.c ****   {
 693:Drivers/STM32F4xx_HAL_Driver/Src/stm32f4xx_hal_tim_ex.c ****      return HAL_BUSY;
 1376              		.loc 1 693 0
 1377 001a 0223     		movs	r3, #2
 1378 001c B7E0     		b	.L61
 1379              	.L60:
 694:Drivers/STM32F4xx_HAL_Driver/Src/stm32f4xx_hal_tim_ex.c ****   }
 695:Drivers/STM32F4xx_HAL_Driver/Src/stm32f4xx_hal_tim_ex.c ****   else if((htim->State == HAL_TIM_STATE_READY))
 1380              		.loc 1 695 0
 1381 001e FB68     		ldr	r3, [r7, #12]
 1382 0020 93F83930 		ldrb	r3, [r3, #57]
 1383 0024 DBB2     		uxtb	r3, r3
 1384 0026 012B     		cmp	r3, #1
 1385 0028 0BD1     		bne	.L62
 696:Drivers/STM32F4xx_HAL_Driver/Src/stm32f4xx_hal_tim_ex.c ****   {
ARM GAS  /tmp/ccphsAb6.s 			page 37


 697:Drivers/STM32F4xx_HAL_Driver/Src/stm32f4xx_hal_tim_ex.c ****     if(((uint32_t)pData == 0U) && (Length > 0)) 
 1386              		.loc 1 697 0
 1387 002a 7B68     		ldr	r3, [r7, #4]
 1388 002c 002B     		cmp	r3, #0
 1389 002e 04D1     		bne	.L63
 1390              		.loc 1 697 0 is_stmt 0 discriminator 1
 1391 0030 7B88     		ldrh	r3, [r7, #2]
 1392 0032 002B     		cmp	r3, #0
 1393 0034 01D0     		beq	.L63
 698:Drivers/STM32F4xx_HAL_Driver/Src/stm32f4xx_hal_tim_ex.c ****     {
 699:Drivers/STM32F4xx_HAL_Driver/Src/stm32f4xx_hal_tim_ex.c ****       return HAL_ERROR;                                    
 1394              		.loc 1 699 0 is_stmt 1
 1395 0036 0123     		movs	r3, #1
 1396 0038 A9E0     		b	.L61
 1397              	.L63:
 700:Drivers/STM32F4xx_HAL_Driver/Src/stm32f4xx_hal_tim_ex.c ****     }
 701:Drivers/STM32F4xx_HAL_Driver/Src/stm32f4xx_hal_tim_ex.c ****     else
 702:Drivers/STM32F4xx_HAL_Driver/Src/stm32f4xx_hal_tim_ex.c ****     {
 703:Drivers/STM32F4xx_HAL_Driver/Src/stm32f4xx_hal_tim_ex.c ****       htim->State = HAL_TIM_STATE_BUSY;
 1398              		.loc 1 703 0
 1399 003a FB68     		ldr	r3, [r7, #12]
 1400 003c 0222     		movs	r2, #2
 1401 003e 83F83920 		strb	r2, [r3, #57]
 1402              	.L62:
 704:Drivers/STM32F4xx_HAL_Driver/Src/stm32f4xx_hal_tim_ex.c ****     }
 705:Drivers/STM32F4xx_HAL_Driver/Src/stm32f4xx_hal_tim_ex.c ****   }    
 706:Drivers/STM32F4xx_HAL_Driver/Src/stm32f4xx_hal_tim_ex.c ****   switch (Channel)
 1403              		.loc 1 706 0
 1404 0042 BB68     		ldr	r3, [r7, #8]
 1405 0044 0C2B     		cmp	r3, #12
 1406 0046 00F28980 		bhi	.L71
 1407 004a 01A2     		adr	r2, .L66
 1408 004c 52F823F0 		ldr	pc, [r2, r3, lsl #2]
 1409              		.p2align 2
 1410              	.L66:
 1411 0050 85000000 		.word	.L65+1
 1412 0054 5D010000 		.word	.L71+1
 1413 0058 5D010000 		.word	.L71+1
 1414 005c 5D010000 		.word	.L71+1
 1415 0060 BB000000 		.word	.L67+1
 1416 0064 5D010000 		.word	.L71+1
 1417 0068 5D010000 		.word	.L71+1
 1418 006c 5D010000 		.word	.L71+1
 1419 0070 F1000000 		.word	.L68+1
 1420 0074 5D010000 		.word	.L71+1
 1421 0078 5D010000 		.word	.L71+1
 1422 007c 5D010000 		.word	.L71+1
 1423 0080 27010000 		.word	.L69+1
 1424              		.p2align 1
 1425              	.L65:
 707:Drivers/STM32F4xx_HAL_Driver/Src/stm32f4xx_hal_tim_ex.c ****   {
 708:Drivers/STM32F4xx_HAL_Driver/Src/stm32f4xx_hal_tim_ex.c ****     case TIM_CHANNEL_1:
 709:Drivers/STM32F4xx_HAL_Driver/Src/stm32f4xx_hal_tim_ex.c ****     {      
 710:Drivers/STM32F4xx_HAL_Driver/Src/stm32f4xx_hal_tim_ex.c ****       /* Set the DMA Period elapsed callback */
 711:Drivers/STM32F4xx_HAL_Driver/Src/stm32f4xx_hal_tim_ex.c ****       htim->hdma[TIM_DMA_ID_CC1]->XferCpltCallback = TIM_DMADelayPulseCplt;
 1426              		.loc 1 711 0
 1427 0084 FB68     		ldr	r3, [r7, #12]
ARM GAS  /tmp/ccphsAb6.s 			page 38


 1428 0086 1B6A     		ldr	r3, [r3, #32]
 1429 0088 434A     		ldr	r2, .L72
 1430 008a DA63     		str	r2, [r3, #60]
 712:Drivers/STM32F4xx_HAL_Driver/Src/stm32f4xx_hal_tim_ex.c ****      
 713:Drivers/STM32F4xx_HAL_Driver/Src/stm32f4xx_hal_tim_ex.c ****       /* Set the DMA error callback */
 714:Drivers/STM32F4xx_HAL_Driver/Src/stm32f4xx_hal_tim_ex.c ****       htim->hdma[TIM_DMA_ID_CC1]->XferErrorCallback = TIM_DMAError ;
 1431              		.loc 1 714 0
 1432 008c FB68     		ldr	r3, [r7, #12]
 1433 008e 1B6A     		ldr	r3, [r3, #32]
 1434 0090 424A     		ldr	r2, .L72+4
 1435 0092 DA64     		str	r2, [r3, #76]
 715:Drivers/STM32F4xx_HAL_Driver/Src/stm32f4xx_hal_tim_ex.c ****       
 716:Drivers/STM32F4xx_HAL_Driver/Src/stm32f4xx_hal_tim_ex.c ****       /* Enable the DMA Stream */
 717:Drivers/STM32F4xx_HAL_Driver/Src/stm32f4xx_hal_tim_ex.c ****       HAL_DMA_Start_IT(htim->hdma[TIM_DMA_ID_CC1], (uint32_t)pData, (uint32_t)&htim->Instance->CCR1
 1436              		.loc 1 717 0
 1437 0094 FB68     		ldr	r3, [r7, #12]
 1438 0096 186A     		ldr	r0, [r3, #32]
 1439 0098 7968     		ldr	r1, [r7, #4]
 1440 009a FB68     		ldr	r3, [r7, #12]
 1441 009c 1B68     		ldr	r3, [r3]
 1442 009e 3433     		adds	r3, r3, #52
 1443 00a0 1A46     		mov	r2, r3
 1444 00a2 7B88     		ldrh	r3, [r7, #2]
 1445 00a4 FFF7FEFF 		bl	HAL_DMA_Start_IT
 718:Drivers/STM32F4xx_HAL_Driver/Src/stm32f4xx_hal_tim_ex.c ****       
 719:Drivers/STM32F4xx_HAL_Driver/Src/stm32f4xx_hal_tim_ex.c ****       /* Enable the TIM Output Compare DMA request */
 720:Drivers/STM32F4xx_HAL_Driver/Src/stm32f4xx_hal_tim_ex.c ****       __HAL_TIM_ENABLE_DMA(htim, TIM_DMA_CC1);
 1446              		.loc 1 720 0
 1447 00a8 FB68     		ldr	r3, [r7, #12]
 1448 00aa 1B68     		ldr	r3, [r3]
 1449 00ac FA68     		ldr	r2, [r7, #12]
 1450 00ae 1268     		ldr	r2, [r2]
 1451 00b0 D268     		ldr	r2, [r2, #12]
 1452 00b2 42F40072 		orr	r2, r2, #512
 1453 00b6 DA60     		str	r2, [r3, #12]
 721:Drivers/STM32F4xx_HAL_Driver/Src/stm32f4xx_hal_tim_ex.c ****     }
 722:Drivers/STM32F4xx_HAL_Driver/Src/stm32f4xx_hal_tim_ex.c ****     break;
 1454              		.loc 1 722 0
 1455 00b8 51E0     		b	.L70
 1456              	.L67:
 723:Drivers/STM32F4xx_HAL_Driver/Src/stm32f4xx_hal_tim_ex.c ****     
 724:Drivers/STM32F4xx_HAL_Driver/Src/stm32f4xx_hal_tim_ex.c ****     case TIM_CHANNEL_2:
 725:Drivers/STM32F4xx_HAL_Driver/Src/stm32f4xx_hal_tim_ex.c ****     {
 726:Drivers/STM32F4xx_HAL_Driver/Src/stm32f4xx_hal_tim_ex.c ****       /* Set the DMA Period elapsed callback */
 727:Drivers/STM32F4xx_HAL_Driver/Src/stm32f4xx_hal_tim_ex.c ****       htim->hdma[TIM_DMA_ID_CC2]->XferCpltCallback = TIM_DMADelayPulseCplt;
 1457              		.loc 1 727 0
 1458 00ba FB68     		ldr	r3, [r7, #12]
 1459 00bc 5B6A     		ldr	r3, [r3, #36]
 1460 00be 364A     		ldr	r2, .L72
 1461 00c0 DA63     		str	r2, [r3, #60]
 728:Drivers/STM32F4xx_HAL_Driver/Src/stm32f4xx_hal_tim_ex.c ****      
 729:Drivers/STM32F4xx_HAL_Driver/Src/stm32f4xx_hal_tim_ex.c ****       /* Set the DMA error callback */
 730:Drivers/STM32F4xx_HAL_Driver/Src/stm32f4xx_hal_tim_ex.c ****       htim->hdma[TIM_DMA_ID_CC2]->XferErrorCallback = TIM_DMAError ;
 1462              		.loc 1 730 0
 1463 00c2 FB68     		ldr	r3, [r7, #12]
 1464 00c4 5B6A     		ldr	r3, [r3, #36]
 1465 00c6 354A     		ldr	r2, .L72+4
ARM GAS  /tmp/ccphsAb6.s 			page 39


 1466 00c8 DA64     		str	r2, [r3, #76]
 731:Drivers/STM32F4xx_HAL_Driver/Src/stm32f4xx_hal_tim_ex.c ****       
 732:Drivers/STM32F4xx_HAL_Driver/Src/stm32f4xx_hal_tim_ex.c ****       /* Enable the DMA Stream */
 733:Drivers/STM32F4xx_HAL_Driver/Src/stm32f4xx_hal_tim_ex.c ****       HAL_DMA_Start_IT(htim->hdma[TIM_DMA_ID_CC2], (uint32_t)pData, (uint32_t)&htim->Instance->CCR2
 1467              		.loc 1 733 0
 1468 00ca FB68     		ldr	r3, [r7, #12]
 1469 00cc 586A     		ldr	r0, [r3, #36]
 1470 00ce 7968     		ldr	r1, [r7, #4]
 1471 00d0 FB68     		ldr	r3, [r7, #12]
 1472 00d2 1B68     		ldr	r3, [r3]
 1473 00d4 3833     		adds	r3, r3, #56
 1474 00d6 1A46     		mov	r2, r3
 1475 00d8 7B88     		ldrh	r3, [r7, #2]
 1476 00da FFF7FEFF 		bl	HAL_DMA_Start_IT
 734:Drivers/STM32F4xx_HAL_Driver/Src/stm32f4xx_hal_tim_ex.c ****       
 735:Drivers/STM32F4xx_HAL_Driver/Src/stm32f4xx_hal_tim_ex.c ****       /* Enable the TIM Output Compare DMA request */
 736:Drivers/STM32F4xx_HAL_Driver/Src/stm32f4xx_hal_tim_ex.c ****       __HAL_TIM_ENABLE_DMA(htim, TIM_DMA_CC2);
 1477              		.loc 1 736 0
 1478 00de FB68     		ldr	r3, [r7, #12]
 1479 00e0 1B68     		ldr	r3, [r3]
 1480 00e2 FA68     		ldr	r2, [r7, #12]
 1481 00e4 1268     		ldr	r2, [r2]
 1482 00e6 D268     		ldr	r2, [r2, #12]
 1483 00e8 42F48062 		orr	r2, r2, #1024
 1484 00ec DA60     		str	r2, [r3, #12]
 737:Drivers/STM32F4xx_HAL_Driver/Src/stm32f4xx_hal_tim_ex.c ****     }
 738:Drivers/STM32F4xx_HAL_Driver/Src/stm32f4xx_hal_tim_ex.c ****     break;
 1485              		.loc 1 738 0
 1486 00ee 36E0     		b	.L70
 1487              	.L68:
 739:Drivers/STM32F4xx_HAL_Driver/Src/stm32f4xx_hal_tim_ex.c ****     
 740:Drivers/STM32F4xx_HAL_Driver/Src/stm32f4xx_hal_tim_ex.c ****     case TIM_CHANNEL_3:
 741:Drivers/STM32F4xx_HAL_Driver/Src/stm32f4xx_hal_tim_ex.c **** {
 742:Drivers/STM32F4xx_HAL_Driver/Src/stm32f4xx_hal_tim_ex.c ****       /* Set the DMA Period elapsed callback */
 743:Drivers/STM32F4xx_HAL_Driver/Src/stm32f4xx_hal_tim_ex.c ****       htim->hdma[TIM_DMA_ID_CC3]->XferCpltCallback = TIM_DMADelayPulseCplt;
 1488              		.loc 1 743 0
 1489 00f0 FB68     		ldr	r3, [r7, #12]
 1490 00f2 9B6A     		ldr	r3, [r3, #40]
 1491 00f4 284A     		ldr	r2, .L72
 1492 00f6 DA63     		str	r2, [r3, #60]
 744:Drivers/STM32F4xx_HAL_Driver/Src/stm32f4xx_hal_tim_ex.c ****      
 745:Drivers/STM32F4xx_HAL_Driver/Src/stm32f4xx_hal_tim_ex.c ****       /* Set the DMA error callback */
 746:Drivers/STM32F4xx_HAL_Driver/Src/stm32f4xx_hal_tim_ex.c ****       htim->hdma[TIM_DMA_ID_CC3]->XferErrorCallback = TIM_DMAError ;
 1493              		.loc 1 746 0
 1494 00f8 FB68     		ldr	r3, [r7, #12]
 1495 00fa 9B6A     		ldr	r3, [r3, #40]
 1496 00fc 274A     		ldr	r2, .L72+4
 1497 00fe DA64     		str	r2, [r3, #76]
 747:Drivers/STM32F4xx_HAL_Driver/Src/stm32f4xx_hal_tim_ex.c ****       
 748:Drivers/STM32F4xx_HAL_Driver/Src/stm32f4xx_hal_tim_ex.c ****       /* Enable the DMA Stream */
 749:Drivers/STM32F4xx_HAL_Driver/Src/stm32f4xx_hal_tim_ex.c ****       HAL_DMA_Start_IT(htim->hdma[TIM_DMA_ID_CC3], (uint32_t)pData, (uint32_t)&htim->Instance->CCR3
 1498              		.loc 1 749 0
 1499 0100 FB68     		ldr	r3, [r7, #12]
 1500 0102 986A     		ldr	r0, [r3, #40]
 1501 0104 7968     		ldr	r1, [r7, #4]
 1502 0106 FB68     		ldr	r3, [r7, #12]
 1503 0108 1B68     		ldr	r3, [r3]
ARM GAS  /tmp/ccphsAb6.s 			page 40


 1504 010a 3C33     		adds	r3, r3, #60
 1505 010c 1A46     		mov	r2, r3
 1506 010e 7B88     		ldrh	r3, [r7, #2]
 1507 0110 FFF7FEFF 		bl	HAL_DMA_Start_IT
 750:Drivers/STM32F4xx_HAL_Driver/Src/stm32f4xx_hal_tim_ex.c ****       
 751:Drivers/STM32F4xx_HAL_Driver/Src/stm32f4xx_hal_tim_ex.c ****       /* Enable the TIM Output Compare DMA request */
 752:Drivers/STM32F4xx_HAL_Driver/Src/stm32f4xx_hal_tim_ex.c ****       __HAL_TIM_ENABLE_DMA(htim, TIM_DMA_CC3);
 1508              		.loc 1 752 0
 1509 0114 FB68     		ldr	r3, [r7, #12]
 1510 0116 1B68     		ldr	r3, [r3]
 1511 0118 FA68     		ldr	r2, [r7, #12]
 1512 011a 1268     		ldr	r2, [r2]
 1513 011c D268     		ldr	r2, [r2, #12]
 1514 011e 42F40062 		orr	r2, r2, #2048
 1515 0122 DA60     		str	r2, [r3, #12]
 753:Drivers/STM32F4xx_HAL_Driver/Src/stm32f4xx_hal_tim_ex.c ****     }
 754:Drivers/STM32F4xx_HAL_Driver/Src/stm32f4xx_hal_tim_ex.c ****     break;
 1516              		.loc 1 754 0
 1517 0124 1BE0     		b	.L70
 1518              	.L69:
 755:Drivers/STM32F4xx_HAL_Driver/Src/stm32f4xx_hal_tim_ex.c ****     
 756:Drivers/STM32F4xx_HAL_Driver/Src/stm32f4xx_hal_tim_ex.c ****     case TIM_CHANNEL_4:
 757:Drivers/STM32F4xx_HAL_Driver/Src/stm32f4xx_hal_tim_ex.c ****     {
 758:Drivers/STM32F4xx_HAL_Driver/Src/stm32f4xx_hal_tim_ex.c ****      /* Set the DMA Period elapsed callback */
 759:Drivers/STM32F4xx_HAL_Driver/Src/stm32f4xx_hal_tim_ex.c ****       htim->hdma[TIM_DMA_ID_CC4]->XferCpltCallback = TIM_DMADelayPulseCplt;
 1519              		.loc 1 759 0
 1520 0126 FB68     		ldr	r3, [r7, #12]
 1521 0128 DB6A     		ldr	r3, [r3, #44]
 1522 012a 1B4A     		ldr	r2, .L72
 1523 012c DA63     		str	r2, [r3, #60]
 760:Drivers/STM32F4xx_HAL_Driver/Src/stm32f4xx_hal_tim_ex.c ****      
 761:Drivers/STM32F4xx_HAL_Driver/Src/stm32f4xx_hal_tim_ex.c ****       /* Set the DMA error callback */
 762:Drivers/STM32F4xx_HAL_Driver/Src/stm32f4xx_hal_tim_ex.c ****       htim->hdma[TIM_DMA_ID_CC4]->XferErrorCallback = TIM_DMAError ;
 1524              		.loc 1 762 0
 1525 012e FB68     		ldr	r3, [r7, #12]
 1526 0130 DB6A     		ldr	r3, [r3, #44]
 1527 0132 1A4A     		ldr	r2, .L72+4
 1528 0134 DA64     		str	r2, [r3, #76]
 763:Drivers/STM32F4xx_HAL_Driver/Src/stm32f4xx_hal_tim_ex.c ****       
 764:Drivers/STM32F4xx_HAL_Driver/Src/stm32f4xx_hal_tim_ex.c ****       /* Enable the DMA Stream */
 765:Drivers/STM32F4xx_HAL_Driver/Src/stm32f4xx_hal_tim_ex.c ****       HAL_DMA_Start_IT(htim->hdma[TIM_DMA_ID_CC4], (uint32_t)pData, (uint32_t)&htim->Instance->CCR4
 1529              		.loc 1 765 0
 1530 0136 FB68     		ldr	r3, [r7, #12]
 1531 0138 D86A     		ldr	r0, [r3, #44]
 1532 013a 7968     		ldr	r1, [r7, #4]
 1533 013c FB68     		ldr	r3, [r7, #12]
 1534 013e 1B68     		ldr	r3, [r3]
 1535 0140 4033     		adds	r3, r3, #64
 1536 0142 1A46     		mov	r2, r3
 1537 0144 7B88     		ldrh	r3, [r7, #2]
 1538 0146 FFF7FEFF 		bl	HAL_DMA_Start_IT
 766:Drivers/STM32F4xx_HAL_Driver/Src/stm32f4xx_hal_tim_ex.c ****       
 767:Drivers/STM32F4xx_HAL_Driver/Src/stm32f4xx_hal_tim_ex.c ****       /* Enable the TIM Output Compare DMA request */
 768:Drivers/STM32F4xx_HAL_Driver/Src/stm32f4xx_hal_tim_ex.c ****       __HAL_TIM_ENABLE_DMA(htim, TIM_DMA_CC4);
 1539              		.loc 1 768 0
 1540 014a FB68     		ldr	r3, [r7, #12]
 1541 014c 1B68     		ldr	r3, [r3]
ARM GAS  /tmp/ccphsAb6.s 			page 41


 1542 014e FA68     		ldr	r2, [r7, #12]
 1543 0150 1268     		ldr	r2, [r2]
 1544 0152 D268     		ldr	r2, [r2, #12]
 1545 0154 42F48052 		orr	r2, r2, #4096
 1546 0158 DA60     		str	r2, [r3, #12]
 769:Drivers/STM32F4xx_HAL_Driver/Src/stm32f4xx_hal_tim_ex.c ****     }
 770:Drivers/STM32F4xx_HAL_Driver/Src/stm32f4xx_hal_tim_ex.c ****     break;
 1547              		.loc 1 770 0
 1548 015a 00E0     		b	.L70
 1549              	.L71:
 771:Drivers/STM32F4xx_HAL_Driver/Src/stm32f4xx_hal_tim_ex.c ****     
 772:Drivers/STM32F4xx_HAL_Driver/Src/stm32f4xx_hal_tim_ex.c ****     default:
 773:Drivers/STM32F4xx_HAL_Driver/Src/stm32f4xx_hal_tim_ex.c ****     break;
 1550              		.loc 1 773 0
 1551 015c 00BF     		nop
 1552              	.L70:
 774:Drivers/STM32F4xx_HAL_Driver/Src/stm32f4xx_hal_tim_ex.c ****   }
 775:Drivers/STM32F4xx_HAL_Driver/Src/stm32f4xx_hal_tim_ex.c **** 
 776:Drivers/STM32F4xx_HAL_Driver/Src/stm32f4xx_hal_tim_ex.c ****   /* Enable the Capture compare channel N */
 777:Drivers/STM32F4xx_HAL_Driver/Src/stm32f4xx_hal_tim_ex.c ****   TIM_CCxNChannelCmd(htim->Instance, Channel, TIM_CCxN_ENABLE);
 1553              		.loc 1 777 0
 1554 015e FB68     		ldr	r3, [r7, #12]
 1555 0160 1B68     		ldr	r3, [r3]
 1556 0162 0422     		movs	r2, #4
 1557 0164 B968     		ldr	r1, [r7, #8]
 1558 0166 1846     		mov	r0, r3
 1559 0168 FFF7FEFF 		bl	TIM_CCxNChannelCmd
 778:Drivers/STM32F4xx_HAL_Driver/Src/stm32f4xx_hal_tim_ex.c ****   
 779:Drivers/STM32F4xx_HAL_Driver/Src/stm32f4xx_hal_tim_ex.c ****   /* Enable the Main Output */
 780:Drivers/STM32F4xx_HAL_Driver/Src/stm32f4xx_hal_tim_ex.c ****   __HAL_TIM_MOE_ENABLE(htim);
 1560              		.loc 1 780 0
 1561 016c FB68     		ldr	r3, [r7, #12]
 1562 016e 1B68     		ldr	r3, [r3]
 1563 0170 FA68     		ldr	r2, [r7, #12]
 1564 0172 1268     		ldr	r2, [r2]
 1565 0174 526C     		ldr	r2, [r2, #68]
 1566 0176 42F40042 		orr	r2, r2, #32768
 1567 017a 5A64     		str	r2, [r3, #68]
 781:Drivers/STM32F4xx_HAL_Driver/Src/stm32f4xx_hal_tim_ex.c ****   
 782:Drivers/STM32F4xx_HAL_Driver/Src/stm32f4xx_hal_tim_ex.c ****   /* Enable the Peripheral */
 783:Drivers/STM32F4xx_HAL_Driver/Src/stm32f4xx_hal_tim_ex.c ****   __HAL_TIM_ENABLE(htim); 
 1568              		.loc 1 783 0
 1569 017c FB68     		ldr	r3, [r7, #12]
 1570 017e 1B68     		ldr	r3, [r3]
 1571 0180 FA68     		ldr	r2, [r7, #12]
 1572 0182 1268     		ldr	r2, [r2]
 1573 0184 1268     		ldr	r2, [r2]
 1574 0186 42F00102 		orr	r2, r2, #1
 1575 018a 1A60     		str	r2, [r3]
 784:Drivers/STM32F4xx_HAL_Driver/Src/stm32f4xx_hal_tim_ex.c ****   
 785:Drivers/STM32F4xx_HAL_Driver/Src/stm32f4xx_hal_tim_ex.c ****   /* Return function status */
 786:Drivers/STM32F4xx_HAL_Driver/Src/stm32f4xx_hal_tim_ex.c ****   return HAL_OK;
 1576              		.loc 1 786 0
 1577 018c 0023     		movs	r3, #0
 1578              	.L61:
 787:Drivers/STM32F4xx_HAL_Driver/Src/stm32f4xx_hal_tim_ex.c **** }
 1579              		.loc 1 787 0
ARM GAS  /tmp/ccphsAb6.s 			page 42


 1580 018e 1846     		mov	r0, r3
 1581 0190 1037     		adds	r7, r7, #16
 1582              	.LCFI75:
 1583              		.cfi_def_cfa_offset 8
 1584 0192 BD46     		mov	sp, r7
 1585              	.LCFI76:
 1586              		.cfi_def_cfa_register 13
 1587              		@ sp needed
 1588 0194 80BD     		pop	{r7, pc}
 1589              	.L73:
 1590 0196 00BF     		.align	2
 1591              	.L72:
 1592 0198 00000000 		.word	TIM_DMADelayPulseCplt
 1593 019c 00000000 		.word	TIM_DMAError
 1594              		.cfi_endproc
 1595              	.LFE138:
 1597              		.section	.text.HAL_TIMEx_OCN_Stop_DMA,"ax",%progbits
 1598              		.align	1
 1599              		.global	HAL_TIMEx_OCN_Stop_DMA
 1600              		.syntax unified
 1601              		.thumb
 1602              		.thumb_func
 1603              		.fpu fpv4-sp-d16
 1605              	HAL_TIMEx_OCN_Stop_DMA:
 1606              	.LFB139:
 788:Drivers/STM32F4xx_HAL_Driver/Src/stm32f4xx_hal_tim_ex.c **** 
 789:Drivers/STM32F4xx_HAL_Driver/Src/stm32f4xx_hal_tim_ex.c **** /**
 790:Drivers/STM32F4xx_HAL_Driver/Src/stm32f4xx_hal_tim_ex.c ****   * @brief  Stops the TIM Output Compare signal generation in DMA mode 
 791:Drivers/STM32F4xx_HAL_Driver/Src/stm32f4xx_hal_tim_ex.c ****   *         on the complementary output.
 792:Drivers/STM32F4xx_HAL_Driver/Src/stm32f4xx_hal_tim_ex.c ****   * @param  htim pointer to a TIM_HandleTypeDef structure that contains
 793:Drivers/STM32F4xx_HAL_Driver/Src/stm32f4xx_hal_tim_ex.c ****   *                the configuration information for TIM module.
 794:Drivers/STM32F4xx_HAL_Driver/Src/stm32f4xx_hal_tim_ex.c ****   * @param  Channel TIM Channel to be disabled.
 795:Drivers/STM32F4xx_HAL_Driver/Src/stm32f4xx_hal_tim_ex.c ****   *          This parameter can be one of the following values:
 796:Drivers/STM32F4xx_HAL_Driver/Src/stm32f4xx_hal_tim_ex.c ****   *            @arg TIM_CHANNEL_1: TIM Channel 1 selected
 797:Drivers/STM32F4xx_HAL_Driver/Src/stm32f4xx_hal_tim_ex.c ****   *            @arg TIM_CHANNEL_2: TIM Channel 2 selected
 798:Drivers/STM32F4xx_HAL_Driver/Src/stm32f4xx_hal_tim_ex.c ****   *            @arg TIM_CHANNEL_3: TIM Channel 3 selected
 799:Drivers/STM32F4xx_HAL_Driver/Src/stm32f4xx_hal_tim_ex.c ****   * @retval HAL status
 800:Drivers/STM32F4xx_HAL_Driver/Src/stm32f4xx_hal_tim_ex.c ****   */
 801:Drivers/STM32F4xx_HAL_Driver/Src/stm32f4xx_hal_tim_ex.c **** HAL_StatusTypeDef HAL_TIMEx_OCN_Stop_DMA(TIM_HandleTypeDef *htim, uint32_t Channel)
 802:Drivers/STM32F4xx_HAL_Driver/Src/stm32f4xx_hal_tim_ex.c **** {
 1607              		.loc 1 802 0
 1608              		.cfi_startproc
 1609              		@ args = 0, pretend = 0, frame = 8
 1610              		@ frame_needed = 1, uses_anonymous_args = 0
 1611 0000 80B5     		push	{r7, lr}
 1612              	.LCFI77:
 1613              		.cfi_def_cfa_offset 8
 1614              		.cfi_offset 7, -8
 1615              		.cfi_offset 14, -4
 1616 0002 82B0     		sub	sp, sp, #8
 1617              	.LCFI78:
 1618              		.cfi_def_cfa_offset 16
 1619 0004 00AF     		add	r7, sp, #0
 1620              	.LCFI79:
 1621              		.cfi_def_cfa_register 7
 1622 0006 7860     		str	r0, [r7, #4]
 1623 0008 3960     		str	r1, [r7]
ARM GAS  /tmp/ccphsAb6.s 			page 43


 803:Drivers/STM32F4xx_HAL_Driver/Src/stm32f4xx_hal_tim_ex.c ****   /* Check the parameters */
 804:Drivers/STM32F4xx_HAL_Driver/Src/stm32f4xx_hal_tim_ex.c ****   assert_param(IS_TIM_CCXN_INSTANCE(htim->Instance, Channel)); 
 805:Drivers/STM32F4xx_HAL_Driver/Src/stm32f4xx_hal_tim_ex.c ****   
 806:Drivers/STM32F4xx_HAL_Driver/Src/stm32f4xx_hal_tim_ex.c ****   switch (Channel)
 1624              		.loc 1 806 0
 1625 000a 3B68     		ldr	r3, [r7]
 1626 000c 0C2B     		cmp	r3, #12
 1627 000e 41D8     		bhi	.L85
 1628 0010 01A2     		adr	r2, .L77
 1629 0012 52F823F0 		ldr	pc, [r2, r3, lsl #2]
 1630 0016 00BF     		.p2align 2
 1631              	.L77:
 1632 0018 4D000000 		.word	.L76+1
 1633 001c 95000000 		.word	.L85+1
 1634 0020 95000000 		.word	.L85+1
 1635 0024 95000000 		.word	.L85+1
 1636 0028 5F000000 		.word	.L78+1
 1637 002c 95000000 		.word	.L85+1
 1638 0030 95000000 		.word	.L85+1
 1639 0034 95000000 		.word	.L85+1
 1640 0038 71000000 		.word	.L79+1
 1641 003c 95000000 		.word	.L85+1
 1642 0040 95000000 		.word	.L85+1
 1643 0044 95000000 		.word	.L85+1
 1644 0048 83000000 		.word	.L80+1
 1645              		.p2align 1
 1646              	.L76:
 807:Drivers/STM32F4xx_HAL_Driver/Src/stm32f4xx_hal_tim_ex.c ****   {
 808:Drivers/STM32F4xx_HAL_Driver/Src/stm32f4xx_hal_tim_ex.c ****     case TIM_CHANNEL_1:
 809:Drivers/STM32F4xx_HAL_Driver/Src/stm32f4xx_hal_tim_ex.c ****     {       
 810:Drivers/STM32F4xx_HAL_Driver/Src/stm32f4xx_hal_tim_ex.c ****       /* Disable the TIM Output Compare DMA request */
 811:Drivers/STM32F4xx_HAL_Driver/Src/stm32f4xx_hal_tim_ex.c ****       __HAL_TIM_DISABLE_DMA(htim, TIM_DMA_CC1);
 1647              		.loc 1 811 0
 1648 004c 7B68     		ldr	r3, [r7, #4]
 1649 004e 1B68     		ldr	r3, [r3]
 1650 0050 7A68     		ldr	r2, [r7, #4]
 1651 0052 1268     		ldr	r2, [r2]
 1652 0054 D268     		ldr	r2, [r2, #12]
 1653 0056 22F40072 		bic	r2, r2, #512
 1654 005a DA60     		str	r2, [r3, #12]
 812:Drivers/STM32F4xx_HAL_Driver/Src/stm32f4xx_hal_tim_ex.c ****     }
 813:Drivers/STM32F4xx_HAL_Driver/Src/stm32f4xx_hal_tim_ex.c ****     break;
 1655              		.loc 1 813 0
 1656 005c 1BE0     		b	.L81
 1657              	.L78:
 814:Drivers/STM32F4xx_HAL_Driver/Src/stm32f4xx_hal_tim_ex.c ****     
 815:Drivers/STM32F4xx_HAL_Driver/Src/stm32f4xx_hal_tim_ex.c ****     case TIM_CHANNEL_2:
 816:Drivers/STM32F4xx_HAL_Driver/Src/stm32f4xx_hal_tim_ex.c ****     {
 817:Drivers/STM32F4xx_HAL_Driver/Src/stm32f4xx_hal_tim_ex.c ****       /* Disable the TIM Output Compare DMA request */
 818:Drivers/STM32F4xx_HAL_Driver/Src/stm32f4xx_hal_tim_ex.c ****       __HAL_TIM_DISABLE_DMA(htim, TIM_DMA_CC2);
 1658              		.loc 1 818 0
 1659 005e 7B68     		ldr	r3, [r7, #4]
 1660 0060 1B68     		ldr	r3, [r3]
 1661 0062 7A68     		ldr	r2, [r7, #4]
 1662 0064 1268     		ldr	r2, [r2]
 1663 0066 D268     		ldr	r2, [r2, #12]
 1664 0068 22F48062 		bic	r2, r2, #1024
ARM GAS  /tmp/ccphsAb6.s 			page 44


 1665 006c DA60     		str	r2, [r3, #12]
 819:Drivers/STM32F4xx_HAL_Driver/Src/stm32f4xx_hal_tim_ex.c ****     }
 820:Drivers/STM32F4xx_HAL_Driver/Src/stm32f4xx_hal_tim_ex.c ****     break;
 1666              		.loc 1 820 0
 1667 006e 12E0     		b	.L81
 1668              	.L79:
 821:Drivers/STM32F4xx_HAL_Driver/Src/stm32f4xx_hal_tim_ex.c ****     
 822:Drivers/STM32F4xx_HAL_Driver/Src/stm32f4xx_hal_tim_ex.c ****     case TIM_CHANNEL_3:
 823:Drivers/STM32F4xx_HAL_Driver/Src/stm32f4xx_hal_tim_ex.c ****     {
 824:Drivers/STM32F4xx_HAL_Driver/Src/stm32f4xx_hal_tim_ex.c ****       /* Disable the TIM Output Compare DMA request */
 825:Drivers/STM32F4xx_HAL_Driver/Src/stm32f4xx_hal_tim_ex.c ****       __HAL_TIM_DISABLE_DMA(htim, TIM_DMA_CC3);
 1669              		.loc 1 825 0
 1670 0070 7B68     		ldr	r3, [r7, #4]
 1671 0072 1B68     		ldr	r3, [r3]
 1672 0074 7A68     		ldr	r2, [r7, #4]
 1673 0076 1268     		ldr	r2, [r2]
 1674 0078 D268     		ldr	r2, [r2, #12]
 1675 007a 22F40062 		bic	r2, r2, #2048
 1676 007e DA60     		str	r2, [r3, #12]
 826:Drivers/STM32F4xx_HAL_Driver/Src/stm32f4xx_hal_tim_ex.c ****     }
 827:Drivers/STM32F4xx_HAL_Driver/Src/stm32f4xx_hal_tim_ex.c ****     break;
 1677              		.loc 1 827 0
 1678 0080 09E0     		b	.L81
 1679              	.L80:
 828:Drivers/STM32F4xx_HAL_Driver/Src/stm32f4xx_hal_tim_ex.c ****     
 829:Drivers/STM32F4xx_HAL_Driver/Src/stm32f4xx_hal_tim_ex.c ****     case TIM_CHANNEL_4:
 830:Drivers/STM32F4xx_HAL_Driver/Src/stm32f4xx_hal_tim_ex.c ****     {
 831:Drivers/STM32F4xx_HAL_Driver/Src/stm32f4xx_hal_tim_ex.c ****       /* Disable the TIM Output Compare interrupt */
 832:Drivers/STM32F4xx_HAL_Driver/Src/stm32f4xx_hal_tim_ex.c ****       __HAL_TIM_DISABLE_DMA(htim, TIM_DMA_CC4);
 1680              		.loc 1 832 0
 1681 0082 7B68     		ldr	r3, [r7, #4]
 1682 0084 1B68     		ldr	r3, [r3]
 1683 0086 7A68     		ldr	r2, [r7, #4]
 1684 0088 1268     		ldr	r2, [r2]
 1685 008a D268     		ldr	r2, [r2, #12]
 1686 008c 22F48052 		bic	r2, r2, #4096
 1687 0090 DA60     		str	r2, [r3, #12]
 833:Drivers/STM32F4xx_HAL_Driver/Src/stm32f4xx_hal_tim_ex.c ****     }
 834:Drivers/STM32F4xx_HAL_Driver/Src/stm32f4xx_hal_tim_ex.c ****     break;
 1688              		.loc 1 834 0
 1689 0092 00E0     		b	.L81
 1690              	.L85:
 835:Drivers/STM32F4xx_HAL_Driver/Src/stm32f4xx_hal_tim_ex.c ****     
 836:Drivers/STM32F4xx_HAL_Driver/Src/stm32f4xx_hal_tim_ex.c ****     default:
 837:Drivers/STM32F4xx_HAL_Driver/Src/stm32f4xx_hal_tim_ex.c ****     break;
 1691              		.loc 1 837 0
 1692 0094 00BF     		nop
 1693              	.L81:
 838:Drivers/STM32F4xx_HAL_Driver/Src/stm32f4xx_hal_tim_ex.c ****   } 
 839:Drivers/STM32F4xx_HAL_Driver/Src/stm32f4xx_hal_tim_ex.c ****   
 840:Drivers/STM32F4xx_HAL_Driver/Src/stm32f4xx_hal_tim_ex.c ****   /* Disable the Capture compare channel N */
 841:Drivers/STM32F4xx_HAL_Driver/Src/stm32f4xx_hal_tim_ex.c ****   TIM_CCxNChannelCmd(htim->Instance, Channel, TIM_CCxN_DISABLE);
 1694              		.loc 1 841 0
 1695 0096 7B68     		ldr	r3, [r7, #4]
 1696 0098 1B68     		ldr	r3, [r3]
 1697 009a 0022     		movs	r2, #0
 1698 009c 3968     		ldr	r1, [r7]
ARM GAS  /tmp/ccphsAb6.s 			page 45


 1699 009e 1846     		mov	r0, r3
 1700 00a0 FFF7FEFF 		bl	TIM_CCxNChannelCmd
 842:Drivers/STM32F4xx_HAL_Driver/Src/stm32f4xx_hal_tim_ex.c ****   
 843:Drivers/STM32F4xx_HAL_Driver/Src/stm32f4xx_hal_tim_ex.c ****   /* Disable the Main Output */
 844:Drivers/STM32F4xx_HAL_Driver/Src/stm32f4xx_hal_tim_ex.c ****   __HAL_TIM_MOE_DISABLE(htim);
 1701              		.loc 1 844 0
 1702 00a4 7B68     		ldr	r3, [r7, #4]
 1703 00a6 1B68     		ldr	r3, [r3]
 1704 00a8 1A6A     		ldr	r2, [r3, #32]
 1705 00aa 41F21113 		movw	r3, #4369
 1706 00ae 1340     		ands	r3, r3, r2
 1707 00b0 002B     		cmp	r3, #0
 1708 00b2 0FD1     		bne	.L82
 1709              		.loc 1 844 0 is_stmt 0 discriminator 1
 1710 00b4 7B68     		ldr	r3, [r7, #4]
 1711 00b6 1B68     		ldr	r3, [r3]
 1712 00b8 1A6A     		ldr	r2, [r3, #32]
 1713 00ba 40F24443 		movw	r3, #1092
 1714 00be 1340     		ands	r3, r3, r2
 1715 00c0 002B     		cmp	r3, #0
 1716 00c2 07D1     		bne	.L82
 1717              		.loc 1 844 0 discriminator 2
 1718 00c4 7B68     		ldr	r3, [r7, #4]
 1719 00c6 1B68     		ldr	r3, [r3]
 1720 00c8 7A68     		ldr	r2, [r7, #4]
 1721 00ca 1268     		ldr	r2, [r2]
 1722 00cc 526C     		ldr	r2, [r2, #68]
 1723 00ce 22F40042 		bic	r2, r2, #32768
 1724 00d2 5A64     		str	r2, [r3, #68]
 1725              	.L82:
 845:Drivers/STM32F4xx_HAL_Driver/Src/stm32f4xx_hal_tim_ex.c ****   
 846:Drivers/STM32F4xx_HAL_Driver/Src/stm32f4xx_hal_tim_ex.c ****   /* Disable the Peripheral */
 847:Drivers/STM32F4xx_HAL_Driver/Src/stm32f4xx_hal_tim_ex.c ****   __HAL_TIM_DISABLE(htim);
 1726              		.loc 1 847 0 is_stmt 1
 1727 00d4 7B68     		ldr	r3, [r7, #4]
 1728 00d6 1B68     		ldr	r3, [r3]
 1729 00d8 1A6A     		ldr	r2, [r3, #32]
 1730 00da 41F21113 		movw	r3, #4369
 1731 00de 1340     		ands	r3, r3, r2
 1732 00e0 002B     		cmp	r3, #0
 1733 00e2 0FD1     		bne	.L83
 1734              		.loc 1 847 0 is_stmt 0 discriminator 1
 1735 00e4 7B68     		ldr	r3, [r7, #4]
 1736 00e6 1B68     		ldr	r3, [r3]
 1737 00e8 1A6A     		ldr	r2, [r3, #32]
 1738 00ea 40F24443 		movw	r3, #1092
 1739 00ee 1340     		ands	r3, r3, r2
 1740 00f0 002B     		cmp	r3, #0
 1741 00f2 07D1     		bne	.L83
 1742              		.loc 1 847 0 discriminator 2
 1743 00f4 7B68     		ldr	r3, [r7, #4]
 1744 00f6 1B68     		ldr	r3, [r3]
 1745 00f8 7A68     		ldr	r2, [r7, #4]
 1746 00fa 1268     		ldr	r2, [r2]
 1747 00fc 1268     		ldr	r2, [r2]
 1748 00fe 22F00102 		bic	r2, r2, #1
 1749 0102 1A60     		str	r2, [r3]
ARM GAS  /tmp/ccphsAb6.s 			page 46


 1750              	.L83:
 848:Drivers/STM32F4xx_HAL_Driver/Src/stm32f4xx_hal_tim_ex.c ****   
 849:Drivers/STM32F4xx_HAL_Driver/Src/stm32f4xx_hal_tim_ex.c ****   /* Change the htim state */
 850:Drivers/STM32F4xx_HAL_Driver/Src/stm32f4xx_hal_tim_ex.c ****   htim->State = HAL_TIM_STATE_READY;
 1751              		.loc 1 850 0 is_stmt 1
 1752 0104 7B68     		ldr	r3, [r7, #4]
 1753 0106 0122     		movs	r2, #1
 1754 0108 83F83920 		strb	r2, [r3, #57]
 851:Drivers/STM32F4xx_HAL_Driver/Src/stm32f4xx_hal_tim_ex.c ****   
 852:Drivers/STM32F4xx_HAL_Driver/Src/stm32f4xx_hal_tim_ex.c ****   /* Return function status */
 853:Drivers/STM32F4xx_HAL_Driver/Src/stm32f4xx_hal_tim_ex.c ****   return HAL_OK;
 1755              		.loc 1 853 0
 1756 010c 0023     		movs	r3, #0
 854:Drivers/STM32F4xx_HAL_Driver/Src/stm32f4xx_hal_tim_ex.c **** }
 1757              		.loc 1 854 0
 1758 010e 1846     		mov	r0, r3
 1759 0110 0837     		adds	r7, r7, #8
 1760              	.LCFI80:
 1761              		.cfi_def_cfa_offset 8
 1762 0112 BD46     		mov	sp, r7
 1763              	.LCFI81:
 1764              		.cfi_def_cfa_register 13
 1765              		@ sp needed
 1766 0114 80BD     		pop	{r7, pc}
 1767              		.cfi_endproc
 1768              	.LFE139:
 1770 0116 00BF     		.section	.text.HAL_TIMEx_PWMN_Start,"ax",%progbits
 1771              		.align	1
 1772              		.global	HAL_TIMEx_PWMN_Start
 1773              		.syntax unified
 1774              		.thumb
 1775              		.thumb_func
 1776              		.fpu fpv4-sp-d16
 1778              	HAL_TIMEx_PWMN_Start:
 1779              	.LFB140:
 855:Drivers/STM32F4xx_HAL_Driver/Src/stm32f4xx_hal_tim_ex.c **** /**
 856:Drivers/STM32F4xx_HAL_Driver/Src/stm32f4xx_hal_tim_ex.c ****   * @}
 857:Drivers/STM32F4xx_HAL_Driver/Src/stm32f4xx_hal_tim_ex.c ****   */
 858:Drivers/STM32F4xx_HAL_Driver/Src/stm32f4xx_hal_tim_ex.c ****   
 859:Drivers/STM32F4xx_HAL_Driver/Src/stm32f4xx_hal_tim_ex.c **** /** @defgroup TIMEx_Exported_Functions_Group3 Timer Complementary PWM functions
 860:Drivers/STM32F4xx_HAL_Driver/Src/stm32f4xx_hal_tim_ex.c ****  *  @brief    Timer Complementary PWM functions 
 861:Drivers/STM32F4xx_HAL_Driver/Src/stm32f4xx_hal_tim_ex.c ****  *
 862:Drivers/STM32F4xx_HAL_Driver/Src/stm32f4xx_hal_tim_ex.c **** @verbatim   
 863:Drivers/STM32F4xx_HAL_Driver/Src/stm32f4xx_hal_tim_ex.c ****   ==============================================================================
 864:Drivers/STM32F4xx_HAL_Driver/Src/stm32f4xx_hal_tim_ex.c ****                  ##### Timer Complementary PWM functions #####
 865:Drivers/STM32F4xx_HAL_Driver/Src/stm32f4xx_hal_tim_ex.c ****   ==============================================================================  
 866:Drivers/STM32F4xx_HAL_Driver/Src/stm32f4xx_hal_tim_ex.c ****   [..]  
 867:Drivers/STM32F4xx_HAL_Driver/Src/stm32f4xx_hal_tim_ex.c ****     This section provides functions allowing to:
 868:Drivers/STM32F4xx_HAL_Driver/Src/stm32f4xx_hal_tim_ex.c ****     (+) Start the Complementary PWM.
 869:Drivers/STM32F4xx_HAL_Driver/Src/stm32f4xx_hal_tim_ex.c ****     (+) Stop the Complementary PWM.
 870:Drivers/STM32F4xx_HAL_Driver/Src/stm32f4xx_hal_tim_ex.c ****     (+) Start the Complementary PWM and enable interrupts.
 871:Drivers/STM32F4xx_HAL_Driver/Src/stm32f4xx_hal_tim_ex.c ****     (+) Stop the Complementary PWM and disable interrupts.
 872:Drivers/STM32F4xx_HAL_Driver/Src/stm32f4xx_hal_tim_ex.c ****     (+) Start the Complementary PWM and enable DMA transfers.
 873:Drivers/STM32F4xx_HAL_Driver/Src/stm32f4xx_hal_tim_ex.c ****     (+) Stop the Complementary PWM and disable DMA transfers.
 874:Drivers/STM32F4xx_HAL_Driver/Src/stm32f4xx_hal_tim_ex.c ****     (+) Start the Complementary Input Capture measurement.
 875:Drivers/STM32F4xx_HAL_Driver/Src/stm32f4xx_hal_tim_ex.c ****     (+) Stop the Complementary Input Capture.
 876:Drivers/STM32F4xx_HAL_Driver/Src/stm32f4xx_hal_tim_ex.c ****     (+) Start the Complementary Input Capture and enable interrupts.
ARM GAS  /tmp/ccphsAb6.s 			page 47


 877:Drivers/STM32F4xx_HAL_Driver/Src/stm32f4xx_hal_tim_ex.c ****     (+) Stop the Complementary Input Capture and disable interrupts.
 878:Drivers/STM32F4xx_HAL_Driver/Src/stm32f4xx_hal_tim_ex.c ****     (+) Start the Complementary Input Capture and enable DMA transfers.
 879:Drivers/STM32F4xx_HAL_Driver/Src/stm32f4xx_hal_tim_ex.c ****     (+) Stop the Complementary Input Capture and disable DMA transfers.
 880:Drivers/STM32F4xx_HAL_Driver/Src/stm32f4xx_hal_tim_ex.c ****     (+) Start the Complementary One Pulse generation.
 881:Drivers/STM32F4xx_HAL_Driver/Src/stm32f4xx_hal_tim_ex.c ****     (+) Stop the Complementary One Pulse.
 882:Drivers/STM32F4xx_HAL_Driver/Src/stm32f4xx_hal_tim_ex.c ****     (+) Start the Complementary One Pulse and enable interrupts.
 883:Drivers/STM32F4xx_HAL_Driver/Src/stm32f4xx_hal_tim_ex.c ****     (+) Stop the Complementary One Pulse and disable interrupts.
 884:Drivers/STM32F4xx_HAL_Driver/Src/stm32f4xx_hal_tim_ex.c ****                
 885:Drivers/STM32F4xx_HAL_Driver/Src/stm32f4xx_hal_tim_ex.c **** @endverbatim
 886:Drivers/STM32F4xx_HAL_Driver/Src/stm32f4xx_hal_tim_ex.c ****   * @{
 887:Drivers/STM32F4xx_HAL_Driver/Src/stm32f4xx_hal_tim_ex.c ****   */
 888:Drivers/STM32F4xx_HAL_Driver/Src/stm32f4xx_hal_tim_ex.c **** 
 889:Drivers/STM32F4xx_HAL_Driver/Src/stm32f4xx_hal_tim_ex.c **** /**
 890:Drivers/STM32F4xx_HAL_Driver/Src/stm32f4xx_hal_tim_ex.c ****   * @brief  Starts the PWM signal generation on the complementary output.
 891:Drivers/STM32F4xx_HAL_Driver/Src/stm32f4xx_hal_tim_ex.c ****   * @param  htim pointer to a TIM_HandleTypeDef structure that contains
 892:Drivers/STM32F4xx_HAL_Driver/Src/stm32f4xx_hal_tim_ex.c ****   *                the configuration information for TIM module.
 893:Drivers/STM32F4xx_HAL_Driver/Src/stm32f4xx_hal_tim_ex.c ****   * @param  Channel TIM Channel to be enabled.
 894:Drivers/STM32F4xx_HAL_Driver/Src/stm32f4xx_hal_tim_ex.c ****   *          This parameter can be one of the following values:
 895:Drivers/STM32F4xx_HAL_Driver/Src/stm32f4xx_hal_tim_ex.c ****   *            @arg TIM_CHANNEL_1: TIM Channel 1 selected
 896:Drivers/STM32F4xx_HAL_Driver/Src/stm32f4xx_hal_tim_ex.c ****   *            @arg TIM_CHANNEL_2: TIM Channel 2 selected
 897:Drivers/STM32F4xx_HAL_Driver/Src/stm32f4xx_hal_tim_ex.c ****   *            @arg TIM_CHANNEL_3: TIM Channel 3 selected
 898:Drivers/STM32F4xx_HAL_Driver/Src/stm32f4xx_hal_tim_ex.c ****   * @retval HAL status
 899:Drivers/STM32F4xx_HAL_Driver/Src/stm32f4xx_hal_tim_ex.c ****   */
 900:Drivers/STM32F4xx_HAL_Driver/Src/stm32f4xx_hal_tim_ex.c **** HAL_StatusTypeDef HAL_TIMEx_PWMN_Start(TIM_HandleTypeDef *htim, uint32_t Channel)
 901:Drivers/STM32F4xx_HAL_Driver/Src/stm32f4xx_hal_tim_ex.c **** {
 1780              		.loc 1 901 0
 1781              		.cfi_startproc
 1782              		@ args = 0, pretend = 0, frame = 8
 1783              		@ frame_needed = 1, uses_anonymous_args = 0
 1784 0000 80B5     		push	{r7, lr}
 1785              	.LCFI82:
 1786              		.cfi_def_cfa_offset 8
 1787              		.cfi_offset 7, -8
 1788              		.cfi_offset 14, -4
 1789 0002 82B0     		sub	sp, sp, #8
 1790              	.LCFI83:
 1791              		.cfi_def_cfa_offset 16
 1792 0004 00AF     		add	r7, sp, #0
 1793              	.LCFI84:
 1794              		.cfi_def_cfa_register 7
 1795 0006 7860     		str	r0, [r7, #4]
 1796 0008 3960     		str	r1, [r7]
 902:Drivers/STM32F4xx_HAL_Driver/Src/stm32f4xx_hal_tim_ex.c ****   /* Check the parameters */
 903:Drivers/STM32F4xx_HAL_Driver/Src/stm32f4xx_hal_tim_ex.c ****   assert_param(IS_TIM_CCXN_INSTANCE(htim->Instance, Channel)); 
 904:Drivers/STM32F4xx_HAL_Driver/Src/stm32f4xx_hal_tim_ex.c ****   
 905:Drivers/STM32F4xx_HAL_Driver/Src/stm32f4xx_hal_tim_ex.c ****   /* Enable the complementary PWM output  */
 906:Drivers/STM32F4xx_HAL_Driver/Src/stm32f4xx_hal_tim_ex.c ****   TIM_CCxNChannelCmd(htim->Instance, Channel, TIM_CCxN_ENABLE);
 1797              		.loc 1 906 0
 1798 000a 7B68     		ldr	r3, [r7, #4]
 1799 000c 1B68     		ldr	r3, [r3]
 1800 000e 0422     		movs	r2, #4
 1801 0010 3968     		ldr	r1, [r7]
 1802 0012 1846     		mov	r0, r3
 1803 0014 FFF7FEFF 		bl	TIM_CCxNChannelCmd
 907:Drivers/STM32F4xx_HAL_Driver/Src/stm32f4xx_hal_tim_ex.c ****   
 908:Drivers/STM32F4xx_HAL_Driver/Src/stm32f4xx_hal_tim_ex.c ****   /* Enable the Main Output */
 909:Drivers/STM32F4xx_HAL_Driver/Src/stm32f4xx_hal_tim_ex.c ****   __HAL_TIM_MOE_ENABLE(htim);
ARM GAS  /tmp/ccphsAb6.s 			page 48


 1804              		.loc 1 909 0
 1805 0018 7B68     		ldr	r3, [r7, #4]
 1806 001a 1B68     		ldr	r3, [r3]
 1807 001c 7A68     		ldr	r2, [r7, #4]
 1808 001e 1268     		ldr	r2, [r2]
 1809 0020 526C     		ldr	r2, [r2, #68]
 1810 0022 42F40042 		orr	r2, r2, #32768
 1811 0026 5A64     		str	r2, [r3, #68]
 910:Drivers/STM32F4xx_HAL_Driver/Src/stm32f4xx_hal_tim_ex.c ****   
 911:Drivers/STM32F4xx_HAL_Driver/Src/stm32f4xx_hal_tim_ex.c ****   /* Enable the Peripheral */
 912:Drivers/STM32F4xx_HAL_Driver/Src/stm32f4xx_hal_tim_ex.c ****   __HAL_TIM_ENABLE(htim);
 1812              		.loc 1 912 0
 1813 0028 7B68     		ldr	r3, [r7, #4]
 1814 002a 1B68     		ldr	r3, [r3]
 1815 002c 7A68     		ldr	r2, [r7, #4]
 1816 002e 1268     		ldr	r2, [r2]
 1817 0030 1268     		ldr	r2, [r2]
 1818 0032 42F00102 		orr	r2, r2, #1
 1819 0036 1A60     		str	r2, [r3]
 913:Drivers/STM32F4xx_HAL_Driver/Src/stm32f4xx_hal_tim_ex.c ****   
 914:Drivers/STM32F4xx_HAL_Driver/Src/stm32f4xx_hal_tim_ex.c ****   /* Return function status */
 915:Drivers/STM32F4xx_HAL_Driver/Src/stm32f4xx_hal_tim_ex.c ****   return HAL_OK;
 1820              		.loc 1 915 0
 1821 0038 0023     		movs	r3, #0
 916:Drivers/STM32F4xx_HAL_Driver/Src/stm32f4xx_hal_tim_ex.c **** } 
 1822              		.loc 1 916 0
 1823 003a 1846     		mov	r0, r3
 1824 003c 0837     		adds	r7, r7, #8
 1825              	.LCFI85:
 1826              		.cfi_def_cfa_offset 8
 1827 003e BD46     		mov	sp, r7
 1828              	.LCFI86:
 1829              		.cfi_def_cfa_register 13
 1830              		@ sp needed
 1831 0040 80BD     		pop	{r7, pc}
 1832              		.cfi_endproc
 1833              	.LFE140:
 1835              		.section	.text.HAL_TIMEx_PWMN_Stop,"ax",%progbits
 1836              		.align	1
 1837              		.global	HAL_TIMEx_PWMN_Stop
 1838              		.syntax unified
 1839              		.thumb
 1840              		.thumb_func
 1841              		.fpu fpv4-sp-d16
 1843              	HAL_TIMEx_PWMN_Stop:
 1844              	.LFB141:
 917:Drivers/STM32F4xx_HAL_Driver/Src/stm32f4xx_hal_tim_ex.c **** 
 918:Drivers/STM32F4xx_HAL_Driver/Src/stm32f4xx_hal_tim_ex.c **** /**
 919:Drivers/STM32F4xx_HAL_Driver/Src/stm32f4xx_hal_tim_ex.c ****   * @brief  Stops the PWM signal generation on the complementary output.
 920:Drivers/STM32F4xx_HAL_Driver/Src/stm32f4xx_hal_tim_ex.c ****   * @param  htim pointer to a TIM_HandleTypeDef structure that contains
 921:Drivers/STM32F4xx_HAL_Driver/Src/stm32f4xx_hal_tim_ex.c ****   *                the configuration information for TIM module.
 922:Drivers/STM32F4xx_HAL_Driver/Src/stm32f4xx_hal_tim_ex.c ****   * @param  Channel TIM Channel to be disabled.
 923:Drivers/STM32F4xx_HAL_Driver/Src/stm32f4xx_hal_tim_ex.c ****   *          This parameter can be one of the following values:
 924:Drivers/STM32F4xx_HAL_Driver/Src/stm32f4xx_hal_tim_ex.c ****   *            @arg TIM_CHANNEL_1: TIM Channel 1 selected
 925:Drivers/STM32F4xx_HAL_Driver/Src/stm32f4xx_hal_tim_ex.c ****   *            @arg TIM_CHANNEL_2: TIM Channel 2 selected
 926:Drivers/STM32F4xx_HAL_Driver/Src/stm32f4xx_hal_tim_ex.c ****   *            @arg TIM_CHANNEL_3: TIM Channel 3 selected
 927:Drivers/STM32F4xx_HAL_Driver/Src/stm32f4xx_hal_tim_ex.c ****   * @retval HAL status
ARM GAS  /tmp/ccphsAb6.s 			page 49


 928:Drivers/STM32F4xx_HAL_Driver/Src/stm32f4xx_hal_tim_ex.c ****   */
 929:Drivers/STM32F4xx_HAL_Driver/Src/stm32f4xx_hal_tim_ex.c **** HAL_StatusTypeDef HAL_TIMEx_PWMN_Stop(TIM_HandleTypeDef *htim, uint32_t Channel)
 930:Drivers/STM32F4xx_HAL_Driver/Src/stm32f4xx_hal_tim_ex.c **** { 
 1845              		.loc 1 930 0
 1846              		.cfi_startproc
 1847              		@ args = 0, pretend = 0, frame = 8
 1848              		@ frame_needed = 1, uses_anonymous_args = 0
 1849 0000 80B5     		push	{r7, lr}
 1850              	.LCFI87:
 1851              		.cfi_def_cfa_offset 8
 1852              		.cfi_offset 7, -8
 1853              		.cfi_offset 14, -4
 1854 0002 82B0     		sub	sp, sp, #8
 1855              	.LCFI88:
 1856              		.cfi_def_cfa_offset 16
 1857 0004 00AF     		add	r7, sp, #0
 1858              	.LCFI89:
 1859              		.cfi_def_cfa_register 7
 1860 0006 7860     		str	r0, [r7, #4]
 1861 0008 3960     		str	r1, [r7]
 931:Drivers/STM32F4xx_HAL_Driver/Src/stm32f4xx_hal_tim_ex.c ****   /* Check the parameters */
 932:Drivers/STM32F4xx_HAL_Driver/Src/stm32f4xx_hal_tim_ex.c ****   assert_param(IS_TIM_CCXN_INSTANCE(htim->Instance, Channel)); 
 933:Drivers/STM32F4xx_HAL_Driver/Src/stm32f4xx_hal_tim_ex.c ****   
 934:Drivers/STM32F4xx_HAL_Driver/Src/stm32f4xx_hal_tim_ex.c ****   /* Disable the complementary PWM output  */
 935:Drivers/STM32F4xx_HAL_Driver/Src/stm32f4xx_hal_tim_ex.c ****   TIM_CCxNChannelCmd(htim->Instance, Channel, TIM_CCxN_DISABLE);  
 1862              		.loc 1 935 0
 1863 000a 7B68     		ldr	r3, [r7, #4]
 1864 000c 1B68     		ldr	r3, [r3]
 1865 000e 0022     		movs	r2, #0
 1866 0010 3968     		ldr	r1, [r7]
 1867 0012 1846     		mov	r0, r3
 1868 0014 FFF7FEFF 		bl	TIM_CCxNChannelCmd
 936:Drivers/STM32F4xx_HAL_Driver/Src/stm32f4xx_hal_tim_ex.c ****   
 937:Drivers/STM32F4xx_HAL_Driver/Src/stm32f4xx_hal_tim_ex.c ****   /* Disable the Main Output */
 938:Drivers/STM32F4xx_HAL_Driver/Src/stm32f4xx_hal_tim_ex.c ****   __HAL_TIM_MOE_DISABLE(htim);
 1869              		.loc 1 938 0
 1870 0018 7B68     		ldr	r3, [r7, #4]
 1871 001a 1B68     		ldr	r3, [r3]
 1872 001c 1A6A     		ldr	r2, [r3, #32]
 1873 001e 41F21113 		movw	r3, #4369
 1874 0022 1340     		ands	r3, r3, r2
 1875 0024 002B     		cmp	r3, #0
 1876 0026 0FD1     		bne	.L89
 1877              		.loc 1 938 0 is_stmt 0 discriminator 1
 1878 0028 7B68     		ldr	r3, [r7, #4]
 1879 002a 1B68     		ldr	r3, [r3]
 1880 002c 1A6A     		ldr	r2, [r3, #32]
 1881 002e 40F24443 		movw	r3, #1092
 1882 0032 1340     		ands	r3, r3, r2
 1883 0034 002B     		cmp	r3, #0
 1884 0036 07D1     		bne	.L89
 1885              		.loc 1 938 0 discriminator 2
 1886 0038 7B68     		ldr	r3, [r7, #4]
 1887 003a 1B68     		ldr	r3, [r3]
 1888 003c 7A68     		ldr	r2, [r7, #4]
 1889 003e 1268     		ldr	r2, [r2]
 1890 0040 526C     		ldr	r2, [r2, #68]
ARM GAS  /tmp/ccphsAb6.s 			page 50


 1891 0042 22F40042 		bic	r2, r2, #32768
 1892 0046 5A64     		str	r2, [r3, #68]
 1893              	.L89:
 939:Drivers/STM32F4xx_HAL_Driver/Src/stm32f4xx_hal_tim_ex.c ****   
 940:Drivers/STM32F4xx_HAL_Driver/Src/stm32f4xx_hal_tim_ex.c ****   /* Disable the Peripheral */
 941:Drivers/STM32F4xx_HAL_Driver/Src/stm32f4xx_hal_tim_ex.c ****   __HAL_TIM_DISABLE(htim);
 1894              		.loc 1 941 0 is_stmt 1
 1895 0048 7B68     		ldr	r3, [r7, #4]
 1896 004a 1B68     		ldr	r3, [r3]
 1897 004c 1A6A     		ldr	r2, [r3, #32]
 1898 004e 41F21113 		movw	r3, #4369
 1899 0052 1340     		ands	r3, r3, r2
 1900 0054 002B     		cmp	r3, #0
 1901 0056 0FD1     		bne	.L90
 1902              		.loc 1 941 0 is_stmt 0 discriminator 1
 1903 0058 7B68     		ldr	r3, [r7, #4]
 1904 005a 1B68     		ldr	r3, [r3]
 1905 005c 1A6A     		ldr	r2, [r3, #32]
 1906 005e 40F24443 		movw	r3, #1092
 1907 0062 1340     		ands	r3, r3, r2
 1908 0064 002B     		cmp	r3, #0
 1909 0066 07D1     		bne	.L90
 1910              		.loc 1 941 0 discriminator 2
 1911 0068 7B68     		ldr	r3, [r7, #4]
 1912 006a 1B68     		ldr	r3, [r3]
 1913 006c 7A68     		ldr	r2, [r7, #4]
 1914 006e 1268     		ldr	r2, [r2]
 1915 0070 1268     		ldr	r2, [r2]
 1916 0072 22F00102 		bic	r2, r2, #1
 1917 0076 1A60     		str	r2, [r3]
 1918              	.L90:
 942:Drivers/STM32F4xx_HAL_Driver/Src/stm32f4xx_hal_tim_ex.c ****   
 943:Drivers/STM32F4xx_HAL_Driver/Src/stm32f4xx_hal_tim_ex.c ****   /* Return function status */
 944:Drivers/STM32F4xx_HAL_Driver/Src/stm32f4xx_hal_tim_ex.c ****   return HAL_OK;
 1919              		.loc 1 944 0 is_stmt 1
 1920 0078 0023     		movs	r3, #0
 945:Drivers/STM32F4xx_HAL_Driver/Src/stm32f4xx_hal_tim_ex.c **** } 
 1921              		.loc 1 945 0
 1922 007a 1846     		mov	r0, r3
 1923 007c 0837     		adds	r7, r7, #8
 1924              	.LCFI90:
 1925              		.cfi_def_cfa_offset 8
 1926 007e BD46     		mov	sp, r7
 1927              	.LCFI91:
 1928              		.cfi_def_cfa_register 13
 1929              		@ sp needed
 1930 0080 80BD     		pop	{r7, pc}
 1931              		.cfi_endproc
 1932              	.LFE141:
 1934              		.section	.text.HAL_TIMEx_PWMN_Start_IT,"ax",%progbits
 1935              		.align	1
 1936              		.global	HAL_TIMEx_PWMN_Start_IT
 1937              		.syntax unified
 1938              		.thumb
 1939              		.thumb_func
 1940              		.fpu fpv4-sp-d16
 1942              	HAL_TIMEx_PWMN_Start_IT:
ARM GAS  /tmp/ccphsAb6.s 			page 51


 1943              	.LFB142:
 946:Drivers/STM32F4xx_HAL_Driver/Src/stm32f4xx_hal_tim_ex.c **** 
 947:Drivers/STM32F4xx_HAL_Driver/Src/stm32f4xx_hal_tim_ex.c **** /**
 948:Drivers/STM32F4xx_HAL_Driver/Src/stm32f4xx_hal_tim_ex.c ****   * @brief  Starts the PWM signal generation in interrupt mode on the 
 949:Drivers/STM32F4xx_HAL_Driver/Src/stm32f4xx_hal_tim_ex.c ****   *         complementary output.
 950:Drivers/STM32F4xx_HAL_Driver/Src/stm32f4xx_hal_tim_ex.c ****   * @param  htim pointer to a TIM_HandleTypeDef structure that contains
 951:Drivers/STM32F4xx_HAL_Driver/Src/stm32f4xx_hal_tim_ex.c ****   *                the configuration information for TIM module.
 952:Drivers/STM32F4xx_HAL_Driver/Src/stm32f4xx_hal_tim_ex.c ****   * @param  Channel TIM Channel to be disabled.
 953:Drivers/STM32F4xx_HAL_Driver/Src/stm32f4xx_hal_tim_ex.c ****   *          This parameter can be one of the following values:
 954:Drivers/STM32F4xx_HAL_Driver/Src/stm32f4xx_hal_tim_ex.c ****   *            @arg TIM_CHANNEL_1: TIM Channel 1 selected
 955:Drivers/STM32F4xx_HAL_Driver/Src/stm32f4xx_hal_tim_ex.c ****   *            @arg TIM_CHANNEL_2: TIM Channel 2 selected
 956:Drivers/STM32F4xx_HAL_Driver/Src/stm32f4xx_hal_tim_ex.c ****   *            @arg TIM_CHANNEL_3: TIM Channel 3 selected
 957:Drivers/STM32F4xx_HAL_Driver/Src/stm32f4xx_hal_tim_ex.c ****   * @retval HAL status
 958:Drivers/STM32F4xx_HAL_Driver/Src/stm32f4xx_hal_tim_ex.c ****   */
 959:Drivers/STM32F4xx_HAL_Driver/Src/stm32f4xx_hal_tim_ex.c **** HAL_StatusTypeDef HAL_TIMEx_PWMN_Start_IT(TIM_HandleTypeDef *htim, uint32_t Channel)
 960:Drivers/STM32F4xx_HAL_Driver/Src/stm32f4xx_hal_tim_ex.c **** {
 1944              		.loc 1 960 0
 1945              		.cfi_startproc
 1946              		@ args = 0, pretend = 0, frame = 8
 1947              		@ frame_needed = 1, uses_anonymous_args = 0
 1948 0000 80B5     		push	{r7, lr}
 1949              	.LCFI92:
 1950              		.cfi_def_cfa_offset 8
 1951              		.cfi_offset 7, -8
 1952              		.cfi_offset 14, -4
 1953 0002 82B0     		sub	sp, sp, #8
 1954              	.LCFI93:
 1955              		.cfi_def_cfa_offset 16
 1956 0004 00AF     		add	r7, sp, #0
 1957              	.LCFI94:
 1958              		.cfi_def_cfa_register 7
 1959 0006 7860     		str	r0, [r7, #4]
 1960 0008 3960     		str	r1, [r7]
 961:Drivers/STM32F4xx_HAL_Driver/Src/stm32f4xx_hal_tim_ex.c ****   /* Check the parameters */
 962:Drivers/STM32F4xx_HAL_Driver/Src/stm32f4xx_hal_tim_ex.c ****   assert_param(IS_TIM_CCXN_INSTANCE(htim->Instance, Channel)); 
 963:Drivers/STM32F4xx_HAL_Driver/Src/stm32f4xx_hal_tim_ex.c ****   
 964:Drivers/STM32F4xx_HAL_Driver/Src/stm32f4xx_hal_tim_ex.c ****   switch (Channel)
 1961              		.loc 1 964 0
 1962 000a 3B68     		ldr	r3, [r7]
 1963 000c 0C2B     		cmp	r3, #12
 1964 000e 41D8     		bhi	.L101
 1965 0010 01A2     		adr	r2, .L95
 1966 0012 52F823F0 		ldr	pc, [r2, r3, lsl #2]
 1967 0016 00BF     		.p2align 2
 1968              	.L95:
 1969 0018 4D000000 		.word	.L94+1
 1970 001c 95000000 		.word	.L101+1
 1971 0020 95000000 		.word	.L101+1
 1972 0024 95000000 		.word	.L101+1
 1973 0028 5F000000 		.word	.L96+1
 1974 002c 95000000 		.word	.L101+1
 1975 0030 95000000 		.word	.L101+1
 1976 0034 95000000 		.word	.L101+1
 1977 0038 71000000 		.word	.L97+1
 1978 003c 95000000 		.word	.L101+1
 1979 0040 95000000 		.word	.L101+1
 1980 0044 95000000 		.word	.L101+1
ARM GAS  /tmp/ccphsAb6.s 			page 52


 1981 0048 83000000 		.word	.L98+1
 1982              		.p2align 1
 1983              	.L94:
 965:Drivers/STM32F4xx_HAL_Driver/Src/stm32f4xx_hal_tim_ex.c ****   {
 966:Drivers/STM32F4xx_HAL_Driver/Src/stm32f4xx_hal_tim_ex.c ****     case TIM_CHANNEL_1:
 967:Drivers/STM32F4xx_HAL_Driver/Src/stm32f4xx_hal_tim_ex.c ****     {       
 968:Drivers/STM32F4xx_HAL_Driver/Src/stm32f4xx_hal_tim_ex.c ****       /* Enable the TIM Capture/Compare 1 interrupt */
 969:Drivers/STM32F4xx_HAL_Driver/Src/stm32f4xx_hal_tim_ex.c ****       __HAL_TIM_ENABLE_IT(htim, TIM_IT_CC1);
 1984              		.loc 1 969 0
 1985 004c 7B68     		ldr	r3, [r7, #4]
 1986 004e 1B68     		ldr	r3, [r3]
 1987 0050 7A68     		ldr	r2, [r7, #4]
 1988 0052 1268     		ldr	r2, [r2]
 1989 0054 D268     		ldr	r2, [r2, #12]
 1990 0056 42F00202 		orr	r2, r2, #2
 1991 005a DA60     		str	r2, [r3, #12]
 970:Drivers/STM32F4xx_HAL_Driver/Src/stm32f4xx_hal_tim_ex.c ****     }
 971:Drivers/STM32F4xx_HAL_Driver/Src/stm32f4xx_hal_tim_ex.c ****     break;
 1992              		.loc 1 971 0
 1993 005c 1BE0     		b	.L99
 1994              	.L96:
 972:Drivers/STM32F4xx_HAL_Driver/Src/stm32f4xx_hal_tim_ex.c ****     
 973:Drivers/STM32F4xx_HAL_Driver/Src/stm32f4xx_hal_tim_ex.c ****     case TIM_CHANNEL_2:
 974:Drivers/STM32F4xx_HAL_Driver/Src/stm32f4xx_hal_tim_ex.c ****     {
 975:Drivers/STM32F4xx_HAL_Driver/Src/stm32f4xx_hal_tim_ex.c ****       /* Enable the TIM Capture/Compare 2 interrupt */
 976:Drivers/STM32F4xx_HAL_Driver/Src/stm32f4xx_hal_tim_ex.c ****       __HAL_TIM_ENABLE_IT(htim, TIM_IT_CC2);
 1995              		.loc 1 976 0
 1996 005e 7B68     		ldr	r3, [r7, #4]
 1997 0060 1B68     		ldr	r3, [r3]
 1998 0062 7A68     		ldr	r2, [r7, #4]
 1999 0064 1268     		ldr	r2, [r2]
 2000 0066 D268     		ldr	r2, [r2, #12]
 2001 0068 42F00402 		orr	r2, r2, #4
 2002 006c DA60     		str	r2, [r3, #12]
 977:Drivers/STM32F4xx_HAL_Driver/Src/stm32f4xx_hal_tim_ex.c ****     }
 978:Drivers/STM32F4xx_HAL_Driver/Src/stm32f4xx_hal_tim_ex.c ****     break;
 2003              		.loc 1 978 0
 2004 006e 12E0     		b	.L99
 2005              	.L97:
 979:Drivers/STM32F4xx_HAL_Driver/Src/stm32f4xx_hal_tim_ex.c ****     
 980:Drivers/STM32F4xx_HAL_Driver/Src/stm32f4xx_hal_tim_ex.c ****     case TIM_CHANNEL_3:
 981:Drivers/STM32F4xx_HAL_Driver/Src/stm32f4xx_hal_tim_ex.c ****     {
 982:Drivers/STM32F4xx_HAL_Driver/Src/stm32f4xx_hal_tim_ex.c ****       /* Enable the TIM Capture/Compare 3 interrupt */
 983:Drivers/STM32F4xx_HAL_Driver/Src/stm32f4xx_hal_tim_ex.c ****       __HAL_TIM_ENABLE_IT(htim, TIM_IT_CC3);
 2006              		.loc 1 983 0
 2007 0070 7B68     		ldr	r3, [r7, #4]
 2008 0072 1B68     		ldr	r3, [r3]
 2009 0074 7A68     		ldr	r2, [r7, #4]
 2010 0076 1268     		ldr	r2, [r2]
 2011 0078 D268     		ldr	r2, [r2, #12]
 2012 007a 42F00802 		orr	r2, r2, #8
 2013 007e DA60     		str	r2, [r3, #12]
 984:Drivers/STM32F4xx_HAL_Driver/Src/stm32f4xx_hal_tim_ex.c ****     }
 985:Drivers/STM32F4xx_HAL_Driver/Src/stm32f4xx_hal_tim_ex.c ****     break;
 2014              		.loc 1 985 0
 2015 0080 09E0     		b	.L99
 2016              	.L98:
ARM GAS  /tmp/ccphsAb6.s 			page 53


 986:Drivers/STM32F4xx_HAL_Driver/Src/stm32f4xx_hal_tim_ex.c ****     
 987:Drivers/STM32F4xx_HAL_Driver/Src/stm32f4xx_hal_tim_ex.c ****     case TIM_CHANNEL_4:
 988:Drivers/STM32F4xx_HAL_Driver/Src/stm32f4xx_hal_tim_ex.c ****     {
 989:Drivers/STM32F4xx_HAL_Driver/Src/stm32f4xx_hal_tim_ex.c ****       /* Enable the TIM Capture/Compare 4 interrupt */
 990:Drivers/STM32F4xx_HAL_Driver/Src/stm32f4xx_hal_tim_ex.c ****       __HAL_TIM_ENABLE_IT(htim, TIM_IT_CC4);
 2017              		.loc 1 990 0
 2018 0082 7B68     		ldr	r3, [r7, #4]
 2019 0084 1B68     		ldr	r3, [r3]
 2020 0086 7A68     		ldr	r2, [r7, #4]
 2021 0088 1268     		ldr	r2, [r2]
 2022 008a D268     		ldr	r2, [r2, #12]
 2023 008c 42F01002 		orr	r2, r2, #16
 2024 0090 DA60     		str	r2, [r3, #12]
 991:Drivers/STM32F4xx_HAL_Driver/Src/stm32f4xx_hal_tim_ex.c ****     }
 992:Drivers/STM32F4xx_HAL_Driver/Src/stm32f4xx_hal_tim_ex.c ****     break;
 2025              		.loc 1 992 0
 2026 0092 00E0     		b	.L99
 2027              	.L101:
 993:Drivers/STM32F4xx_HAL_Driver/Src/stm32f4xx_hal_tim_ex.c ****     
 994:Drivers/STM32F4xx_HAL_Driver/Src/stm32f4xx_hal_tim_ex.c ****     default:
 995:Drivers/STM32F4xx_HAL_Driver/Src/stm32f4xx_hal_tim_ex.c ****     break;
 2028              		.loc 1 995 0
 2029 0094 00BF     		nop
 2030              	.L99:
 996:Drivers/STM32F4xx_HAL_Driver/Src/stm32f4xx_hal_tim_ex.c ****   } 
 997:Drivers/STM32F4xx_HAL_Driver/Src/stm32f4xx_hal_tim_ex.c ****   
 998:Drivers/STM32F4xx_HAL_Driver/Src/stm32f4xx_hal_tim_ex.c ****   /* Enable the TIM Break interrupt */
 999:Drivers/STM32F4xx_HAL_Driver/Src/stm32f4xx_hal_tim_ex.c ****   __HAL_TIM_ENABLE_IT(htim, TIM_IT_BREAK);
 2031              		.loc 1 999 0
 2032 0096 7B68     		ldr	r3, [r7, #4]
 2033 0098 1B68     		ldr	r3, [r3]
 2034 009a 7A68     		ldr	r2, [r7, #4]
 2035 009c 1268     		ldr	r2, [r2]
 2036 009e D268     		ldr	r2, [r2, #12]
 2037 00a0 42F08002 		orr	r2, r2, #128
 2038 00a4 DA60     		str	r2, [r3, #12]
1000:Drivers/STM32F4xx_HAL_Driver/Src/stm32f4xx_hal_tim_ex.c ****   
1001:Drivers/STM32F4xx_HAL_Driver/Src/stm32f4xx_hal_tim_ex.c ****   /* Enable the complementary PWM output  */
1002:Drivers/STM32F4xx_HAL_Driver/Src/stm32f4xx_hal_tim_ex.c ****   TIM_CCxNChannelCmd(htim->Instance, Channel, TIM_CCxN_ENABLE);
 2039              		.loc 1 1002 0
 2040 00a6 7B68     		ldr	r3, [r7, #4]
 2041 00a8 1B68     		ldr	r3, [r3]
 2042 00aa 0422     		movs	r2, #4
 2043 00ac 3968     		ldr	r1, [r7]
 2044 00ae 1846     		mov	r0, r3
 2045 00b0 FFF7FEFF 		bl	TIM_CCxNChannelCmd
1003:Drivers/STM32F4xx_HAL_Driver/Src/stm32f4xx_hal_tim_ex.c ****   
1004:Drivers/STM32F4xx_HAL_Driver/Src/stm32f4xx_hal_tim_ex.c ****   /* Enable the Main Output */
1005:Drivers/STM32F4xx_HAL_Driver/Src/stm32f4xx_hal_tim_ex.c ****   __HAL_TIM_MOE_ENABLE(htim);
 2046              		.loc 1 1005 0
 2047 00b4 7B68     		ldr	r3, [r7, #4]
 2048 00b6 1B68     		ldr	r3, [r3]
 2049 00b8 7A68     		ldr	r2, [r7, #4]
 2050 00ba 1268     		ldr	r2, [r2]
 2051 00bc 526C     		ldr	r2, [r2, #68]
 2052 00be 42F40042 		orr	r2, r2, #32768
 2053 00c2 5A64     		str	r2, [r3, #68]
ARM GAS  /tmp/ccphsAb6.s 			page 54


1006:Drivers/STM32F4xx_HAL_Driver/Src/stm32f4xx_hal_tim_ex.c ****   
1007:Drivers/STM32F4xx_HAL_Driver/Src/stm32f4xx_hal_tim_ex.c ****   /* Enable the Peripheral */
1008:Drivers/STM32F4xx_HAL_Driver/Src/stm32f4xx_hal_tim_ex.c ****   __HAL_TIM_ENABLE(htim);
 2054              		.loc 1 1008 0
 2055 00c4 7B68     		ldr	r3, [r7, #4]
 2056 00c6 1B68     		ldr	r3, [r3]
 2057 00c8 7A68     		ldr	r2, [r7, #4]
 2058 00ca 1268     		ldr	r2, [r2]
 2059 00cc 1268     		ldr	r2, [r2]
 2060 00ce 42F00102 		orr	r2, r2, #1
 2061 00d2 1A60     		str	r2, [r3]
1009:Drivers/STM32F4xx_HAL_Driver/Src/stm32f4xx_hal_tim_ex.c ****   
1010:Drivers/STM32F4xx_HAL_Driver/Src/stm32f4xx_hal_tim_ex.c ****   /* Return function status */
1011:Drivers/STM32F4xx_HAL_Driver/Src/stm32f4xx_hal_tim_ex.c ****   return HAL_OK;
 2062              		.loc 1 1011 0
 2063 00d4 0023     		movs	r3, #0
1012:Drivers/STM32F4xx_HAL_Driver/Src/stm32f4xx_hal_tim_ex.c **** } 
 2064              		.loc 1 1012 0
 2065 00d6 1846     		mov	r0, r3
 2066 00d8 0837     		adds	r7, r7, #8
 2067              	.LCFI95:
 2068              		.cfi_def_cfa_offset 8
 2069 00da BD46     		mov	sp, r7
 2070              	.LCFI96:
 2071              		.cfi_def_cfa_register 13
 2072              		@ sp needed
 2073 00dc 80BD     		pop	{r7, pc}
 2074              		.cfi_endproc
 2075              	.LFE142:
 2077 00de 00BF     		.section	.text.HAL_TIMEx_PWMN_Stop_IT,"ax",%progbits
 2078              		.align	1
 2079              		.global	HAL_TIMEx_PWMN_Stop_IT
 2080              		.syntax unified
 2081              		.thumb
 2082              		.thumb_func
 2083              		.fpu fpv4-sp-d16
 2085              	HAL_TIMEx_PWMN_Stop_IT:
 2086              	.LFB143:
1013:Drivers/STM32F4xx_HAL_Driver/Src/stm32f4xx_hal_tim_ex.c **** 
1014:Drivers/STM32F4xx_HAL_Driver/Src/stm32f4xx_hal_tim_ex.c **** /**
1015:Drivers/STM32F4xx_HAL_Driver/Src/stm32f4xx_hal_tim_ex.c ****   * @brief  Stops the PWM signal generation in interrupt mode on the 
1016:Drivers/STM32F4xx_HAL_Driver/Src/stm32f4xx_hal_tim_ex.c ****   *         complementary output.
1017:Drivers/STM32F4xx_HAL_Driver/Src/stm32f4xx_hal_tim_ex.c ****   * @param  htim pointer to a TIM_HandleTypeDef structure that contains
1018:Drivers/STM32F4xx_HAL_Driver/Src/stm32f4xx_hal_tim_ex.c ****   *                the configuration information for TIM module.
1019:Drivers/STM32F4xx_HAL_Driver/Src/stm32f4xx_hal_tim_ex.c ****   * @param  Channel TIM Channel to be disabled.
1020:Drivers/STM32F4xx_HAL_Driver/Src/stm32f4xx_hal_tim_ex.c ****   *          This parameter can be one of the following values:
1021:Drivers/STM32F4xx_HAL_Driver/Src/stm32f4xx_hal_tim_ex.c ****   *            @arg TIM_CHANNEL_1: TIM Channel 1 selected
1022:Drivers/STM32F4xx_HAL_Driver/Src/stm32f4xx_hal_tim_ex.c ****   *            @arg TIM_CHANNEL_2: TIM Channel 2 selected
1023:Drivers/STM32F4xx_HAL_Driver/Src/stm32f4xx_hal_tim_ex.c ****   *            @arg TIM_CHANNEL_3: TIM Channel 3 selected
1024:Drivers/STM32F4xx_HAL_Driver/Src/stm32f4xx_hal_tim_ex.c ****   * @retval HAL status
1025:Drivers/STM32F4xx_HAL_Driver/Src/stm32f4xx_hal_tim_ex.c ****   */
1026:Drivers/STM32F4xx_HAL_Driver/Src/stm32f4xx_hal_tim_ex.c **** HAL_StatusTypeDef HAL_TIMEx_PWMN_Stop_IT (TIM_HandleTypeDef *htim, uint32_t Channel)
1027:Drivers/STM32F4xx_HAL_Driver/Src/stm32f4xx_hal_tim_ex.c **** {
 2087              		.loc 1 1027 0
 2088              		.cfi_startproc
 2089              		@ args = 0, pretend = 0, frame = 8
 2090              		@ frame_needed = 1, uses_anonymous_args = 0
ARM GAS  /tmp/ccphsAb6.s 			page 55


 2091 0000 80B5     		push	{r7, lr}
 2092              	.LCFI97:
 2093              		.cfi_def_cfa_offset 8
 2094              		.cfi_offset 7, -8
 2095              		.cfi_offset 14, -4
 2096 0002 82B0     		sub	sp, sp, #8
 2097              	.LCFI98:
 2098              		.cfi_def_cfa_offset 16
 2099 0004 00AF     		add	r7, sp, #0
 2100              	.LCFI99:
 2101              		.cfi_def_cfa_register 7
 2102 0006 7860     		str	r0, [r7, #4]
 2103 0008 3960     		str	r1, [r7]
1028:Drivers/STM32F4xx_HAL_Driver/Src/stm32f4xx_hal_tim_ex.c ****   /* Check the parameters */
1029:Drivers/STM32F4xx_HAL_Driver/Src/stm32f4xx_hal_tim_ex.c ****   assert_param(IS_TIM_CCXN_INSTANCE(htim->Instance, Channel)); 
1030:Drivers/STM32F4xx_HAL_Driver/Src/stm32f4xx_hal_tim_ex.c **** 
1031:Drivers/STM32F4xx_HAL_Driver/Src/stm32f4xx_hal_tim_ex.c ****   switch (Channel)
 2104              		.loc 1 1031 0
 2105 000a 3B68     		ldr	r3, [r7]
 2106 000c 0C2B     		cmp	r3, #12
 2107 000e 41D8     		bhi	.L114
 2108 0010 01A2     		adr	r2, .L105
 2109 0012 52F823F0 		ldr	pc, [r2, r3, lsl #2]
 2110 0016 00BF     		.p2align 2
 2111              	.L105:
 2112 0018 4D000000 		.word	.L104+1
 2113 001c 95000000 		.word	.L114+1
 2114 0020 95000000 		.word	.L114+1
 2115 0024 95000000 		.word	.L114+1
 2116 0028 5F000000 		.word	.L106+1
 2117 002c 95000000 		.word	.L114+1
 2118 0030 95000000 		.word	.L114+1
 2119 0034 95000000 		.word	.L114+1
 2120 0038 71000000 		.word	.L107+1
 2121 003c 95000000 		.word	.L114+1
 2122 0040 95000000 		.word	.L114+1
 2123 0044 95000000 		.word	.L114+1
 2124 0048 83000000 		.word	.L108+1
 2125              		.p2align 1
 2126              	.L104:
1032:Drivers/STM32F4xx_HAL_Driver/Src/stm32f4xx_hal_tim_ex.c ****   {
1033:Drivers/STM32F4xx_HAL_Driver/Src/stm32f4xx_hal_tim_ex.c ****     case TIM_CHANNEL_1:
1034:Drivers/STM32F4xx_HAL_Driver/Src/stm32f4xx_hal_tim_ex.c ****     {       
1035:Drivers/STM32F4xx_HAL_Driver/Src/stm32f4xx_hal_tim_ex.c ****       /* Disable the TIM Capture/Compare 1 interrupt */
1036:Drivers/STM32F4xx_HAL_Driver/Src/stm32f4xx_hal_tim_ex.c ****       __HAL_TIM_DISABLE_IT(htim, TIM_IT_CC1);
 2127              		.loc 1 1036 0
 2128 004c 7B68     		ldr	r3, [r7, #4]
 2129 004e 1B68     		ldr	r3, [r3]
 2130 0050 7A68     		ldr	r2, [r7, #4]
 2131 0052 1268     		ldr	r2, [r2]
 2132 0054 D268     		ldr	r2, [r2, #12]
 2133 0056 22F00202 		bic	r2, r2, #2
 2134 005a DA60     		str	r2, [r3, #12]
1037:Drivers/STM32F4xx_HAL_Driver/Src/stm32f4xx_hal_tim_ex.c ****     }
1038:Drivers/STM32F4xx_HAL_Driver/Src/stm32f4xx_hal_tim_ex.c ****     break;
 2135              		.loc 1 1038 0
 2136 005c 1BE0     		b	.L109
ARM GAS  /tmp/ccphsAb6.s 			page 56


 2137              	.L106:
1039:Drivers/STM32F4xx_HAL_Driver/Src/stm32f4xx_hal_tim_ex.c ****     
1040:Drivers/STM32F4xx_HAL_Driver/Src/stm32f4xx_hal_tim_ex.c ****     case TIM_CHANNEL_2:
1041:Drivers/STM32F4xx_HAL_Driver/Src/stm32f4xx_hal_tim_ex.c ****     {
1042:Drivers/STM32F4xx_HAL_Driver/Src/stm32f4xx_hal_tim_ex.c ****       /* Disable the TIM Capture/Compare 2 interrupt */
1043:Drivers/STM32F4xx_HAL_Driver/Src/stm32f4xx_hal_tim_ex.c ****       __HAL_TIM_DISABLE_IT(htim, TIM_IT_CC2);
 2138              		.loc 1 1043 0
 2139 005e 7B68     		ldr	r3, [r7, #4]
 2140 0060 1B68     		ldr	r3, [r3]
 2141 0062 7A68     		ldr	r2, [r7, #4]
 2142 0064 1268     		ldr	r2, [r2]
 2143 0066 D268     		ldr	r2, [r2, #12]
 2144 0068 22F00402 		bic	r2, r2, #4
 2145 006c DA60     		str	r2, [r3, #12]
1044:Drivers/STM32F4xx_HAL_Driver/Src/stm32f4xx_hal_tim_ex.c ****     }
1045:Drivers/STM32F4xx_HAL_Driver/Src/stm32f4xx_hal_tim_ex.c ****     break;
 2146              		.loc 1 1045 0
 2147 006e 12E0     		b	.L109
 2148              	.L107:
1046:Drivers/STM32F4xx_HAL_Driver/Src/stm32f4xx_hal_tim_ex.c ****     
1047:Drivers/STM32F4xx_HAL_Driver/Src/stm32f4xx_hal_tim_ex.c ****     case TIM_CHANNEL_3:
1048:Drivers/STM32F4xx_HAL_Driver/Src/stm32f4xx_hal_tim_ex.c ****     {
1049:Drivers/STM32F4xx_HAL_Driver/Src/stm32f4xx_hal_tim_ex.c ****       /* Disable the TIM Capture/Compare 3 interrupt */
1050:Drivers/STM32F4xx_HAL_Driver/Src/stm32f4xx_hal_tim_ex.c ****       __HAL_TIM_DISABLE_IT(htim, TIM_IT_CC3);
 2149              		.loc 1 1050 0
 2150 0070 7B68     		ldr	r3, [r7, #4]
 2151 0072 1B68     		ldr	r3, [r3]
 2152 0074 7A68     		ldr	r2, [r7, #4]
 2153 0076 1268     		ldr	r2, [r2]
 2154 0078 D268     		ldr	r2, [r2, #12]
 2155 007a 22F00802 		bic	r2, r2, #8
 2156 007e DA60     		str	r2, [r3, #12]
1051:Drivers/STM32F4xx_HAL_Driver/Src/stm32f4xx_hal_tim_ex.c ****     }
1052:Drivers/STM32F4xx_HAL_Driver/Src/stm32f4xx_hal_tim_ex.c ****     break;
 2157              		.loc 1 1052 0
 2158 0080 09E0     		b	.L109
 2159              	.L108:
1053:Drivers/STM32F4xx_HAL_Driver/Src/stm32f4xx_hal_tim_ex.c ****     
1054:Drivers/STM32F4xx_HAL_Driver/Src/stm32f4xx_hal_tim_ex.c ****     case TIM_CHANNEL_4:
1055:Drivers/STM32F4xx_HAL_Driver/Src/stm32f4xx_hal_tim_ex.c ****     {
1056:Drivers/STM32F4xx_HAL_Driver/Src/stm32f4xx_hal_tim_ex.c ****       /* Disable the TIM Capture/Compare 3 interrupt */
1057:Drivers/STM32F4xx_HAL_Driver/Src/stm32f4xx_hal_tim_ex.c ****       __HAL_TIM_DISABLE_IT(htim, TIM_IT_CC4);
 2160              		.loc 1 1057 0
 2161 0082 7B68     		ldr	r3, [r7, #4]
 2162 0084 1B68     		ldr	r3, [r3]
 2163 0086 7A68     		ldr	r2, [r7, #4]
 2164 0088 1268     		ldr	r2, [r2]
 2165 008a D268     		ldr	r2, [r2, #12]
 2166 008c 22F01002 		bic	r2, r2, #16
 2167 0090 DA60     		str	r2, [r3, #12]
1058:Drivers/STM32F4xx_HAL_Driver/Src/stm32f4xx_hal_tim_ex.c ****     }
1059:Drivers/STM32F4xx_HAL_Driver/Src/stm32f4xx_hal_tim_ex.c ****     break;
 2168              		.loc 1 1059 0
 2169 0092 00E0     		b	.L109
 2170              	.L114:
1060:Drivers/STM32F4xx_HAL_Driver/Src/stm32f4xx_hal_tim_ex.c ****     
1061:Drivers/STM32F4xx_HAL_Driver/Src/stm32f4xx_hal_tim_ex.c ****     default:
ARM GAS  /tmp/ccphsAb6.s 			page 57


1062:Drivers/STM32F4xx_HAL_Driver/Src/stm32f4xx_hal_tim_ex.c ****     break; 
 2171              		.loc 1 1062 0
 2172 0094 00BF     		nop
 2173              	.L109:
1063:Drivers/STM32F4xx_HAL_Driver/Src/stm32f4xx_hal_tim_ex.c ****   }
1064:Drivers/STM32F4xx_HAL_Driver/Src/stm32f4xx_hal_tim_ex.c ****   
1065:Drivers/STM32F4xx_HAL_Driver/Src/stm32f4xx_hal_tim_ex.c ****   /* Disable the complementary PWM output  */
1066:Drivers/STM32F4xx_HAL_Driver/Src/stm32f4xx_hal_tim_ex.c ****   TIM_CCxNChannelCmd(htim->Instance, Channel, TIM_CCxN_DISABLE);
 2174              		.loc 1 1066 0
 2175 0096 7B68     		ldr	r3, [r7, #4]
 2176 0098 1B68     		ldr	r3, [r3]
 2177 009a 0022     		movs	r2, #0
 2178 009c 3968     		ldr	r1, [r7]
 2179 009e 1846     		mov	r0, r3
 2180 00a0 FFF7FEFF 		bl	TIM_CCxNChannelCmd
1067:Drivers/STM32F4xx_HAL_Driver/Src/stm32f4xx_hal_tim_ex.c ****   
1068:Drivers/STM32F4xx_HAL_Driver/Src/stm32f4xx_hal_tim_ex.c ****   /* Disable the TIM Break interrupt (only if no more channel is active) */
1069:Drivers/STM32F4xx_HAL_Driver/Src/stm32f4xx_hal_tim_ex.c ****   if((READ_REG(htim->Instance->CCER) & (TIM_CCER_CC1NE | TIM_CCER_CC2NE | TIM_CCER_CC3NE)) == RESET
 2181              		.loc 1 1069 0
 2182 00a4 7B68     		ldr	r3, [r7, #4]
 2183 00a6 1B68     		ldr	r3, [r3]
 2184 00a8 1A6A     		ldr	r2, [r3, #32]
 2185 00aa 40F24443 		movw	r3, #1092
 2186 00ae 1340     		ands	r3, r3, r2
 2187 00b0 002B     		cmp	r3, #0
 2188 00b2 07D1     		bne	.L110
1070:Drivers/STM32F4xx_HAL_Driver/Src/stm32f4xx_hal_tim_ex.c ****   {
1071:Drivers/STM32F4xx_HAL_Driver/Src/stm32f4xx_hal_tim_ex.c ****     __HAL_TIM_DISABLE_IT(htim, TIM_IT_BREAK);
 2189              		.loc 1 1071 0
 2190 00b4 7B68     		ldr	r3, [r7, #4]
 2191 00b6 1B68     		ldr	r3, [r3]
 2192 00b8 7A68     		ldr	r2, [r7, #4]
 2193 00ba 1268     		ldr	r2, [r2]
 2194 00bc D268     		ldr	r2, [r2, #12]
 2195 00be 22F08002 		bic	r2, r2, #128
 2196 00c2 DA60     		str	r2, [r3, #12]
 2197              	.L110:
1072:Drivers/STM32F4xx_HAL_Driver/Src/stm32f4xx_hal_tim_ex.c ****   }
1073:Drivers/STM32F4xx_HAL_Driver/Src/stm32f4xx_hal_tim_ex.c ****   
1074:Drivers/STM32F4xx_HAL_Driver/Src/stm32f4xx_hal_tim_ex.c ****   /* Disable the Main Output */
1075:Drivers/STM32F4xx_HAL_Driver/Src/stm32f4xx_hal_tim_ex.c ****   __HAL_TIM_MOE_DISABLE(htim);
 2198              		.loc 1 1075 0
 2199 00c4 7B68     		ldr	r3, [r7, #4]
 2200 00c6 1B68     		ldr	r3, [r3]
 2201 00c8 1A6A     		ldr	r2, [r3, #32]
 2202 00ca 41F21113 		movw	r3, #4369
 2203 00ce 1340     		ands	r3, r3, r2
 2204 00d0 002B     		cmp	r3, #0
 2205 00d2 0FD1     		bne	.L111
 2206              		.loc 1 1075 0 is_stmt 0 discriminator 1
 2207 00d4 7B68     		ldr	r3, [r7, #4]
 2208 00d6 1B68     		ldr	r3, [r3]
 2209 00d8 1A6A     		ldr	r2, [r3, #32]
 2210 00da 40F24443 		movw	r3, #1092
 2211 00de 1340     		ands	r3, r3, r2
 2212 00e0 002B     		cmp	r3, #0
 2213 00e2 07D1     		bne	.L111
ARM GAS  /tmp/ccphsAb6.s 			page 58


 2214              		.loc 1 1075 0 discriminator 2
 2215 00e4 7B68     		ldr	r3, [r7, #4]
 2216 00e6 1B68     		ldr	r3, [r3]
 2217 00e8 7A68     		ldr	r2, [r7, #4]
 2218 00ea 1268     		ldr	r2, [r2]
 2219 00ec 526C     		ldr	r2, [r2, #68]
 2220 00ee 22F40042 		bic	r2, r2, #32768
 2221 00f2 5A64     		str	r2, [r3, #68]
 2222              	.L111:
1076:Drivers/STM32F4xx_HAL_Driver/Src/stm32f4xx_hal_tim_ex.c ****   
1077:Drivers/STM32F4xx_HAL_Driver/Src/stm32f4xx_hal_tim_ex.c ****   /* Disable the Peripheral */
1078:Drivers/STM32F4xx_HAL_Driver/Src/stm32f4xx_hal_tim_ex.c ****   __HAL_TIM_DISABLE(htim);
 2223              		.loc 1 1078 0 is_stmt 1
 2224 00f4 7B68     		ldr	r3, [r7, #4]
 2225 00f6 1B68     		ldr	r3, [r3]
 2226 00f8 1A6A     		ldr	r2, [r3, #32]
 2227 00fa 41F21113 		movw	r3, #4369
 2228 00fe 1340     		ands	r3, r3, r2
 2229 0100 002B     		cmp	r3, #0
 2230 0102 0FD1     		bne	.L112
 2231              		.loc 1 1078 0 is_stmt 0 discriminator 1
 2232 0104 7B68     		ldr	r3, [r7, #4]
 2233 0106 1B68     		ldr	r3, [r3]
 2234 0108 1A6A     		ldr	r2, [r3, #32]
 2235 010a 40F24443 		movw	r3, #1092
 2236 010e 1340     		ands	r3, r3, r2
 2237 0110 002B     		cmp	r3, #0
 2238 0112 07D1     		bne	.L112
 2239              		.loc 1 1078 0 discriminator 2
 2240 0114 7B68     		ldr	r3, [r7, #4]
 2241 0116 1B68     		ldr	r3, [r3]
 2242 0118 7A68     		ldr	r2, [r7, #4]
 2243 011a 1268     		ldr	r2, [r2]
 2244 011c 1268     		ldr	r2, [r2]
 2245 011e 22F00102 		bic	r2, r2, #1
 2246 0122 1A60     		str	r2, [r3]
 2247              	.L112:
1079:Drivers/STM32F4xx_HAL_Driver/Src/stm32f4xx_hal_tim_ex.c ****   
1080:Drivers/STM32F4xx_HAL_Driver/Src/stm32f4xx_hal_tim_ex.c ****   /* Return function status */
1081:Drivers/STM32F4xx_HAL_Driver/Src/stm32f4xx_hal_tim_ex.c ****   return HAL_OK;
 2248              		.loc 1 1081 0 is_stmt 1
 2249 0124 0023     		movs	r3, #0
1082:Drivers/STM32F4xx_HAL_Driver/Src/stm32f4xx_hal_tim_ex.c **** } 
 2250              		.loc 1 1082 0
 2251 0126 1846     		mov	r0, r3
 2252 0128 0837     		adds	r7, r7, #8
 2253              	.LCFI100:
 2254              		.cfi_def_cfa_offset 8
 2255 012a BD46     		mov	sp, r7
 2256              	.LCFI101:
 2257              		.cfi_def_cfa_register 13
 2258              		@ sp needed
 2259 012c 80BD     		pop	{r7, pc}
 2260              		.cfi_endproc
 2261              	.LFE143:
 2263 012e 00BF     		.section	.text.HAL_TIMEx_PWMN_Start_DMA,"ax",%progbits
 2264              		.align	1
ARM GAS  /tmp/ccphsAb6.s 			page 59


 2265              		.global	HAL_TIMEx_PWMN_Start_DMA
 2266              		.syntax unified
 2267              		.thumb
 2268              		.thumb_func
 2269              		.fpu fpv4-sp-d16
 2271              	HAL_TIMEx_PWMN_Start_DMA:
 2272              	.LFB144:
1083:Drivers/STM32F4xx_HAL_Driver/Src/stm32f4xx_hal_tim_ex.c **** 
1084:Drivers/STM32F4xx_HAL_Driver/Src/stm32f4xx_hal_tim_ex.c **** /**
1085:Drivers/STM32F4xx_HAL_Driver/Src/stm32f4xx_hal_tim_ex.c ****   * @brief  Starts the TIM PWM signal generation in DMA mode on the 
1086:Drivers/STM32F4xx_HAL_Driver/Src/stm32f4xx_hal_tim_ex.c ****   *         complementary output
1087:Drivers/STM32F4xx_HAL_Driver/Src/stm32f4xx_hal_tim_ex.c ****   * @param  htim pointer to a TIM_HandleTypeDef structure that contains
1088:Drivers/STM32F4xx_HAL_Driver/Src/stm32f4xx_hal_tim_ex.c ****   *                the configuration information for TIM module.
1089:Drivers/STM32F4xx_HAL_Driver/Src/stm32f4xx_hal_tim_ex.c ****   * @param  Channel TIM Channel to be enabled.
1090:Drivers/STM32F4xx_HAL_Driver/Src/stm32f4xx_hal_tim_ex.c ****   *          This parameter can be one of the following values:
1091:Drivers/STM32F4xx_HAL_Driver/Src/stm32f4xx_hal_tim_ex.c ****   *            @arg TIM_CHANNEL_1: TIM Channel 1 selected
1092:Drivers/STM32F4xx_HAL_Driver/Src/stm32f4xx_hal_tim_ex.c ****   *            @arg TIM_CHANNEL_2: TIM Channel 2 selected
1093:Drivers/STM32F4xx_HAL_Driver/Src/stm32f4xx_hal_tim_ex.c ****   *            @arg TIM_CHANNEL_3: TIM Channel 3 selected
1094:Drivers/STM32F4xx_HAL_Driver/Src/stm32f4xx_hal_tim_ex.c ****   * @param  pData The source Buffer address.
1095:Drivers/STM32F4xx_HAL_Driver/Src/stm32f4xx_hal_tim_ex.c ****   * @param  Length The length of data to be transferred from memory to TIM peripheral
1096:Drivers/STM32F4xx_HAL_Driver/Src/stm32f4xx_hal_tim_ex.c ****   * @retval HAL status
1097:Drivers/STM32F4xx_HAL_Driver/Src/stm32f4xx_hal_tim_ex.c ****   */
1098:Drivers/STM32F4xx_HAL_Driver/Src/stm32f4xx_hal_tim_ex.c **** HAL_StatusTypeDef HAL_TIMEx_PWMN_Start_DMA(TIM_HandleTypeDef *htim, uint32_t Channel, uint32_t *pDa
1099:Drivers/STM32F4xx_HAL_Driver/Src/stm32f4xx_hal_tim_ex.c **** {
 2273              		.loc 1 1099 0
 2274              		.cfi_startproc
 2275              		@ args = 0, pretend = 0, frame = 16
 2276              		@ frame_needed = 1, uses_anonymous_args = 0
 2277 0000 80B5     		push	{r7, lr}
 2278              	.LCFI102:
 2279              		.cfi_def_cfa_offset 8
 2280              		.cfi_offset 7, -8
 2281              		.cfi_offset 14, -4
 2282 0002 84B0     		sub	sp, sp, #16
 2283              	.LCFI103:
 2284              		.cfi_def_cfa_offset 24
 2285 0004 00AF     		add	r7, sp, #0
 2286              	.LCFI104:
 2287              		.cfi_def_cfa_register 7
 2288 0006 F860     		str	r0, [r7, #12]
 2289 0008 B960     		str	r1, [r7, #8]
 2290 000a 7A60     		str	r2, [r7, #4]
 2291 000c 7B80     		strh	r3, [r7, #2]	@ movhi
1100:Drivers/STM32F4xx_HAL_Driver/Src/stm32f4xx_hal_tim_ex.c ****   /* Check the parameters */
1101:Drivers/STM32F4xx_HAL_Driver/Src/stm32f4xx_hal_tim_ex.c ****   assert_param(IS_TIM_CCXN_INSTANCE(htim->Instance, Channel)); 
1102:Drivers/STM32F4xx_HAL_Driver/Src/stm32f4xx_hal_tim_ex.c ****   
1103:Drivers/STM32F4xx_HAL_Driver/Src/stm32f4xx_hal_tim_ex.c ****   if((htim->State == HAL_TIM_STATE_BUSY))
 2292              		.loc 1 1103 0
 2293 000e FB68     		ldr	r3, [r7, #12]
 2294 0010 93F83930 		ldrb	r3, [r3, #57]
 2295 0014 DBB2     		uxtb	r3, r3
 2296 0016 022B     		cmp	r3, #2
 2297 0018 01D1     		bne	.L116
1104:Drivers/STM32F4xx_HAL_Driver/Src/stm32f4xx_hal_tim_ex.c ****   {
1105:Drivers/STM32F4xx_HAL_Driver/Src/stm32f4xx_hal_tim_ex.c ****      return HAL_BUSY;
 2298              		.loc 1 1105 0
 2299 001a 0223     		movs	r3, #2
ARM GAS  /tmp/ccphsAb6.s 			page 60


 2300 001c B7E0     		b	.L117
 2301              	.L116:
1106:Drivers/STM32F4xx_HAL_Driver/Src/stm32f4xx_hal_tim_ex.c ****   }
1107:Drivers/STM32F4xx_HAL_Driver/Src/stm32f4xx_hal_tim_ex.c ****   else if((htim->State == HAL_TIM_STATE_READY))
 2302              		.loc 1 1107 0
 2303 001e FB68     		ldr	r3, [r7, #12]
 2304 0020 93F83930 		ldrb	r3, [r3, #57]
 2305 0024 DBB2     		uxtb	r3, r3
 2306 0026 012B     		cmp	r3, #1
 2307 0028 0BD1     		bne	.L118
1108:Drivers/STM32F4xx_HAL_Driver/Src/stm32f4xx_hal_tim_ex.c ****   {
1109:Drivers/STM32F4xx_HAL_Driver/Src/stm32f4xx_hal_tim_ex.c ****     if(((uint32_t)pData == 0U) && (Length > 0)) 
 2308              		.loc 1 1109 0
 2309 002a 7B68     		ldr	r3, [r7, #4]
 2310 002c 002B     		cmp	r3, #0
 2311 002e 04D1     		bne	.L119
 2312              		.loc 1 1109 0 is_stmt 0 discriminator 1
 2313 0030 7B88     		ldrh	r3, [r7, #2]
 2314 0032 002B     		cmp	r3, #0
 2315 0034 01D0     		beq	.L119
1110:Drivers/STM32F4xx_HAL_Driver/Src/stm32f4xx_hal_tim_ex.c ****     {
1111:Drivers/STM32F4xx_HAL_Driver/Src/stm32f4xx_hal_tim_ex.c ****       return HAL_ERROR;                                    
 2316              		.loc 1 1111 0 is_stmt 1
 2317 0036 0123     		movs	r3, #1
 2318 0038 A9E0     		b	.L117
 2319              	.L119:
1112:Drivers/STM32F4xx_HAL_Driver/Src/stm32f4xx_hal_tim_ex.c ****     }
1113:Drivers/STM32F4xx_HAL_Driver/Src/stm32f4xx_hal_tim_ex.c ****     else
1114:Drivers/STM32F4xx_HAL_Driver/Src/stm32f4xx_hal_tim_ex.c ****     {
1115:Drivers/STM32F4xx_HAL_Driver/Src/stm32f4xx_hal_tim_ex.c ****       htim->State = HAL_TIM_STATE_BUSY;
 2320              		.loc 1 1115 0
 2321 003a FB68     		ldr	r3, [r7, #12]
 2322 003c 0222     		movs	r2, #2
 2323 003e 83F83920 		strb	r2, [r3, #57]
 2324              	.L118:
1116:Drivers/STM32F4xx_HAL_Driver/Src/stm32f4xx_hal_tim_ex.c ****     }
1117:Drivers/STM32F4xx_HAL_Driver/Src/stm32f4xx_hal_tim_ex.c ****   }    
1118:Drivers/STM32F4xx_HAL_Driver/Src/stm32f4xx_hal_tim_ex.c ****   switch (Channel)
 2325              		.loc 1 1118 0
 2326 0042 BB68     		ldr	r3, [r7, #8]
 2327 0044 0C2B     		cmp	r3, #12
 2328 0046 00F28980 		bhi	.L127
 2329 004a 01A2     		adr	r2, .L122
 2330 004c 52F823F0 		ldr	pc, [r2, r3, lsl #2]
 2331              		.p2align 2
 2332              	.L122:
 2333 0050 85000000 		.word	.L121+1
 2334 0054 5D010000 		.word	.L127+1
 2335 0058 5D010000 		.word	.L127+1
 2336 005c 5D010000 		.word	.L127+1
 2337 0060 BB000000 		.word	.L123+1
 2338 0064 5D010000 		.word	.L127+1
 2339 0068 5D010000 		.word	.L127+1
 2340 006c 5D010000 		.word	.L127+1
 2341 0070 F1000000 		.word	.L124+1
 2342 0074 5D010000 		.word	.L127+1
 2343 0078 5D010000 		.word	.L127+1
ARM GAS  /tmp/ccphsAb6.s 			page 61


 2344 007c 5D010000 		.word	.L127+1
 2345 0080 27010000 		.word	.L125+1
 2346              		.p2align 1
 2347              	.L121:
1119:Drivers/STM32F4xx_HAL_Driver/Src/stm32f4xx_hal_tim_ex.c ****   {
1120:Drivers/STM32F4xx_HAL_Driver/Src/stm32f4xx_hal_tim_ex.c ****     case TIM_CHANNEL_1:
1121:Drivers/STM32F4xx_HAL_Driver/Src/stm32f4xx_hal_tim_ex.c ****     {      
1122:Drivers/STM32F4xx_HAL_Driver/Src/stm32f4xx_hal_tim_ex.c ****       /* Set the DMA Period elapsed callback */
1123:Drivers/STM32F4xx_HAL_Driver/Src/stm32f4xx_hal_tim_ex.c ****       htim->hdma[TIM_DMA_ID_CC1]->XferCpltCallback = TIM_DMADelayPulseCplt;
 2348              		.loc 1 1123 0
 2349 0084 FB68     		ldr	r3, [r7, #12]
 2350 0086 1B6A     		ldr	r3, [r3, #32]
 2351 0088 434A     		ldr	r2, .L128
 2352 008a DA63     		str	r2, [r3, #60]
1124:Drivers/STM32F4xx_HAL_Driver/Src/stm32f4xx_hal_tim_ex.c ****      
1125:Drivers/STM32F4xx_HAL_Driver/Src/stm32f4xx_hal_tim_ex.c ****       /* Set the DMA error callback */
1126:Drivers/STM32F4xx_HAL_Driver/Src/stm32f4xx_hal_tim_ex.c ****       htim->hdma[TIM_DMA_ID_CC1]->XferErrorCallback = TIM_DMAError ;
 2353              		.loc 1 1126 0
 2354 008c FB68     		ldr	r3, [r7, #12]
 2355 008e 1B6A     		ldr	r3, [r3, #32]
 2356 0090 424A     		ldr	r2, .L128+4
 2357 0092 DA64     		str	r2, [r3, #76]
1127:Drivers/STM32F4xx_HAL_Driver/Src/stm32f4xx_hal_tim_ex.c ****       
1128:Drivers/STM32F4xx_HAL_Driver/Src/stm32f4xx_hal_tim_ex.c ****       /* Enable the DMA Stream */
1129:Drivers/STM32F4xx_HAL_Driver/Src/stm32f4xx_hal_tim_ex.c ****       HAL_DMA_Start_IT(htim->hdma[TIM_DMA_ID_CC1], (uint32_t)pData, (uint32_t)&htim->Instance->CCR1
 2358              		.loc 1 1129 0
 2359 0094 FB68     		ldr	r3, [r7, #12]
 2360 0096 186A     		ldr	r0, [r3, #32]
 2361 0098 7968     		ldr	r1, [r7, #4]
 2362 009a FB68     		ldr	r3, [r7, #12]
 2363 009c 1B68     		ldr	r3, [r3]
 2364 009e 3433     		adds	r3, r3, #52
 2365 00a0 1A46     		mov	r2, r3
 2366 00a2 7B88     		ldrh	r3, [r7, #2]
 2367 00a4 FFF7FEFF 		bl	HAL_DMA_Start_IT
1130:Drivers/STM32F4xx_HAL_Driver/Src/stm32f4xx_hal_tim_ex.c ****       
1131:Drivers/STM32F4xx_HAL_Driver/Src/stm32f4xx_hal_tim_ex.c ****       /* Enable the TIM Capture/Compare 1 DMA request */
1132:Drivers/STM32F4xx_HAL_Driver/Src/stm32f4xx_hal_tim_ex.c ****       __HAL_TIM_ENABLE_DMA(htim, TIM_DMA_CC1);
 2368              		.loc 1 1132 0
 2369 00a8 FB68     		ldr	r3, [r7, #12]
 2370 00aa 1B68     		ldr	r3, [r3]
 2371 00ac FA68     		ldr	r2, [r7, #12]
 2372 00ae 1268     		ldr	r2, [r2]
 2373 00b0 D268     		ldr	r2, [r2, #12]
 2374 00b2 42F40072 		orr	r2, r2, #512
 2375 00b6 DA60     		str	r2, [r3, #12]
1133:Drivers/STM32F4xx_HAL_Driver/Src/stm32f4xx_hal_tim_ex.c ****     }
1134:Drivers/STM32F4xx_HAL_Driver/Src/stm32f4xx_hal_tim_ex.c ****     break;
 2376              		.loc 1 1134 0
 2377 00b8 51E0     		b	.L126
 2378              	.L123:
1135:Drivers/STM32F4xx_HAL_Driver/Src/stm32f4xx_hal_tim_ex.c ****     
1136:Drivers/STM32F4xx_HAL_Driver/Src/stm32f4xx_hal_tim_ex.c ****     case TIM_CHANNEL_2:
1137:Drivers/STM32F4xx_HAL_Driver/Src/stm32f4xx_hal_tim_ex.c ****     {
1138:Drivers/STM32F4xx_HAL_Driver/Src/stm32f4xx_hal_tim_ex.c ****       /* Set the DMA Period elapsed callback */
1139:Drivers/STM32F4xx_HAL_Driver/Src/stm32f4xx_hal_tim_ex.c ****       htim->hdma[TIM_DMA_ID_CC2]->XferCpltCallback = TIM_DMADelayPulseCplt;
 2379              		.loc 1 1139 0
ARM GAS  /tmp/ccphsAb6.s 			page 62


 2380 00ba FB68     		ldr	r3, [r7, #12]
 2381 00bc 5B6A     		ldr	r3, [r3, #36]
 2382 00be 364A     		ldr	r2, .L128
 2383 00c0 DA63     		str	r2, [r3, #60]
1140:Drivers/STM32F4xx_HAL_Driver/Src/stm32f4xx_hal_tim_ex.c ****      
1141:Drivers/STM32F4xx_HAL_Driver/Src/stm32f4xx_hal_tim_ex.c ****       /* Set the DMA error callback */
1142:Drivers/STM32F4xx_HAL_Driver/Src/stm32f4xx_hal_tim_ex.c ****       htim->hdma[TIM_DMA_ID_CC2]->XferErrorCallback = TIM_DMAError ;
 2384              		.loc 1 1142 0
 2385 00c2 FB68     		ldr	r3, [r7, #12]
 2386 00c4 5B6A     		ldr	r3, [r3, #36]
 2387 00c6 354A     		ldr	r2, .L128+4
 2388 00c8 DA64     		str	r2, [r3, #76]
1143:Drivers/STM32F4xx_HAL_Driver/Src/stm32f4xx_hal_tim_ex.c ****       
1144:Drivers/STM32F4xx_HAL_Driver/Src/stm32f4xx_hal_tim_ex.c ****       /* Enable the DMA Stream */
1145:Drivers/STM32F4xx_HAL_Driver/Src/stm32f4xx_hal_tim_ex.c ****       HAL_DMA_Start_IT(htim->hdma[TIM_DMA_ID_CC2], (uint32_t)pData, (uint32_t)&htim->Instance->CCR2
 2389              		.loc 1 1145 0
 2390 00ca FB68     		ldr	r3, [r7, #12]
 2391 00cc 586A     		ldr	r0, [r3, #36]
 2392 00ce 7968     		ldr	r1, [r7, #4]
 2393 00d0 FB68     		ldr	r3, [r7, #12]
 2394 00d2 1B68     		ldr	r3, [r3]
 2395 00d4 3833     		adds	r3, r3, #56
 2396 00d6 1A46     		mov	r2, r3
 2397 00d8 7B88     		ldrh	r3, [r7, #2]
 2398 00da FFF7FEFF 		bl	HAL_DMA_Start_IT
1146:Drivers/STM32F4xx_HAL_Driver/Src/stm32f4xx_hal_tim_ex.c ****       
1147:Drivers/STM32F4xx_HAL_Driver/Src/stm32f4xx_hal_tim_ex.c ****       /* Enable the TIM Capture/Compare 2 DMA request */
1148:Drivers/STM32F4xx_HAL_Driver/Src/stm32f4xx_hal_tim_ex.c ****       __HAL_TIM_ENABLE_DMA(htim, TIM_DMA_CC2);
 2399              		.loc 1 1148 0
 2400 00de FB68     		ldr	r3, [r7, #12]
 2401 00e0 1B68     		ldr	r3, [r3]
 2402 00e2 FA68     		ldr	r2, [r7, #12]
 2403 00e4 1268     		ldr	r2, [r2]
 2404 00e6 D268     		ldr	r2, [r2, #12]
 2405 00e8 42F48062 		orr	r2, r2, #1024
 2406 00ec DA60     		str	r2, [r3, #12]
1149:Drivers/STM32F4xx_HAL_Driver/Src/stm32f4xx_hal_tim_ex.c ****     }
1150:Drivers/STM32F4xx_HAL_Driver/Src/stm32f4xx_hal_tim_ex.c ****     break;
 2407              		.loc 1 1150 0
 2408 00ee 36E0     		b	.L126
 2409              	.L124:
1151:Drivers/STM32F4xx_HAL_Driver/Src/stm32f4xx_hal_tim_ex.c ****     
1152:Drivers/STM32F4xx_HAL_Driver/Src/stm32f4xx_hal_tim_ex.c ****     case TIM_CHANNEL_3:
1153:Drivers/STM32F4xx_HAL_Driver/Src/stm32f4xx_hal_tim_ex.c ****     {
1154:Drivers/STM32F4xx_HAL_Driver/Src/stm32f4xx_hal_tim_ex.c ****       /* Set the DMA Period elapsed callback */
1155:Drivers/STM32F4xx_HAL_Driver/Src/stm32f4xx_hal_tim_ex.c ****       htim->hdma[TIM_DMA_ID_CC3]->XferCpltCallback = TIM_DMADelayPulseCplt;
 2410              		.loc 1 1155 0
 2411 00f0 FB68     		ldr	r3, [r7, #12]
 2412 00f2 9B6A     		ldr	r3, [r3, #40]
 2413 00f4 284A     		ldr	r2, .L128
 2414 00f6 DA63     		str	r2, [r3, #60]
1156:Drivers/STM32F4xx_HAL_Driver/Src/stm32f4xx_hal_tim_ex.c ****      
1157:Drivers/STM32F4xx_HAL_Driver/Src/stm32f4xx_hal_tim_ex.c ****       /* Set the DMA error callback */
1158:Drivers/STM32F4xx_HAL_Driver/Src/stm32f4xx_hal_tim_ex.c ****       htim->hdma[TIM_DMA_ID_CC3]->XferErrorCallback = TIM_DMAError ;
 2415              		.loc 1 1158 0
 2416 00f8 FB68     		ldr	r3, [r7, #12]
 2417 00fa 9B6A     		ldr	r3, [r3, #40]
ARM GAS  /tmp/ccphsAb6.s 			page 63


 2418 00fc 274A     		ldr	r2, .L128+4
 2419 00fe DA64     		str	r2, [r3, #76]
1159:Drivers/STM32F4xx_HAL_Driver/Src/stm32f4xx_hal_tim_ex.c ****       
1160:Drivers/STM32F4xx_HAL_Driver/Src/stm32f4xx_hal_tim_ex.c ****       /* Enable the DMA Stream */
1161:Drivers/STM32F4xx_HAL_Driver/Src/stm32f4xx_hal_tim_ex.c ****       HAL_DMA_Start_IT(htim->hdma[TIM_DMA_ID_CC3], (uint32_t)pData, (uint32_t)&htim->Instance->CCR3
 2420              		.loc 1 1161 0
 2421 0100 FB68     		ldr	r3, [r7, #12]
 2422 0102 986A     		ldr	r0, [r3, #40]
 2423 0104 7968     		ldr	r1, [r7, #4]
 2424 0106 FB68     		ldr	r3, [r7, #12]
 2425 0108 1B68     		ldr	r3, [r3]
 2426 010a 3C33     		adds	r3, r3, #60
 2427 010c 1A46     		mov	r2, r3
 2428 010e 7B88     		ldrh	r3, [r7, #2]
 2429 0110 FFF7FEFF 		bl	HAL_DMA_Start_IT
1162:Drivers/STM32F4xx_HAL_Driver/Src/stm32f4xx_hal_tim_ex.c ****       
1163:Drivers/STM32F4xx_HAL_Driver/Src/stm32f4xx_hal_tim_ex.c ****       /* Enable the TIM Capture/Compare 3 DMA request */
1164:Drivers/STM32F4xx_HAL_Driver/Src/stm32f4xx_hal_tim_ex.c ****       __HAL_TIM_ENABLE_DMA(htim, TIM_DMA_CC3);
 2430              		.loc 1 1164 0
 2431 0114 FB68     		ldr	r3, [r7, #12]
 2432 0116 1B68     		ldr	r3, [r3]
 2433 0118 FA68     		ldr	r2, [r7, #12]
 2434 011a 1268     		ldr	r2, [r2]
 2435 011c D268     		ldr	r2, [r2, #12]
 2436 011e 42F40062 		orr	r2, r2, #2048
 2437 0122 DA60     		str	r2, [r3, #12]
1165:Drivers/STM32F4xx_HAL_Driver/Src/stm32f4xx_hal_tim_ex.c ****     }
1166:Drivers/STM32F4xx_HAL_Driver/Src/stm32f4xx_hal_tim_ex.c ****     break;
 2438              		.loc 1 1166 0
 2439 0124 1BE0     		b	.L126
 2440              	.L125:
1167:Drivers/STM32F4xx_HAL_Driver/Src/stm32f4xx_hal_tim_ex.c ****     
1168:Drivers/STM32F4xx_HAL_Driver/Src/stm32f4xx_hal_tim_ex.c ****     case TIM_CHANNEL_4:
1169:Drivers/STM32F4xx_HAL_Driver/Src/stm32f4xx_hal_tim_ex.c ****     {
1170:Drivers/STM32F4xx_HAL_Driver/Src/stm32f4xx_hal_tim_ex.c ****      /* Set the DMA Period elapsed callback */
1171:Drivers/STM32F4xx_HAL_Driver/Src/stm32f4xx_hal_tim_ex.c ****       htim->hdma[TIM_DMA_ID_CC4]->XferCpltCallback = TIM_DMADelayPulseCplt;
 2441              		.loc 1 1171 0
 2442 0126 FB68     		ldr	r3, [r7, #12]
 2443 0128 DB6A     		ldr	r3, [r3, #44]
 2444 012a 1B4A     		ldr	r2, .L128
 2445 012c DA63     		str	r2, [r3, #60]
1172:Drivers/STM32F4xx_HAL_Driver/Src/stm32f4xx_hal_tim_ex.c ****      
1173:Drivers/STM32F4xx_HAL_Driver/Src/stm32f4xx_hal_tim_ex.c ****       /* Set the DMA error callback */
1174:Drivers/STM32F4xx_HAL_Driver/Src/stm32f4xx_hal_tim_ex.c ****       htim->hdma[TIM_DMA_ID_CC4]->XferErrorCallback = TIM_DMAError ;
 2446              		.loc 1 1174 0
 2447 012e FB68     		ldr	r3, [r7, #12]
 2448 0130 DB6A     		ldr	r3, [r3, #44]
 2449 0132 1A4A     		ldr	r2, .L128+4
 2450 0134 DA64     		str	r2, [r3, #76]
1175:Drivers/STM32F4xx_HAL_Driver/Src/stm32f4xx_hal_tim_ex.c ****       
1176:Drivers/STM32F4xx_HAL_Driver/Src/stm32f4xx_hal_tim_ex.c ****       /* Enable the DMA Stream */
1177:Drivers/STM32F4xx_HAL_Driver/Src/stm32f4xx_hal_tim_ex.c ****       HAL_DMA_Start_IT(htim->hdma[TIM_DMA_ID_CC4], (uint32_t)pData, (uint32_t)&htim->Instance->CCR4
 2451              		.loc 1 1177 0
 2452 0136 FB68     		ldr	r3, [r7, #12]
 2453 0138 D86A     		ldr	r0, [r3, #44]
 2454 013a 7968     		ldr	r1, [r7, #4]
 2455 013c FB68     		ldr	r3, [r7, #12]
ARM GAS  /tmp/ccphsAb6.s 			page 64


 2456 013e 1B68     		ldr	r3, [r3]
 2457 0140 4033     		adds	r3, r3, #64
 2458 0142 1A46     		mov	r2, r3
 2459 0144 7B88     		ldrh	r3, [r7, #2]
 2460 0146 FFF7FEFF 		bl	HAL_DMA_Start_IT
1178:Drivers/STM32F4xx_HAL_Driver/Src/stm32f4xx_hal_tim_ex.c ****       
1179:Drivers/STM32F4xx_HAL_Driver/Src/stm32f4xx_hal_tim_ex.c ****       /* Enable the TIM Capture/Compare 4 DMA request */
1180:Drivers/STM32F4xx_HAL_Driver/Src/stm32f4xx_hal_tim_ex.c ****       __HAL_TIM_ENABLE_DMA(htim, TIM_DMA_CC4);
 2461              		.loc 1 1180 0
 2462 014a FB68     		ldr	r3, [r7, #12]
 2463 014c 1B68     		ldr	r3, [r3]
 2464 014e FA68     		ldr	r2, [r7, #12]
 2465 0150 1268     		ldr	r2, [r2]
 2466 0152 D268     		ldr	r2, [r2, #12]
 2467 0154 42F48052 		orr	r2, r2, #4096
 2468 0158 DA60     		str	r2, [r3, #12]
1181:Drivers/STM32F4xx_HAL_Driver/Src/stm32f4xx_hal_tim_ex.c ****     }
1182:Drivers/STM32F4xx_HAL_Driver/Src/stm32f4xx_hal_tim_ex.c ****     break;
 2469              		.loc 1 1182 0
 2470 015a 00E0     		b	.L126
 2471              	.L127:
1183:Drivers/STM32F4xx_HAL_Driver/Src/stm32f4xx_hal_tim_ex.c ****     
1184:Drivers/STM32F4xx_HAL_Driver/Src/stm32f4xx_hal_tim_ex.c ****     default:
1185:Drivers/STM32F4xx_HAL_Driver/Src/stm32f4xx_hal_tim_ex.c ****     break;
 2472              		.loc 1 1185 0
 2473 015c 00BF     		nop
 2474              	.L126:
1186:Drivers/STM32F4xx_HAL_Driver/Src/stm32f4xx_hal_tim_ex.c ****   }
1187:Drivers/STM32F4xx_HAL_Driver/Src/stm32f4xx_hal_tim_ex.c **** 
1188:Drivers/STM32F4xx_HAL_Driver/Src/stm32f4xx_hal_tim_ex.c ****   /* Enable the complementary PWM output  */
1189:Drivers/STM32F4xx_HAL_Driver/Src/stm32f4xx_hal_tim_ex.c ****      TIM_CCxNChannelCmd(htim->Instance, Channel, TIM_CCxN_ENABLE);
 2475              		.loc 1 1189 0
 2476 015e FB68     		ldr	r3, [r7, #12]
 2477 0160 1B68     		ldr	r3, [r3]
 2478 0162 0422     		movs	r2, #4
 2479 0164 B968     		ldr	r1, [r7, #8]
 2480 0166 1846     		mov	r0, r3
 2481 0168 FFF7FEFF 		bl	TIM_CCxNChannelCmd
1190:Drivers/STM32F4xx_HAL_Driver/Src/stm32f4xx_hal_tim_ex.c ****     
1191:Drivers/STM32F4xx_HAL_Driver/Src/stm32f4xx_hal_tim_ex.c ****   /* Enable the Main Output */
1192:Drivers/STM32F4xx_HAL_Driver/Src/stm32f4xx_hal_tim_ex.c ****     __HAL_TIM_MOE_ENABLE(htim);
 2482              		.loc 1 1192 0
 2483 016c FB68     		ldr	r3, [r7, #12]
 2484 016e 1B68     		ldr	r3, [r3]
 2485 0170 FA68     		ldr	r2, [r7, #12]
 2486 0172 1268     		ldr	r2, [r2]
 2487 0174 526C     		ldr	r2, [r2, #68]
 2488 0176 42F40042 		orr	r2, r2, #32768
 2489 017a 5A64     		str	r2, [r3, #68]
1193:Drivers/STM32F4xx_HAL_Driver/Src/stm32f4xx_hal_tim_ex.c ****   
1194:Drivers/STM32F4xx_HAL_Driver/Src/stm32f4xx_hal_tim_ex.c ****   /* Enable the Peripheral */
1195:Drivers/STM32F4xx_HAL_Driver/Src/stm32f4xx_hal_tim_ex.c ****   __HAL_TIM_ENABLE(htim); 
 2490              		.loc 1 1195 0
 2491 017c FB68     		ldr	r3, [r7, #12]
 2492 017e 1B68     		ldr	r3, [r3]
 2493 0180 FA68     		ldr	r2, [r7, #12]
 2494 0182 1268     		ldr	r2, [r2]
ARM GAS  /tmp/ccphsAb6.s 			page 65


 2495 0184 1268     		ldr	r2, [r2]
 2496 0186 42F00102 		orr	r2, r2, #1
 2497 018a 1A60     		str	r2, [r3]
1196:Drivers/STM32F4xx_HAL_Driver/Src/stm32f4xx_hal_tim_ex.c ****   
1197:Drivers/STM32F4xx_HAL_Driver/Src/stm32f4xx_hal_tim_ex.c ****   /* Return function status */
1198:Drivers/STM32F4xx_HAL_Driver/Src/stm32f4xx_hal_tim_ex.c ****   return HAL_OK;
 2498              		.loc 1 1198 0
 2499 018c 0023     		movs	r3, #0
 2500              	.L117:
1199:Drivers/STM32F4xx_HAL_Driver/Src/stm32f4xx_hal_tim_ex.c **** }
 2501              		.loc 1 1199 0
 2502 018e 1846     		mov	r0, r3
 2503 0190 1037     		adds	r7, r7, #16
 2504              	.LCFI105:
 2505              		.cfi_def_cfa_offset 8
 2506 0192 BD46     		mov	sp, r7
 2507              	.LCFI106:
 2508              		.cfi_def_cfa_register 13
 2509              		@ sp needed
 2510 0194 80BD     		pop	{r7, pc}
 2511              	.L129:
 2512 0196 00BF     		.align	2
 2513              	.L128:
 2514 0198 00000000 		.word	TIM_DMADelayPulseCplt
 2515 019c 00000000 		.word	TIM_DMAError
 2516              		.cfi_endproc
 2517              	.LFE144:
 2519              		.section	.text.HAL_TIMEx_PWMN_Stop_DMA,"ax",%progbits
 2520              		.align	1
 2521              		.global	HAL_TIMEx_PWMN_Stop_DMA
 2522              		.syntax unified
 2523              		.thumb
 2524              		.thumb_func
 2525              		.fpu fpv4-sp-d16
 2527              	HAL_TIMEx_PWMN_Stop_DMA:
 2528              	.LFB145:
1200:Drivers/STM32F4xx_HAL_Driver/Src/stm32f4xx_hal_tim_ex.c **** 
1201:Drivers/STM32F4xx_HAL_Driver/Src/stm32f4xx_hal_tim_ex.c **** /**
1202:Drivers/STM32F4xx_HAL_Driver/Src/stm32f4xx_hal_tim_ex.c ****   * @brief  Stops the TIM PWM signal generation in DMA mode on the complementary
1203:Drivers/STM32F4xx_HAL_Driver/Src/stm32f4xx_hal_tim_ex.c ****   *         output
1204:Drivers/STM32F4xx_HAL_Driver/Src/stm32f4xx_hal_tim_ex.c ****   * @param  htim pointer to a TIM_HandleTypeDef structure that contains
1205:Drivers/STM32F4xx_HAL_Driver/Src/stm32f4xx_hal_tim_ex.c ****   *                the configuration information for TIM module.
1206:Drivers/STM32F4xx_HAL_Driver/Src/stm32f4xx_hal_tim_ex.c ****   * @param  Channel TIM Channel to be disabled.
1207:Drivers/STM32F4xx_HAL_Driver/Src/stm32f4xx_hal_tim_ex.c ****   *          This parameter can be one of the following values:
1208:Drivers/STM32F4xx_HAL_Driver/Src/stm32f4xx_hal_tim_ex.c ****   *            @arg TIM_CHANNEL_1: TIM Channel 1 selected
1209:Drivers/STM32F4xx_HAL_Driver/Src/stm32f4xx_hal_tim_ex.c ****   *            @arg TIM_CHANNEL_2: TIM Channel 2 selected
1210:Drivers/STM32F4xx_HAL_Driver/Src/stm32f4xx_hal_tim_ex.c ****   *            @arg TIM_CHANNEL_3: TIM Channel 3 selected
1211:Drivers/STM32F4xx_HAL_Driver/Src/stm32f4xx_hal_tim_ex.c ****   * @retval HAL status
1212:Drivers/STM32F4xx_HAL_Driver/Src/stm32f4xx_hal_tim_ex.c ****   */
1213:Drivers/STM32F4xx_HAL_Driver/Src/stm32f4xx_hal_tim_ex.c **** HAL_StatusTypeDef HAL_TIMEx_PWMN_Stop_DMA(TIM_HandleTypeDef *htim, uint32_t Channel)
1214:Drivers/STM32F4xx_HAL_Driver/Src/stm32f4xx_hal_tim_ex.c **** {
 2529              		.loc 1 1214 0
 2530              		.cfi_startproc
 2531              		@ args = 0, pretend = 0, frame = 8
 2532              		@ frame_needed = 1, uses_anonymous_args = 0
 2533 0000 80B5     		push	{r7, lr}
 2534              	.LCFI107:
ARM GAS  /tmp/ccphsAb6.s 			page 66


 2535              		.cfi_def_cfa_offset 8
 2536              		.cfi_offset 7, -8
 2537              		.cfi_offset 14, -4
 2538 0002 82B0     		sub	sp, sp, #8
 2539              	.LCFI108:
 2540              		.cfi_def_cfa_offset 16
 2541 0004 00AF     		add	r7, sp, #0
 2542              	.LCFI109:
 2543              		.cfi_def_cfa_register 7
 2544 0006 7860     		str	r0, [r7, #4]
 2545 0008 3960     		str	r1, [r7]
1215:Drivers/STM32F4xx_HAL_Driver/Src/stm32f4xx_hal_tim_ex.c ****   /* Check the parameters */
1216:Drivers/STM32F4xx_HAL_Driver/Src/stm32f4xx_hal_tim_ex.c ****   assert_param(IS_TIM_CCXN_INSTANCE(htim->Instance, Channel)); 
1217:Drivers/STM32F4xx_HAL_Driver/Src/stm32f4xx_hal_tim_ex.c ****   
1218:Drivers/STM32F4xx_HAL_Driver/Src/stm32f4xx_hal_tim_ex.c ****   switch (Channel)
 2546              		.loc 1 1218 0
 2547 000a 3B68     		ldr	r3, [r7]
 2548 000c 0C2B     		cmp	r3, #12
 2549 000e 41D8     		bhi	.L141
 2550 0010 01A2     		adr	r2, .L133
 2551 0012 52F823F0 		ldr	pc, [r2, r3, lsl #2]
 2552 0016 00BF     		.p2align 2
 2553              	.L133:
 2554 0018 4D000000 		.word	.L132+1
 2555 001c 95000000 		.word	.L141+1
 2556 0020 95000000 		.word	.L141+1
 2557 0024 95000000 		.word	.L141+1
 2558 0028 5F000000 		.word	.L134+1
 2559 002c 95000000 		.word	.L141+1
 2560 0030 95000000 		.word	.L141+1
 2561 0034 95000000 		.word	.L141+1
 2562 0038 71000000 		.word	.L135+1
 2563 003c 95000000 		.word	.L141+1
 2564 0040 95000000 		.word	.L141+1
 2565 0044 95000000 		.word	.L141+1
 2566 0048 83000000 		.word	.L136+1
 2567              		.p2align 1
 2568              	.L132:
1219:Drivers/STM32F4xx_HAL_Driver/Src/stm32f4xx_hal_tim_ex.c ****   {
1220:Drivers/STM32F4xx_HAL_Driver/Src/stm32f4xx_hal_tim_ex.c ****     case TIM_CHANNEL_1:
1221:Drivers/STM32F4xx_HAL_Driver/Src/stm32f4xx_hal_tim_ex.c ****     {       
1222:Drivers/STM32F4xx_HAL_Driver/Src/stm32f4xx_hal_tim_ex.c ****       /* Disable the TIM Capture/Compare 1 DMA request */
1223:Drivers/STM32F4xx_HAL_Driver/Src/stm32f4xx_hal_tim_ex.c ****       __HAL_TIM_DISABLE_DMA(htim, TIM_DMA_CC1);
 2569              		.loc 1 1223 0
 2570 004c 7B68     		ldr	r3, [r7, #4]
 2571 004e 1B68     		ldr	r3, [r3]
 2572 0050 7A68     		ldr	r2, [r7, #4]
 2573 0052 1268     		ldr	r2, [r2]
 2574 0054 D268     		ldr	r2, [r2, #12]
 2575 0056 22F40072 		bic	r2, r2, #512
 2576 005a DA60     		str	r2, [r3, #12]
1224:Drivers/STM32F4xx_HAL_Driver/Src/stm32f4xx_hal_tim_ex.c ****     }
1225:Drivers/STM32F4xx_HAL_Driver/Src/stm32f4xx_hal_tim_ex.c ****     break;
 2577              		.loc 1 1225 0
 2578 005c 1BE0     		b	.L137
 2579              	.L134:
1226:Drivers/STM32F4xx_HAL_Driver/Src/stm32f4xx_hal_tim_ex.c ****     
ARM GAS  /tmp/ccphsAb6.s 			page 67


1227:Drivers/STM32F4xx_HAL_Driver/Src/stm32f4xx_hal_tim_ex.c ****     case TIM_CHANNEL_2:
1228:Drivers/STM32F4xx_HAL_Driver/Src/stm32f4xx_hal_tim_ex.c ****     {
1229:Drivers/STM32F4xx_HAL_Driver/Src/stm32f4xx_hal_tim_ex.c ****       /* Disable the TIM Capture/Compare 2 DMA request */
1230:Drivers/STM32F4xx_HAL_Driver/Src/stm32f4xx_hal_tim_ex.c ****       __HAL_TIM_DISABLE_DMA(htim, TIM_DMA_CC2);
 2580              		.loc 1 1230 0
 2581 005e 7B68     		ldr	r3, [r7, #4]
 2582 0060 1B68     		ldr	r3, [r3]
 2583 0062 7A68     		ldr	r2, [r7, #4]
 2584 0064 1268     		ldr	r2, [r2]
 2585 0066 D268     		ldr	r2, [r2, #12]
 2586 0068 22F48062 		bic	r2, r2, #1024
 2587 006c DA60     		str	r2, [r3, #12]
1231:Drivers/STM32F4xx_HAL_Driver/Src/stm32f4xx_hal_tim_ex.c ****     }
1232:Drivers/STM32F4xx_HAL_Driver/Src/stm32f4xx_hal_tim_ex.c ****     break;
 2588              		.loc 1 1232 0
 2589 006e 12E0     		b	.L137
 2590              	.L135:
1233:Drivers/STM32F4xx_HAL_Driver/Src/stm32f4xx_hal_tim_ex.c ****     
1234:Drivers/STM32F4xx_HAL_Driver/Src/stm32f4xx_hal_tim_ex.c ****     case TIM_CHANNEL_3:
1235:Drivers/STM32F4xx_HAL_Driver/Src/stm32f4xx_hal_tim_ex.c ****     {
1236:Drivers/STM32F4xx_HAL_Driver/Src/stm32f4xx_hal_tim_ex.c ****       /* Disable the TIM Capture/Compare 3 DMA request */
1237:Drivers/STM32F4xx_HAL_Driver/Src/stm32f4xx_hal_tim_ex.c ****       __HAL_TIM_DISABLE_DMA(htim, TIM_DMA_CC3);
 2591              		.loc 1 1237 0
 2592 0070 7B68     		ldr	r3, [r7, #4]
 2593 0072 1B68     		ldr	r3, [r3]
 2594 0074 7A68     		ldr	r2, [r7, #4]
 2595 0076 1268     		ldr	r2, [r2]
 2596 0078 D268     		ldr	r2, [r2, #12]
 2597 007a 22F40062 		bic	r2, r2, #2048
 2598 007e DA60     		str	r2, [r3, #12]
1238:Drivers/STM32F4xx_HAL_Driver/Src/stm32f4xx_hal_tim_ex.c ****     }
1239:Drivers/STM32F4xx_HAL_Driver/Src/stm32f4xx_hal_tim_ex.c ****     break;
 2599              		.loc 1 1239 0
 2600 0080 09E0     		b	.L137
 2601              	.L136:
1240:Drivers/STM32F4xx_HAL_Driver/Src/stm32f4xx_hal_tim_ex.c ****     
1241:Drivers/STM32F4xx_HAL_Driver/Src/stm32f4xx_hal_tim_ex.c ****     case TIM_CHANNEL_4:
1242:Drivers/STM32F4xx_HAL_Driver/Src/stm32f4xx_hal_tim_ex.c ****     {
1243:Drivers/STM32F4xx_HAL_Driver/Src/stm32f4xx_hal_tim_ex.c ****       /* Disable the TIM Capture/Compare 4 DMA request */
1244:Drivers/STM32F4xx_HAL_Driver/Src/stm32f4xx_hal_tim_ex.c ****       __HAL_TIM_DISABLE_DMA(htim, TIM_DMA_CC4);
 2602              		.loc 1 1244 0
 2603 0082 7B68     		ldr	r3, [r7, #4]
 2604 0084 1B68     		ldr	r3, [r3]
 2605 0086 7A68     		ldr	r2, [r7, #4]
 2606 0088 1268     		ldr	r2, [r2]
 2607 008a D268     		ldr	r2, [r2, #12]
 2608 008c 22F48052 		bic	r2, r2, #4096
 2609 0090 DA60     		str	r2, [r3, #12]
1245:Drivers/STM32F4xx_HAL_Driver/Src/stm32f4xx_hal_tim_ex.c ****     }
1246:Drivers/STM32F4xx_HAL_Driver/Src/stm32f4xx_hal_tim_ex.c ****     break;
 2610              		.loc 1 1246 0
 2611 0092 00E0     		b	.L137
 2612              	.L141:
1247:Drivers/STM32F4xx_HAL_Driver/Src/stm32f4xx_hal_tim_ex.c ****     
1248:Drivers/STM32F4xx_HAL_Driver/Src/stm32f4xx_hal_tim_ex.c ****     default:
1249:Drivers/STM32F4xx_HAL_Driver/Src/stm32f4xx_hal_tim_ex.c ****     break;
 2613              		.loc 1 1249 0
ARM GAS  /tmp/ccphsAb6.s 			page 68


 2614 0094 00BF     		nop
 2615              	.L137:
1250:Drivers/STM32F4xx_HAL_Driver/Src/stm32f4xx_hal_tim_ex.c ****   } 
1251:Drivers/STM32F4xx_HAL_Driver/Src/stm32f4xx_hal_tim_ex.c ****   
1252:Drivers/STM32F4xx_HAL_Driver/Src/stm32f4xx_hal_tim_ex.c ****   /* Disable the complementary PWM output */
1253:Drivers/STM32F4xx_HAL_Driver/Src/stm32f4xx_hal_tim_ex.c ****     TIM_CCxNChannelCmd(htim->Instance, Channel, TIM_CCxN_DISABLE);
 2616              		.loc 1 1253 0
 2617 0096 7B68     		ldr	r3, [r7, #4]
 2618 0098 1B68     		ldr	r3, [r3]
 2619 009a 0022     		movs	r2, #0
 2620 009c 3968     		ldr	r1, [r7]
 2621 009e 1846     		mov	r0, r3
 2622 00a0 FFF7FEFF 		bl	TIM_CCxNChannelCmd
1254:Drivers/STM32F4xx_HAL_Driver/Src/stm32f4xx_hal_tim_ex.c ****      
1255:Drivers/STM32F4xx_HAL_Driver/Src/stm32f4xx_hal_tim_ex.c ****   /* Disable the Main Output */
1256:Drivers/STM32F4xx_HAL_Driver/Src/stm32f4xx_hal_tim_ex.c ****     __HAL_TIM_MOE_DISABLE(htim);
 2623              		.loc 1 1256 0
 2624 00a4 7B68     		ldr	r3, [r7, #4]
 2625 00a6 1B68     		ldr	r3, [r3]
 2626 00a8 1A6A     		ldr	r2, [r3, #32]
 2627 00aa 41F21113 		movw	r3, #4369
 2628 00ae 1340     		ands	r3, r3, r2
 2629 00b0 002B     		cmp	r3, #0
 2630 00b2 0FD1     		bne	.L138
 2631              		.loc 1 1256 0 is_stmt 0 discriminator 1
 2632 00b4 7B68     		ldr	r3, [r7, #4]
 2633 00b6 1B68     		ldr	r3, [r3]
 2634 00b8 1A6A     		ldr	r2, [r3, #32]
 2635 00ba 40F24443 		movw	r3, #1092
 2636 00be 1340     		ands	r3, r3, r2
 2637 00c0 002B     		cmp	r3, #0
 2638 00c2 07D1     		bne	.L138
 2639              		.loc 1 1256 0 discriminator 2
 2640 00c4 7B68     		ldr	r3, [r7, #4]
 2641 00c6 1B68     		ldr	r3, [r3]
 2642 00c8 7A68     		ldr	r2, [r7, #4]
 2643 00ca 1268     		ldr	r2, [r2]
 2644 00cc 526C     		ldr	r2, [r2, #68]
 2645 00ce 22F40042 		bic	r2, r2, #32768
 2646 00d2 5A64     		str	r2, [r3, #68]
 2647              	.L138:
1257:Drivers/STM32F4xx_HAL_Driver/Src/stm32f4xx_hal_tim_ex.c **** 
1258:Drivers/STM32F4xx_HAL_Driver/Src/stm32f4xx_hal_tim_ex.c ****   /* Disable the Peripheral */
1259:Drivers/STM32F4xx_HAL_Driver/Src/stm32f4xx_hal_tim_ex.c ****   __HAL_TIM_DISABLE(htim);
 2648              		.loc 1 1259 0 is_stmt 1
 2649 00d4 7B68     		ldr	r3, [r7, #4]
 2650 00d6 1B68     		ldr	r3, [r3]
 2651 00d8 1A6A     		ldr	r2, [r3, #32]
 2652 00da 41F21113 		movw	r3, #4369
 2653 00de 1340     		ands	r3, r3, r2
 2654 00e0 002B     		cmp	r3, #0
 2655 00e2 0FD1     		bne	.L139
 2656              		.loc 1 1259 0 is_stmt 0 discriminator 1
 2657 00e4 7B68     		ldr	r3, [r7, #4]
 2658 00e6 1B68     		ldr	r3, [r3]
 2659 00e8 1A6A     		ldr	r2, [r3, #32]
 2660 00ea 40F24443 		movw	r3, #1092
ARM GAS  /tmp/ccphsAb6.s 			page 69


 2661 00ee 1340     		ands	r3, r3, r2
 2662 00f0 002B     		cmp	r3, #0
 2663 00f2 07D1     		bne	.L139
 2664              		.loc 1 1259 0 discriminator 2
 2665 00f4 7B68     		ldr	r3, [r7, #4]
 2666 00f6 1B68     		ldr	r3, [r3]
 2667 00f8 7A68     		ldr	r2, [r7, #4]
 2668 00fa 1268     		ldr	r2, [r2]
 2669 00fc 1268     		ldr	r2, [r2]
 2670 00fe 22F00102 		bic	r2, r2, #1
 2671 0102 1A60     		str	r2, [r3]
 2672              	.L139:
1260:Drivers/STM32F4xx_HAL_Driver/Src/stm32f4xx_hal_tim_ex.c ****   
1261:Drivers/STM32F4xx_HAL_Driver/Src/stm32f4xx_hal_tim_ex.c ****   /* Change the htim state */
1262:Drivers/STM32F4xx_HAL_Driver/Src/stm32f4xx_hal_tim_ex.c ****   htim->State = HAL_TIM_STATE_READY;
 2673              		.loc 1 1262 0 is_stmt 1
 2674 0104 7B68     		ldr	r3, [r7, #4]
 2675 0106 0122     		movs	r2, #1
 2676 0108 83F83920 		strb	r2, [r3, #57]
1263:Drivers/STM32F4xx_HAL_Driver/Src/stm32f4xx_hal_tim_ex.c ****   
1264:Drivers/STM32F4xx_HAL_Driver/Src/stm32f4xx_hal_tim_ex.c ****   /* Return function status */
1265:Drivers/STM32F4xx_HAL_Driver/Src/stm32f4xx_hal_tim_ex.c ****   return HAL_OK;
 2677              		.loc 1 1265 0
 2678 010c 0023     		movs	r3, #0
1266:Drivers/STM32F4xx_HAL_Driver/Src/stm32f4xx_hal_tim_ex.c **** }
 2679              		.loc 1 1266 0
 2680 010e 1846     		mov	r0, r3
 2681 0110 0837     		adds	r7, r7, #8
 2682              	.LCFI110:
 2683              		.cfi_def_cfa_offset 8
 2684 0112 BD46     		mov	sp, r7
 2685              	.LCFI111:
 2686              		.cfi_def_cfa_register 13
 2687              		@ sp needed
 2688 0114 80BD     		pop	{r7, pc}
 2689              		.cfi_endproc
 2690              	.LFE145:
 2692 0116 00BF     		.section	.text.HAL_TIMEx_OnePulseN_Start,"ax",%progbits
 2693              		.align	1
 2694              		.global	HAL_TIMEx_OnePulseN_Start
 2695              		.syntax unified
 2696              		.thumb
 2697              		.thumb_func
 2698              		.fpu fpv4-sp-d16
 2700              	HAL_TIMEx_OnePulseN_Start:
 2701              	.LFB146:
1267:Drivers/STM32F4xx_HAL_Driver/Src/stm32f4xx_hal_tim_ex.c **** 
1268:Drivers/STM32F4xx_HAL_Driver/Src/stm32f4xx_hal_tim_ex.c **** /**
1269:Drivers/STM32F4xx_HAL_Driver/Src/stm32f4xx_hal_tim_ex.c ****   * @}
1270:Drivers/STM32F4xx_HAL_Driver/Src/stm32f4xx_hal_tim_ex.c ****   */
1271:Drivers/STM32F4xx_HAL_Driver/Src/stm32f4xx_hal_tim_ex.c ****   
1272:Drivers/STM32F4xx_HAL_Driver/Src/stm32f4xx_hal_tim_ex.c **** /** @defgroup TIMEx_Exported_Functions_Group4 Timer Complementary One Pulse functions
1273:Drivers/STM32F4xx_HAL_Driver/Src/stm32f4xx_hal_tim_ex.c ****  *  @brief    Timer Complementary One Pulse functions 
1274:Drivers/STM32F4xx_HAL_Driver/Src/stm32f4xx_hal_tim_ex.c ****  *
1275:Drivers/STM32F4xx_HAL_Driver/Src/stm32f4xx_hal_tim_ex.c **** @verbatim   
1276:Drivers/STM32F4xx_HAL_Driver/Src/stm32f4xx_hal_tim_ex.c ****   ==============================================================================
1277:Drivers/STM32F4xx_HAL_Driver/Src/stm32f4xx_hal_tim_ex.c ****                 ##### Timer Complementary One Pulse functions #####
ARM GAS  /tmp/ccphsAb6.s 			page 70


1278:Drivers/STM32F4xx_HAL_Driver/Src/stm32f4xx_hal_tim_ex.c ****   ==============================================================================  
1279:Drivers/STM32F4xx_HAL_Driver/Src/stm32f4xx_hal_tim_ex.c ****   [..]  
1280:Drivers/STM32F4xx_HAL_Driver/Src/stm32f4xx_hal_tim_ex.c ****     This section provides functions allowing to:
1281:Drivers/STM32F4xx_HAL_Driver/Src/stm32f4xx_hal_tim_ex.c ****     (+) Start the Complementary One Pulse generation.
1282:Drivers/STM32F4xx_HAL_Driver/Src/stm32f4xx_hal_tim_ex.c ****     (+) Stop the Complementary One Pulse.
1283:Drivers/STM32F4xx_HAL_Driver/Src/stm32f4xx_hal_tim_ex.c ****     (+) Start the Complementary One Pulse and enable interrupts.
1284:Drivers/STM32F4xx_HAL_Driver/Src/stm32f4xx_hal_tim_ex.c ****     (+) Stop the Complementary One Pulse and disable interrupts.
1285:Drivers/STM32F4xx_HAL_Driver/Src/stm32f4xx_hal_tim_ex.c ****                
1286:Drivers/STM32F4xx_HAL_Driver/Src/stm32f4xx_hal_tim_ex.c **** @endverbatim
1287:Drivers/STM32F4xx_HAL_Driver/Src/stm32f4xx_hal_tim_ex.c ****   * @{
1288:Drivers/STM32F4xx_HAL_Driver/Src/stm32f4xx_hal_tim_ex.c ****   */
1289:Drivers/STM32F4xx_HAL_Driver/Src/stm32f4xx_hal_tim_ex.c **** 
1290:Drivers/STM32F4xx_HAL_Driver/Src/stm32f4xx_hal_tim_ex.c **** /**
1291:Drivers/STM32F4xx_HAL_Driver/Src/stm32f4xx_hal_tim_ex.c ****   * @brief  Starts the TIM One Pulse signal generation on the complementary 
1292:Drivers/STM32F4xx_HAL_Driver/Src/stm32f4xx_hal_tim_ex.c ****   *         output.
1293:Drivers/STM32F4xx_HAL_Driver/Src/stm32f4xx_hal_tim_ex.c ****   * @param  htim pointer to a TIM_HandleTypeDef structure that contains
1294:Drivers/STM32F4xx_HAL_Driver/Src/stm32f4xx_hal_tim_ex.c ****   *                the configuration information for TIM module.
1295:Drivers/STM32F4xx_HAL_Driver/Src/stm32f4xx_hal_tim_ex.c ****   * @param  OutputChannel TIM Channel to be enabled.
1296:Drivers/STM32F4xx_HAL_Driver/Src/stm32f4xx_hal_tim_ex.c ****   *          This parameter can be one of the following values:
1297:Drivers/STM32F4xx_HAL_Driver/Src/stm32f4xx_hal_tim_ex.c ****   *            @arg TIM_CHANNEL_1: TIM Channel 1 selected
1298:Drivers/STM32F4xx_HAL_Driver/Src/stm32f4xx_hal_tim_ex.c ****   *            @arg TIM_CHANNEL_2: TIM Channel 2 selected
1299:Drivers/STM32F4xx_HAL_Driver/Src/stm32f4xx_hal_tim_ex.c ****   * @retval HAL status
1300:Drivers/STM32F4xx_HAL_Driver/Src/stm32f4xx_hal_tim_ex.c ****   */
1301:Drivers/STM32F4xx_HAL_Driver/Src/stm32f4xx_hal_tim_ex.c **** HAL_StatusTypeDef HAL_TIMEx_OnePulseN_Start(TIM_HandleTypeDef *htim, uint32_t OutputChannel)
1302:Drivers/STM32F4xx_HAL_Driver/Src/stm32f4xx_hal_tim_ex.c ****   {
 2702              		.loc 1 1302 0
 2703              		.cfi_startproc
 2704              		@ args = 0, pretend = 0, frame = 8
 2705              		@ frame_needed = 1, uses_anonymous_args = 0
 2706 0000 80B5     		push	{r7, lr}
 2707              	.LCFI112:
 2708              		.cfi_def_cfa_offset 8
 2709              		.cfi_offset 7, -8
 2710              		.cfi_offset 14, -4
 2711 0002 82B0     		sub	sp, sp, #8
 2712              	.LCFI113:
 2713              		.cfi_def_cfa_offset 16
 2714 0004 00AF     		add	r7, sp, #0
 2715              	.LCFI114:
 2716              		.cfi_def_cfa_register 7
 2717 0006 7860     		str	r0, [r7, #4]
 2718 0008 3960     		str	r1, [r7]
1303:Drivers/STM32F4xx_HAL_Driver/Src/stm32f4xx_hal_tim_ex.c ****   /* Check the parameters */
1304:Drivers/STM32F4xx_HAL_Driver/Src/stm32f4xx_hal_tim_ex.c ****   assert_param(IS_TIM_CCXN_INSTANCE(htim->Instance, OutputChannel)); 
1305:Drivers/STM32F4xx_HAL_Driver/Src/stm32f4xx_hal_tim_ex.c ****   
1306:Drivers/STM32F4xx_HAL_Driver/Src/stm32f4xx_hal_tim_ex.c ****   /* Enable the complementary One Pulse output */
1307:Drivers/STM32F4xx_HAL_Driver/Src/stm32f4xx_hal_tim_ex.c ****   TIM_CCxNChannelCmd(htim->Instance, OutputChannel, TIM_CCxN_ENABLE); 
 2719              		.loc 1 1307 0
 2720 000a 7B68     		ldr	r3, [r7, #4]
 2721 000c 1B68     		ldr	r3, [r3]
 2722 000e 0422     		movs	r2, #4
 2723 0010 3968     		ldr	r1, [r7]
 2724 0012 1846     		mov	r0, r3
 2725 0014 FFF7FEFF 		bl	TIM_CCxNChannelCmd
1308:Drivers/STM32F4xx_HAL_Driver/Src/stm32f4xx_hal_tim_ex.c ****   
1309:Drivers/STM32F4xx_HAL_Driver/Src/stm32f4xx_hal_tim_ex.c ****   /* Enable the Main Output */
1310:Drivers/STM32F4xx_HAL_Driver/Src/stm32f4xx_hal_tim_ex.c ****   __HAL_TIM_MOE_ENABLE(htim);
ARM GAS  /tmp/ccphsAb6.s 			page 71


 2726              		.loc 1 1310 0
 2727 0018 7B68     		ldr	r3, [r7, #4]
 2728 001a 1B68     		ldr	r3, [r3]
 2729 001c 7A68     		ldr	r2, [r7, #4]
 2730 001e 1268     		ldr	r2, [r2]
 2731 0020 526C     		ldr	r2, [r2, #68]
 2732 0022 42F40042 		orr	r2, r2, #32768
 2733 0026 5A64     		str	r2, [r3, #68]
1311:Drivers/STM32F4xx_HAL_Driver/Src/stm32f4xx_hal_tim_ex.c ****   
1312:Drivers/STM32F4xx_HAL_Driver/Src/stm32f4xx_hal_tim_ex.c ****   /* Return function status */
1313:Drivers/STM32F4xx_HAL_Driver/Src/stm32f4xx_hal_tim_ex.c ****   return HAL_OK;
 2734              		.loc 1 1313 0
 2735 0028 0023     		movs	r3, #0
1314:Drivers/STM32F4xx_HAL_Driver/Src/stm32f4xx_hal_tim_ex.c **** }
 2736              		.loc 1 1314 0
 2737 002a 1846     		mov	r0, r3
 2738 002c 0837     		adds	r7, r7, #8
 2739              	.LCFI115:
 2740              		.cfi_def_cfa_offset 8
 2741 002e BD46     		mov	sp, r7
 2742              	.LCFI116:
 2743              		.cfi_def_cfa_register 13
 2744              		@ sp needed
 2745 0030 80BD     		pop	{r7, pc}
 2746              		.cfi_endproc
 2747              	.LFE146:
 2749              		.section	.text.HAL_TIMEx_OnePulseN_Stop,"ax",%progbits
 2750              		.align	1
 2751              		.global	HAL_TIMEx_OnePulseN_Stop
 2752              		.syntax unified
 2753              		.thumb
 2754              		.thumb_func
 2755              		.fpu fpv4-sp-d16
 2757              	HAL_TIMEx_OnePulseN_Stop:
 2758              	.LFB147:
1315:Drivers/STM32F4xx_HAL_Driver/Src/stm32f4xx_hal_tim_ex.c **** 
1316:Drivers/STM32F4xx_HAL_Driver/Src/stm32f4xx_hal_tim_ex.c **** /**
1317:Drivers/STM32F4xx_HAL_Driver/Src/stm32f4xx_hal_tim_ex.c ****   * @brief  Stops the TIM One Pulse signal generation on the complementary 
1318:Drivers/STM32F4xx_HAL_Driver/Src/stm32f4xx_hal_tim_ex.c ****   *         output.
1319:Drivers/STM32F4xx_HAL_Driver/Src/stm32f4xx_hal_tim_ex.c ****   * @param  htim pointer to a TIM_HandleTypeDef structure that contains
1320:Drivers/STM32F4xx_HAL_Driver/Src/stm32f4xx_hal_tim_ex.c ****   *                the configuration information for TIM module.
1321:Drivers/STM32F4xx_HAL_Driver/Src/stm32f4xx_hal_tim_ex.c ****   * @param  OutputChannel TIM Channel to be disabled.
1322:Drivers/STM32F4xx_HAL_Driver/Src/stm32f4xx_hal_tim_ex.c ****   *          This parameter can be one of the following values:
1323:Drivers/STM32F4xx_HAL_Driver/Src/stm32f4xx_hal_tim_ex.c ****   *            @arg TIM_CHANNEL_1: TIM Channel 1 selected
1324:Drivers/STM32F4xx_HAL_Driver/Src/stm32f4xx_hal_tim_ex.c ****   *            @arg TIM_CHANNEL_2: TIM Channel 2 selected
1325:Drivers/STM32F4xx_HAL_Driver/Src/stm32f4xx_hal_tim_ex.c ****   * @retval HAL status
1326:Drivers/STM32F4xx_HAL_Driver/Src/stm32f4xx_hal_tim_ex.c ****   */
1327:Drivers/STM32F4xx_HAL_Driver/Src/stm32f4xx_hal_tim_ex.c **** HAL_StatusTypeDef HAL_TIMEx_OnePulseN_Stop(TIM_HandleTypeDef *htim, uint32_t OutputChannel)
1328:Drivers/STM32F4xx_HAL_Driver/Src/stm32f4xx_hal_tim_ex.c **** {
 2759              		.loc 1 1328 0
 2760              		.cfi_startproc
 2761              		@ args = 0, pretend = 0, frame = 8
 2762              		@ frame_needed = 1, uses_anonymous_args = 0
 2763 0000 80B5     		push	{r7, lr}
 2764              	.LCFI117:
 2765              		.cfi_def_cfa_offset 8
 2766              		.cfi_offset 7, -8
ARM GAS  /tmp/ccphsAb6.s 			page 72


 2767              		.cfi_offset 14, -4
 2768 0002 82B0     		sub	sp, sp, #8
 2769              	.LCFI118:
 2770              		.cfi_def_cfa_offset 16
 2771 0004 00AF     		add	r7, sp, #0
 2772              	.LCFI119:
 2773              		.cfi_def_cfa_register 7
 2774 0006 7860     		str	r0, [r7, #4]
 2775 0008 3960     		str	r1, [r7]
1329:Drivers/STM32F4xx_HAL_Driver/Src/stm32f4xx_hal_tim_ex.c **** 
1330:Drivers/STM32F4xx_HAL_Driver/Src/stm32f4xx_hal_tim_ex.c ****   /* Check the parameters */
1331:Drivers/STM32F4xx_HAL_Driver/Src/stm32f4xx_hal_tim_ex.c ****   assert_param(IS_TIM_CCXN_INSTANCE(htim->Instance, OutputChannel)); 
1332:Drivers/STM32F4xx_HAL_Driver/Src/stm32f4xx_hal_tim_ex.c **** 
1333:Drivers/STM32F4xx_HAL_Driver/Src/stm32f4xx_hal_tim_ex.c ****   /* Disable the complementary One Pulse output */
1334:Drivers/STM32F4xx_HAL_Driver/Src/stm32f4xx_hal_tim_ex.c ****     TIM_CCxNChannelCmd(htim->Instance, OutputChannel, TIM_CCxN_DISABLE);
 2776              		.loc 1 1334 0
 2777 000a 7B68     		ldr	r3, [r7, #4]
 2778 000c 1B68     		ldr	r3, [r3]
 2779 000e 0022     		movs	r2, #0
 2780 0010 3968     		ldr	r1, [r7]
 2781 0012 1846     		mov	r0, r3
 2782 0014 FFF7FEFF 		bl	TIM_CCxNChannelCmd
1335:Drivers/STM32F4xx_HAL_Driver/Src/stm32f4xx_hal_tim_ex.c ****   
1336:Drivers/STM32F4xx_HAL_Driver/Src/stm32f4xx_hal_tim_ex.c ****   /* Disable the Main Output */
1337:Drivers/STM32F4xx_HAL_Driver/Src/stm32f4xx_hal_tim_ex.c ****     __HAL_TIM_MOE_DISABLE(htim);
 2783              		.loc 1 1337 0
 2784 0018 7B68     		ldr	r3, [r7, #4]
 2785 001a 1B68     		ldr	r3, [r3]
 2786 001c 1A6A     		ldr	r2, [r3, #32]
 2787 001e 41F21113 		movw	r3, #4369
 2788 0022 1340     		ands	r3, r3, r2
 2789 0024 002B     		cmp	r3, #0
 2790 0026 0FD1     		bne	.L145
 2791              		.loc 1 1337 0 is_stmt 0 discriminator 1
 2792 0028 7B68     		ldr	r3, [r7, #4]
 2793 002a 1B68     		ldr	r3, [r3]
 2794 002c 1A6A     		ldr	r2, [r3, #32]
 2795 002e 40F24443 		movw	r3, #1092
 2796 0032 1340     		ands	r3, r3, r2
 2797 0034 002B     		cmp	r3, #0
 2798 0036 07D1     		bne	.L145
 2799              		.loc 1 1337 0 discriminator 2
 2800 0038 7B68     		ldr	r3, [r7, #4]
 2801 003a 1B68     		ldr	r3, [r3]
 2802 003c 7A68     		ldr	r2, [r7, #4]
 2803 003e 1268     		ldr	r2, [r2]
 2804 0040 526C     		ldr	r2, [r2, #68]
 2805 0042 22F40042 		bic	r2, r2, #32768
 2806 0046 5A64     		str	r2, [r3, #68]
 2807              	.L145:
1338:Drivers/STM32F4xx_HAL_Driver/Src/stm32f4xx_hal_tim_ex.c ****   
1339:Drivers/STM32F4xx_HAL_Driver/Src/stm32f4xx_hal_tim_ex.c ****   /* Disable the Peripheral */
1340:Drivers/STM32F4xx_HAL_Driver/Src/stm32f4xx_hal_tim_ex.c ****   __HAL_TIM_DISABLE(htim); 
 2808              		.loc 1 1340 0 is_stmt 1
 2809 0048 7B68     		ldr	r3, [r7, #4]
 2810 004a 1B68     		ldr	r3, [r3]
 2811 004c 1A6A     		ldr	r2, [r3, #32]
ARM GAS  /tmp/ccphsAb6.s 			page 73


 2812 004e 41F21113 		movw	r3, #4369
 2813 0052 1340     		ands	r3, r3, r2
 2814 0054 002B     		cmp	r3, #0
 2815 0056 0FD1     		bne	.L146
 2816              		.loc 1 1340 0 is_stmt 0 discriminator 1
 2817 0058 7B68     		ldr	r3, [r7, #4]
 2818 005a 1B68     		ldr	r3, [r3]
 2819 005c 1A6A     		ldr	r2, [r3, #32]
 2820 005e 40F24443 		movw	r3, #1092
 2821 0062 1340     		ands	r3, r3, r2
 2822 0064 002B     		cmp	r3, #0
 2823 0066 07D1     		bne	.L146
 2824              		.loc 1 1340 0 discriminator 2
 2825 0068 7B68     		ldr	r3, [r7, #4]
 2826 006a 1B68     		ldr	r3, [r3]
 2827 006c 7A68     		ldr	r2, [r7, #4]
 2828 006e 1268     		ldr	r2, [r2]
 2829 0070 1268     		ldr	r2, [r2]
 2830 0072 22F00102 		bic	r2, r2, #1
 2831 0076 1A60     		str	r2, [r3]
 2832              	.L146:
1341:Drivers/STM32F4xx_HAL_Driver/Src/stm32f4xx_hal_tim_ex.c ****    
1342:Drivers/STM32F4xx_HAL_Driver/Src/stm32f4xx_hal_tim_ex.c ****   /* Return function status */
1343:Drivers/STM32F4xx_HAL_Driver/Src/stm32f4xx_hal_tim_ex.c ****   return HAL_OK;
 2833              		.loc 1 1343 0 is_stmt 1
 2834 0078 0023     		movs	r3, #0
1344:Drivers/STM32F4xx_HAL_Driver/Src/stm32f4xx_hal_tim_ex.c **** }
 2835              		.loc 1 1344 0
 2836 007a 1846     		mov	r0, r3
 2837 007c 0837     		adds	r7, r7, #8
 2838              	.LCFI120:
 2839              		.cfi_def_cfa_offset 8
 2840 007e BD46     		mov	sp, r7
 2841              	.LCFI121:
 2842              		.cfi_def_cfa_register 13
 2843              		@ sp needed
 2844 0080 80BD     		pop	{r7, pc}
 2845              		.cfi_endproc
 2846              	.LFE147:
 2848              		.section	.text.HAL_TIMEx_OnePulseN_Start_IT,"ax",%progbits
 2849              		.align	1
 2850              		.global	HAL_TIMEx_OnePulseN_Start_IT
 2851              		.syntax unified
 2852              		.thumb
 2853              		.thumb_func
 2854              		.fpu fpv4-sp-d16
 2856              	HAL_TIMEx_OnePulseN_Start_IT:
 2857              	.LFB148:
1345:Drivers/STM32F4xx_HAL_Driver/Src/stm32f4xx_hal_tim_ex.c **** 
1346:Drivers/STM32F4xx_HAL_Driver/Src/stm32f4xx_hal_tim_ex.c **** /**
1347:Drivers/STM32F4xx_HAL_Driver/Src/stm32f4xx_hal_tim_ex.c ****   * @brief  Starts the TIM One Pulse signal generation in interrupt mode on the
1348:Drivers/STM32F4xx_HAL_Driver/Src/stm32f4xx_hal_tim_ex.c ****   *         complementary channel.
1349:Drivers/STM32F4xx_HAL_Driver/Src/stm32f4xx_hal_tim_ex.c ****   * @param  htim pointer to a TIM_HandleTypeDef structure that contains
1350:Drivers/STM32F4xx_HAL_Driver/Src/stm32f4xx_hal_tim_ex.c ****   *                the configuration information for TIM module.
1351:Drivers/STM32F4xx_HAL_Driver/Src/stm32f4xx_hal_tim_ex.c ****   * @param  OutputChannel TIM Channel to be enabled.
1352:Drivers/STM32F4xx_HAL_Driver/Src/stm32f4xx_hal_tim_ex.c ****   *          This parameter can be one of the following values:
1353:Drivers/STM32F4xx_HAL_Driver/Src/stm32f4xx_hal_tim_ex.c ****   *            @arg TIM_CHANNEL_1: TIM Channel 1 selected
ARM GAS  /tmp/ccphsAb6.s 			page 74


1354:Drivers/STM32F4xx_HAL_Driver/Src/stm32f4xx_hal_tim_ex.c ****   *            @arg TIM_CHANNEL_2: TIM Channel 2 selected
1355:Drivers/STM32F4xx_HAL_Driver/Src/stm32f4xx_hal_tim_ex.c ****   * @retval HAL status
1356:Drivers/STM32F4xx_HAL_Driver/Src/stm32f4xx_hal_tim_ex.c ****   */
1357:Drivers/STM32F4xx_HAL_Driver/Src/stm32f4xx_hal_tim_ex.c **** HAL_StatusTypeDef HAL_TIMEx_OnePulseN_Start_IT(TIM_HandleTypeDef *htim, uint32_t OutputChannel)
1358:Drivers/STM32F4xx_HAL_Driver/Src/stm32f4xx_hal_tim_ex.c **** {
 2858              		.loc 1 1358 0
 2859              		.cfi_startproc
 2860              		@ args = 0, pretend = 0, frame = 8
 2861              		@ frame_needed = 1, uses_anonymous_args = 0
 2862 0000 80B5     		push	{r7, lr}
 2863              	.LCFI122:
 2864              		.cfi_def_cfa_offset 8
 2865              		.cfi_offset 7, -8
 2866              		.cfi_offset 14, -4
 2867 0002 82B0     		sub	sp, sp, #8
 2868              	.LCFI123:
 2869              		.cfi_def_cfa_offset 16
 2870 0004 00AF     		add	r7, sp, #0
 2871              	.LCFI124:
 2872              		.cfi_def_cfa_register 7
 2873 0006 7860     		str	r0, [r7, #4]
 2874 0008 3960     		str	r1, [r7]
1359:Drivers/STM32F4xx_HAL_Driver/Src/stm32f4xx_hal_tim_ex.c ****   /* Check the parameters */
1360:Drivers/STM32F4xx_HAL_Driver/Src/stm32f4xx_hal_tim_ex.c ****   assert_param(IS_TIM_CCXN_INSTANCE(htim->Instance, OutputChannel)); 
1361:Drivers/STM32F4xx_HAL_Driver/Src/stm32f4xx_hal_tim_ex.c **** 
1362:Drivers/STM32F4xx_HAL_Driver/Src/stm32f4xx_hal_tim_ex.c ****   /* Enable the TIM Capture/Compare 1 interrupt */
1363:Drivers/STM32F4xx_HAL_Driver/Src/stm32f4xx_hal_tim_ex.c ****   __HAL_TIM_ENABLE_IT(htim, TIM_IT_CC1);
 2875              		.loc 1 1363 0
 2876 000a 7B68     		ldr	r3, [r7, #4]
 2877 000c 1B68     		ldr	r3, [r3]
 2878 000e 7A68     		ldr	r2, [r7, #4]
 2879 0010 1268     		ldr	r2, [r2]
 2880 0012 D268     		ldr	r2, [r2, #12]
 2881 0014 42F00202 		orr	r2, r2, #2
 2882 0018 DA60     		str	r2, [r3, #12]
1364:Drivers/STM32F4xx_HAL_Driver/Src/stm32f4xx_hal_tim_ex.c ****   
1365:Drivers/STM32F4xx_HAL_Driver/Src/stm32f4xx_hal_tim_ex.c ****   /* Enable the TIM Capture/Compare 2 interrupt */
1366:Drivers/STM32F4xx_HAL_Driver/Src/stm32f4xx_hal_tim_ex.c ****   __HAL_TIM_ENABLE_IT(htim, TIM_IT_CC2);
 2883              		.loc 1 1366 0
 2884 001a 7B68     		ldr	r3, [r7, #4]
 2885 001c 1B68     		ldr	r3, [r3]
 2886 001e 7A68     		ldr	r2, [r7, #4]
 2887 0020 1268     		ldr	r2, [r2]
 2888 0022 D268     		ldr	r2, [r2, #12]
 2889 0024 42F00402 		orr	r2, r2, #4
 2890 0028 DA60     		str	r2, [r3, #12]
1367:Drivers/STM32F4xx_HAL_Driver/Src/stm32f4xx_hal_tim_ex.c ****   
1368:Drivers/STM32F4xx_HAL_Driver/Src/stm32f4xx_hal_tim_ex.c ****   /* Enable the complementary One Pulse output */
1369:Drivers/STM32F4xx_HAL_Driver/Src/stm32f4xx_hal_tim_ex.c ****   TIM_CCxNChannelCmd(htim->Instance, OutputChannel, TIM_CCxN_ENABLE); 
 2891              		.loc 1 1369 0
 2892 002a 7B68     		ldr	r3, [r7, #4]
 2893 002c 1B68     		ldr	r3, [r3]
 2894 002e 0422     		movs	r2, #4
 2895 0030 3968     		ldr	r1, [r7]
 2896 0032 1846     		mov	r0, r3
 2897 0034 FFF7FEFF 		bl	TIM_CCxNChannelCmd
1370:Drivers/STM32F4xx_HAL_Driver/Src/stm32f4xx_hal_tim_ex.c ****   
ARM GAS  /tmp/ccphsAb6.s 			page 75


1371:Drivers/STM32F4xx_HAL_Driver/Src/stm32f4xx_hal_tim_ex.c ****   /* Enable the Main Output */
1372:Drivers/STM32F4xx_HAL_Driver/Src/stm32f4xx_hal_tim_ex.c ****   __HAL_TIM_MOE_ENABLE(htim);
 2898              		.loc 1 1372 0
 2899 0038 7B68     		ldr	r3, [r7, #4]
 2900 003a 1B68     		ldr	r3, [r3]
 2901 003c 7A68     		ldr	r2, [r7, #4]
 2902 003e 1268     		ldr	r2, [r2]
 2903 0040 526C     		ldr	r2, [r2, #68]
 2904 0042 42F40042 		orr	r2, r2, #32768
 2905 0046 5A64     		str	r2, [r3, #68]
1373:Drivers/STM32F4xx_HAL_Driver/Src/stm32f4xx_hal_tim_ex.c ****   
1374:Drivers/STM32F4xx_HAL_Driver/Src/stm32f4xx_hal_tim_ex.c ****   /* Return function status */
1375:Drivers/STM32F4xx_HAL_Driver/Src/stm32f4xx_hal_tim_ex.c ****   return HAL_OK;
 2906              		.loc 1 1375 0
 2907 0048 0023     		movs	r3, #0
1376:Drivers/STM32F4xx_HAL_Driver/Src/stm32f4xx_hal_tim_ex.c ****   } 
 2908              		.loc 1 1376 0
 2909 004a 1846     		mov	r0, r3
 2910 004c 0837     		adds	r7, r7, #8
 2911              	.LCFI125:
 2912              		.cfi_def_cfa_offset 8
 2913 004e BD46     		mov	sp, r7
 2914              	.LCFI126:
 2915              		.cfi_def_cfa_register 13
 2916              		@ sp needed
 2917 0050 80BD     		pop	{r7, pc}
 2918              		.cfi_endproc
 2919              	.LFE148:
 2921              		.section	.text.HAL_TIMEx_OnePulseN_Stop_IT,"ax",%progbits
 2922              		.align	1
 2923              		.global	HAL_TIMEx_OnePulseN_Stop_IT
 2924              		.syntax unified
 2925              		.thumb
 2926              		.thumb_func
 2927              		.fpu fpv4-sp-d16
 2929              	HAL_TIMEx_OnePulseN_Stop_IT:
 2930              	.LFB149:
1377:Drivers/STM32F4xx_HAL_Driver/Src/stm32f4xx_hal_tim_ex.c ****   
1378:Drivers/STM32F4xx_HAL_Driver/Src/stm32f4xx_hal_tim_ex.c **** /**
1379:Drivers/STM32F4xx_HAL_Driver/Src/stm32f4xx_hal_tim_ex.c ****   * @brief  Stops the TIM One Pulse signal generation in interrupt mode on the
1380:Drivers/STM32F4xx_HAL_Driver/Src/stm32f4xx_hal_tim_ex.c ****   *         complementary channel.
1381:Drivers/STM32F4xx_HAL_Driver/Src/stm32f4xx_hal_tim_ex.c ****   * @param  htim pointer to a TIM_HandleTypeDef structure that contains
1382:Drivers/STM32F4xx_HAL_Driver/Src/stm32f4xx_hal_tim_ex.c ****   *                the configuration information for TIM module.
1383:Drivers/STM32F4xx_HAL_Driver/Src/stm32f4xx_hal_tim_ex.c ****   * @param  OutputChannel TIM Channel to be disabled.
1384:Drivers/STM32F4xx_HAL_Driver/Src/stm32f4xx_hal_tim_ex.c ****   *          This parameter can be one of the following values:
1385:Drivers/STM32F4xx_HAL_Driver/Src/stm32f4xx_hal_tim_ex.c ****   *            @arg TIM_CHANNEL_1: TIM Channel 1 selected
1386:Drivers/STM32F4xx_HAL_Driver/Src/stm32f4xx_hal_tim_ex.c ****   *            @arg TIM_CHANNEL_2: TIM Channel 2 selected
1387:Drivers/STM32F4xx_HAL_Driver/Src/stm32f4xx_hal_tim_ex.c ****   * @retval HAL status
1388:Drivers/STM32F4xx_HAL_Driver/Src/stm32f4xx_hal_tim_ex.c ****   */
1389:Drivers/STM32F4xx_HAL_Driver/Src/stm32f4xx_hal_tim_ex.c **** HAL_StatusTypeDef HAL_TIMEx_OnePulseN_Stop_IT(TIM_HandleTypeDef *htim, uint32_t OutputChannel)
1390:Drivers/STM32F4xx_HAL_Driver/Src/stm32f4xx_hal_tim_ex.c **** {
 2931              		.loc 1 1390 0
 2932              		.cfi_startproc
 2933              		@ args = 0, pretend = 0, frame = 8
 2934              		@ frame_needed = 1, uses_anonymous_args = 0
 2935 0000 80B5     		push	{r7, lr}
 2936              	.LCFI127:
ARM GAS  /tmp/ccphsAb6.s 			page 76


 2937              		.cfi_def_cfa_offset 8
 2938              		.cfi_offset 7, -8
 2939              		.cfi_offset 14, -4
 2940 0002 82B0     		sub	sp, sp, #8
 2941              	.LCFI128:
 2942              		.cfi_def_cfa_offset 16
 2943 0004 00AF     		add	r7, sp, #0
 2944              	.LCFI129:
 2945              		.cfi_def_cfa_register 7
 2946 0006 7860     		str	r0, [r7, #4]
 2947 0008 3960     		str	r1, [r7]
1391:Drivers/STM32F4xx_HAL_Driver/Src/stm32f4xx_hal_tim_ex.c ****   /* Check the parameters */
1392:Drivers/STM32F4xx_HAL_Driver/Src/stm32f4xx_hal_tim_ex.c ****   assert_param(IS_TIM_CCXN_INSTANCE(htim->Instance, OutputChannel)); 
1393:Drivers/STM32F4xx_HAL_Driver/Src/stm32f4xx_hal_tim_ex.c **** 
1394:Drivers/STM32F4xx_HAL_Driver/Src/stm32f4xx_hal_tim_ex.c ****   /* Disable the TIM Capture/Compare 1 interrupt */
1395:Drivers/STM32F4xx_HAL_Driver/Src/stm32f4xx_hal_tim_ex.c ****   __HAL_TIM_DISABLE_IT(htim, TIM_IT_CC1);
 2948              		.loc 1 1395 0
 2949 000a 7B68     		ldr	r3, [r7, #4]
 2950 000c 1B68     		ldr	r3, [r3]
 2951 000e 7A68     		ldr	r2, [r7, #4]
 2952 0010 1268     		ldr	r2, [r2]
 2953 0012 D268     		ldr	r2, [r2, #12]
 2954 0014 22F00202 		bic	r2, r2, #2
 2955 0018 DA60     		str	r2, [r3, #12]
1396:Drivers/STM32F4xx_HAL_Driver/Src/stm32f4xx_hal_tim_ex.c ****   
1397:Drivers/STM32F4xx_HAL_Driver/Src/stm32f4xx_hal_tim_ex.c ****   /* Disable the TIM Capture/Compare 2 interrupt */
1398:Drivers/STM32F4xx_HAL_Driver/Src/stm32f4xx_hal_tim_ex.c ****   __HAL_TIM_DISABLE_IT(htim, TIM_IT_CC2);
 2956              		.loc 1 1398 0
 2957 001a 7B68     		ldr	r3, [r7, #4]
 2958 001c 1B68     		ldr	r3, [r3]
 2959 001e 7A68     		ldr	r2, [r7, #4]
 2960 0020 1268     		ldr	r2, [r2]
 2961 0022 D268     		ldr	r2, [r2, #12]
 2962 0024 22F00402 		bic	r2, r2, #4
 2963 0028 DA60     		str	r2, [r3, #12]
1399:Drivers/STM32F4xx_HAL_Driver/Src/stm32f4xx_hal_tim_ex.c ****   
1400:Drivers/STM32F4xx_HAL_Driver/Src/stm32f4xx_hal_tim_ex.c ****   /* Disable the complementary One Pulse output */
