ARM GAS  /tmp/cc4tSQEQ.s 			page 1


   1              		.cpu cortex-m4
   2              		.eabi_attribute 27, 1
   3              		.eabi_attribute 28, 1
   4              		.eabi_attribute 20, 1
   5              		.eabi_attribute 21, 1
   6              		.eabi_attribute 23, 3
   7              		.eabi_attribute 24, 1
   8              		.eabi_attribute 25, 1
   9              		.eabi_attribute 26, 1
  10              		.eabi_attribute 30, 6
  11              		.eabi_attribute 34, 1
  12              		.eabi_attribute 18, 4
  13              		.file	"stm32f4xx_hal_tim.c"
  14              		.text
  15              	.Ltext0:
  16              		.cfi_sections	.debug_frame
  17              		.section	.text.HAL_TIM_Base_Init,"ax",%progbits
  18              		.align	1
  19              		.global	HAL_TIM_Base_Init
  20              		.syntax unified
  21              		.thumb
  22              		.thumb_func
  23              		.fpu fpv4-sp-d16
  25              	HAL_TIM_Base_Init:
  26              	.LFB124:
  27              		.file 1 "Drivers/STM32F4xx_HAL_Driver/Src/stm32f4xx_hal_tim.c"
   1:Drivers/STM32F4xx_HAL_Driver/Src/stm32f4xx_hal_tim.c **** /**
   2:Drivers/STM32F4xx_HAL_Driver/Src/stm32f4xx_hal_tim.c ****   ******************************************************************************
   3:Drivers/STM32F4xx_HAL_Driver/Src/stm32f4xx_hal_tim.c ****   * @file    stm32f4xx_hal_tim.c
   4:Drivers/STM32F4xx_HAL_Driver/Src/stm32f4xx_hal_tim.c ****   * @author  MCD Application Team
   5:Drivers/STM32F4xx_HAL_Driver/Src/stm32f4xx_hal_tim.c ****   * @brief   TIM HAL module driver.
   6:Drivers/STM32F4xx_HAL_Driver/Src/stm32f4xx_hal_tim.c ****   *          This file provides firmware functions to manage the following 
   7:Drivers/STM32F4xx_HAL_Driver/Src/stm32f4xx_hal_tim.c ****   *          functionalities of the Timer (TIM) peripheral:
   8:Drivers/STM32F4xx_HAL_Driver/Src/stm32f4xx_hal_tim.c ****   *           + Time Base Initialization
   9:Drivers/STM32F4xx_HAL_Driver/Src/stm32f4xx_hal_tim.c ****   *           + Time Base Start
  10:Drivers/STM32F4xx_HAL_Driver/Src/stm32f4xx_hal_tim.c ****   *           + Time Base Start Interruption
  11:Drivers/STM32F4xx_HAL_Driver/Src/stm32f4xx_hal_tim.c ****   *           + Time Base Start DMA
  12:Drivers/STM32F4xx_HAL_Driver/Src/stm32f4xx_hal_tim.c ****   *           + Time Output Compare/PWM Initialization
  13:Drivers/STM32F4xx_HAL_Driver/Src/stm32f4xx_hal_tim.c ****   *           + Time Output Compare/PWM Channel Configuration
  14:Drivers/STM32F4xx_HAL_Driver/Src/stm32f4xx_hal_tim.c ****   *           + Time Output Compare/PWM  Start
  15:Drivers/STM32F4xx_HAL_Driver/Src/stm32f4xx_hal_tim.c ****   *           + Time Output Compare/PWM  Start Interruption
  16:Drivers/STM32F4xx_HAL_Driver/Src/stm32f4xx_hal_tim.c ****   *           + Time Output Compare/PWM Start DMA
  17:Drivers/STM32F4xx_HAL_Driver/Src/stm32f4xx_hal_tim.c ****   *           + Time Input Capture Initialization
  18:Drivers/STM32F4xx_HAL_Driver/Src/stm32f4xx_hal_tim.c ****   *           + Time Input Capture Channel Configuration
  19:Drivers/STM32F4xx_HAL_Driver/Src/stm32f4xx_hal_tim.c ****   *           + Time Input Capture Start
  20:Drivers/STM32F4xx_HAL_Driver/Src/stm32f4xx_hal_tim.c ****   *           + Time Input Capture Start Interruption 
  21:Drivers/STM32F4xx_HAL_Driver/Src/stm32f4xx_hal_tim.c ****   *           + Time Input Capture Start DMA
  22:Drivers/STM32F4xx_HAL_Driver/Src/stm32f4xx_hal_tim.c ****   *           + Time One Pulse Initialization
  23:Drivers/STM32F4xx_HAL_Driver/Src/stm32f4xx_hal_tim.c ****   *           + Time One Pulse Channel Configuration
  24:Drivers/STM32F4xx_HAL_Driver/Src/stm32f4xx_hal_tim.c ****   *           + Time One Pulse Start 
  25:Drivers/STM32F4xx_HAL_Driver/Src/stm32f4xx_hal_tim.c ****   *           + Time Encoder Interface Initialization
  26:Drivers/STM32F4xx_HAL_Driver/Src/stm32f4xx_hal_tim.c ****   *           + Time Encoder Interface Start
  27:Drivers/STM32F4xx_HAL_Driver/Src/stm32f4xx_hal_tim.c ****   *           + Time Encoder Interface Start Interruption
  28:Drivers/STM32F4xx_HAL_Driver/Src/stm32f4xx_hal_tim.c ****   *           + Time Encoder Interface Start DMA
  29:Drivers/STM32F4xx_HAL_Driver/Src/stm32f4xx_hal_tim.c ****   *           + Commutation Event configuration with Interruption and DMA
  30:Drivers/STM32F4xx_HAL_Driver/Src/stm32f4xx_hal_tim.c ****   *           + Time OCRef clear configuration
  31:Drivers/STM32F4xx_HAL_Driver/Src/stm32f4xx_hal_tim.c ****   *           + Time External Clock configuration
ARM GAS  /tmp/cc4tSQEQ.s 			page 2


  32:Drivers/STM32F4xx_HAL_Driver/Src/stm32f4xx_hal_tim.c ****   @verbatim 
  33:Drivers/STM32F4xx_HAL_Driver/Src/stm32f4xx_hal_tim.c ****   ==============================================================================
  34:Drivers/STM32F4xx_HAL_Driver/Src/stm32f4xx_hal_tim.c ****                       ##### TIMER Generic features #####
  35:Drivers/STM32F4xx_HAL_Driver/Src/stm32f4xx_hal_tim.c ****   ==============================================================================
  36:Drivers/STM32F4xx_HAL_Driver/Src/stm32f4xx_hal_tim.c ****   [..] The Timer features include: 
  37:Drivers/STM32F4xx_HAL_Driver/Src/stm32f4xx_hal_tim.c ****        (#) 16-bit up, down, up/down auto-reload counter.
  38:Drivers/STM32F4xx_HAL_Driver/Src/stm32f4xx_hal_tim.c ****        (#) 16-bit programmable prescaler allowing dividing (also on the fly) the 
  39:Drivers/STM32F4xx_HAL_Driver/Src/stm32f4xx_hal_tim.c ****            counter clock frequency either by any factor between 1 and 65536.
  40:Drivers/STM32F4xx_HAL_Driver/Src/stm32f4xx_hal_tim.c ****        (#) Up to 4 independent channels for:
  41:Drivers/STM32F4xx_HAL_Driver/Src/stm32f4xx_hal_tim.c ****            (++) Input Capture
  42:Drivers/STM32F4xx_HAL_Driver/Src/stm32f4xx_hal_tim.c ****            (++) Output Compare
  43:Drivers/STM32F4xx_HAL_Driver/Src/stm32f4xx_hal_tim.c ****            (++) PWM generation (Edge and Center-aligned Mode)
  44:Drivers/STM32F4xx_HAL_Driver/Src/stm32f4xx_hal_tim.c ****            (++) One-pulse mode output               
  45:Drivers/STM32F4xx_HAL_Driver/Src/stm32f4xx_hal_tim.c ****    
  46:Drivers/STM32F4xx_HAL_Driver/Src/stm32f4xx_hal_tim.c ****                         ##### How to use this driver #####
  47:Drivers/STM32F4xx_HAL_Driver/Src/stm32f4xx_hal_tim.c ****   ==============================================================================
  48:Drivers/STM32F4xx_HAL_Driver/Src/stm32f4xx_hal_tim.c ****     [..]
  49:Drivers/STM32F4xx_HAL_Driver/Src/stm32f4xx_hal_tim.c ****      (#) Initialize the TIM low level resources by implementing the following functions 
  50:Drivers/STM32F4xx_HAL_Driver/Src/stm32f4xx_hal_tim.c ****          depending from feature used :
  51:Drivers/STM32F4xx_HAL_Driver/Src/stm32f4xx_hal_tim.c ****            (++) Time Base : HAL_TIM_Base_MspInit() 
  52:Drivers/STM32F4xx_HAL_Driver/Src/stm32f4xx_hal_tim.c ****            (++) Input Capture : HAL_TIM_IC_MspInit()
  53:Drivers/STM32F4xx_HAL_Driver/Src/stm32f4xx_hal_tim.c ****            (++) Output Compare : HAL_TIM_OC_MspInit()
  54:Drivers/STM32F4xx_HAL_Driver/Src/stm32f4xx_hal_tim.c ****            (++) PWM generation : HAL_TIM_PWM_MspInit()
  55:Drivers/STM32F4xx_HAL_Driver/Src/stm32f4xx_hal_tim.c ****            (++) One-pulse mode output : HAL_TIM_OnePulse_MspInit()
  56:Drivers/STM32F4xx_HAL_Driver/Src/stm32f4xx_hal_tim.c ****            (++) Encoder mode output : HAL_TIM_Encoder_MspInit()
  57:Drivers/STM32F4xx_HAL_Driver/Src/stm32f4xx_hal_tim.c ****            
  58:Drivers/STM32F4xx_HAL_Driver/Src/stm32f4xx_hal_tim.c ****      (#) Initialize the TIM low level resources :
  59:Drivers/STM32F4xx_HAL_Driver/Src/stm32f4xx_hal_tim.c ****         (##) Enable the TIM interface clock using __TIMx_CLK_ENABLE(); 
  60:Drivers/STM32F4xx_HAL_Driver/Src/stm32f4xx_hal_tim.c ****         (##) TIM pins configuration
  61:Drivers/STM32F4xx_HAL_Driver/Src/stm32f4xx_hal_tim.c ****             (+++) Enable the clock for the TIM GPIOs using the following function:
  62:Drivers/STM32F4xx_HAL_Driver/Src/stm32f4xx_hal_tim.c ****                  __GPIOx_CLK_ENABLE();   
  63:Drivers/STM32F4xx_HAL_Driver/Src/stm32f4xx_hal_tim.c ****             (+++) Configure these TIM pins in Alternate function mode using HAL_GPIO_Init();  
  64:Drivers/STM32F4xx_HAL_Driver/Src/stm32f4xx_hal_tim.c **** 
  65:Drivers/STM32F4xx_HAL_Driver/Src/stm32f4xx_hal_tim.c ****      (#) The external Clock can be configured, if needed (the default clock is the 
  66:Drivers/STM32F4xx_HAL_Driver/Src/stm32f4xx_hal_tim.c ****          internal clock from the APBx), using the following function:
  67:Drivers/STM32F4xx_HAL_Driver/Src/stm32f4xx_hal_tim.c ****          HAL_TIM_ConfigClockSource, the clock configuration should be done before 
  68:Drivers/STM32F4xx_HAL_Driver/Src/stm32f4xx_hal_tim.c ****          any start function.
  69:Drivers/STM32F4xx_HAL_Driver/Src/stm32f4xx_hal_tim.c ****   
  70:Drivers/STM32F4xx_HAL_Driver/Src/stm32f4xx_hal_tim.c ****      (#) Configure the TIM in the desired functioning mode using one of the 
  71:Drivers/STM32F4xx_HAL_Driver/Src/stm32f4xx_hal_tim.c ****          initialization function of this driver:
  72:Drivers/STM32F4xx_HAL_Driver/Src/stm32f4xx_hal_tim.c ****          (++) HAL_TIM_Base_Init: to use the Timer to generate a simple time base
  73:Drivers/STM32F4xx_HAL_Driver/Src/stm32f4xx_hal_tim.c ****          (++) HAL_TIM_OC_Init and HAL_TIM_OC_ConfigChannel: to use the Timer to generate an 
  74:Drivers/STM32F4xx_HAL_Driver/Src/stm32f4xx_hal_tim.c ****               Output Compare signal.
  75:Drivers/STM32F4xx_HAL_Driver/Src/stm32f4xx_hal_tim.c ****          (++) HAL_TIM_PWM_Init and HAL_TIM_PWM_ConfigChannel: to use the Timer to generate a 
  76:Drivers/STM32F4xx_HAL_Driver/Src/stm32f4xx_hal_tim.c ****               PWM signal.
  77:Drivers/STM32F4xx_HAL_Driver/Src/stm32f4xx_hal_tim.c ****          (++) HAL_TIM_IC_Init and HAL_TIM_IC_ConfigChannel: to use the Timer to measure an 
  78:Drivers/STM32F4xx_HAL_Driver/Src/stm32f4xx_hal_tim.c ****               external signal.
  79:Drivers/STM32F4xx_HAL_Driver/Src/stm32f4xx_hal_tim.c ****          (++) HAL_TIM_OnePulse_Init and HAL_TIM_OnePulse_ConfigChannel: to use the Timer 
  80:Drivers/STM32F4xx_HAL_Driver/Src/stm32f4xx_hal_tim.c ****               in One Pulse Mode.
  81:Drivers/STM32F4xx_HAL_Driver/Src/stm32f4xx_hal_tim.c ****          (++) HAL_TIM_Encoder_Init: to use the Timer Encoder Interface.
  82:Drivers/STM32F4xx_HAL_Driver/Src/stm32f4xx_hal_tim.c ****          
  83:Drivers/STM32F4xx_HAL_Driver/Src/stm32f4xx_hal_tim.c ****      (#) Activate the TIM peripheral using one of the start functions depending from the feature us
  84:Drivers/STM32F4xx_HAL_Driver/Src/stm32f4xx_hal_tim.c ****            (++) Time Base : HAL_TIM_Base_Start(), HAL_TIM_Base_Start_DMA(), HAL_TIM_Base_Start_IT()
  85:Drivers/STM32F4xx_HAL_Driver/Src/stm32f4xx_hal_tim.c ****            (++) Input Capture :  HAL_TIM_IC_Start(), HAL_TIM_IC_Start_DMA(), HAL_TIM_IC_Start_IT()
  86:Drivers/STM32F4xx_HAL_Driver/Src/stm32f4xx_hal_tim.c ****            (++) Output Compare : HAL_TIM_OC_Start(), HAL_TIM_OC_Start_DMA(), HAL_TIM_OC_Start_IT()
  87:Drivers/STM32F4xx_HAL_Driver/Src/stm32f4xx_hal_tim.c ****            (++) PWM generation : HAL_TIM_PWM_Start(), HAL_TIM_PWM_Start_DMA(), HAL_TIM_PWM_Start_IT
  88:Drivers/STM32F4xx_HAL_Driver/Src/stm32f4xx_hal_tim.c ****            (++) One-pulse mode output : HAL_TIM_OnePulse_Start(), HAL_TIM_OnePulse_Start_IT()
ARM GAS  /tmp/cc4tSQEQ.s 			page 3


  89:Drivers/STM32F4xx_HAL_Driver/Src/stm32f4xx_hal_tim.c ****            (++) Encoder mode output : HAL_TIM_Encoder_Start(), HAL_TIM_Encoder_Start_DMA(), HAL_TIM
  90:Drivers/STM32F4xx_HAL_Driver/Src/stm32f4xx_hal_tim.c **** 
  91:Drivers/STM32F4xx_HAL_Driver/Src/stm32f4xx_hal_tim.c ****      (#) The DMA Burst is managed with the two following functions:
  92:Drivers/STM32F4xx_HAL_Driver/Src/stm32f4xx_hal_tim.c ****          HAL_TIM_DMABurst_WriteStart()
  93:Drivers/STM32F4xx_HAL_Driver/Src/stm32f4xx_hal_tim.c ****          HAL_TIM_DMABurst_ReadStart()
  94:Drivers/STM32F4xx_HAL_Driver/Src/stm32f4xx_hal_tim.c ****   
  95:Drivers/STM32F4xx_HAL_Driver/Src/stm32f4xx_hal_tim.c ****   @endverbatim
  96:Drivers/STM32F4xx_HAL_Driver/Src/stm32f4xx_hal_tim.c ****   ******************************************************************************
  97:Drivers/STM32F4xx_HAL_Driver/Src/stm32f4xx_hal_tim.c ****   * @attention
  98:Drivers/STM32F4xx_HAL_Driver/Src/stm32f4xx_hal_tim.c ****   *
  99:Drivers/STM32F4xx_HAL_Driver/Src/stm32f4xx_hal_tim.c ****   * <h2><center>&copy; COPYRIGHT(c) 2017 STMicroelectronics</center></h2>
 100:Drivers/STM32F4xx_HAL_Driver/Src/stm32f4xx_hal_tim.c ****   *
 101:Drivers/STM32F4xx_HAL_Driver/Src/stm32f4xx_hal_tim.c ****   * Redistribution and use in source and binary forms, with or without modification,
 102:Drivers/STM32F4xx_HAL_Driver/Src/stm32f4xx_hal_tim.c ****   * are permitted provided that the following conditions are met:
 103:Drivers/STM32F4xx_HAL_Driver/Src/stm32f4xx_hal_tim.c ****   *   1. Redistributions of source code must retain the above copyright notice,
 104:Drivers/STM32F4xx_HAL_Driver/Src/stm32f4xx_hal_tim.c ****   *      this list of conditions and the following disclaimer.
 105:Drivers/STM32F4xx_HAL_Driver/Src/stm32f4xx_hal_tim.c ****   *   2. Redistributions in binary form must reproduce the above copyright notice,
 106:Drivers/STM32F4xx_HAL_Driver/Src/stm32f4xx_hal_tim.c ****   *      this list of conditions and the following disclaimer in the documentation
 107:Drivers/STM32F4xx_HAL_Driver/Src/stm32f4xx_hal_tim.c ****   *      and/or other materials provided with the distribution.
 108:Drivers/STM32F4xx_HAL_Driver/Src/stm32f4xx_hal_tim.c ****   *   3. Neither the name of STMicroelectronics nor the names of its contributors
 109:Drivers/STM32F4xx_HAL_Driver/Src/stm32f4xx_hal_tim.c ****   *      may be used to endorse or promote products derived from this software
 110:Drivers/STM32F4xx_HAL_Driver/Src/stm32f4xx_hal_tim.c ****   *      without specific prior written permission.
 111:Drivers/STM32F4xx_HAL_Driver/Src/stm32f4xx_hal_tim.c ****   *
 112:Drivers/STM32F4xx_HAL_Driver/Src/stm32f4xx_hal_tim.c ****   * THIS SOFTWARE IS PROVIDED BY THE COPYRIGHT HOLDERS AND CONTRIBUTORS "AS IS"
 113:Drivers/STM32F4xx_HAL_Driver/Src/stm32f4xx_hal_tim.c ****   * AND ANY EXPRESS OR IMPLIED WARRANTIES, INCLUDING, BUT NOT LIMITED TO, THE
 114:Drivers/STM32F4xx_HAL_Driver/Src/stm32f4xx_hal_tim.c ****   * IMPLIED WARRANTIES OF MERCHANTABILITY AND FITNESS FOR A PARTICULAR PURPOSE ARE
 115:Drivers/STM32F4xx_HAL_Driver/Src/stm32f4xx_hal_tim.c ****   * DISCLAIMED. IN NO EVENT SHALL THE COPYRIGHT HOLDER OR CONTRIBUTORS BE LIABLE
 116:Drivers/STM32F4xx_HAL_Driver/Src/stm32f4xx_hal_tim.c ****   * FOR ANY DIRECT, INDIRECT, INCIDENTAL, SPECIAL, EXEMPLARY, OR CONSEQUENTIAL
 117:Drivers/STM32F4xx_HAL_Driver/Src/stm32f4xx_hal_tim.c ****   * DAMAGES (INCLUDING, BUT NOT LIMITED TO, PROCUREMENT OF SUBSTITUTE GOODS OR
 118:Drivers/STM32F4xx_HAL_Driver/Src/stm32f4xx_hal_tim.c ****   * SERVICES; LOSS OF USE, DATA, OR PROFITS; OR BUSINESS INTERRUPTION) HOWEVER
 119:Drivers/STM32F4xx_HAL_Driver/Src/stm32f4xx_hal_tim.c ****   * CAUSED AND ON ANY THEORY OF LIABILITY, WHETHER IN CONTRACT, STRICT LIABILITY,
 120:Drivers/STM32F4xx_HAL_Driver/Src/stm32f4xx_hal_tim.c ****   * OR TORT (INCLUDING NEGLIGENCE OR OTHERWISE) ARISING IN ANY WAY OUT OF THE USE
 121:Drivers/STM32F4xx_HAL_Driver/Src/stm32f4xx_hal_tim.c ****   * OF THIS SOFTWARE, EVEN IF ADVISED OF THE POSSIBILITY OF SUCH DAMAGE.
 122:Drivers/STM32F4xx_HAL_Driver/Src/stm32f4xx_hal_tim.c ****   *
 123:Drivers/STM32F4xx_HAL_Driver/Src/stm32f4xx_hal_tim.c ****   ******************************************************************************
 124:Drivers/STM32F4xx_HAL_Driver/Src/stm32f4xx_hal_tim.c ****   */ 
 125:Drivers/STM32F4xx_HAL_Driver/Src/stm32f4xx_hal_tim.c **** 
 126:Drivers/STM32F4xx_HAL_Driver/Src/stm32f4xx_hal_tim.c **** /* Includes ------------------------------------------------------------------*/
 127:Drivers/STM32F4xx_HAL_Driver/Src/stm32f4xx_hal_tim.c **** #include "stm32f4xx_hal.h"
 128:Drivers/STM32F4xx_HAL_Driver/Src/stm32f4xx_hal_tim.c **** 
 129:Drivers/STM32F4xx_HAL_Driver/Src/stm32f4xx_hal_tim.c **** /** @addtogroup STM32F4xx_HAL_Driver
 130:Drivers/STM32F4xx_HAL_Driver/Src/stm32f4xx_hal_tim.c ****   * @{
 131:Drivers/STM32F4xx_HAL_Driver/Src/stm32f4xx_hal_tim.c ****   */
 132:Drivers/STM32F4xx_HAL_Driver/Src/stm32f4xx_hal_tim.c **** 
 133:Drivers/STM32F4xx_HAL_Driver/Src/stm32f4xx_hal_tim.c **** /** @defgroup TIM TIM
 134:Drivers/STM32F4xx_HAL_Driver/Src/stm32f4xx_hal_tim.c ****   * @brief TIM HAL module driver
 135:Drivers/STM32F4xx_HAL_Driver/Src/stm32f4xx_hal_tim.c ****   * @{
 136:Drivers/STM32F4xx_HAL_Driver/Src/stm32f4xx_hal_tim.c ****   */
 137:Drivers/STM32F4xx_HAL_Driver/Src/stm32f4xx_hal_tim.c **** 
 138:Drivers/STM32F4xx_HAL_Driver/Src/stm32f4xx_hal_tim.c **** #ifdef HAL_TIM_MODULE_ENABLED
 139:Drivers/STM32F4xx_HAL_Driver/Src/stm32f4xx_hal_tim.c **** 
 140:Drivers/STM32F4xx_HAL_Driver/Src/stm32f4xx_hal_tim.c **** /* Private typedef -----------------------------------------------------------*/
 141:Drivers/STM32F4xx_HAL_Driver/Src/stm32f4xx_hal_tim.c **** /* Private define ------------------------------------------------------------*/
 142:Drivers/STM32F4xx_HAL_Driver/Src/stm32f4xx_hal_tim.c **** /* Private macro -------------------------------------------------------------*/
 143:Drivers/STM32F4xx_HAL_Driver/Src/stm32f4xx_hal_tim.c **** /* Private variables ---------------------------------------------------------*/
 144:Drivers/STM32F4xx_HAL_Driver/Src/stm32f4xx_hal_tim.c **** /** @addtogroup TIM_Private_Functions
 145:Drivers/STM32F4xx_HAL_Driver/Src/stm32f4xx_hal_tim.c ****   * @{
ARM GAS  /tmp/cc4tSQEQ.s 			page 4


 146:Drivers/STM32F4xx_HAL_Driver/Src/stm32f4xx_hal_tim.c ****   */
 147:Drivers/STM32F4xx_HAL_Driver/Src/stm32f4xx_hal_tim.c **** /* Private function prototypes -----------------------------------------------*/
 148:Drivers/STM32F4xx_HAL_Driver/Src/stm32f4xx_hal_tim.c **** static void TIM_OC1_SetConfig(TIM_TypeDef *TIMx, TIM_OC_InitTypeDef *OC_Config);
 149:Drivers/STM32F4xx_HAL_Driver/Src/stm32f4xx_hal_tim.c **** static void TIM_OC3_SetConfig(TIM_TypeDef *TIMx, TIM_OC_InitTypeDef *OC_Config);
 150:Drivers/STM32F4xx_HAL_Driver/Src/stm32f4xx_hal_tim.c **** static void TIM_OC4_SetConfig(TIM_TypeDef *TIMx, TIM_OC_InitTypeDef *OC_Config);
 151:Drivers/STM32F4xx_HAL_Driver/Src/stm32f4xx_hal_tim.c **** 
 152:Drivers/STM32F4xx_HAL_Driver/Src/stm32f4xx_hal_tim.c **** static void TIM_TI1_ConfigInputStage(TIM_TypeDef *TIMx, uint32_t TIM_ICPolarity, uint32_t TIM_ICFil
 153:Drivers/STM32F4xx_HAL_Driver/Src/stm32f4xx_hal_tim.c **** static void TIM_TI2_SetConfig(TIM_TypeDef *TIMx, uint32_t TIM_ICPolarity, uint32_t TIM_ICSelection,
 154:Drivers/STM32F4xx_HAL_Driver/Src/stm32f4xx_hal_tim.c ****                        uint32_t TIM_ICFilter);
 155:Drivers/STM32F4xx_HAL_Driver/Src/stm32f4xx_hal_tim.c **** static void TIM_TI2_ConfigInputStage(TIM_TypeDef *TIMx, uint32_t TIM_ICPolarity, uint32_t TIM_ICFil
 156:Drivers/STM32F4xx_HAL_Driver/Src/stm32f4xx_hal_tim.c **** static void TIM_TI3_SetConfig(TIM_TypeDef *TIMx, uint32_t TIM_ICPolarity, uint32_t TIM_ICSelection,
 157:Drivers/STM32F4xx_HAL_Driver/Src/stm32f4xx_hal_tim.c ****                        uint32_t TIM_ICFilter);
 158:Drivers/STM32F4xx_HAL_Driver/Src/stm32f4xx_hal_tim.c **** static void TIM_TI4_SetConfig(TIM_TypeDef *TIMx, uint32_t TIM_ICPolarity, uint32_t TIM_ICSelection,
 159:Drivers/STM32F4xx_HAL_Driver/Src/stm32f4xx_hal_tim.c ****                        uint32_t TIM_ICFilter);
 160:Drivers/STM32F4xx_HAL_Driver/Src/stm32f4xx_hal_tim.c **** 
 161:Drivers/STM32F4xx_HAL_Driver/Src/stm32f4xx_hal_tim.c **** static void TIM_ETR_SetConfig(TIM_TypeDef* TIMx, uint32_t TIM_ExtTRGPrescaler,
 162:Drivers/STM32F4xx_HAL_Driver/Src/stm32f4xx_hal_tim.c ****                        uint32_t TIM_ExtTRGPolarity, uint32_t ExtTRGFilter);
 163:Drivers/STM32F4xx_HAL_Driver/Src/stm32f4xx_hal_tim.c **** 
 164:Drivers/STM32F4xx_HAL_Driver/Src/stm32f4xx_hal_tim.c **** static void TIM_ITRx_SetConfig(TIM_TypeDef* TIMx, uint16_t TIM_ITRx);
 165:Drivers/STM32F4xx_HAL_Driver/Src/stm32f4xx_hal_tim.c **** static void TIM_DMAPeriodElapsedCplt(DMA_HandleTypeDef *hdma);
 166:Drivers/STM32F4xx_HAL_Driver/Src/stm32f4xx_hal_tim.c **** static void TIM_DMATriggerCplt(DMA_HandleTypeDef *hdma);
 167:Drivers/STM32F4xx_HAL_Driver/Src/stm32f4xx_hal_tim.c **** static void TIM_SlaveTimer_SetConfig(TIM_HandleTypeDef *htim,
 168:Drivers/STM32F4xx_HAL_Driver/Src/stm32f4xx_hal_tim.c ****                                      TIM_SlaveConfigTypeDef * sSlaveConfig);
 169:Drivers/STM32F4xx_HAL_Driver/Src/stm32f4xx_hal_tim.c **** /**
 170:Drivers/STM32F4xx_HAL_Driver/Src/stm32f4xx_hal_tim.c ****   * @}
 171:Drivers/STM32F4xx_HAL_Driver/Src/stm32f4xx_hal_tim.c ****   */
 172:Drivers/STM32F4xx_HAL_Driver/Src/stm32f4xx_hal_tim.c ****   
 173:Drivers/STM32F4xx_HAL_Driver/Src/stm32f4xx_hal_tim.c **** /* Exported functions --------------------------------------------------------*/
 174:Drivers/STM32F4xx_HAL_Driver/Src/stm32f4xx_hal_tim.c **** /** @defgroup TIM_Exported_Functions TIM Exported Functions
 175:Drivers/STM32F4xx_HAL_Driver/Src/stm32f4xx_hal_tim.c ****   * @{
 176:Drivers/STM32F4xx_HAL_Driver/Src/stm32f4xx_hal_tim.c ****   */
 177:Drivers/STM32F4xx_HAL_Driver/Src/stm32f4xx_hal_tim.c **** 
 178:Drivers/STM32F4xx_HAL_Driver/Src/stm32f4xx_hal_tim.c **** /** @defgroup TIM_Exported_Functions_Group1 Time Base functions 
 179:Drivers/STM32F4xx_HAL_Driver/Src/stm32f4xx_hal_tim.c ****  *  @brief    Time Base functions 
 180:Drivers/STM32F4xx_HAL_Driver/Src/stm32f4xx_hal_tim.c ****  *
 181:Drivers/STM32F4xx_HAL_Driver/Src/stm32f4xx_hal_tim.c **** @verbatim    
 182:Drivers/STM32F4xx_HAL_Driver/Src/stm32f4xx_hal_tim.c ****   ==============================================================================
 183:Drivers/STM32F4xx_HAL_Driver/Src/stm32f4xx_hal_tim.c ****               ##### Time Base functions #####
 184:Drivers/STM32F4xx_HAL_Driver/Src/stm32f4xx_hal_tim.c ****   ==============================================================================
 185:Drivers/STM32F4xx_HAL_Driver/Src/stm32f4xx_hal_tim.c ****   [..]  
 186:Drivers/STM32F4xx_HAL_Driver/Src/stm32f4xx_hal_tim.c ****     This section provides functions allowing to:
 187:Drivers/STM32F4xx_HAL_Driver/Src/stm32f4xx_hal_tim.c ****     (+) Initialize and configure the TIM base. 
 188:Drivers/STM32F4xx_HAL_Driver/Src/stm32f4xx_hal_tim.c ****     (+) De-initialize the TIM base.
 189:Drivers/STM32F4xx_HAL_Driver/Src/stm32f4xx_hal_tim.c ****     (+) Start the Time Base.
 190:Drivers/STM32F4xx_HAL_Driver/Src/stm32f4xx_hal_tim.c ****     (+) Stop the Time Base.
 191:Drivers/STM32F4xx_HAL_Driver/Src/stm32f4xx_hal_tim.c ****     (+) Start the Time Base and enable interrupt.
 192:Drivers/STM32F4xx_HAL_Driver/Src/stm32f4xx_hal_tim.c ****     (+) Stop the Time Base and disable interrupt.
 193:Drivers/STM32F4xx_HAL_Driver/Src/stm32f4xx_hal_tim.c ****     (+) Start the Time Base and enable DMA transfer.
 194:Drivers/STM32F4xx_HAL_Driver/Src/stm32f4xx_hal_tim.c ****     (+) Stop the Time Base and disable DMA transfer.
 195:Drivers/STM32F4xx_HAL_Driver/Src/stm32f4xx_hal_tim.c ****  
 196:Drivers/STM32F4xx_HAL_Driver/Src/stm32f4xx_hal_tim.c **** @endverbatim
 197:Drivers/STM32F4xx_HAL_Driver/Src/stm32f4xx_hal_tim.c ****   * @{
 198:Drivers/STM32F4xx_HAL_Driver/Src/stm32f4xx_hal_tim.c ****   */
 199:Drivers/STM32F4xx_HAL_Driver/Src/stm32f4xx_hal_tim.c **** /**
 200:Drivers/STM32F4xx_HAL_Driver/Src/stm32f4xx_hal_tim.c ****   * @brief  Initializes the TIM Time base Unit according to the specified
 201:Drivers/STM32F4xx_HAL_Driver/Src/stm32f4xx_hal_tim.c ****   *         parameters in the TIM_HandleTypeDef and create the associated handle.
 202:Drivers/STM32F4xx_HAL_Driver/Src/stm32f4xx_hal_tim.c ****   * @param  htim pointer to a TIM_HandleTypeDef structure that contains
ARM GAS  /tmp/cc4tSQEQ.s 			page 5


 203:Drivers/STM32F4xx_HAL_Driver/Src/stm32f4xx_hal_tim.c ****   *                the configuration information for TIM module.
 204:Drivers/STM32F4xx_HAL_Driver/Src/stm32f4xx_hal_tim.c ****   * @retval HAL status
 205:Drivers/STM32F4xx_HAL_Driver/Src/stm32f4xx_hal_tim.c ****   */
 206:Drivers/STM32F4xx_HAL_Driver/Src/stm32f4xx_hal_tim.c **** HAL_StatusTypeDef HAL_TIM_Base_Init(TIM_HandleTypeDef *htim)
 207:Drivers/STM32F4xx_HAL_Driver/Src/stm32f4xx_hal_tim.c **** { 
  28              		.loc 1 207 0
  29              		.cfi_startproc
  30              		@ args = 0, pretend = 0, frame = 8
  31              		@ frame_needed = 1, uses_anonymous_args = 0
  32 0000 80B5     		push	{r7, lr}
  33              	.LCFI0:
  34              		.cfi_def_cfa_offset 8
  35              		.cfi_offset 7, -8
  36              		.cfi_offset 14, -4
  37 0002 82B0     		sub	sp, sp, #8
  38              	.LCFI1:
  39              		.cfi_def_cfa_offset 16
  40 0004 00AF     		add	r7, sp, #0
  41              	.LCFI2:
  42              		.cfi_def_cfa_register 7
  43 0006 7860     		str	r0, [r7, #4]
 208:Drivers/STM32F4xx_HAL_Driver/Src/stm32f4xx_hal_tim.c ****   /* Check the TIM handle allocation */
 209:Drivers/STM32F4xx_HAL_Driver/Src/stm32f4xx_hal_tim.c ****   if(htim == NULL)
  44              		.loc 1 209 0
  45 0008 7B68     		ldr	r3, [r7, #4]
  46 000a 002B     		cmp	r3, #0
  47 000c 01D1     		bne	.L2
 210:Drivers/STM32F4xx_HAL_Driver/Src/stm32f4xx_hal_tim.c ****   {
 211:Drivers/STM32F4xx_HAL_Driver/Src/stm32f4xx_hal_tim.c ****     return HAL_ERROR;
  48              		.loc 1 211 0
  49 000e 0123     		movs	r3, #1
  50 0010 1DE0     		b	.L3
  51              	.L2:
 212:Drivers/STM32F4xx_HAL_Driver/Src/stm32f4xx_hal_tim.c ****   }
 213:Drivers/STM32F4xx_HAL_Driver/Src/stm32f4xx_hal_tim.c ****   
 214:Drivers/STM32F4xx_HAL_Driver/Src/stm32f4xx_hal_tim.c ****   /* Check the parameters */
 215:Drivers/STM32F4xx_HAL_Driver/Src/stm32f4xx_hal_tim.c ****   assert_param(IS_TIM_INSTANCE(htim->Instance)); 
 216:Drivers/STM32F4xx_HAL_Driver/Src/stm32f4xx_hal_tim.c ****   assert_param(IS_TIM_COUNTER_MODE(htim->Init.CounterMode));
 217:Drivers/STM32F4xx_HAL_Driver/Src/stm32f4xx_hal_tim.c ****   assert_param(IS_TIM_CLOCKDIVISION_DIV(htim->Init.ClockDivision));
 218:Drivers/STM32F4xx_HAL_Driver/Src/stm32f4xx_hal_tim.c ****   
 219:Drivers/STM32F4xx_HAL_Driver/Src/stm32f4xx_hal_tim.c ****   if(htim->State == HAL_TIM_STATE_RESET)
  52              		.loc 1 219 0
  53 0012 7B68     		ldr	r3, [r7, #4]
  54 0014 93F83930 		ldrb	r3, [r3, #57]
  55 0018 DBB2     		uxtb	r3, r3
  56 001a 002B     		cmp	r3, #0
  57 001c 06D1     		bne	.L4
 220:Drivers/STM32F4xx_HAL_Driver/Src/stm32f4xx_hal_tim.c ****   {  
 221:Drivers/STM32F4xx_HAL_Driver/Src/stm32f4xx_hal_tim.c ****     /* Allocate lock resource and initialize it */
 222:Drivers/STM32F4xx_HAL_Driver/Src/stm32f4xx_hal_tim.c ****     htim->Lock = HAL_UNLOCKED;
  58              		.loc 1 222 0
  59 001e 7B68     		ldr	r3, [r7, #4]
  60 0020 0022     		movs	r2, #0
  61 0022 83F83820 		strb	r2, [r3, #56]
 223:Drivers/STM32F4xx_HAL_Driver/Src/stm32f4xx_hal_tim.c ****     /* Init the low level hardware : GPIO, CLOCK, NVIC */
 224:Drivers/STM32F4xx_HAL_Driver/Src/stm32f4xx_hal_tim.c ****     HAL_TIM_Base_MspInit(htim);
  62              		.loc 1 224 0
ARM GAS  /tmp/cc4tSQEQ.s 			page 6


  63 0026 7868     		ldr	r0, [r7, #4]
  64 0028 FFF7FEFF 		bl	HAL_TIM_Base_MspInit
  65              	.L4:
 225:Drivers/STM32F4xx_HAL_Driver/Src/stm32f4xx_hal_tim.c ****   }
 226:Drivers/STM32F4xx_HAL_Driver/Src/stm32f4xx_hal_tim.c ****   
 227:Drivers/STM32F4xx_HAL_Driver/Src/stm32f4xx_hal_tim.c ****   /* Set the TIM state */
 228:Drivers/STM32F4xx_HAL_Driver/Src/stm32f4xx_hal_tim.c ****   htim->State= HAL_TIM_STATE_BUSY;
  66              		.loc 1 228 0
  67 002c 7B68     		ldr	r3, [r7, #4]
  68 002e 0222     		movs	r2, #2
  69 0030 83F83920 		strb	r2, [r3, #57]
 229:Drivers/STM32F4xx_HAL_Driver/Src/stm32f4xx_hal_tim.c ****   
 230:Drivers/STM32F4xx_HAL_Driver/Src/stm32f4xx_hal_tim.c ****   /* Set the Time Base configuration */
 231:Drivers/STM32F4xx_HAL_Driver/Src/stm32f4xx_hal_tim.c ****   TIM_Base_SetConfig(htim->Instance, &htim->Init); 
  70              		.loc 1 231 0
  71 0034 7B68     		ldr	r3, [r7, #4]
  72 0036 1A68     		ldr	r2, [r3]
  73 0038 7B68     		ldr	r3, [r7, #4]
  74 003a 0433     		adds	r3, r3, #4
  75 003c 1946     		mov	r1, r3
  76 003e 1046     		mov	r0, r2
  77 0040 FFF7FEFF 		bl	TIM_Base_SetConfig
 232:Drivers/STM32F4xx_HAL_Driver/Src/stm32f4xx_hal_tim.c ****   
 233:Drivers/STM32F4xx_HAL_Driver/Src/stm32f4xx_hal_tim.c ****   /* Initialize the TIM state*/
 234:Drivers/STM32F4xx_HAL_Driver/Src/stm32f4xx_hal_tim.c ****   htim->State= HAL_TIM_STATE_READY;
  78              		.loc 1 234 0
  79 0044 7B68     		ldr	r3, [r7, #4]
  80 0046 0122     		movs	r2, #1
  81 0048 83F83920 		strb	r2, [r3, #57]
 235:Drivers/STM32F4xx_HAL_Driver/Src/stm32f4xx_hal_tim.c ****   
 236:Drivers/STM32F4xx_HAL_Driver/Src/stm32f4xx_hal_tim.c ****   return HAL_OK;
  82              		.loc 1 236 0
  83 004c 0023     		movs	r3, #0
  84              	.L3:
 237:Drivers/STM32F4xx_HAL_Driver/Src/stm32f4xx_hal_tim.c **** }
  85              		.loc 1 237 0
  86 004e 1846     		mov	r0, r3
  87 0050 0837     		adds	r7, r7, #8
  88              	.LCFI3:
  89              		.cfi_def_cfa_offset 8
  90 0052 BD46     		mov	sp, r7
  91              	.LCFI4:
  92              		.cfi_def_cfa_register 13
  93              		@ sp needed
  94 0054 80BD     		pop	{r7, pc}
  95              		.cfi_endproc
  96              	.LFE124:
  98              		.section	.text.HAL_TIM_Base_DeInit,"ax",%progbits
  99              		.align	1
 100              		.global	HAL_TIM_Base_DeInit
 101              		.syntax unified
 102              		.thumb
 103              		.thumb_func
 104              		.fpu fpv4-sp-d16
 106              	HAL_TIM_Base_DeInit:
 107              	.LFB125:
 238:Drivers/STM32F4xx_HAL_Driver/Src/stm32f4xx_hal_tim.c **** 
ARM GAS  /tmp/cc4tSQEQ.s 			page 7


 239:Drivers/STM32F4xx_HAL_Driver/Src/stm32f4xx_hal_tim.c **** /**
 240:Drivers/STM32F4xx_HAL_Driver/Src/stm32f4xx_hal_tim.c ****   * @brief  DeInitializes the TIM Base peripheral 
 241:Drivers/STM32F4xx_HAL_Driver/Src/stm32f4xx_hal_tim.c ****   * @param  htim pointer to a TIM_HandleTypeDef structure that contains
 242:Drivers/STM32F4xx_HAL_Driver/Src/stm32f4xx_hal_tim.c ****   *                the configuration information for TIM module.
 243:Drivers/STM32F4xx_HAL_Driver/Src/stm32f4xx_hal_tim.c ****   * @retval HAL status
 244:Drivers/STM32F4xx_HAL_Driver/Src/stm32f4xx_hal_tim.c ****   */
 245:Drivers/STM32F4xx_HAL_Driver/Src/stm32f4xx_hal_tim.c **** HAL_StatusTypeDef HAL_TIM_Base_DeInit(TIM_HandleTypeDef *htim)
 246:Drivers/STM32F4xx_HAL_Driver/Src/stm32f4xx_hal_tim.c **** {  
 108              		.loc 1 246 0
 109              		.cfi_startproc
 110              		@ args = 0, pretend = 0, frame = 8
 111              		@ frame_needed = 1, uses_anonymous_args = 0
 112 0000 80B5     		push	{r7, lr}
 113              	.LCFI5:
 114              		.cfi_def_cfa_offset 8
 115              		.cfi_offset 7, -8
 116              		.cfi_offset 14, -4
 117 0002 82B0     		sub	sp, sp, #8
 118              	.LCFI6:
 119              		.cfi_def_cfa_offset 16
 120 0004 00AF     		add	r7, sp, #0
 121              	.LCFI7:
 122              		.cfi_def_cfa_register 7
 123 0006 7860     		str	r0, [r7, #4]
 247:Drivers/STM32F4xx_HAL_Driver/Src/stm32f4xx_hal_tim.c ****   /* Check the parameters */
 248:Drivers/STM32F4xx_HAL_Driver/Src/stm32f4xx_hal_tim.c ****   assert_param(IS_TIM_INSTANCE(htim->Instance));
 249:Drivers/STM32F4xx_HAL_Driver/Src/stm32f4xx_hal_tim.c **** 
 250:Drivers/STM32F4xx_HAL_Driver/Src/stm32f4xx_hal_tim.c ****   htim->State = HAL_TIM_STATE_BUSY;
 124              		.loc 1 250 0
 125 0008 7B68     		ldr	r3, [r7, #4]
 126 000a 0222     		movs	r2, #2
 127 000c 83F83920 		strb	r2, [r3, #57]
 251:Drivers/STM32F4xx_HAL_Driver/Src/stm32f4xx_hal_tim.c ****    
 252:Drivers/STM32F4xx_HAL_Driver/Src/stm32f4xx_hal_tim.c ****   /* Disable the TIM Peripheral Clock */
 253:Drivers/STM32F4xx_HAL_Driver/Src/stm32f4xx_hal_tim.c ****   __HAL_TIM_DISABLE(htim);
 128              		.loc 1 253 0
 129 0010 7B68     		ldr	r3, [r7, #4]
 130 0012 1B68     		ldr	r3, [r3]
 131 0014 1A6A     		ldr	r2, [r3, #32]
 132 0016 41F21113 		movw	r3, #4369
 133 001a 1340     		ands	r3, r3, r2
 134 001c 002B     		cmp	r3, #0
 135 001e 0FD1     		bne	.L6
 136              		.loc 1 253 0 is_stmt 0 discriminator 1
 137 0020 7B68     		ldr	r3, [r7, #4]
 138 0022 1B68     		ldr	r3, [r3]
 139 0024 1A6A     		ldr	r2, [r3, #32]
 140 0026 40F24443 		movw	r3, #1092
 141 002a 1340     		ands	r3, r3, r2
 142 002c 002B     		cmp	r3, #0
 143 002e 07D1     		bne	.L6
 144              		.loc 1 253 0 discriminator 2
 145 0030 7B68     		ldr	r3, [r7, #4]
 146 0032 1B68     		ldr	r3, [r3]
 147 0034 7A68     		ldr	r2, [r7, #4]
 148 0036 1268     		ldr	r2, [r2]
 149 0038 1268     		ldr	r2, [r2]
ARM GAS  /tmp/cc4tSQEQ.s 			page 8


 150 003a 22F00102 		bic	r2, r2, #1
 151 003e 1A60     		str	r2, [r3]
 152              	.L6:
 254:Drivers/STM32F4xx_HAL_Driver/Src/stm32f4xx_hal_tim.c ****     
 255:Drivers/STM32F4xx_HAL_Driver/Src/stm32f4xx_hal_tim.c ****   /* DeInit the low level hardware: GPIO, CLOCK, NVIC */
 256:Drivers/STM32F4xx_HAL_Driver/Src/stm32f4xx_hal_tim.c ****   HAL_TIM_Base_MspDeInit(htim);
 153              		.loc 1 256 0 is_stmt 1
 154 0040 7868     		ldr	r0, [r7, #4]
 155 0042 FFF7FEFF 		bl	HAL_TIM_Base_MspDeInit
 257:Drivers/STM32F4xx_HAL_Driver/Src/stm32f4xx_hal_tim.c ****   
 258:Drivers/STM32F4xx_HAL_Driver/Src/stm32f4xx_hal_tim.c ****   /* Change TIM state */  
 259:Drivers/STM32F4xx_HAL_Driver/Src/stm32f4xx_hal_tim.c ****   htim->State = HAL_TIM_STATE_RESET; 
 156              		.loc 1 259 0
 157 0046 7B68     		ldr	r3, [r7, #4]
 158 0048 0022     		movs	r2, #0
 159 004a 83F83920 		strb	r2, [r3, #57]
 260:Drivers/STM32F4xx_HAL_Driver/Src/stm32f4xx_hal_tim.c ****   
 261:Drivers/STM32F4xx_HAL_Driver/Src/stm32f4xx_hal_tim.c ****   /* Release Lock */
 262:Drivers/STM32F4xx_HAL_Driver/Src/stm32f4xx_hal_tim.c ****   __HAL_UNLOCK(htim);
 160              		.loc 1 262 0
 161 004e 7B68     		ldr	r3, [r7, #4]
 162 0050 0022     		movs	r2, #0
 163 0052 83F83820 		strb	r2, [r3, #56]
 263:Drivers/STM32F4xx_HAL_Driver/Src/stm32f4xx_hal_tim.c **** 
 264:Drivers/STM32F4xx_HAL_Driver/Src/stm32f4xx_hal_tim.c ****   return HAL_OK;
 164              		.loc 1 264 0
 165 0056 0023     		movs	r3, #0
 265:Drivers/STM32F4xx_HAL_Driver/Src/stm32f4xx_hal_tim.c **** }
 166              		.loc 1 265 0
 167 0058 1846     		mov	r0, r3
 168 005a 0837     		adds	r7, r7, #8
 169              	.LCFI8:
 170              		.cfi_def_cfa_offset 8
 171 005c BD46     		mov	sp, r7
 172              	.LCFI9:
 173              		.cfi_def_cfa_register 13
 174              		@ sp needed
 175 005e 80BD     		pop	{r7, pc}
 176              		.cfi_endproc
 177              	.LFE125:
 179              		.section	.text.HAL_TIM_Base_MspInit,"ax",%progbits
 180              		.align	1
 181              		.weak	HAL_TIM_Base_MspInit
 182              		.syntax unified
 183              		.thumb
 184              		.thumb_func
 185              		.fpu fpv4-sp-d16
 187              	HAL_TIM_Base_MspInit:
 188              	.LFB126:
 266:Drivers/STM32F4xx_HAL_Driver/Src/stm32f4xx_hal_tim.c **** 
 267:Drivers/STM32F4xx_HAL_Driver/Src/stm32f4xx_hal_tim.c **** /**
 268:Drivers/STM32F4xx_HAL_Driver/Src/stm32f4xx_hal_tim.c ****   * @brief  Initializes the TIM Base MSP.
 269:Drivers/STM32F4xx_HAL_Driver/Src/stm32f4xx_hal_tim.c ****   * @param  htim pointer to a TIM_HandleTypeDef structure that contains
 270:Drivers/STM32F4xx_HAL_Driver/Src/stm32f4xx_hal_tim.c ****   *                the configuration information for TIM module.
 271:Drivers/STM32F4xx_HAL_Driver/Src/stm32f4xx_hal_tim.c ****   * @retval None
 272:Drivers/STM32F4xx_HAL_Driver/Src/stm32f4xx_hal_tim.c ****   */
 273:Drivers/STM32F4xx_HAL_Driver/Src/stm32f4xx_hal_tim.c **** __weak void HAL_TIM_Base_MspInit(TIM_HandleTypeDef *htim)
ARM GAS  /tmp/cc4tSQEQ.s 			page 9


 274:Drivers/STM32F4xx_HAL_Driver/Src/stm32f4xx_hal_tim.c **** {
 189              		.loc 1 274 0
 190              		.cfi_startproc
 191              		@ args = 0, pretend = 0, frame = 8
 192              		@ frame_needed = 1, uses_anonymous_args = 0
 193              		@ link register save eliminated.
 194 0000 80B4     		push	{r7}
 195              	.LCFI10:
 196              		.cfi_def_cfa_offset 4
 197              		.cfi_offset 7, -4
 198 0002 83B0     		sub	sp, sp, #12
 199              	.LCFI11:
 200              		.cfi_def_cfa_offset 16
 201 0004 00AF     		add	r7, sp, #0
 202              	.LCFI12:
 203              		.cfi_def_cfa_register 7
 204 0006 7860     		str	r0, [r7, #4]
 275:Drivers/STM32F4xx_HAL_Driver/Src/stm32f4xx_hal_tim.c ****   /* Prevent unused argument(s) compilation warning */
 276:Drivers/STM32F4xx_HAL_Driver/Src/stm32f4xx_hal_tim.c ****   UNUSED(htim);
 277:Drivers/STM32F4xx_HAL_Driver/Src/stm32f4xx_hal_tim.c ****   /* NOTE : This function Should not be modified, when the callback is needed,
 278:Drivers/STM32F4xx_HAL_Driver/Src/stm32f4xx_hal_tim.c ****             the HAL_TIM_Base_MspInit could be implemented in the user file
 279:Drivers/STM32F4xx_HAL_Driver/Src/stm32f4xx_hal_tim.c ****    */
 280:Drivers/STM32F4xx_HAL_Driver/Src/stm32f4xx_hal_tim.c **** }
 205              		.loc 1 280 0
 206 0008 00BF     		nop
 207 000a 0C37     		adds	r7, r7, #12
 208              	.LCFI13:
 209              		.cfi_def_cfa_offset 4
 210 000c BD46     		mov	sp, r7
 211              	.LCFI14:
 212              		.cfi_def_cfa_register 13
 213              		@ sp needed
 214 000e 5DF8047B 		ldr	r7, [sp], #4
 215              	.LCFI15:
 216              		.cfi_restore 7
 217              		.cfi_def_cfa_offset 0
 218 0012 7047     		bx	lr
 219              		.cfi_endproc
 220              	.LFE126:
 222              		.section	.text.HAL_TIM_Base_MspDeInit,"ax",%progbits
 223              		.align	1
 224              		.weak	HAL_TIM_Base_MspDeInit
 225              		.syntax unified
 226              		.thumb
 227              		.thumb_func
 228              		.fpu fpv4-sp-d16
 230              	HAL_TIM_Base_MspDeInit:
 231              	.LFB127:
 281:Drivers/STM32F4xx_HAL_Driver/Src/stm32f4xx_hal_tim.c **** 
 282:Drivers/STM32F4xx_HAL_Driver/Src/stm32f4xx_hal_tim.c **** /**
 283:Drivers/STM32F4xx_HAL_Driver/Src/stm32f4xx_hal_tim.c ****   * @brief  DeInitializes TIM Base MSP.
 284:Drivers/STM32F4xx_HAL_Driver/Src/stm32f4xx_hal_tim.c ****   * @param  htim pointer to a TIM_HandleTypeDef structure that contains
 285:Drivers/STM32F4xx_HAL_Driver/Src/stm32f4xx_hal_tim.c ****   *                the configuration information for TIM module.
 286:Drivers/STM32F4xx_HAL_Driver/Src/stm32f4xx_hal_tim.c ****   * @retval None
 287:Drivers/STM32F4xx_HAL_Driver/Src/stm32f4xx_hal_tim.c ****   */
 288:Drivers/STM32F4xx_HAL_Driver/Src/stm32f4xx_hal_tim.c **** __weak void HAL_TIM_Base_MspDeInit(TIM_HandleTypeDef *htim)
 289:Drivers/STM32F4xx_HAL_Driver/Src/stm32f4xx_hal_tim.c **** {
ARM GAS  /tmp/cc4tSQEQ.s 			page 10


 232              		.loc 1 289 0
 233              		.cfi_startproc
 234              		@ args = 0, pretend = 0, frame = 8
 235              		@ frame_needed = 1, uses_anonymous_args = 0
 236              		@ link register save eliminated.
 237 0000 80B4     		push	{r7}
 238              	.LCFI16:
 239              		.cfi_def_cfa_offset 4
 240              		.cfi_offset 7, -4
 241 0002 83B0     		sub	sp, sp, #12
 242              	.LCFI17:
 243              		.cfi_def_cfa_offset 16
 244 0004 00AF     		add	r7, sp, #0
 245              	.LCFI18:
 246              		.cfi_def_cfa_register 7
 247 0006 7860     		str	r0, [r7, #4]
 290:Drivers/STM32F4xx_HAL_Driver/Src/stm32f4xx_hal_tim.c ****   /* Prevent unused argument(s) compilation warning */
 291:Drivers/STM32F4xx_HAL_Driver/Src/stm32f4xx_hal_tim.c ****   UNUSED(htim);
 292:Drivers/STM32F4xx_HAL_Driver/Src/stm32f4xx_hal_tim.c ****   /* NOTE : This function Should not be modified, when the callback is needed,
 293:Drivers/STM32F4xx_HAL_Driver/Src/stm32f4xx_hal_tim.c ****             the HAL_TIM_Base_MspDeInit could be implemented in the user file
 294:Drivers/STM32F4xx_HAL_Driver/Src/stm32f4xx_hal_tim.c ****    */
 295:Drivers/STM32F4xx_HAL_Driver/Src/stm32f4xx_hal_tim.c **** }
 248              		.loc 1 295 0
 249 0008 00BF     		nop
 250 000a 0C37     		adds	r7, r7, #12
 251              	.LCFI19:
 252              		.cfi_def_cfa_offset 4
 253 000c BD46     		mov	sp, r7
 254              	.LCFI20:
 255              		.cfi_def_cfa_register 13
 256              		@ sp needed
 257 000e 5DF8047B 		ldr	r7, [sp], #4
 258              	.LCFI21:
 259              		.cfi_restore 7
 260              		.cfi_def_cfa_offset 0
 261 0012 7047     		bx	lr
 262              		.cfi_endproc
 263              	.LFE127:
 265              		.section	.text.HAL_TIM_Base_Start,"ax",%progbits
 266              		.align	1
 267              		.global	HAL_TIM_Base_Start
 268              		.syntax unified
 269              		.thumb
 270              		.thumb_func
 271              		.fpu fpv4-sp-d16
 273              	HAL_TIM_Base_Start:
 274              	.LFB128:
 296:Drivers/STM32F4xx_HAL_Driver/Src/stm32f4xx_hal_tim.c **** 
 297:Drivers/STM32F4xx_HAL_Driver/Src/stm32f4xx_hal_tim.c **** /**
 298:Drivers/STM32F4xx_HAL_Driver/Src/stm32f4xx_hal_tim.c ****   * @brief  Starts the TIM Base generation.
 299:Drivers/STM32F4xx_HAL_Driver/Src/stm32f4xx_hal_tim.c ****   * @param  htim pointer to a TIM_HandleTypeDef structure that contains
 300:Drivers/STM32F4xx_HAL_Driver/Src/stm32f4xx_hal_tim.c ****   *                the configuration information for TIM module.
 301:Drivers/STM32F4xx_HAL_Driver/Src/stm32f4xx_hal_tim.c ****   * @retval HAL status
 302:Drivers/STM32F4xx_HAL_Driver/Src/stm32f4xx_hal_tim.c ****   */
 303:Drivers/STM32F4xx_HAL_Driver/Src/stm32f4xx_hal_tim.c **** HAL_StatusTypeDef HAL_TIM_Base_Start(TIM_HandleTypeDef *htim)
 304:Drivers/STM32F4xx_HAL_Driver/Src/stm32f4xx_hal_tim.c **** {
 275              		.loc 1 304 0
ARM GAS  /tmp/cc4tSQEQ.s 			page 11


 276              		.cfi_startproc
 277              		@ args = 0, pretend = 0, frame = 8
 278              		@ frame_needed = 1, uses_anonymous_args = 0
 279              		@ link register save eliminated.
 280 0000 80B4     		push	{r7}
 281              	.LCFI22:
 282              		.cfi_def_cfa_offset 4
 283              		.cfi_offset 7, -4
 284 0002 83B0     		sub	sp, sp, #12
 285              	.LCFI23:
 286              		.cfi_def_cfa_offset 16
 287 0004 00AF     		add	r7, sp, #0
 288              	.LCFI24:
 289              		.cfi_def_cfa_register 7
 290 0006 7860     		str	r0, [r7, #4]
 305:Drivers/STM32F4xx_HAL_Driver/Src/stm32f4xx_hal_tim.c ****   /* Check the parameters */
 306:Drivers/STM32F4xx_HAL_Driver/Src/stm32f4xx_hal_tim.c ****   assert_param(IS_TIM_INSTANCE(htim->Instance));
 307:Drivers/STM32F4xx_HAL_Driver/Src/stm32f4xx_hal_tim.c ****   
 308:Drivers/STM32F4xx_HAL_Driver/Src/stm32f4xx_hal_tim.c ****   /* Set the TIM state */
 309:Drivers/STM32F4xx_HAL_Driver/Src/stm32f4xx_hal_tim.c ****   htim->State= HAL_TIM_STATE_BUSY;
 291              		.loc 1 309 0
 292 0008 7B68     		ldr	r3, [r7, #4]
 293 000a 0222     		movs	r2, #2
 294 000c 83F83920 		strb	r2, [r3, #57]
 310:Drivers/STM32F4xx_HAL_Driver/Src/stm32f4xx_hal_tim.c ****   
 311:Drivers/STM32F4xx_HAL_Driver/Src/stm32f4xx_hal_tim.c ****   /* Enable the Peripheral */
 312:Drivers/STM32F4xx_HAL_Driver/Src/stm32f4xx_hal_tim.c ****   __HAL_TIM_ENABLE(htim);
 295              		.loc 1 312 0
 296 0010 7B68     		ldr	r3, [r7, #4]
 297 0012 1B68     		ldr	r3, [r3]
 298 0014 7A68     		ldr	r2, [r7, #4]
 299 0016 1268     		ldr	r2, [r2]
 300 0018 1268     		ldr	r2, [r2]
 301 001a 42F00102 		orr	r2, r2, #1
 302 001e 1A60     		str	r2, [r3]
 313:Drivers/STM32F4xx_HAL_Driver/Src/stm32f4xx_hal_tim.c ****   
 314:Drivers/STM32F4xx_HAL_Driver/Src/stm32f4xx_hal_tim.c ****   /* Change the TIM state*/
 315:Drivers/STM32F4xx_HAL_Driver/Src/stm32f4xx_hal_tim.c ****   htim->State= HAL_TIM_STATE_READY;
 303              		.loc 1 315 0
 304 0020 7B68     		ldr	r3, [r7, #4]
 305 0022 0122     		movs	r2, #1
 306 0024 83F83920 		strb	r2, [r3, #57]
 316:Drivers/STM32F4xx_HAL_Driver/Src/stm32f4xx_hal_tim.c ****   
 317:Drivers/STM32F4xx_HAL_Driver/Src/stm32f4xx_hal_tim.c ****   /* Return function status */
 318:Drivers/STM32F4xx_HAL_Driver/Src/stm32f4xx_hal_tim.c ****   return HAL_OK;
 307              		.loc 1 318 0
 308 0028 0023     		movs	r3, #0
 319:Drivers/STM32F4xx_HAL_Driver/Src/stm32f4xx_hal_tim.c **** }
 309              		.loc 1 319 0
 310 002a 1846     		mov	r0, r3
 311 002c 0C37     		adds	r7, r7, #12
 312              	.LCFI25:
 313              		.cfi_def_cfa_offset 4
 314 002e BD46     		mov	sp, r7
 315              	.LCFI26:
 316              		.cfi_def_cfa_register 13
 317              		@ sp needed
ARM GAS  /tmp/cc4tSQEQ.s 			page 12


 318 0030 5DF8047B 		ldr	r7, [sp], #4
 319              	.LCFI27:
 320              		.cfi_restore 7
 321              		.cfi_def_cfa_offset 0
 322 0034 7047     		bx	lr
 323              		.cfi_endproc
 324              	.LFE128:
 326              		.section	.text.HAL_TIM_Base_Stop,"ax",%progbits
 327              		.align	1
 328              		.global	HAL_TIM_Base_Stop
 329              		.syntax unified
 330              		.thumb
 331              		.thumb_func
 332              		.fpu fpv4-sp-d16
 334              	HAL_TIM_Base_Stop:
 335              	.LFB129:
 320:Drivers/STM32F4xx_HAL_Driver/Src/stm32f4xx_hal_tim.c **** 
 321:Drivers/STM32F4xx_HAL_Driver/Src/stm32f4xx_hal_tim.c **** /**
 322:Drivers/STM32F4xx_HAL_Driver/Src/stm32f4xx_hal_tim.c ****   * @brief  Stops the TIM Base generation.
 323:Drivers/STM32F4xx_HAL_Driver/Src/stm32f4xx_hal_tim.c ****   * @param  htim pointer to a TIM_HandleTypeDef structure that contains
 324:Drivers/STM32F4xx_HAL_Driver/Src/stm32f4xx_hal_tim.c ****   *                the configuration information for TIM module.
 325:Drivers/STM32F4xx_HAL_Driver/Src/stm32f4xx_hal_tim.c ****   * @retval HAL status
 326:Drivers/STM32F4xx_HAL_Driver/Src/stm32f4xx_hal_tim.c ****   */
 327:Drivers/STM32F4xx_HAL_Driver/Src/stm32f4xx_hal_tim.c **** HAL_StatusTypeDef HAL_TIM_Base_Stop(TIM_HandleTypeDef *htim)
 328:Drivers/STM32F4xx_HAL_Driver/Src/stm32f4xx_hal_tim.c **** {
 336              		.loc 1 328 0
 337              		.cfi_startproc
 338              		@ args = 0, pretend = 0, frame = 8
 339              		@ frame_needed = 1, uses_anonymous_args = 0
 340              		@ link register save eliminated.
 341 0000 80B4     		push	{r7}
 342              	.LCFI28:
 343              		.cfi_def_cfa_offset 4
 344              		.cfi_offset 7, -4
 345 0002 83B0     		sub	sp, sp, #12
 346              	.LCFI29:
 347              		.cfi_def_cfa_offset 16
 348 0004 00AF     		add	r7, sp, #0
 349              	.LCFI30:
 350              		.cfi_def_cfa_register 7
 351 0006 7860     		str	r0, [r7, #4]
 329:Drivers/STM32F4xx_HAL_Driver/Src/stm32f4xx_hal_tim.c ****   /* Check the parameters */
 330:Drivers/STM32F4xx_HAL_Driver/Src/stm32f4xx_hal_tim.c ****   assert_param(IS_TIM_INSTANCE(htim->Instance));
 331:Drivers/STM32F4xx_HAL_Driver/Src/stm32f4xx_hal_tim.c ****   
 332:Drivers/STM32F4xx_HAL_Driver/Src/stm32f4xx_hal_tim.c ****   /* Set the TIM state */
 333:Drivers/STM32F4xx_HAL_Driver/Src/stm32f4xx_hal_tim.c ****   htim->State= HAL_TIM_STATE_BUSY;
 352              		.loc 1 333 0
 353 0008 7B68     		ldr	r3, [r7, #4]
 354 000a 0222     		movs	r2, #2
 355 000c 83F83920 		strb	r2, [r3, #57]
 334:Drivers/STM32F4xx_HAL_Driver/Src/stm32f4xx_hal_tim.c ****   
 335:Drivers/STM32F4xx_HAL_Driver/Src/stm32f4xx_hal_tim.c ****   /* Disable the Peripheral */
 336:Drivers/STM32F4xx_HAL_Driver/Src/stm32f4xx_hal_tim.c ****   __HAL_TIM_DISABLE(htim);
 356              		.loc 1 336 0
 357 0010 7B68     		ldr	r3, [r7, #4]
 358 0012 1B68     		ldr	r3, [r3]
 359 0014 1A6A     		ldr	r2, [r3, #32]
ARM GAS  /tmp/cc4tSQEQ.s 			page 13


 360 0016 41F21113 		movw	r3, #4369
 361 001a 1340     		ands	r3, r3, r2
 362 001c 002B     		cmp	r3, #0
 363 001e 0FD1     		bne	.L13
 364              		.loc 1 336 0 is_stmt 0 discriminator 1
 365 0020 7B68     		ldr	r3, [r7, #4]
 366 0022 1B68     		ldr	r3, [r3]
 367 0024 1A6A     		ldr	r2, [r3, #32]
 368 0026 40F24443 		movw	r3, #1092
 369 002a 1340     		ands	r3, r3, r2
 370 002c 002B     		cmp	r3, #0
 371 002e 07D1     		bne	.L13
 372              		.loc 1 336 0 discriminator 2
 373 0030 7B68     		ldr	r3, [r7, #4]
 374 0032 1B68     		ldr	r3, [r3]
 375 0034 7A68     		ldr	r2, [r7, #4]
 376 0036 1268     		ldr	r2, [r2]
 377 0038 1268     		ldr	r2, [r2]
 378 003a 22F00102 		bic	r2, r2, #1
 379 003e 1A60     		str	r2, [r3]
 380              	.L13:
 337:Drivers/STM32F4xx_HAL_Driver/Src/stm32f4xx_hal_tim.c ****   
 338:Drivers/STM32F4xx_HAL_Driver/Src/stm32f4xx_hal_tim.c ****   /* Change the TIM state*/
 339:Drivers/STM32F4xx_HAL_Driver/Src/stm32f4xx_hal_tim.c ****   htim->State= HAL_TIM_STATE_READY;
 381              		.loc 1 339 0 is_stmt 1
 382 0040 7B68     		ldr	r3, [r7, #4]
 383 0042 0122     		movs	r2, #1
 384 0044 83F83920 		strb	r2, [r3, #57]
 340:Drivers/STM32F4xx_HAL_Driver/Src/stm32f4xx_hal_tim.c ****   
 341:Drivers/STM32F4xx_HAL_Driver/Src/stm32f4xx_hal_tim.c ****   /* Return function status */
 342:Drivers/STM32F4xx_HAL_Driver/Src/stm32f4xx_hal_tim.c ****   return HAL_OK;
 385              		.loc 1 342 0
 386 0048 0023     		movs	r3, #0
 343:Drivers/STM32F4xx_HAL_Driver/Src/stm32f4xx_hal_tim.c **** }
 387              		.loc 1 343 0
 388 004a 1846     		mov	r0, r3
 389 004c 0C37     		adds	r7, r7, #12
 390              	.LCFI31:
 391              		.cfi_def_cfa_offset 4
 392 004e BD46     		mov	sp, r7
 393              	.LCFI32:
 394              		.cfi_def_cfa_register 13
 395              		@ sp needed
 396 0050 5DF8047B 		ldr	r7, [sp], #4
 397              	.LCFI33:
 398              		.cfi_restore 7
 399              		.cfi_def_cfa_offset 0
 400 0054 7047     		bx	lr
 401              		.cfi_endproc
 402              	.LFE129:
 404              		.section	.text.HAL_TIM_Base_Start_IT,"ax",%progbits
 405              		.align	1
 406              		.global	HAL_TIM_Base_Start_IT
 407              		.syntax unified
 408              		.thumb
 409              		.thumb_func
 410              		.fpu fpv4-sp-d16
ARM GAS  /tmp/cc4tSQEQ.s 			page 14


 412              	HAL_TIM_Base_Start_IT:
 413              	.LFB130:
 344:Drivers/STM32F4xx_HAL_Driver/Src/stm32f4xx_hal_tim.c **** 
 345:Drivers/STM32F4xx_HAL_Driver/Src/stm32f4xx_hal_tim.c **** /**
 346:Drivers/STM32F4xx_HAL_Driver/Src/stm32f4xx_hal_tim.c ****   * @brief  Starts the TIM Base generation in interrupt mode.
 347:Drivers/STM32F4xx_HAL_Driver/Src/stm32f4xx_hal_tim.c ****   * @param  htim pointer to a TIM_HandleTypeDef structure that contains
 348:Drivers/STM32F4xx_HAL_Driver/Src/stm32f4xx_hal_tim.c ****   *                the configuration information for TIM module.
 349:Drivers/STM32F4xx_HAL_Driver/Src/stm32f4xx_hal_tim.c ****   * @retval HAL status
 350:Drivers/STM32F4xx_HAL_Driver/Src/stm32f4xx_hal_tim.c ****   */
 351:Drivers/STM32F4xx_HAL_Driver/Src/stm32f4xx_hal_tim.c **** HAL_StatusTypeDef HAL_TIM_Base_Start_IT(TIM_HandleTypeDef *htim)
 352:Drivers/STM32F4xx_HAL_Driver/Src/stm32f4xx_hal_tim.c **** {
 414              		.loc 1 352 0
 415              		.cfi_startproc
 416              		@ args = 0, pretend = 0, frame = 8
 417              		@ frame_needed = 1, uses_anonymous_args = 0
 418              		@ link register save eliminated.
 419 0000 80B4     		push	{r7}
 420              	.LCFI34:
 421              		.cfi_def_cfa_offset 4
 422              		.cfi_offset 7, -4
 423 0002 83B0     		sub	sp, sp, #12
 424              	.LCFI35:
 425              		.cfi_def_cfa_offset 16
 426 0004 00AF     		add	r7, sp, #0
 427              	.LCFI36:
 428              		.cfi_def_cfa_register 7
 429 0006 7860     		str	r0, [r7, #4]
 353:Drivers/STM32F4xx_HAL_Driver/Src/stm32f4xx_hal_tim.c ****   /* Check the parameters */
 354:Drivers/STM32F4xx_HAL_Driver/Src/stm32f4xx_hal_tim.c ****   assert_param(IS_TIM_INSTANCE(htim->Instance));
 355:Drivers/STM32F4xx_HAL_Driver/Src/stm32f4xx_hal_tim.c ****   
 356:Drivers/STM32F4xx_HAL_Driver/Src/stm32f4xx_hal_tim.c ****   /* Enable the TIM Update interrupt */
 357:Drivers/STM32F4xx_HAL_Driver/Src/stm32f4xx_hal_tim.c ****   __HAL_TIM_ENABLE_IT(htim, TIM_IT_UPDATE);
 430              		.loc 1 357 0
 431 0008 7B68     		ldr	r3, [r7, #4]
 432 000a 1B68     		ldr	r3, [r3]
 433 000c 7A68     		ldr	r2, [r7, #4]
 434 000e 1268     		ldr	r2, [r2]
 435 0010 D268     		ldr	r2, [r2, #12]
 436 0012 42F00102 		orr	r2, r2, #1
 437 0016 DA60     		str	r2, [r3, #12]
 358:Drivers/STM32F4xx_HAL_Driver/Src/stm32f4xx_hal_tim.c ****       
 359:Drivers/STM32F4xx_HAL_Driver/Src/stm32f4xx_hal_tim.c ****   /* Enable the Peripheral */
 360:Drivers/STM32F4xx_HAL_Driver/Src/stm32f4xx_hal_tim.c ****   __HAL_TIM_ENABLE(htim);
 438              		.loc 1 360 0
 439 0018 7B68     		ldr	r3, [r7, #4]
 440 001a 1B68     		ldr	r3, [r3]
 441 001c 7A68     		ldr	r2, [r7, #4]
 442 001e 1268     		ldr	r2, [r2]
 443 0020 1268     		ldr	r2, [r2]
 444 0022 42F00102 		orr	r2, r2, #1
 445 0026 1A60     		str	r2, [r3]
 361:Drivers/STM32F4xx_HAL_Driver/Src/stm32f4xx_hal_tim.c ****       
 362:Drivers/STM32F4xx_HAL_Driver/Src/stm32f4xx_hal_tim.c ****   /* Return function status */
 363:Drivers/STM32F4xx_HAL_Driver/Src/stm32f4xx_hal_tim.c ****   return HAL_OK;
 446              		.loc 1 363 0
 447 0028 0023     		movs	r3, #0
 364:Drivers/STM32F4xx_HAL_Driver/Src/stm32f4xx_hal_tim.c **** }
ARM GAS  /tmp/cc4tSQEQ.s 			page 15


 448              		.loc 1 364 0
 449 002a 1846     		mov	r0, r3
 450 002c 0C37     		adds	r7, r7, #12
 451              	.LCFI37:
 452              		.cfi_def_cfa_offset 4
 453 002e BD46     		mov	sp, r7
 454              	.LCFI38:
 455              		.cfi_def_cfa_register 13
 456              		@ sp needed
 457 0030 5DF8047B 		ldr	r7, [sp], #4
 458              	.LCFI39:
 459              		.cfi_restore 7
 460              		.cfi_def_cfa_offset 0
 461 0034 7047     		bx	lr
 462              		.cfi_endproc
 463              	.LFE130:
 465              		.section	.text.HAL_TIM_Base_Stop_IT,"ax",%progbits
 466              		.align	1
 467              		.global	HAL_TIM_Base_Stop_IT
 468              		.syntax unified
 469              		.thumb
 470              		.thumb_func
 471              		.fpu fpv4-sp-d16
 473              	HAL_TIM_Base_Stop_IT:
 474              	.LFB131:
 365:Drivers/STM32F4xx_HAL_Driver/Src/stm32f4xx_hal_tim.c **** 
 366:Drivers/STM32F4xx_HAL_Driver/Src/stm32f4xx_hal_tim.c **** /**
 367:Drivers/STM32F4xx_HAL_Driver/Src/stm32f4xx_hal_tim.c ****   * @brief  Stops the TIM Base generation in interrupt mode.
 368:Drivers/STM32F4xx_HAL_Driver/Src/stm32f4xx_hal_tim.c ****   * @param  htim pointer to a TIM_HandleTypeDef structure that contains
 369:Drivers/STM32F4xx_HAL_Driver/Src/stm32f4xx_hal_tim.c ****   *                the configuration information for TIM module.
 370:Drivers/STM32F4xx_HAL_Driver/Src/stm32f4xx_hal_tim.c ****   * @retval HAL status
 371:Drivers/STM32F4xx_HAL_Driver/Src/stm32f4xx_hal_tim.c ****   */
 372:Drivers/STM32F4xx_HAL_Driver/Src/stm32f4xx_hal_tim.c **** HAL_StatusTypeDef HAL_TIM_Base_Stop_IT(TIM_HandleTypeDef *htim)
 373:Drivers/STM32F4xx_HAL_Driver/Src/stm32f4xx_hal_tim.c **** {
 475              		.loc 1 373 0
 476              		.cfi_startproc
 477              		@ args = 0, pretend = 0, frame = 8
 478              		@ frame_needed = 1, uses_anonymous_args = 0
 479              		@ link register save eliminated.
 480 0000 80B4     		push	{r7}
 481              	.LCFI40:
 482              		.cfi_def_cfa_offset 4
 483              		.cfi_offset 7, -4
 484 0002 83B0     		sub	sp, sp, #12
 485              	.LCFI41:
 486              		.cfi_def_cfa_offset 16
 487 0004 00AF     		add	r7, sp, #0
 488              	.LCFI42:
 489              		.cfi_def_cfa_register 7
 490 0006 7860     		str	r0, [r7, #4]
 374:Drivers/STM32F4xx_HAL_Driver/Src/stm32f4xx_hal_tim.c ****   /* Check the parameters */
 375:Drivers/STM32F4xx_HAL_Driver/Src/stm32f4xx_hal_tim.c ****   assert_param(IS_TIM_INSTANCE(htim->Instance));
 376:Drivers/STM32F4xx_HAL_Driver/Src/stm32f4xx_hal_tim.c ****   /* Disable the TIM Update interrupt */
 377:Drivers/STM32F4xx_HAL_Driver/Src/stm32f4xx_hal_tim.c ****   __HAL_TIM_DISABLE_IT(htim, TIM_IT_UPDATE);
 491              		.loc 1 377 0
 492 0008 7B68     		ldr	r3, [r7, #4]
 493 000a 1B68     		ldr	r3, [r3]
ARM GAS  /tmp/cc4tSQEQ.s 			page 16


 494 000c 7A68     		ldr	r2, [r7, #4]
 495 000e 1268     		ldr	r2, [r2]
 496 0010 D268     		ldr	r2, [r2, #12]
 497 0012 22F00102 		bic	r2, r2, #1
 498 0016 DA60     		str	r2, [r3, #12]
 378:Drivers/STM32F4xx_HAL_Driver/Src/stm32f4xx_hal_tim.c ****       
 379:Drivers/STM32F4xx_HAL_Driver/Src/stm32f4xx_hal_tim.c ****   /* Disable the Peripheral */
 380:Drivers/STM32F4xx_HAL_Driver/Src/stm32f4xx_hal_tim.c ****   __HAL_TIM_DISABLE(htim);
 499              		.loc 1 380 0
 500 0018 7B68     		ldr	r3, [r7, #4]
 501 001a 1B68     		ldr	r3, [r3]
 502 001c 1A6A     		ldr	r2, [r3, #32]
 503 001e 41F21113 		movw	r3, #4369
 504 0022 1340     		ands	r3, r3, r2
 505 0024 002B     		cmp	r3, #0
 506 0026 0FD1     		bne	.L18
 507              		.loc 1 380 0 is_stmt 0 discriminator 1
 508 0028 7B68     		ldr	r3, [r7, #4]
 509 002a 1B68     		ldr	r3, [r3]
 510 002c 1A6A     		ldr	r2, [r3, #32]
 511 002e 40F24443 		movw	r3, #1092
 512 0032 1340     		ands	r3, r3, r2
 513 0034 002B     		cmp	r3, #0
 514 0036 07D1     		bne	.L18
 515              		.loc 1 380 0 discriminator 2
 516 0038 7B68     		ldr	r3, [r7, #4]
 517 003a 1B68     		ldr	r3, [r3]
 518 003c 7A68     		ldr	r2, [r7, #4]
 519 003e 1268     		ldr	r2, [r2]
 520 0040 1268     		ldr	r2, [r2]
 521 0042 22F00102 		bic	r2, r2, #1
 522 0046 1A60     		str	r2, [r3]
 523              	.L18:
 381:Drivers/STM32F4xx_HAL_Driver/Src/stm32f4xx_hal_tim.c ****     
 382:Drivers/STM32F4xx_HAL_Driver/Src/stm32f4xx_hal_tim.c ****   /* Return function status */
 383:Drivers/STM32F4xx_HAL_Driver/Src/stm32f4xx_hal_tim.c ****   return HAL_OK;
 524              		.loc 1 383 0 is_stmt 1
 525 0048 0023     		movs	r3, #0
 384:Drivers/STM32F4xx_HAL_Driver/Src/stm32f4xx_hal_tim.c **** }
 526              		.loc 1 384 0
 527 004a 1846     		mov	r0, r3
 528 004c 0C37     		adds	r7, r7, #12
 529              	.LCFI43:
 530              		.cfi_def_cfa_offset 4
 531 004e BD46     		mov	sp, r7
 532              	.LCFI44:
 533              		.cfi_def_cfa_register 13
 534              		@ sp needed
 535 0050 5DF8047B 		ldr	r7, [sp], #4
 536              	.LCFI45:
 537              		.cfi_restore 7
 538              		.cfi_def_cfa_offset 0
 539 0054 7047     		bx	lr
 540              		.cfi_endproc
 541              	.LFE131:
 543              		.section	.text.HAL_TIM_Base_Start_DMA,"ax",%progbits
 544              		.align	1
ARM GAS  /tmp/cc4tSQEQ.s 			page 17


 545              		.global	HAL_TIM_Base_Start_DMA
 546              		.syntax unified
 547              		.thumb
 548              		.thumb_func
 549              		.fpu fpv4-sp-d16
 551              	HAL_TIM_Base_Start_DMA:
 552              	.LFB132:
 385:Drivers/STM32F4xx_HAL_Driver/Src/stm32f4xx_hal_tim.c **** 
 386:Drivers/STM32F4xx_HAL_Driver/Src/stm32f4xx_hal_tim.c **** /**
 387:Drivers/STM32F4xx_HAL_Driver/Src/stm32f4xx_hal_tim.c ****   * @brief  Starts the TIM Base generation in DMA mode.
 388:Drivers/STM32F4xx_HAL_Driver/Src/stm32f4xx_hal_tim.c ****   * @param  htim pointer to a TIM_HandleTypeDef structure that contains
 389:Drivers/STM32F4xx_HAL_Driver/Src/stm32f4xx_hal_tim.c ****   *                the configuration information for TIM module.
 390:Drivers/STM32F4xx_HAL_Driver/Src/stm32f4xx_hal_tim.c ****   * @param  pData The source Buffer address.
 391:Drivers/STM32F4xx_HAL_Driver/Src/stm32f4xx_hal_tim.c ****   * @param  Length The length of data to be transferred from memory to peripheral.
 392:Drivers/STM32F4xx_HAL_Driver/Src/stm32f4xx_hal_tim.c ****   * @retval HAL status
 393:Drivers/STM32F4xx_HAL_Driver/Src/stm32f4xx_hal_tim.c ****   */
 394:Drivers/STM32F4xx_HAL_Driver/Src/stm32f4xx_hal_tim.c **** HAL_StatusTypeDef HAL_TIM_Base_Start_DMA(TIM_HandleTypeDef *htim, uint32_t *pData, uint16_t Length)
 395:Drivers/STM32F4xx_HAL_Driver/Src/stm32f4xx_hal_tim.c **** {
 553              		.loc 1 395 0
 554              		.cfi_startproc
 555              		@ args = 0, pretend = 0, frame = 16
 556              		@ frame_needed = 1, uses_anonymous_args = 0
 557 0000 80B5     		push	{r7, lr}
 558              	.LCFI46:
 559              		.cfi_def_cfa_offset 8
 560              		.cfi_offset 7, -8
 561              		.cfi_offset 14, -4
 562 0002 84B0     		sub	sp, sp, #16
 563              	.LCFI47:
 564              		.cfi_def_cfa_offset 24
 565 0004 00AF     		add	r7, sp, #0
 566              	.LCFI48:
 567              		.cfi_def_cfa_register 7
 568 0006 F860     		str	r0, [r7, #12]
 569 0008 B960     		str	r1, [r7, #8]
 570 000a 1346     		mov	r3, r2
 571 000c FB80     		strh	r3, [r7, #6]	@ movhi
 396:Drivers/STM32F4xx_HAL_Driver/Src/stm32f4xx_hal_tim.c ****   /* Check the parameters */
 397:Drivers/STM32F4xx_HAL_Driver/Src/stm32f4xx_hal_tim.c ****   assert_param(IS_TIM_DMA_INSTANCE(htim->Instance)); 
 398:Drivers/STM32F4xx_HAL_Driver/Src/stm32f4xx_hal_tim.c ****   
 399:Drivers/STM32F4xx_HAL_Driver/Src/stm32f4xx_hal_tim.c ****   if((htim->State == HAL_TIM_STATE_BUSY))
 572              		.loc 1 399 0
 573 000e FB68     		ldr	r3, [r7, #12]
 574 0010 93F83930 		ldrb	r3, [r3, #57]
 575 0014 DBB2     		uxtb	r3, r3
 576 0016 022B     		cmp	r3, #2
 577 0018 01D1     		bne	.L21
 400:Drivers/STM32F4xx_HAL_Driver/Src/stm32f4xx_hal_tim.c ****   {
 401:Drivers/STM32F4xx_HAL_Driver/Src/stm32f4xx_hal_tim.c ****      return HAL_BUSY;
 578              		.loc 1 401 0
 579 001a 0223     		movs	r3, #2
 580 001c 34E0     		b	.L22
 581              	.L21:
 402:Drivers/STM32F4xx_HAL_Driver/Src/stm32f4xx_hal_tim.c ****   }
 403:Drivers/STM32F4xx_HAL_Driver/Src/stm32f4xx_hal_tim.c ****   else if((htim->State == HAL_TIM_STATE_READY))
 582              		.loc 1 403 0
 583 001e FB68     		ldr	r3, [r7, #12]
ARM GAS  /tmp/cc4tSQEQ.s 			page 18


 584 0020 93F83930 		ldrb	r3, [r3, #57]
 585 0024 DBB2     		uxtb	r3, r3
 586 0026 012B     		cmp	r3, #1
 587 0028 0BD1     		bne	.L23
 404:Drivers/STM32F4xx_HAL_Driver/Src/stm32f4xx_hal_tim.c ****   {
 405:Drivers/STM32F4xx_HAL_Driver/Src/stm32f4xx_hal_tim.c ****     if((pData == 0U) && (Length > 0)) 
 588              		.loc 1 405 0
 589 002a BB68     		ldr	r3, [r7, #8]
 590 002c 002B     		cmp	r3, #0
 591 002e 04D1     		bne	.L24
 592              		.loc 1 405 0 is_stmt 0 discriminator 1
 593 0030 FB88     		ldrh	r3, [r7, #6]
 594 0032 002B     		cmp	r3, #0
 595 0034 01D0     		beq	.L24
 406:Drivers/STM32F4xx_HAL_Driver/Src/stm32f4xx_hal_tim.c ****     {
 407:Drivers/STM32F4xx_HAL_Driver/Src/stm32f4xx_hal_tim.c ****       return HAL_ERROR;                                    
 596              		.loc 1 407 0 is_stmt 1
 597 0036 0123     		movs	r3, #1
 598 0038 26E0     		b	.L22
 599              	.L24:
 408:Drivers/STM32F4xx_HAL_Driver/Src/stm32f4xx_hal_tim.c ****     }
 409:Drivers/STM32F4xx_HAL_Driver/Src/stm32f4xx_hal_tim.c ****     else
 410:Drivers/STM32F4xx_HAL_Driver/Src/stm32f4xx_hal_tim.c ****     {
 411:Drivers/STM32F4xx_HAL_Driver/Src/stm32f4xx_hal_tim.c ****       htim->State = HAL_TIM_STATE_BUSY;
 600              		.loc 1 411 0
 601 003a FB68     		ldr	r3, [r7, #12]
 602 003c 0222     		movs	r2, #2
 603 003e 83F83920 		strb	r2, [r3, #57]
 604              	.L23:
 412:Drivers/STM32F4xx_HAL_Driver/Src/stm32f4xx_hal_tim.c ****     }
 413:Drivers/STM32F4xx_HAL_Driver/Src/stm32f4xx_hal_tim.c ****   }  
 414:Drivers/STM32F4xx_HAL_Driver/Src/stm32f4xx_hal_tim.c ****   /* Set the DMA Period elapsed callback */
 415:Drivers/STM32F4xx_HAL_Driver/Src/stm32f4xx_hal_tim.c ****   htim->hdma[TIM_DMA_ID_UPDATE]->XferCpltCallback = TIM_DMAPeriodElapsedCplt;
 605              		.loc 1 415 0
 606 0042 FB68     		ldr	r3, [r7, #12]
 607 0044 DB69     		ldr	r3, [r3, #28]
 608 0046 124A     		ldr	r2, .L25
 609 0048 DA63     		str	r2, [r3, #60]
 416:Drivers/STM32F4xx_HAL_Driver/Src/stm32f4xx_hal_tim.c ****      
 417:Drivers/STM32F4xx_HAL_Driver/Src/stm32f4xx_hal_tim.c ****   /* Set the DMA error callback */
 418:Drivers/STM32F4xx_HAL_Driver/Src/stm32f4xx_hal_tim.c ****   htim->hdma[TIM_DMA_ID_UPDATE]->XferErrorCallback = TIM_DMAError ;
 610              		.loc 1 418 0
 611 004a FB68     		ldr	r3, [r7, #12]
 612 004c DB69     		ldr	r3, [r3, #28]
 613 004e 114A     		ldr	r2, .L25+4
 614 0050 DA64     		str	r2, [r3, #76]
 419:Drivers/STM32F4xx_HAL_Driver/Src/stm32f4xx_hal_tim.c ****   
 420:Drivers/STM32F4xx_HAL_Driver/Src/stm32f4xx_hal_tim.c ****   /* Enable the DMA Stream */
 421:Drivers/STM32F4xx_HAL_Driver/Src/stm32f4xx_hal_tim.c ****   HAL_DMA_Start_IT(htim->hdma[TIM_DMA_ID_UPDATE], (uint32_t)pData, (uint32_t)&htim->Instance->ARR, 
 615              		.loc 1 421 0
 616 0052 FB68     		ldr	r3, [r7, #12]
 617 0054 D869     		ldr	r0, [r3, #28]
 618 0056 B968     		ldr	r1, [r7, #8]
 619 0058 FB68     		ldr	r3, [r7, #12]
 620 005a 1B68     		ldr	r3, [r3]
 621 005c 2C33     		adds	r3, r3, #44
 622 005e 1A46     		mov	r2, r3
ARM GAS  /tmp/cc4tSQEQ.s 			page 19


 623 0060 FB88     		ldrh	r3, [r7, #6]
 624 0062 FFF7FEFF 		bl	HAL_DMA_Start_IT
 422:Drivers/STM32F4xx_HAL_Driver/Src/stm32f4xx_hal_tim.c ****   
 423:Drivers/STM32F4xx_HAL_Driver/Src/stm32f4xx_hal_tim.c ****   /* Enable the TIM Update DMA request */
 424:Drivers/STM32F4xx_HAL_Driver/Src/stm32f4xx_hal_tim.c ****   __HAL_TIM_ENABLE_DMA(htim, TIM_DMA_UPDATE);
 625              		.loc 1 424 0
 626 0066 FB68     		ldr	r3, [r7, #12]
 627 0068 1B68     		ldr	r3, [r3]
 628 006a FA68     		ldr	r2, [r7, #12]
 629 006c 1268     		ldr	r2, [r2]
 630 006e D268     		ldr	r2, [r2, #12]
 631 0070 42F48072 		orr	r2, r2, #256
 632 0074 DA60     		str	r2, [r3, #12]
 425:Drivers/STM32F4xx_HAL_Driver/Src/stm32f4xx_hal_tim.c **** 
 426:Drivers/STM32F4xx_HAL_Driver/Src/stm32f4xx_hal_tim.c ****   /* Enable the Peripheral */
 427:Drivers/STM32F4xx_HAL_Driver/Src/stm32f4xx_hal_tim.c ****   __HAL_TIM_ENABLE(htim);  
 633              		.loc 1 427 0
 634 0076 FB68     		ldr	r3, [r7, #12]
 635 0078 1B68     		ldr	r3, [r3]
 636 007a FA68     		ldr	r2, [r7, #12]
 637 007c 1268     		ldr	r2, [r2]
 638 007e 1268     		ldr	r2, [r2]
 639 0080 42F00102 		orr	r2, r2, #1
 640 0084 1A60     		str	r2, [r3]
 428:Drivers/STM32F4xx_HAL_Driver/Src/stm32f4xx_hal_tim.c ****   
 429:Drivers/STM32F4xx_HAL_Driver/Src/stm32f4xx_hal_tim.c ****   /* Return function status */
 430:Drivers/STM32F4xx_HAL_Driver/Src/stm32f4xx_hal_tim.c ****   return HAL_OK;
 641              		.loc 1 430 0
 642 0086 0023     		movs	r3, #0
 643              	.L22:
 431:Drivers/STM32F4xx_HAL_Driver/Src/stm32f4xx_hal_tim.c **** }
 644              		.loc 1 431 0
 645 0088 1846     		mov	r0, r3
 646 008a 1037     		adds	r7, r7, #16
 647              	.LCFI49:
 648              		.cfi_def_cfa_offset 8
 649 008c BD46     		mov	sp, r7
 650              	.LCFI50:
 651              		.cfi_def_cfa_register 13
 652              		@ sp needed
 653 008e 80BD     		pop	{r7, pc}
 654              	.L26:
 655              		.align	2
 656              	.L25:
 657 0090 00000000 		.word	TIM_DMAPeriodElapsedCplt
 658 0094 00000000 		.word	TIM_DMAError
 659              		.cfi_endproc
 660              	.LFE132:
 662              		.section	.text.HAL_TIM_Base_Stop_DMA,"ax",%progbits
 663              		.align	1
 664              		.global	HAL_TIM_Base_Stop_DMA
 665              		.syntax unified
 666              		.thumb
 667              		.thumb_func
 668              		.fpu fpv4-sp-d16
 670              	HAL_TIM_Base_Stop_DMA:
 671              	.LFB133:
ARM GAS  /tmp/cc4tSQEQ.s 			page 20


 432:Drivers/STM32F4xx_HAL_Driver/Src/stm32f4xx_hal_tim.c **** 
 433:Drivers/STM32F4xx_HAL_Driver/Src/stm32f4xx_hal_tim.c **** /**
 434:Drivers/STM32F4xx_HAL_Driver/Src/stm32f4xx_hal_tim.c ****   * @brief  Stops the TIM Base generation in DMA mode.
 435:Drivers/STM32F4xx_HAL_Driver/Src/stm32f4xx_hal_tim.c ****   * @param  htim pointer to a TIM_HandleTypeDef structure that contains
 436:Drivers/STM32F4xx_HAL_Driver/Src/stm32f4xx_hal_tim.c ****   *                the configuration information for TIM module.
 437:Drivers/STM32F4xx_HAL_Driver/Src/stm32f4xx_hal_tim.c ****   * @retval HAL status
 438:Drivers/STM32F4xx_HAL_Driver/Src/stm32f4xx_hal_tim.c ****   */
 439:Drivers/STM32F4xx_HAL_Driver/Src/stm32f4xx_hal_tim.c **** HAL_StatusTypeDef HAL_TIM_Base_Stop_DMA(TIM_HandleTypeDef *htim)
 440:Drivers/STM32F4xx_HAL_Driver/Src/stm32f4xx_hal_tim.c **** {
 672              		.loc 1 440 0
 673              		.cfi_startproc
 674              		@ args = 0, pretend = 0, frame = 8
 675              		@ frame_needed = 1, uses_anonymous_args = 0
 676              		@ link register save eliminated.
 677 0000 80B4     		push	{r7}
 678              	.LCFI51:
 679              		.cfi_def_cfa_offset 4
 680              		.cfi_offset 7, -4
 681 0002 83B0     		sub	sp, sp, #12
 682              	.LCFI52:
 683              		.cfi_def_cfa_offset 16
 684 0004 00AF     		add	r7, sp, #0
 685              	.LCFI53:
 686              		.cfi_def_cfa_register 7
 687 0006 7860     		str	r0, [r7, #4]
 441:Drivers/STM32F4xx_HAL_Driver/Src/stm32f4xx_hal_tim.c ****   /* Check the parameters */
 442:Drivers/STM32F4xx_HAL_Driver/Src/stm32f4xx_hal_tim.c ****   assert_param(IS_TIM_DMA_INSTANCE(htim->Instance));
 443:Drivers/STM32F4xx_HAL_Driver/Src/stm32f4xx_hal_tim.c ****   
 444:Drivers/STM32F4xx_HAL_Driver/Src/stm32f4xx_hal_tim.c ****   /* Disable the TIM Update DMA request */
 445:Drivers/STM32F4xx_HAL_Driver/Src/stm32f4xx_hal_tim.c ****   __HAL_TIM_DISABLE_DMA(htim, TIM_DMA_UPDATE);
 688              		.loc 1 445 0
 689 0008 7B68     		ldr	r3, [r7, #4]
 690 000a 1B68     		ldr	r3, [r3]
 691 000c 7A68     		ldr	r2, [r7, #4]
 692 000e 1268     		ldr	r2, [r2]
 693 0010 D268     		ldr	r2, [r2, #12]
 694 0012 22F48072 		bic	r2, r2, #256
 695 0016 DA60     		str	r2, [r3, #12]
 446:Drivers/STM32F4xx_HAL_Driver/Src/stm32f4xx_hal_tim.c ****       
 447:Drivers/STM32F4xx_HAL_Driver/Src/stm32f4xx_hal_tim.c ****   /* Disable the Peripheral */
 448:Drivers/STM32F4xx_HAL_Driver/Src/stm32f4xx_hal_tim.c ****   __HAL_TIM_DISABLE(htim);
 696              		.loc 1 448 0
 697 0018 7B68     		ldr	r3, [r7, #4]
 698 001a 1B68     		ldr	r3, [r3]
 699 001c 1A6A     		ldr	r2, [r3, #32]
 700 001e 41F21113 		movw	r3, #4369
 701 0022 1340     		ands	r3, r3, r2
 702 0024 002B     		cmp	r3, #0
 703 0026 0FD1     		bne	.L28
 704              		.loc 1 448 0 is_stmt 0 discriminator 1
 705 0028 7B68     		ldr	r3, [r7, #4]
 706 002a 1B68     		ldr	r3, [r3]
 707 002c 1A6A     		ldr	r2, [r3, #32]
 708 002e 40F24443 		movw	r3, #1092
 709 0032 1340     		ands	r3, r3, r2
 710 0034 002B     		cmp	r3, #0
 711 0036 07D1     		bne	.L28
ARM GAS  /tmp/cc4tSQEQ.s 			page 21


 712              		.loc 1 448 0 discriminator 2
 713 0038 7B68     		ldr	r3, [r7, #4]
 714 003a 1B68     		ldr	r3, [r3]
 715 003c 7A68     		ldr	r2, [r7, #4]
 716 003e 1268     		ldr	r2, [r2]
 717 0040 1268     		ldr	r2, [r2]
 718 0042 22F00102 		bic	r2, r2, #1
 719 0046 1A60     		str	r2, [r3]
 720              	.L28:
 449:Drivers/STM32F4xx_HAL_Driver/Src/stm32f4xx_hal_tim.c ****     
 450:Drivers/STM32F4xx_HAL_Driver/Src/stm32f4xx_hal_tim.c ****   /* Change the htim state */
 451:Drivers/STM32F4xx_HAL_Driver/Src/stm32f4xx_hal_tim.c ****   htim->State = HAL_TIM_STATE_READY;
 721              		.loc 1 451 0 is_stmt 1
 722 0048 7B68     		ldr	r3, [r7, #4]
 723 004a 0122     		movs	r2, #1
 724 004c 83F83920 		strb	r2, [r3, #57]
 452:Drivers/STM32F4xx_HAL_Driver/Src/stm32f4xx_hal_tim.c ****       
 453:Drivers/STM32F4xx_HAL_Driver/Src/stm32f4xx_hal_tim.c ****   /* Return function status */
 454:Drivers/STM32F4xx_HAL_Driver/Src/stm32f4xx_hal_tim.c ****   return HAL_OK;
 725              		.loc 1 454 0
 726 0050 0023     		movs	r3, #0
 455:Drivers/STM32F4xx_HAL_Driver/Src/stm32f4xx_hal_tim.c **** }
 727              		.loc 1 455 0
 728 0052 1846     		mov	r0, r3
 729 0054 0C37     		adds	r7, r7, #12
 730              	.LCFI54:
 731              		.cfi_def_cfa_offset 4
 732 0056 BD46     		mov	sp, r7
 733              	.LCFI55:
 734              		.cfi_def_cfa_register 13
 735              		@ sp needed
 736 0058 5DF8047B 		ldr	r7, [sp], #4
 737              	.LCFI56:
 738              		.cfi_restore 7
 739              		.cfi_def_cfa_offset 0
 740 005c 7047     		bx	lr
 741              		.cfi_endproc
 742              	.LFE133:
 744              		.section	.text.HAL_TIM_OC_Init,"ax",%progbits
 745              		.align	1
 746              		.global	HAL_TIM_OC_Init
 747              		.syntax unified
 748              		.thumb
 749              		.thumb_func
 750              		.fpu fpv4-sp-d16
 752              	HAL_TIM_OC_Init:
 753              	.LFB134:
 456:Drivers/STM32F4xx_HAL_Driver/Src/stm32f4xx_hal_tim.c **** /**
 457:Drivers/STM32F4xx_HAL_Driver/Src/stm32f4xx_hal_tim.c ****   * @}
 458:Drivers/STM32F4xx_HAL_Driver/Src/stm32f4xx_hal_tim.c ****   */
 459:Drivers/STM32F4xx_HAL_Driver/Src/stm32f4xx_hal_tim.c ****   
 460:Drivers/STM32F4xx_HAL_Driver/Src/stm32f4xx_hal_tim.c **** /** @defgroup TIM_Exported_Functions_Group2 Time Output Compare functions 
 461:Drivers/STM32F4xx_HAL_Driver/Src/stm32f4xx_hal_tim.c ****  *  @brief    Time Output Compare functions 
 462:Drivers/STM32F4xx_HAL_Driver/Src/stm32f4xx_hal_tim.c ****  *
 463:Drivers/STM32F4xx_HAL_Driver/Src/stm32f4xx_hal_tim.c **** @verbatim    
 464:Drivers/STM32F4xx_HAL_Driver/Src/stm32f4xx_hal_tim.c ****   ==============================================================================
 465:Drivers/STM32F4xx_HAL_Driver/Src/stm32f4xx_hal_tim.c ****                   ##### Time Output Compare functions #####
ARM GAS  /tmp/cc4tSQEQ.s 			page 22


 466:Drivers/STM32F4xx_HAL_Driver/Src/stm32f4xx_hal_tim.c ****   ==============================================================================
 467:Drivers/STM32F4xx_HAL_Driver/Src/stm32f4xx_hal_tim.c ****   [..]
 468:Drivers/STM32F4xx_HAL_Driver/Src/stm32f4xx_hal_tim.c ****     This section provides functions allowing to:
 469:Drivers/STM32F4xx_HAL_Driver/Src/stm32f4xx_hal_tim.c ****     (+) Initialize and configure the TIM Output Compare. 
 470:Drivers/STM32F4xx_HAL_Driver/Src/stm32f4xx_hal_tim.c ****     (+) De-initialize the TIM Output Compare.
 471:Drivers/STM32F4xx_HAL_Driver/Src/stm32f4xx_hal_tim.c ****     (+) Start the Time Output Compare.
 472:Drivers/STM32F4xx_HAL_Driver/Src/stm32f4xx_hal_tim.c ****     (+) Stop the Time Output Compare.
 473:Drivers/STM32F4xx_HAL_Driver/Src/stm32f4xx_hal_tim.c ****     (+) Start the Time Output Compare and enable interrupt.
 474:Drivers/STM32F4xx_HAL_Driver/Src/stm32f4xx_hal_tim.c ****     (+) Stop the Time Output Compare and disable interrupt.
 475:Drivers/STM32F4xx_HAL_Driver/Src/stm32f4xx_hal_tim.c ****     (+) Start the Time Output Compare and enable DMA transfer.
 476:Drivers/STM32F4xx_HAL_Driver/Src/stm32f4xx_hal_tim.c ****     (+) Stop the Time Output Compare and disable DMA transfer.
 477:Drivers/STM32F4xx_HAL_Driver/Src/stm32f4xx_hal_tim.c ****  
 478:Drivers/STM32F4xx_HAL_Driver/Src/stm32f4xx_hal_tim.c **** @endverbatim
 479:Drivers/STM32F4xx_HAL_Driver/Src/stm32f4xx_hal_tim.c ****   * @{
 480:Drivers/STM32F4xx_HAL_Driver/Src/stm32f4xx_hal_tim.c ****   */
 481:Drivers/STM32F4xx_HAL_Driver/Src/stm32f4xx_hal_tim.c **** /**
 482:Drivers/STM32F4xx_HAL_Driver/Src/stm32f4xx_hal_tim.c ****   * @brief  Initializes the TIM Output Compare according to the specified
 483:Drivers/STM32F4xx_HAL_Driver/Src/stm32f4xx_hal_tim.c ****   *         parameters in the TIM_HandleTypeDef and create the associated handle.
 484:Drivers/STM32F4xx_HAL_Driver/Src/stm32f4xx_hal_tim.c ****   * @param  htim pointer to a TIM_HandleTypeDef structure that contains
 485:Drivers/STM32F4xx_HAL_Driver/Src/stm32f4xx_hal_tim.c ****   *                the configuration information for TIM module.
 486:Drivers/STM32F4xx_HAL_Driver/Src/stm32f4xx_hal_tim.c ****   * @retval HAL status
 487:Drivers/STM32F4xx_HAL_Driver/Src/stm32f4xx_hal_tim.c ****   */
 488:Drivers/STM32F4xx_HAL_Driver/Src/stm32f4xx_hal_tim.c **** HAL_StatusTypeDef HAL_TIM_OC_Init(TIM_HandleTypeDef* htim)
 489:Drivers/STM32F4xx_HAL_Driver/Src/stm32f4xx_hal_tim.c **** {
 754              		.loc 1 489 0
 755              		.cfi_startproc
 756              		@ args = 0, pretend = 0, frame = 8
 757              		@ frame_needed = 1, uses_anonymous_args = 0
 758 0000 80B5     		push	{r7, lr}
 759              	.LCFI57:
 760              		.cfi_def_cfa_offset 8
 761              		.cfi_offset 7, -8
 762              		.cfi_offset 14, -4
 763 0002 82B0     		sub	sp, sp, #8
 764              	.LCFI58:
 765              		.cfi_def_cfa_offset 16
 766 0004 00AF     		add	r7, sp, #0
 767              	.LCFI59:
 768              		.cfi_def_cfa_register 7
 769 0006 7860     		str	r0, [r7, #4]
 490:Drivers/STM32F4xx_HAL_Driver/Src/stm32f4xx_hal_tim.c ****   /* Check the TIM handle allocation */
 491:Drivers/STM32F4xx_HAL_Driver/Src/stm32f4xx_hal_tim.c ****   if(htim == NULL)
 770              		.loc 1 491 0
 771 0008 7B68     		ldr	r3, [r7, #4]
 772 000a 002B     		cmp	r3, #0
 773 000c 01D1     		bne	.L31
 492:Drivers/STM32F4xx_HAL_Driver/Src/stm32f4xx_hal_tim.c ****   {
 493:Drivers/STM32F4xx_HAL_Driver/Src/stm32f4xx_hal_tim.c ****     return HAL_ERROR;
 774              		.loc 1 493 0
 775 000e 0123     		movs	r3, #1
 776 0010 1DE0     		b	.L32
 777              	.L31:
 494:Drivers/STM32F4xx_HAL_Driver/Src/stm32f4xx_hal_tim.c ****   }
 495:Drivers/STM32F4xx_HAL_Driver/Src/stm32f4xx_hal_tim.c **** 
 496:Drivers/STM32F4xx_HAL_Driver/Src/stm32f4xx_hal_tim.c ****   /* Check the parameters */
 497:Drivers/STM32F4xx_HAL_Driver/Src/stm32f4xx_hal_tim.c ****   assert_param(IS_TIM_INSTANCE(htim->Instance));
 498:Drivers/STM32F4xx_HAL_Driver/Src/stm32f4xx_hal_tim.c ****   assert_param(IS_TIM_COUNTER_MODE(htim->Init.CounterMode));
ARM GAS  /tmp/cc4tSQEQ.s 			page 23


 499:Drivers/STM32F4xx_HAL_Driver/Src/stm32f4xx_hal_tim.c ****   assert_param(IS_TIM_CLOCKDIVISION_DIV(htim->Init.ClockDivision));
 500:Drivers/STM32F4xx_HAL_Driver/Src/stm32f4xx_hal_tim.c ****  
 501:Drivers/STM32F4xx_HAL_Driver/Src/stm32f4xx_hal_tim.c ****   if(htim->State == HAL_TIM_STATE_RESET)
 778              		.loc 1 501 0
 779 0012 7B68     		ldr	r3, [r7, #4]
 780 0014 93F83930 		ldrb	r3, [r3, #57]
 781 0018 DBB2     		uxtb	r3, r3
 782 001a 002B     		cmp	r3, #0
 783 001c 06D1     		bne	.L33
 502:Drivers/STM32F4xx_HAL_Driver/Src/stm32f4xx_hal_tim.c ****   { 
 503:Drivers/STM32F4xx_HAL_Driver/Src/stm32f4xx_hal_tim.c ****     /* Allocate lock resource and initialize it */
 504:Drivers/STM32F4xx_HAL_Driver/Src/stm32f4xx_hal_tim.c ****     htim->Lock = HAL_UNLOCKED;
 784              		.loc 1 504 0
 785 001e 7B68     		ldr	r3, [r7, #4]
 786 0020 0022     		movs	r2, #0
 787 0022 83F83820 		strb	r2, [r3, #56]
 505:Drivers/STM32F4xx_HAL_Driver/Src/stm32f4xx_hal_tim.c ****     /* Init the low level hardware : GPIO, CLOCK, NVIC and DMA */
 506:Drivers/STM32F4xx_HAL_Driver/Src/stm32f4xx_hal_tim.c ****     HAL_TIM_OC_MspInit(htim);
 788              		.loc 1 506 0
 789 0026 7868     		ldr	r0, [r7, #4]
 790 0028 FFF7FEFF 		bl	HAL_TIM_OC_MspInit
 791              	.L33:
 507:Drivers/STM32F4xx_HAL_Driver/Src/stm32f4xx_hal_tim.c ****   }
 508:Drivers/STM32F4xx_HAL_Driver/Src/stm32f4xx_hal_tim.c ****   
 509:Drivers/STM32F4xx_HAL_Driver/Src/stm32f4xx_hal_tim.c ****   /* Set the TIM state */
 510:Drivers/STM32F4xx_HAL_Driver/Src/stm32f4xx_hal_tim.c ****   htim->State= HAL_TIM_STATE_BUSY;
 792              		.loc 1 510 0
 793 002c 7B68     		ldr	r3, [r7, #4]
 794 002e 0222     		movs	r2, #2
 795 0030 83F83920 		strb	r2, [r3, #57]
 511:Drivers/STM32F4xx_HAL_Driver/Src/stm32f4xx_hal_tim.c ****   
 512:Drivers/STM32F4xx_HAL_Driver/Src/stm32f4xx_hal_tim.c ****   /* Init the base time for the Output Compare */  
 513:Drivers/STM32F4xx_HAL_Driver/Src/stm32f4xx_hal_tim.c ****   TIM_Base_SetConfig(htim->Instance,  &htim->Init); 
 796              		.loc 1 513 0
 797 0034 7B68     		ldr	r3, [r7, #4]
 798 0036 1A68     		ldr	r2, [r3]
 799 0038 7B68     		ldr	r3, [r7, #4]
 800 003a 0433     		adds	r3, r3, #4
 801 003c 1946     		mov	r1, r3
 802 003e 1046     		mov	r0, r2
 803 0040 FFF7FEFF 		bl	TIM_Base_SetConfig
 514:Drivers/STM32F4xx_HAL_Driver/Src/stm32f4xx_hal_tim.c ****   
 515:Drivers/STM32F4xx_HAL_Driver/Src/stm32f4xx_hal_tim.c ****   /* Initialize the TIM state*/
 516:Drivers/STM32F4xx_HAL_Driver/Src/stm32f4xx_hal_tim.c ****   htim->State= HAL_TIM_STATE_READY;
 804              		.loc 1 516 0
 805 0044 7B68     		ldr	r3, [r7, #4]
 806 0046 0122     		movs	r2, #1
 807 0048 83F83920 		strb	r2, [r3, #57]
 517:Drivers/STM32F4xx_HAL_Driver/Src/stm32f4xx_hal_tim.c ****   
 518:Drivers/STM32F4xx_HAL_Driver/Src/stm32f4xx_hal_tim.c ****   return HAL_OK;
 808              		.loc 1 518 0
 809 004c 0023     		movs	r3, #0
 810              	.L32:
 519:Drivers/STM32F4xx_HAL_Driver/Src/stm32f4xx_hal_tim.c **** }
 811              		.loc 1 519 0
 812 004e 1846     		mov	r0, r3
 813 0050 0837     		adds	r7, r7, #8
ARM GAS  /tmp/cc4tSQEQ.s 			page 24


 814              	.LCFI60:
 815              		.cfi_def_cfa_offset 8
 816 0052 BD46     		mov	sp, r7
 817              	.LCFI61:
 818              		.cfi_def_cfa_register 13
 819              		@ sp needed
 820 0054 80BD     		pop	{r7, pc}
 821              		.cfi_endproc
 822              	.LFE134:
 824              		.section	.text.HAL_TIM_OC_DeInit,"ax",%progbits
 825              		.align	1
 826              		.global	HAL_TIM_OC_DeInit
 827              		.syntax unified
 828              		.thumb
 829              		.thumb_func
 830              		.fpu fpv4-sp-d16
 832              	HAL_TIM_OC_DeInit:
 833              	.LFB135:
 520:Drivers/STM32F4xx_HAL_Driver/Src/stm32f4xx_hal_tim.c **** 
 521:Drivers/STM32F4xx_HAL_Driver/Src/stm32f4xx_hal_tim.c **** /**
 522:Drivers/STM32F4xx_HAL_Driver/Src/stm32f4xx_hal_tim.c ****   * @brief  DeInitializes the TIM peripheral 
 523:Drivers/STM32F4xx_HAL_Driver/Src/stm32f4xx_hal_tim.c ****   * @param  htim pointer to a TIM_HandleTypeDef structure that contains
 524:Drivers/STM32F4xx_HAL_Driver/Src/stm32f4xx_hal_tim.c ****   *                the configuration information for TIM module.
 525:Drivers/STM32F4xx_HAL_Driver/Src/stm32f4xx_hal_tim.c ****   * @retval HAL status
 526:Drivers/STM32F4xx_HAL_Driver/Src/stm32f4xx_hal_tim.c ****   */
 527:Drivers/STM32F4xx_HAL_Driver/Src/stm32f4xx_hal_tim.c **** HAL_StatusTypeDef HAL_TIM_OC_DeInit(TIM_HandleTypeDef *htim)
 528:Drivers/STM32F4xx_HAL_Driver/Src/stm32f4xx_hal_tim.c **** {
 834              		.loc 1 528 0
 835              		.cfi_startproc
 836              		@ args = 0, pretend = 0, frame = 8
 837              		@ frame_needed = 1, uses_anonymous_args = 0
 838 0000 80B5     		push	{r7, lr}
 839              	.LCFI62:
 840              		.cfi_def_cfa_offset 8
 841              		.cfi_offset 7, -8
 842              		.cfi_offset 14, -4
 843 0002 82B0     		sub	sp, sp, #8
 844              	.LCFI63:
 845              		.cfi_def_cfa_offset 16
 846 0004 00AF     		add	r7, sp, #0
 847              	.LCFI64:
 848              		.cfi_def_cfa_register 7
 849 0006 7860     		str	r0, [r7, #4]
 529:Drivers/STM32F4xx_HAL_Driver/Src/stm32f4xx_hal_tim.c ****   /* Check the parameters */
 530:Drivers/STM32F4xx_HAL_Driver/Src/stm32f4xx_hal_tim.c ****   assert_param(IS_TIM_INSTANCE(htim->Instance));
 531:Drivers/STM32F4xx_HAL_Driver/Src/stm32f4xx_hal_tim.c ****   
 532:Drivers/STM32F4xx_HAL_Driver/Src/stm32f4xx_hal_tim.c ****    htim->State = HAL_TIM_STATE_BUSY;
 850              		.loc 1 532 0
 851 0008 7B68     		ldr	r3, [r7, #4]
 852 000a 0222     		movs	r2, #2
 853 000c 83F83920 		strb	r2, [r3, #57]
 533:Drivers/STM32F4xx_HAL_Driver/Src/stm32f4xx_hal_tim.c ****    
 534:Drivers/STM32F4xx_HAL_Driver/Src/stm32f4xx_hal_tim.c ****   /* Disable the TIM Peripheral Clock */
 535:Drivers/STM32F4xx_HAL_Driver/Src/stm32f4xx_hal_tim.c ****   __HAL_TIM_DISABLE(htim);
 854              		.loc 1 535 0
 855 0010 7B68     		ldr	r3, [r7, #4]
 856 0012 1B68     		ldr	r3, [r3]
ARM GAS  /tmp/cc4tSQEQ.s 			page 25


 857 0014 1A6A     		ldr	r2, [r3, #32]
 858 0016 41F21113 		movw	r3, #4369
 859 001a 1340     		ands	r3, r3, r2
 860 001c 002B     		cmp	r3, #0
 861 001e 0FD1     		bne	.L35
 862              		.loc 1 535 0 is_stmt 0 discriminator 1
 863 0020 7B68     		ldr	r3, [r7, #4]
 864 0022 1B68     		ldr	r3, [r3]
 865 0024 1A6A     		ldr	r2, [r3, #32]
 866 0026 40F24443 		movw	r3, #1092
 867 002a 1340     		ands	r3, r3, r2
 868 002c 002B     		cmp	r3, #0
 869 002e 07D1     		bne	.L35
 870              		.loc 1 535 0 discriminator 2
 871 0030 7B68     		ldr	r3, [r7, #4]
 872 0032 1B68     		ldr	r3, [r3]
 873 0034 7A68     		ldr	r2, [r7, #4]
 874 0036 1268     		ldr	r2, [r2]
 875 0038 1268     		ldr	r2, [r2]
 876 003a 22F00102 		bic	r2, r2, #1
 877 003e 1A60     		str	r2, [r3]
 878              	.L35:
 536:Drivers/STM32F4xx_HAL_Driver/Src/stm32f4xx_hal_tim.c ****   
 537:Drivers/STM32F4xx_HAL_Driver/Src/stm32f4xx_hal_tim.c ****   /* DeInit the low level hardware: GPIO, CLOCK, NVIC and DMA */
 538:Drivers/STM32F4xx_HAL_Driver/Src/stm32f4xx_hal_tim.c ****   HAL_TIM_OC_MspDeInit(htim);
 879              		.loc 1 538 0 is_stmt 1
 880 0040 7868     		ldr	r0, [r7, #4]
 881 0042 FFF7FEFF 		bl	HAL_TIM_OC_MspDeInit
 539:Drivers/STM32F4xx_HAL_Driver/Src/stm32f4xx_hal_tim.c ****     
 540:Drivers/STM32F4xx_HAL_Driver/Src/stm32f4xx_hal_tim.c ****   /* Change TIM state */  
 541:Drivers/STM32F4xx_HAL_Driver/Src/stm32f4xx_hal_tim.c ****   htim->State = HAL_TIM_STATE_RESET; 
 882              		.loc 1 541 0
 883 0046 7B68     		ldr	r3, [r7, #4]
 884 0048 0022     		movs	r2, #0
 885 004a 83F83920 		strb	r2, [r3, #57]
 542:Drivers/STM32F4xx_HAL_Driver/Src/stm32f4xx_hal_tim.c **** 
 543:Drivers/STM32F4xx_HAL_Driver/Src/stm32f4xx_hal_tim.c ****   /* Release Lock */
 544:Drivers/STM32F4xx_HAL_Driver/Src/stm32f4xx_hal_tim.c ****   __HAL_UNLOCK(htim);
 886              		.loc 1 544 0
 887 004e 7B68     		ldr	r3, [r7, #4]
 888 0050 0022     		movs	r2, #0
 889 0052 83F83820 		strb	r2, [r3, #56]
 545:Drivers/STM32F4xx_HAL_Driver/Src/stm32f4xx_hal_tim.c **** 
 546:Drivers/STM32F4xx_HAL_Driver/Src/stm32f4xx_hal_tim.c ****   return HAL_OK;
 890              		.loc 1 546 0
 891 0056 0023     		movs	r3, #0
 547:Drivers/STM32F4xx_HAL_Driver/Src/stm32f4xx_hal_tim.c **** }
 892              		.loc 1 547 0
 893 0058 1846     		mov	r0, r3
 894 005a 0837     		adds	r7, r7, #8
 895              	.LCFI65:
 896              		.cfi_def_cfa_offset 8
 897 005c BD46     		mov	sp, r7
 898              	.LCFI66:
 899              		.cfi_def_cfa_register 13
 900              		@ sp needed
 901 005e 80BD     		pop	{r7, pc}
ARM GAS  /tmp/cc4tSQEQ.s 			page 26


 902              		.cfi_endproc
 903              	.LFE135:
 905              		.section	.text.HAL_TIM_OC_MspInit,"ax",%progbits
 906              		.align	1
 907              		.weak	HAL_TIM_OC_MspInit
 908              		.syntax unified
 909              		.thumb
 910              		.thumb_func
 911              		.fpu fpv4-sp-d16
 913              	HAL_TIM_OC_MspInit:
 914              	.LFB136:
 548:Drivers/STM32F4xx_HAL_Driver/Src/stm32f4xx_hal_tim.c **** 
 549:Drivers/STM32F4xx_HAL_Driver/Src/stm32f4xx_hal_tim.c **** /**
 550:Drivers/STM32F4xx_HAL_Driver/Src/stm32f4xx_hal_tim.c ****   * @brief  Initializes the TIM Output Compare MSP.
 551:Drivers/STM32F4xx_HAL_Driver/Src/stm32f4xx_hal_tim.c ****   * @param  htim pointer to a TIM_HandleTypeDef structure that contains
 552:Drivers/STM32F4xx_HAL_Driver/Src/stm32f4xx_hal_tim.c ****   *                the configuration information for TIM module.
 553:Drivers/STM32F4xx_HAL_Driver/Src/stm32f4xx_hal_tim.c ****   * @retval None
 554:Drivers/STM32F4xx_HAL_Driver/Src/stm32f4xx_hal_tim.c ****   */
 555:Drivers/STM32F4xx_HAL_Driver/Src/stm32f4xx_hal_tim.c **** __weak void HAL_TIM_OC_MspInit(TIM_HandleTypeDef *htim)
 556:Drivers/STM32F4xx_HAL_Driver/Src/stm32f4xx_hal_tim.c **** {
 915              		.loc 1 556 0
 916              		.cfi_startproc
 917              		@ args = 0, pretend = 0, frame = 8
 918              		@ frame_needed = 1, uses_anonymous_args = 0
 919              		@ link register save eliminated.
 920 0000 80B4     		push	{r7}
 921              	.LCFI67:
 922              		.cfi_def_cfa_offset 4
 923              		.cfi_offset 7, -4
 924 0002 83B0     		sub	sp, sp, #12
 925              	.LCFI68:
 926              		.cfi_def_cfa_offset 16
 927 0004 00AF     		add	r7, sp, #0
 928              	.LCFI69:
 929              		.cfi_def_cfa_register 7
 930 0006 7860     		str	r0, [r7, #4]
 557:Drivers/STM32F4xx_HAL_Driver/Src/stm32f4xx_hal_tim.c ****   /* Prevent unused argument(s) compilation warning */
 558:Drivers/STM32F4xx_HAL_Driver/Src/stm32f4xx_hal_tim.c ****   UNUSED(htim);
 559:Drivers/STM32F4xx_HAL_Driver/Src/stm32f4xx_hal_tim.c ****   /* NOTE : This function Should not be modified, when the callback is needed,
 560:Drivers/STM32F4xx_HAL_Driver/Src/stm32f4xx_hal_tim.c ****             the HAL_TIM_OC_MspInit could be implemented in the user file
 561:Drivers/STM32F4xx_HAL_Driver/Src/stm32f4xx_hal_tim.c ****    */
 562:Drivers/STM32F4xx_HAL_Driver/Src/stm32f4xx_hal_tim.c **** }
 931              		.loc 1 562 0
 932 0008 00BF     		nop
 933 000a 0C37     		adds	r7, r7, #12
 934              	.LCFI70:
 935              		.cfi_def_cfa_offset 4
 936 000c BD46     		mov	sp, r7
 937              	.LCFI71:
 938              		.cfi_def_cfa_register 13
 939              		@ sp needed
 940 000e 5DF8047B 		ldr	r7, [sp], #4
 941              	.LCFI72:
 942              		.cfi_restore 7
 943              		.cfi_def_cfa_offset 0
 944 0012 7047     		bx	lr
 945              		.cfi_endproc
ARM GAS  /tmp/cc4tSQEQ.s 			page 27


 946              	.LFE136:
 948              		.section	.text.HAL_TIM_OC_MspDeInit,"ax",%progbits
 949              		.align	1
 950              		.weak	HAL_TIM_OC_MspDeInit
 951              		.syntax unified
 952              		.thumb
 953              		.thumb_func
 954              		.fpu fpv4-sp-d16
 956              	HAL_TIM_OC_MspDeInit:
 957              	.LFB137:
 563:Drivers/STM32F4xx_HAL_Driver/Src/stm32f4xx_hal_tim.c **** 
 564:Drivers/STM32F4xx_HAL_Driver/Src/stm32f4xx_hal_tim.c **** /**
 565:Drivers/STM32F4xx_HAL_Driver/Src/stm32f4xx_hal_tim.c ****   * @brief  DeInitializes TIM Output Compare MSP.
 566:Drivers/STM32F4xx_HAL_Driver/Src/stm32f4xx_hal_tim.c ****   * @param  htim pointer to a TIM_HandleTypeDef structure that contains
 567:Drivers/STM32F4xx_HAL_Driver/Src/stm32f4xx_hal_tim.c ****   *                the configuration information for TIM module.
 568:Drivers/STM32F4xx_HAL_Driver/Src/stm32f4xx_hal_tim.c ****   * @retval None
 569:Drivers/STM32F4xx_HAL_Driver/Src/stm32f4xx_hal_tim.c ****   */
 570:Drivers/STM32F4xx_HAL_Driver/Src/stm32f4xx_hal_tim.c **** __weak void HAL_TIM_OC_MspDeInit(TIM_HandleTypeDef *htim)
 571:Drivers/STM32F4xx_HAL_Driver/Src/stm32f4xx_hal_tim.c **** {
 958              		.loc 1 571 0
 959              		.cfi_startproc
 960              		@ args = 0, pretend = 0, frame = 8
 961              		@ frame_needed = 1, uses_anonymous_args = 0
 962              		@ link register save eliminated.
 963 0000 80B4     		push	{r7}
 964              	.LCFI73:
 965              		.cfi_def_cfa_offset 4
 966              		.cfi_offset 7, -4
 967 0002 83B0     		sub	sp, sp, #12
 968              	.LCFI74:
 969              		.cfi_def_cfa_offset 16
 970 0004 00AF     		add	r7, sp, #0
 971              	.LCFI75:
 972              		.cfi_def_cfa_register 7
 973 0006 7860     		str	r0, [r7, #4]
 572:Drivers/STM32F4xx_HAL_Driver/Src/stm32f4xx_hal_tim.c ****   /* Prevent unused argument(s) compilation warning */
 573:Drivers/STM32F4xx_HAL_Driver/Src/stm32f4xx_hal_tim.c ****   UNUSED(htim);
 574:Drivers/STM32F4xx_HAL_Driver/Src/stm32f4xx_hal_tim.c ****   /* NOTE : This function Should not be modified, when the callback is needed,
 575:Drivers/STM32F4xx_HAL_Driver/Src/stm32f4xx_hal_tim.c ****             the HAL_TIM_OC_MspDeInit could be implemented in the user file
 576:Drivers/STM32F4xx_HAL_Driver/Src/stm32f4xx_hal_tim.c ****    */
 577:Drivers/STM32F4xx_HAL_Driver/Src/stm32f4xx_hal_tim.c **** }
 974              		.loc 1 577 0
 975 0008 00BF     		nop
 976 000a 0C37     		adds	r7, r7, #12
 977              	.LCFI76:
 978              		.cfi_def_cfa_offset 4
 979 000c BD46     		mov	sp, r7
 980              	.LCFI77:
 981              		.cfi_def_cfa_register 13
 982              		@ sp needed
 983 000e 5DF8047B 		ldr	r7, [sp], #4
 984              	.LCFI78:
 985              		.cfi_restore 7
 986              		.cfi_def_cfa_offset 0
 987 0012 7047     		bx	lr
 988              		.cfi_endproc
 989              	.LFE137:
ARM GAS  /tmp/cc4tSQEQ.s 			page 28


 991              		.section	.text.HAL_TIM_OC_Start,"ax",%progbits
 992              		.align	1
 993              		.global	HAL_TIM_OC_Start
 994              		.syntax unified
 995              		.thumb
 996              		.thumb_func
 997              		.fpu fpv4-sp-d16
 999              	HAL_TIM_OC_Start:
 1000              	.LFB138:
 578:Drivers/STM32F4xx_HAL_Driver/Src/stm32f4xx_hal_tim.c **** 
 579:Drivers/STM32F4xx_HAL_Driver/Src/stm32f4xx_hal_tim.c **** /**
 580:Drivers/STM32F4xx_HAL_Driver/Src/stm32f4xx_hal_tim.c ****   * @brief  Starts the TIM Output Compare signal generation.
 581:Drivers/STM32F4xx_HAL_Driver/Src/stm32f4xx_hal_tim.c ****   * @param  htim pointer to a TIM_HandleTypeDef structure that contains
 582:Drivers/STM32F4xx_HAL_Driver/Src/stm32f4xx_hal_tim.c ****   *                the configuration information for TIM module.  
 583:Drivers/STM32F4xx_HAL_Driver/Src/stm32f4xx_hal_tim.c ****   * @param  Channel TIM Channel to be enabled.
 584:Drivers/STM32F4xx_HAL_Driver/Src/stm32f4xx_hal_tim.c ****   *          This parameter can be one of the following values:
 585:Drivers/STM32F4xx_HAL_Driver/Src/stm32f4xx_hal_tim.c ****   *            @arg TIM_CHANNEL_1: TIM Channel 1 selected
 586:Drivers/STM32F4xx_HAL_Driver/Src/stm32f4xx_hal_tim.c ****   *            @arg TIM_CHANNEL_2: TIM Channel 2 selected
 587:Drivers/STM32F4xx_HAL_Driver/Src/stm32f4xx_hal_tim.c ****   *            @arg TIM_CHANNEL_3: TIM Channel 3 selected
 588:Drivers/STM32F4xx_HAL_Driver/Src/stm32f4xx_hal_tim.c ****   *            @arg TIM_CHANNEL_4: TIM Channel 4 selected   
 589:Drivers/STM32F4xx_HAL_Driver/Src/stm32f4xx_hal_tim.c ****   * @retval HAL status
 590:Drivers/STM32F4xx_HAL_Driver/Src/stm32f4xx_hal_tim.c ****   */
 591:Drivers/STM32F4xx_HAL_Driver/Src/stm32f4xx_hal_tim.c **** HAL_StatusTypeDef HAL_TIM_OC_Start(TIM_HandleTypeDef *htim, uint32_t Channel)
 592:Drivers/STM32F4xx_HAL_Driver/Src/stm32f4xx_hal_tim.c **** {
 1001              		.loc 1 592 0
 1002              		.cfi_startproc
 1003              		@ args = 0, pretend = 0, frame = 8
 1004              		@ frame_needed = 1, uses_anonymous_args = 0
 1005 0000 80B5     		push	{r7, lr}
 1006              	.LCFI79:
 1007              		.cfi_def_cfa_offset 8
 1008              		.cfi_offset 7, -8
 1009              		.cfi_offset 14, -4
 1010 0002 82B0     		sub	sp, sp, #8
 1011              	.LCFI80:
 1012              		.cfi_def_cfa_offset 16
 1013 0004 00AF     		add	r7, sp, #0
 1014              	.LCFI81:
 1015              		.cfi_def_cfa_register 7
 1016 0006 7860     		str	r0, [r7, #4]
 1017 0008 3960     		str	r1, [r7]
 593:Drivers/STM32F4xx_HAL_Driver/Src/stm32f4xx_hal_tim.c ****   /* Check the parameters */
 594:Drivers/STM32F4xx_HAL_Driver/Src/stm32f4xx_hal_tim.c ****   assert_param(IS_TIM_CCX_INSTANCE(htim->Instance, Channel));
 595:Drivers/STM32F4xx_HAL_Driver/Src/stm32f4xx_hal_tim.c ****   
 596:Drivers/STM32F4xx_HAL_Driver/Src/stm32f4xx_hal_tim.c ****   /* Enable the Output compare channel */
 597:Drivers/STM32F4xx_HAL_Driver/Src/stm32f4xx_hal_tim.c ****   TIM_CCxChannelCmd(htim->Instance, Channel, TIM_CCx_ENABLE);
 1018              		.loc 1 597 0
 1019 000a 7B68     		ldr	r3, [r7, #4]
 1020 000c 1B68     		ldr	r3, [r3]
 1021 000e 0122     		movs	r2, #1
 1022 0010 3968     		ldr	r1, [r7]
 1023 0012 1846     		mov	r0, r3
 1024 0014 FFF7FEFF 		bl	TIM_CCxChannelCmd
 598:Drivers/STM32F4xx_HAL_Driver/Src/stm32f4xx_hal_tim.c ****   
 599:Drivers/STM32F4xx_HAL_Driver/Src/stm32f4xx_hal_tim.c ****   if(IS_TIM_ADVANCED_INSTANCE(htim->Instance) != RESET)  
 1025              		.loc 1 599 0
 1026 0018 7B68     		ldr	r3, [r7, #4]
ARM GAS  /tmp/cc4tSQEQ.s 			page 29


 1027 001a 1B68     		ldr	r3, [r3]
 1028 001c 0B4A     		ldr	r2, .L42
 1029 001e 9342     		cmp	r3, r2
 1030 0020 07D1     		bne	.L40
 600:Drivers/STM32F4xx_HAL_Driver/Src/stm32f4xx_hal_tim.c ****   {
 601:Drivers/STM32F4xx_HAL_Driver/Src/stm32f4xx_hal_tim.c ****     /* Enable the main output */
 602:Drivers/STM32F4xx_HAL_Driver/Src/stm32f4xx_hal_tim.c ****     __HAL_TIM_MOE_ENABLE(htim);
 1031              		.loc 1 602 0
 1032 0022 7B68     		ldr	r3, [r7, #4]
 1033 0024 1B68     		ldr	r3, [r3]
 1034 0026 7A68     		ldr	r2, [r7, #4]
 1035 0028 1268     		ldr	r2, [r2]
 1036 002a 526C     		ldr	r2, [r2, #68]
 1037 002c 42F40042 		orr	r2, r2, #32768
 1038 0030 5A64     		str	r2, [r3, #68]
 1039              	.L40:
 603:Drivers/STM32F4xx_HAL_Driver/Src/stm32f4xx_hal_tim.c ****   }
 604:Drivers/STM32F4xx_HAL_Driver/Src/stm32f4xx_hal_tim.c ****   
 605:Drivers/STM32F4xx_HAL_Driver/Src/stm32f4xx_hal_tim.c ****   /* Enable the Peripheral */
 606:Drivers/STM32F4xx_HAL_Driver/Src/stm32f4xx_hal_tim.c ****   __HAL_TIM_ENABLE(htim); 
 1040              		.loc 1 606 0
 1041 0032 7B68     		ldr	r3, [r7, #4]
 1042 0034 1B68     		ldr	r3, [r3]
 1043 0036 7A68     		ldr	r2, [r7, #4]
 1044 0038 1268     		ldr	r2, [r2]
 1045 003a 1268     		ldr	r2, [r2]
 1046 003c 42F00102 		orr	r2, r2, #1
 1047 0040 1A60     		str	r2, [r3]
 607:Drivers/STM32F4xx_HAL_Driver/Src/stm32f4xx_hal_tim.c ****   
 608:Drivers/STM32F4xx_HAL_Driver/Src/stm32f4xx_hal_tim.c ****   /* Return function status */
 609:Drivers/STM32F4xx_HAL_Driver/Src/stm32f4xx_hal_tim.c ****   return HAL_OK;
 1048              		.loc 1 609 0
 1049 0042 0023     		movs	r3, #0
 610:Drivers/STM32F4xx_HAL_Driver/Src/stm32f4xx_hal_tim.c **** }
 1050              		.loc 1 610 0
 1051 0044 1846     		mov	r0, r3
 1052 0046 0837     		adds	r7, r7, #8
 1053              	.LCFI82:
 1054              		.cfi_def_cfa_offset 8
 1055 0048 BD46     		mov	sp, r7
 1056              	.LCFI83:
 1057              		.cfi_def_cfa_register 13
 1058              		@ sp needed
 1059 004a 80BD     		pop	{r7, pc}
 1060              	.L43:
 1061              		.align	2
 1062              	.L42:
 1063 004c 00000140 		.word	1073807360
 1064              		.cfi_endproc
 1065              	.LFE138:
 1067              		.section	.text.HAL_TIM_OC_Stop,"ax",%progbits
 1068              		.align	1
 1069              		.global	HAL_TIM_OC_Stop
 1070              		.syntax unified
 1071              		.thumb
 1072              		.thumb_func
 1073              		.fpu fpv4-sp-d16
ARM GAS  /tmp/cc4tSQEQ.s 			page 30


 1075              	HAL_TIM_OC_Stop:
 1076              	.LFB139:
 611:Drivers/STM32F4xx_HAL_Driver/Src/stm32f4xx_hal_tim.c **** 
 612:Drivers/STM32F4xx_HAL_Driver/Src/stm32f4xx_hal_tim.c **** /**
 613:Drivers/STM32F4xx_HAL_Driver/Src/stm32f4xx_hal_tim.c ****   * @brief  Stops the TIM Output Compare signal generation.
 614:Drivers/STM32F4xx_HAL_Driver/Src/stm32f4xx_hal_tim.c ****   * @param  htim pointer to a TIM_HandleTypeDef structure that contains
 615:Drivers/STM32F4xx_HAL_Driver/Src/stm32f4xx_hal_tim.c ****   *                the configuration information for TIM module.
 616:Drivers/STM32F4xx_HAL_Driver/Src/stm32f4xx_hal_tim.c ****   * @param  Channel TIM Channel to be disabled.
 617:Drivers/STM32F4xx_HAL_Driver/Src/stm32f4xx_hal_tim.c ****   *          This parameter can be one of the following values:
 618:Drivers/STM32F4xx_HAL_Driver/Src/stm32f4xx_hal_tim.c ****   *            @arg TIM_CHANNEL_1: TIM Channel 1 selected
 619:Drivers/STM32F4xx_HAL_Driver/Src/stm32f4xx_hal_tim.c ****   *            @arg TIM_CHANNEL_2: TIM Channel 2 selected
 620:Drivers/STM32F4xx_HAL_Driver/Src/stm32f4xx_hal_tim.c ****   *            @arg TIM_CHANNEL_3: TIM Channel 3 selected
 621:Drivers/STM32F4xx_HAL_Driver/Src/stm32f4xx_hal_tim.c ****   *            @arg TIM_CHANNEL_4: TIM Channel 4 selected
 622:Drivers/STM32F4xx_HAL_Driver/Src/stm32f4xx_hal_tim.c ****   * @retval HAL status
 623:Drivers/STM32F4xx_HAL_Driver/Src/stm32f4xx_hal_tim.c ****   */
 624:Drivers/STM32F4xx_HAL_Driver/Src/stm32f4xx_hal_tim.c **** HAL_StatusTypeDef HAL_TIM_OC_Stop(TIM_HandleTypeDef *htim, uint32_t Channel)
 625:Drivers/STM32F4xx_HAL_Driver/Src/stm32f4xx_hal_tim.c **** {
 1077              		.loc 1 625 0
 1078              		.cfi_startproc
 1079              		@ args = 0, pretend = 0, frame = 8
 1080              		@ frame_needed = 1, uses_anonymous_args = 0
 1081 0000 80B5     		push	{r7, lr}
 1082              	.LCFI84:
 1083              		.cfi_def_cfa_offset 8
 1084              		.cfi_offset 7, -8
 1085              		.cfi_offset 14, -4
 1086 0002 82B0     		sub	sp, sp, #8
 1087              	.LCFI85:
 1088              		.cfi_def_cfa_offset 16
 1089 0004 00AF     		add	r7, sp, #0
 1090              	.LCFI86:
 1091              		.cfi_def_cfa_register 7
 1092 0006 7860     		str	r0, [r7, #4]
 1093 0008 3960     		str	r1, [r7]
 626:Drivers/STM32F4xx_HAL_Driver/Src/stm32f4xx_hal_tim.c ****   /* Check the parameters */
 627:Drivers/STM32F4xx_HAL_Driver/Src/stm32f4xx_hal_tim.c ****   assert_param(IS_TIM_CCX_INSTANCE(htim->Instance, Channel));
 628:Drivers/STM32F4xx_HAL_Driver/Src/stm32f4xx_hal_tim.c ****   
 629:Drivers/STM32F4xx_HAL_Driver/Src/stm32f4xx_hal_tim.c ****   /* Disable the Output compare channel */
 630:Drivers/STM32F4xx_HAL_Driver/Src/stm32f4xx_hal_tim.c ****   TIM_CCxChannelCmd(htim->Instance, Channel, TIM_CCx_DISABLE);
 1094              		.loc 1 630 0
 1095 000a 7B68     		ldr	r3, [r7, #4]
 1096 000c 1B68     		ldr	r3, [r3]
 1097 000e 0022     		movs	r2, #0
 1098 0010 3968     		ldr	r1, [r7]
 1099 0012 1846     		mov	r0, r3
 1100 0014 FFF7FEFF 		bl	TIM_CCxChannelCmd
 631:Drivers/STM32F4xx_HAL_Driver/Src/stm32f4xx_hal_tim.c ****   
 632:Drivers/STM32F4xx_HAL_Driver/Src/stm32f4xx_hal_tim.c ****   if(IS_TIM_ADVANCED_INSTANCE(htim->Instance) != RESET)  
 1101              		.loc 1 632 0
 1102 0018 7B68     		ldr	r3, [r7, #4]
 1103 001a 1B68     		ldr	r3, [r3]
 1104 001c 1B4A     		ldr	r2, .L48
 1105 001e 9342     		cmp	r3, r2
 1106 0020 17D1     		bne	.L45
 633:Drivers/STM32F4xx_HAL_Driver/Src/stm32f4xx_hal_tim.c ****   {
 634:Drivers/STM32F4xx_HAL_Driver/Src/stm32f4xx_hal_tim.c ****     /* Disable the Main Output */
 635:Drivers/STM32F4xx_HAL_Driver/Src/stm32f4xx_hal_tim.c ****     __HAL_TIM_MOE_DISABLE(htim);
ARM GAS  /tmp/cc4tSQEQ.s 			page 31


 1107              		.loc 1 635 0
 1108 0022 7B68     		ldr	r3, [r7, #4]
 1109 0024 1B68     		ldr	r3, [r3]
 1110 0026 1A6A     		ldr	r2, [r3, #32]
 1111 0028 41F21113 		movw	r3, #4369
 1112 002c 1340     		ands	r3, r3, r2
 1113 002e 002B     		cmp	r3, #0
 1114 0030 0FD1     		bne	.L45
 1115              		.loc 1 635 0 is_stmt 0 discriminator 1
 1116 0032 7B68     		ldr	r3, [r7, #4]
 1117 0034 1B68     		ldr	r3, [r3]
 1118 0036 1A6A     		ldr	r2, [r3, #32]
 1119 0038 40F24443 		movw	r3, #1092
 1120 003c 1340     		ands	r3, r3, r2
 1121 003e 002B     		cmp	r3, #0
 1122 0040 07D1     		bne	.L45
 1123              		.loc 1 635 0 discriminator 2
 1124 0042 7B68     		ldr	r3, [r7, #4]
 1125 0044 1B68     		ldr	r3, [r3]
 1126 0046 7A68     		ldr	r2, [r7, #4]
 1127 0048 1268     		ldr	r2, [r2]
 1128 004a 526C     		ldr	r2, [r2, #68]
 1129 004c 22F40042 		bic	r2, r2, #32768
 1130 0050 5A64     		str	r2, [r3, #68]
 1131              	.L45:
 636:Drivers/STM32F4xx_HAL_Driver/Src/stm32f4xx_hal_tim.c ****   }  
 637:Drivers/STM32F4xx_HAL_Driver/Src/stm32f4xx_hal_tim.c ****   
 638:Drivers/STM32F4xx_HAL_Driver/Src/stm32f4xx_hal_tim.c ****   /* Disable the Peripheral */
 639:Drivers/STM32F4xx_HAL_Driver/Src/stm32f4xx_hal_tim.c ****   __HAL_TIM_DISABLE(htim);  
 1132              		.loc 1 639 0 is_stmt 1
 1133 0052 7B68     		ldr	r3, [r7, #4]
 1134 0054 1B68     		ldr	r3, [r3]
 1135 0056 1A6A     		ldr	r2, [r3, #32]
 1136 0058 41F21113 		movw	r3, #4369
 1137 005c 1340     		ands	r3, r3, r2
 1138 005e 002B     		cmp	r3, #0
 1139 0060 0FD1     		bne	.L46
 1140              		.loc 1 639 0 is_stmt 0 discriminator 1
 1141 0062 7B68     		ldr	r3, [r7, #4]
 1142 0064 1B68     		ldr	r3, [r3]
 1143 0066 1A6A     		ldr	r2, [r3, #32]
 1144 0068 40F24443 		movw	r3, #1092
 1145 006c 1340     		ands	r3, r3, r2
 1146 006e 002B     		cmp	r3, #0
 1147 0070 07D1     		bne	.L46
 1148              		.loc 1 639 0 discriminator 2
 1149 0072 7B68     		ldr	r3, [r7, #4]
 1150 0074 1B68     		ldr	r3, [r3]
 1151 0076 7A68     		ldr	r2, [r7, #4]
 1152 0078 1268     		ldr	r2, [r2]
 1153 007a 1268     		ldr	r2, [r2]
 1154 007c 22F00102 		bic	r2, r2, #1
 1155 0080 1A60     		str	r2, [r3]
 1156              	.L46:
 640:Drivers/STM32F4xx_HAL_Driver/Src/stm32f4xx_hal_tim.c ****   
 641:Drivers/STM32F4xx_HAL_Driver/Src/stm32f4xx_hal_tim.c ****   /* Return function status */
 642:Drivers/STM32F4xx_HAL_Driver/Src/stm32f4xx_hal_tim.c ****   return HAL_OK;
ARM GAS  /tmp/cc4tSQEQ.s 			page 32


 1157              		.loc 1 642 0 is_stmt 1
 1158 0082 0023     		movs	r3, #0
 643:Drivers/STM32F4xx_HAL_Driver/Src/stm32f4xx_hal_tim.c **** }  
 1159              		.loc 1 643 0
 1160 0084 1846     		mov	r0, r3
 1161 0086 0837     		adds	r7, r7, #8
 1162              	.LCFI87:
 1163              		.cfi_def_cfa_offset 8
 1164 0088 BD46     		mov	sp, r7
 1165              	.LCFI88:
 1166              		.cfi_def_cfa_register 13
 1167              		@ sp needed
 1168 008a 80BD     		pop	{r7, pc}
 1169              	.L49:
 1170              		.align	2
 1171              	.L48:
 1172 008c 00000140 		.word	1073807360
 1173              		.cfi_endproc
 1174              	.LFE139:
 1176              		.section	.text.HAL_TIM_OC_Start_IT,"ax",%progbits
 1177              		.align	1
 1178              		.global	HAL_TIM_OC_Start_IT
 1179              		.syntax unified
 1180              		.thumb
 1181              		.thumb_func
 1182              		.fpu fpv4-sp-d16
 1184              	HAL_TIM_OC_Start_IT:
 1185              	.LFB140:
 644:Drivers/STM32F4xx_HAL_Driver/Src/stm32f4xx_hal_tim.c **** 
 645:Drivers/STM32F4xx_HAL_Driver/Src/stm32f4xx_hal_tim.c **** /**
 646:Drivers/STM32F4xx_HAL_Driver/Src/stm32f4xx_hal_tim.c ****   * @brief  Starts the TIM Output Compare signal generation in interrupt mode.
 647:Drivers/STM32F4xx_HAL_Driver/Src/stm32f4xx_hal_tim.c ****   * @param  htim pointer to a TIM_HandleTypeDef structure that contains
 648:Drivers/STM32F4xx_HAL_Driver/Src/stm32f4xx_hal_tim.c ****   *                the configuration information for TIM module.
 649:Drivers/STM32F4xx_HAL_Driver/Src/stm32f4xx_hal_tim.c ****   * @param  Channel TIM Channel to be enabled.
 650:Drivers/STM32F4xx_HAL_Driver/Src/stm32f4xx_hal_tim.c ****   *          This parameter can be one of the following values:
 651:Drivers/STM32F4xx_HAL_Driver/Src/stm32f4xx_hal_tim.c ****   *            @arg TIM_CHANNEL_1: TIM Channel 1 selected
 652:Drivers/STM32F4xx_HAL_Driver/Src/stm32f4xx_hal_tim.c ****   *            @arg TIM_CHANNEL_2: TIM Channel 2 selected
 653:Drivers/STM32F4xx_HAL_Driver/Src/stm32f4xx_hal_tim.c ****   *            @arg TIM_CHANNEL_3: TIM Channel 3 selected
 654:Drivers/STM32F4xx_HAL_Driver/Src/stm32f4xx_hal_tim.c ****   *            @arg TIM_CHANNEL_4: TIM Channel 4 selected
 655:Drivers/STM32F4xx_HAL_Driver/Src/stm32f4xx_hal_tim.c ****   * @retval HAL status
 656:Drivers/STM32F4xx_HAL_Driver/Src/stm32f4xx_hal_tim.c ****   */
 657:Drivers/STM32F4xx_HAL_Driver/Src/stm32f4xx_hal_tim.c **** HAL_StatusTypeDef HAL_TIM_OC_Start_IT(TIM_HandleTypeDef *htim, uint32_t Channel)
 658:Drivers/STM32F4xx_HAL_Driver/Src/stm32f4xx_hal_tim.c **** {
 1186              		.loc 1 658 0
 1187              		.cfi_startproc
 1188              		@ args = 0, pretend = 0, frame = 8
 1189              		@ frame_needed = 1, uses_anonymous_args = 0
 1190 0000 80B5     		push	{r7, lr}
 1191              	.LCFI89:
 1192              		.cfi_def_cfa_offset 8
 1193              		.cfi_offset 7, -8
 1194              		.cfi_offset 14, -4
 1195 0002 82B0     		sub	sp, sp, #8
 1196              	.LCFI90:
 1197              		.cfi_def_cfa_offset 16
 1198 0004 00AF     		add	r7, sp, #0
 1199              	.LCFI91:
ARM GAS  /tmp/cc4tSQEQ.s 			page 33


 1200              		.cfi_def_cfa_register 7
 1201 0006 7860     		str	r0, [r7, #4]
 1202 0008 3960     		str	r1, [r7]
 659:Drivers/STM32F4xx_HAL_Driver/Src/stm32f4xx_hal_tim.c ****   /* Check the parameters */
 660:Drivers/STM32F4xx_HAL_Driver/Src/stm32f4xx_hal_tim.c ****   assert_param(IS_TIM_CCX_INSTANCE(htim->Instance, Channel));
 661:Drivers/STM32F4xx_HAL_Driver/Src/stm32f4xx_hal_tim.c ****   
 662:Drivers/STM32F4xx_HAL_Driver/Src/stm32f4xx_hal_tim.c ****   switch (Channel)
 1203              		.loc 1 662 0
 1204 000a 3B68     		ldr	r3, [r7]
 1205 000c 0C2B     		cmp	r3, #12
 1206 000e 41D8     		bhi	.L60
 1207 0010 01A2     		adr	r2, .L53
 1208 0012 52F823F0 		ldr	pc, [r2, r3, lsl #2]
 1209 0016 00BF     		.p2align 2
 1210              	.L53:
 1211 0018 4D000000 		.word	.L52+1
 1212 001c 95000000 		.word	.L60+1
 1213 0020 95000000 		.word	.L60+1
 1214 0024 95000000 		.word	.L60+1
 1215 0028 5F000000 		.word	.L54+1
 1216 002c 95000000 		.word	.L60+1
 1217 0030 95000000 		.word	.L60+1
 1218 0034 95000000 		.word	.L60+1
 1219 0038 71000000 		.word	.L55+1
 1220 003c 95000000 		.word	.L60+1
 1221 0040 95000000 		.word	.L60+1
 1222 0044 95000000 		.word	.L60+1
 1223 0048 83000000 		.word	.L56+1
 1224              		.p2align 1
 1225              	.L52:
 663:Drivers/STM32F4xx_HAL_Driver/Src/stm32f4xx_hal_tim.c ****   {
 664:Drivers/STM32F4xx_HAL_Driver/Src/stm32f4xx_hal_tim.c ****     case TIM_CHANNEL_1:
 665:Drivers/STM32F4xx_HAL_Driver/Src/stm32f4xx_hal_tim.c ****     {       
 666:Drivers/STM32F4xx_HAL_Driver/Src/stm32f4xx_hal_tim.c ****       /* Enable the TIM Capture/Compare 1 interrupt */
 667:Drivers/STM32F4xx_HAL_Driver/Src/stm32f4xx_hal_tim.c ****       __HAL_TIM_ENABLE_IT(htim, TIM_IT_CC1);
 1226              		.loc 1 667 0
 1227 004c 7B68     		ldr	r3, [r7, #4]
 1228 004e 1B68     		ldr	r3, [r3]
 1229 0050 7A68     		ldr	r2, [r7, #4]
 1230 0052 1268     		ldr	r2, [r2]
 1231 0054 D268     		ldr	r2, [r2, #12]
 1232 0056 42F00202 		orr	r2, r2, #2
 1233 005a DA60     		str	r2, [r3, #12]
 668:Drivers/STM32F4xx_HAL_Driver/Src/stm32f4xx_hal_tim.c ****     }
 669:Drivers/STM32F4xx_HAL_Driver/Src/stm32f4xx_hal_tim.c ****     break;
 1234              		.loc 1 669 0
 1235 005c 1BE0     		b	.L57
 1236              	.L54:
 670:Drivers/STM32F4xx_HAL_Driver/Src/stm32f4xx_hal_tim.c ****     
 671:Drivers/STM32F4xx_HAL_Driver/Src/stm32f4xx_hal_tim.c ****     case TIM_CHANNEL_2:
 672:Drivers/STM32F4xx_HAL_Driver/Src/stm32f4xx_hal_tim.c ****     {
 673:Drivers/STM32F4xx_HAL_Driver/Src/stm32f4xx_hal_tim.c ****       /* Enable the TIM Capture/Compare 2 interrupt */
 674:Drivers/STM32F4xx_HAL_Driver/Src/stm32f4xx_hal_tim.c ****       __HAL_TIM_ENABLE_IT(htim, TIM_IT_CC2);
 1237              		.loc 1 674 0
 1238 005e 7B68     		ldr	r3, [r7, #4]
 1239 0060 1B68     		ldr	r3, [r3]
 1240 0062 7A68     		ldr	r2, [r7, #4]
ARM GAS  /tmp/cc4tSQEQ.s 			page 34


 1241 0064 1268     		ldr	r2, [r2]
 1242 0066 D268     		ldr	r2, [r2, #12]
 1243 0068 42F00402 		orr	r2, r2, #4
 1244 006c DA60     		str	r2, [r3, #12]
 675:Drivers/STM32F4xx_HAL_Driver/Src/stm32f4xx_hal_tim.c ****     }
 676:Drivers/STM32F4xx_HAL_Driver/Src/stm32f4xx_hal_tim.c ****     break;
 1245              		.loc 1 676 0
 1246 006e 12E0     		b	.L57
 1247              	.L55:
 677:Drivers/STM32F4xx_HAL_Driver/Src/stm32f4xx_hal_tim.c ****     
 678:Drivers/STM32F4xx_HAL_Driver/Src/stm32f4xx_hal_tim.c ****     case TIM_CHANNEL_3:
 679:Drivers/STM32F4xx_HAL_Driver/Src/stm32f4xx_hal_tim.c ****     {
 680:Drivers/STM32F4xx_HAL_Driver/Src/stm32f4xx_hal_tim.c ****       /* Enable the TIM Capture/Compare 3 interrupt */
 681:Drivers/STM32F4xx_HAL_Driver/Src/stm32f4xx_hal_tim.c ****       __HAL_TIM_ENABLE_IT(htim, TIM_IT_CC3);
 1248              		.loc 1 681 0
 1249 0070 7B68     		ldr	r3, [r7, #4]
 1250 0072 1B68     		ldr	r3, [r3]
 1251 0074 7A68     		ldr	r2, [r7, #4]
 1252 0076 1268     		ldr	r2, [r2]
 1253 0078 D268     		ldr	r2, [r2, #12]
 1254 007a 42F00802 		orr	r2, r2, #8
 1255 007e DA60     		str	r2, [r3, #12]
 682:Drivers/STM32F4xx_HAL_Driver/Src/stm32f4xx_hal_tim.c ****     }
 683:Drivers/STM32F4xx_HAL_Driver/Src/stm32f4xx_hal_tim.c ****     break;
 1256              		.loc 1 683 0
 1257 0080 09E0     		b	.L57
 1258              	.L56:
 684:Drivers/STM32F4xx_HAL_Driver/Src/stm32f4xx_hal_tim.c ****     
 685:Drivers/STM32F4xx_HAL_Driver/Src/stm32f4xx_hal_tim.c ****     case TIM_CHANNEL_4:
 686:Drivers/STM32F4xx_HAL_Driver/Src/stm32f4xx_hal_tim.c ****     {
 687:Drivers/STM32F4xx_HAL_Driver/Src/stm32f4xx_hal_tim.c ****       /* Enable the TIM Capture/Compare 4 interrupt */
 688:Drivers/STM32F4xx_HAL_Driver/Src/stm32f4xx_hal_tim.c ****       __HAL_TIM_ENABLE_IT(htim, TIM_IT_CC4);
 1259              		.loc 1 688 0
 1260 0082 7B68     		ldr	r3, [r7, #4]
 1261 0084 1B68     		ldr	r3, [r3]
 1262 0086 7A68     		ldr	r2, [r7, #4]
 1263 0088 1268     		ldr	r2, [r2]
 1264 008a D268     		ldr	r2, [r2, #12]
 1265 008c 42F01002 		orr	r2, r2, #16
 1266 0090 DA60     		str	r2, [r3, #12]
 689:Drivers/STM32F4xx_HAL_Driver/Src/stm32f4xx_hal_tim.c ****     }
 690:Drivers/STM32F4xx_HAL_Driver/Src/stm32f4xx_hal_tim.c ****     break;
 1267              		.loc 1 690 0
 1268 0092 00E0     		b	.L57
 1269              	.L60:
 691:Drivers/STM32F4xx_HAL_Driver/Src/stm32f4xx_hal_tim.c ****     
 692:Drivers/STM32F4xx_HAL_Driver/Src/stm32f4xx_hal_tim.c ****     default:
 693:Drivers/STM32F4xx_HAL_Driver/Src/stm32f4xx_hal_tim.c ****     break;
 1270              		.loc 1 693 0
 1271 0094 00BF     		nop
 1272              	.L57:
 694:Drivers/STM32F4xx_HAL_Driver/Src/stm32f4xx_hal_tim.c ****   } 
 695:Drivers/STM32F4xx_HAL_Driver/Src/stm32f4xx_hal_tim.c **** 
 696:Drivers/STM32F4xx_HAL_Driver/Src/stm32f4xx_hal_tim.c ****   /* Enable the Output compare channel */
 697:Drivers/STM32F4xx_HAL_Driver/Src/stm32f4xx_hal_tim.c ****   TIM_CCxChannelCmd(htim->Instance, Channel, TIM_CCx_ENABLE);
 1273              		.loc 1 697 0
 1274 0096 7B68     		ldr	r3, [r7, #4]
ARM GAS  /tmp/cc4tSQEQ.s 			page 35


 1275 0098 1B68     		ldr	r3, [r3]
 1276 009a 0122     		movs	r2, #1
 1277 009c 3968     		ldr	r1, [r7]
 1278 009e 1846     		mov	r0, r3
 1279 00a0 FFF7FEFF 		bl	TIM_CCxChannelCmd
 698:Drivers/STM32F4xx_HAL_Driver/Src/stm32f4xx_hal_tim.c ****   
 699:Drivers/STM32F4xx_HAL_Driver/Src/stm32f4xx_hal_tim.c ****   if(IS_TIM_ADVANCED_INSTANCE(htim->Instance) != RESET)  
 1280              		.loc 1 699 0
 1281 00a4 7B68     		ldr	r3, [r7, #4]
 1282 00a6 1B68     		ldr	r3, [r3]
 1283 00a8 0B4A     		ldr	r2, .L61
 1284 00aa 9342     		cmp	r3, r2
 1285 00ac 07D1     		bne	.L58
 700:Drivers/STM32F4xx_HAL_Driver/Src/stm32f4xx_hal_tim.c ****   {
 701:Drivers/STM32F4xx_HAL_Driver/Src/stm32f4xx_hal_tim.c ****     /* Enable the main output */
 702:Drivers/STM32F4xx_HAL_Driver/Src/stm32f4xx_hal_tim.c ****     __HAL_TIM_MOE_ENABLE(htim);
 1286              		.loc 1 702 0
 1287 00ae 7B68     		ldr	r3, [r7, #4]
 1288 00b0 1B68     		ldr	r3, [r3]
 1289 00b2 7A68     		ldr	r2, [r7, #4]
 1290 00b4 1268     		ldr	r2, [r2]
 1291 00b6 526C     		ldr	r2, [r2, #68]
 1292 00b8 42F40042 		orr	r2, r2, #32768
 1293 00bc 5A64     		str	r2, [r3, #68]
 1294              	.L58:
 703:Drivers/STM32F4xx_HAL_Driver/Src/stm32f4xx_hal_tim.c ****   }
 704:Drivers/STM32F4xx_HAL_Driver/Src/stm32f4xx_hal_tim.c **** 
 705:Drivers/STM32F4xx_HAL_Driver/Src/stm32f4xx_hal_tim.c ****   /* Enable the Peripheral */
 706:Drivers/STM32F4xx_HAL_Driver/Src/stm32f4xx_hal_tim.c ****   __HAL_TIM_ENABLE(htim);
 1295              		.loc 1 706 0
 1296 00be 7B68     		ldr	r3, [r7, #4]
 1297 00c0 1B68     		ldr	r3, [r3]
 1298 00c2 7A68     		ldr	r2, [r7, #4]
 1299 00c4 1268     		ldr	r2, [r2]
 1300 00c6 1268     		ldr	r2, [r2]
 1301 00c8 42F00102 		orr	r2, r2, #1
 1302 00cc 1A60     		str	r2, [r3]
 707:Drivers/STM32F4xx_HAL_Driver/Src/stm32f4xx_hal_tim.c ****   
 708:Drivers/STM32F4xx_HAL_Driver/Src/stm32f4xx_hal_tim.c ****   /* Return function status */
 709:Drivers/STM32F4xx_HAL_Driver/Src/stm32f4xx_hal_tim.c ****   return HAL_OK;
 1303              		.loc 1 709 0
 1304 00ce 0023     		movs	r3, #0
 710:Drivers/STM32F4xx_HAL_Driver/Src/stm32f4xx_hal_tim.c **** }
 1305              		.loc 1 710 0
 1306 00d0 1846     		mov	r0, r3
 1307 00d2 0837     		adds	r7, r7, #8
 1308              	.LCFI92:
 1309              		.cfi_def_cfa_offset 8
 1310 00d4 BD46     		mov	sp, r7
 1311              	.LCFI93:
 1312              		.cfi_def_cfa_register 13
 1313              		@ sp needed
 1314 00d6 80BD     		pop	{r7, pc}
 1315              	.L62:
 1316              		.align	2
 1317              	.L61:
 1318 00d8 00000140 		.word	1073807360
ARM GAS  /tmp/cc4tSQEQ.s 			page 36


 1319              		.cfi_endproc
 1320              	.LFE140:
 1322              		.section	.text.HAL_TIM_OC_Stop_IT,"ax",%progbits
 1323              		.align	1
 1324              		.global	HAL_TIM_OC_Stop_IT
 1325              		.syntax unified
 1326              		.thumb
 1327              		.thumb_func
 1328              		.fpu fpv4-sp-d16
 1330              	HAL_TIM_OC_Stop_IT:
 1331              	.LFB141:
 711:Drivers/STM32F4xx_HAL_Driver/Src/stm32f4xx_hal_tim.c **** 
 712:Drivers/STM32F4xx_HAL_Driver/Src/stm32f4xx_hal_tim.c **** /**
 713:Drivers/STM32F4xx_HAL_Driver/Src/stm32f4xx_hal_tim.c ****   * @brief  Stops the TIM Output Compare signal generation in interrupt mode.
 714:Drivers/STM32F4xx_HAL_Driver/Src/stm32f4xx_hal_tim.c ****   * @param  htim pointer to a TIM_HandleTypeDef structure that contains
 715:Drivers/STM32F4xx_HAL_Driver/Src/stm32f4xx_hal_tim.c ****   *                the configuration information for TIM module.
 716:Drivers/STM32F4xx_HAL_Driver/Src/stm32f4xx_hal_tim.c ****   * @param  Channel TIM Channel to be disabled.
 717:Drivers/STM32F4xx_HAL_Driver/Src/stm32f4xx_hal_tim.c ****   *          This parameter can be one of the following values:
 718:Drivers/STM32F4xx_HAL_Driver/Src/stm32f4xx_hal_tim.c ****   *            @arg TIM_CHANNEL_1: TIM Channel 1 selected
 719:Drivers/STM32F4xx_HAL_Driver/Src/stm32f4xx_hal_tim.c ****   *            @arg TIM_CHANNEL_2: TIM Channel 2 selected
 720:Drivers/STM32F4xx_HAL_Driver/Src/stm32f4xx_hal_tim.c ****   *            @arg TIM_CHANNEL_3: TIM Channel 3 selected
 721:Drivers/STM32F4xx_HAL_Driver/Src/stm32f4xx_hal_tim.c ****   *            @arg TIM_CHANNEL_4: TIM Channel 4 selected
 722:Drivers/STM32F4xx_HAL_Driver/Src/stm32f4xx_hal_tim.c ****   * @retval HAL status
 723:Drivers/STM32F4xx_HAL_Driver/Src/stm32f4xx_hal_tim.c ****   */
 724:Drivers/STM32F4xx_HAL_Driver/Src/stm32f4xx_hal_tim.c **** HAL_StatusTypeDef HAL_TIM_OC_Stop_IT(TIM_HandleTypeDef *htim, uint32_t Channel)
 725:Drivers/STM32F4xx_HAL_Driver/Src/stm32f4xx_hal_tim.c **** {
 1332              		.loc 1 725 0
 1333              		.cfi_startproc
 1334              		@ args = 0, pretend = 0, frame = 8
 1335              		@ frame_needed = 1, uses_anonymous_args = 0
 1336 0000 80B5     		push	{r7, lr}
 1337              	.LCFI94:
 1338              		.cfi_def_cfa_offset 8
 1339              		.cfi_offset 7, -8
 1340              		.cfi_offset 14, -4
 1341 0002 82B0     		sub	sp, sp, #8
 1342              	.LCFI95:
 1343              		.cfi_def_cfa_offset 16
 1344 0004 00AF     		add	r7, sp, #0
 1345              	.LCFI96:
 1346              		.cfi_def_cfa_register 7
 1347 0006 7860     		str	r0, [r7, #4]
 1348 0008 3960     		str	r1, [r7]
 726:Drivers/STM32F4xx_HAL_Driver/Src/stm32f4xx_hal_tim.c ****   /* Check the parameters */
 727:Drivers/STM32F4xx_HAL_Driver/Src/stm32f4xx_hal_tim.c ****   assert_param(IS_TIM_CCX_INSTANCE(htim->Instance, Channel));
 728:Drivers/STM32F4xx_HAL_Driver/Src/stm32f4xx_hal_tim.c ****   
 729:Drivers/STM32F4xx_HAL_Driver/Src/stm32f4xx_hal_tim.c ****   switch (Channel)
 1349              		.loc 1 729 0
 1350 000a 3B68     		ldr	r3, [r7]
 1351 000c 0C2B     		cmp	r3, #12
 1352 000e 41D8     		bhi	.L74
 1353 0010 01A2     		adr	r2, .L66
 1354 0012 52F823F0 		ldr	pc, [r2, r3, lsl #2]
 1355 0016 00BF     		.p2align 2
 1356              	.L66:
 1357 0018 4D000000 		.word	.L65+1
 1358 001c 95000000 		.word	.L74+1
ARM GAS  /tmp/cc4tSQEQ.s 			page 37


 1359 0020 95000000 		.word	.L74+1
 1360 0024 95000000 		.word	.L74+1
 1361 0028 5F000000 		.word	.L67+1
 1362 002c 95000000 		.word	.L74+1
 1363 0030 95000000 		.word	.L74+1
 1364 0034 95000000 		.word	.L74+1
 1365 0038 71000000 		.word	.L68+1
 1366 003c 95000000 		.word	.L74+1
 1367 0040 95000000 		.word	.L74+1
 1368 0044 95000000 		.word	.L74+1
 1369 0048 83000000 		.word	.L69+1
 1370              		.p2align 1
 1371              	.L65:
 730:Drivers/STM32F4xx_HAL_Driver/Src/stm32f4xx_hal_tim.c ****   {
 731:Drivers/STM32F4xx_HAL_Driver/Src/stm32f4xx_hal_tim.c ****     case TIM_CHANNEL_1:
 732:Drivers/STM32F4xx_HAL_Driver/Src/stm32f4xx_hal_tim.c ****     {       
 733:Drivers/STM32F4xx_HAL_Driver/Src/stm32f4xx_hal_tim.c ****       /* Disable the TIM Capture/Compare 1 interrupt */
 734:Drivers/STM32F4xx_HAL_Driver/Src/stm32f4xx_hal_tim.c ****       __HAL_TIM_DISABLE_IT(htim, TIM_IT_CC1);
 1372              		.loc 1 734 0
 1373 004c 7B68     		ldr	r3, [r7, #4]
 1374 004e 1B68     		ldr	r3, [r3]
 1375 0050 7A68     		ldr	r2, [r7, #4]
 1376 0052 1268     		ldr	r2, [r2]
 1377 0054 D268     		ldr	r2, [r2, #12]
 1378 0056 22F00202 		bic	r2, r2, #2
 1379 005a DA60     		str	r2, [r3, #12]
 735:Drivers/STM32F4xx_HAL_Driver/Src/stm32f4xx_hal_tim.c ****     }
 736:Drivers/STM32F4xx_HAL_Driver/Src/stm32f4xx_hal_tim.c ****     break;
 1380              		.loc 1 736 0
 1381 005c 1BE0     		b	.L70
 1382              	.L67:
 737:Drivers/STM32F4xx_HAL_Driver/Src/stm32f4xx_hal_tim.c ****     
 738:Drivers/STM32F4xx_HAL_Driver/Src/stm32f4xx_hal_tim.c ****     case TIM_CHANNEL_2:
 739:Drivers/STM32F4xx_HAL_Driver/Src/stm32f4xx_hal_tim.c ****     {
 740:Drivers/STM32F4xx_HAL_Driver/Src/stm32f4xx_hal_tim.c ****       /* Disable the TIM Capture/Compare 2 interrupt */
 741:Drivers/STM32F4xx_HAL_Driver/Src/stm32f4xx_hal_tim.c ****       __HAL_TIM_DISABLE_IT(htim, TIM_IT_CC2);
 1383              		.loc 1 741 0
 1384 005e 7B68     		ldr	r3, [r7, #4]
 1385 0060 1B68     		ldr	r3, [r3]
 1386 0062 7A68     		ldr	r2, [r7, #4]
 1387 0064 1268     		ldr	r2, [r2]
 1388 0066 D268     		ldr	r2, [r2, #12]
 1389 0068 22F00402 		bic	r2, r2, #4
 1390 006c DA60     		str	r2, [r3, #12]
 742:Drivers/STM32F4xx_HAL_Driver/Src/stm32f4xx_hal_tim.c ****     }
 743:Drivers/STM32F4xx_HAL_Driver/Src/stm32f4xx_hal_tim.c ****     break;
 1391              		.loc 1 743 0
 1392 006e 12E0     		b	.L70
 1393              	.L68:
 744:Drivers/STM32F4xx_HAL_Driver/Src/stm32f4xx_hal_tim.c ****     
 745:Drivers/STM32F4xx_HAL_Driver/Src/stm32f4xx_hal_tim.c ****     case TIM_CHANNEL_3:
 746:Drivers/STM32F4xx_HAL_Driver/Src/stm32f4xx_hal_tim.c ****     {
 747:Drivers/STM32F4xx_HAL_Driver/Src/stm32f4xx_hal_tim.c ****       /* Disable the TIM Capture/Compare 3 interrupt */
 748:Drivers/STM32F4xx_HAL_Driver/Src/stm32f4xx_hal_tim.c ****       __HAL_TIM_DISABLE_IT(htim, TIM_IT_CC3);
 1394              		.loc 1 748 0
 1395 0070 7B68     		ldr	r3, [r7, #4]
 1396 0072 1B68     		ldr	r3, [r3]
ARM GAS  /tmp/cc4tSQEQ.s 			page 38


 1397 0074 7A68     		ldr	r2, [r7, #4]
 1398 0076 1268     		ldr	r2, [r2]
 1399 0078 D268     		ldr	r2, [r2, #12]
 1400 007a 22F00802 		bic	r2, r2, #8
 1401 007e DA60     		str	r2, [r3, #12]
 749:Drivers/STM32F4xx_HAL_Driver/Src/stm32f4xx_hal_tim.c ****     }
 750:Drivers/STM32F4xx_HAL_Driver/Src/stm32f4xx_hal_tim.c ****     break;
 1402              		.loc 1 750 0
 1403 0080 09E0     		b	.L70
 1404              	.L69:
 751:Drivers/STM32F4xx_HAL_Driver/Src/stm32f4xx_hal_tim.c ****     
 752:Drivers/STM32F4xx_HAL_Driver/Src/stm32f4xx_hal_tim.c ****     case TIM_CHANNEL_4:
 753:Drivers/STM32F4xx_HAL_Driver/Src/stm32f4xx_hal_tim.c ****     {
 754:Drivers/STM32F4xx_HAL_Driver/Src/stm32f4xx_hal_tim.c ****       /* Disable the TIM Capture/Compare 4 interrupt */
 755:Drivers/STM32F4xx_HAL_Driver/Src/stm32f4xx_hal_tim.c ****       __HAL_TIM_DISABLE_IT(htim, TIM_IT_CC4);
 1405              		.loc 1 755 0
 1406 0082 7B68     		ldr	r3, [r7, #4]
 1407 0084 1B68     		ldr	r3, [r3]
 1408 0086 7A68     		ldr	r2, [r7, #4]
 1409 0088 1268     		ldr	r2, [r2]
 1410 008a D268     		ldr	r2, [r2, #12]
 1411 008c 22F01002 		bic	r2, r2, #16
 1412 0090 DA60     		str	r2, [r3, #12]
 756:Drivers/STM32F4xx_HAL_Driver/Src/stm32f4xx_hal_tim.c ****     }
 757:Drivers/STM32F4xx_HAL_Driver/Src/stm32f4xx_hal_tim.c ****     break;
 1413              		.loc 1 757 0
 1414 0092 00E0     		b	.L70
 1415              	.L74:
 758:Drivers/STM32F4xx_HAL_Driver/Src/stm32f4xx_hal_tim.c ****     
 759:Drivers/STM32F4xx_HAL_Driver/Src/stm32f4xx_hal_tim.c ****     default:
 760:Drivers/STM32F4xx_HAL_Driver/Src/stm32f4xx_hal_tim.c ****     break; 
 1416              		.loc 1 760 0
 1417 0094 00BF     		nop
 1418              	.L70:
 761:Drivers/STM32F4xx_HAL_Driver/Src/stm32f4xx_hal_tim.c ****   } 
 762:Drivers/STM32F4xx_HAL_Driver/Src/stm32f4xx_hal_tim.c ****   
 763:Drivers/STM32F4xx_HAL_Driver/Src/stm32f4xx_hal_tim.c ****   /* Disable the Output compare channel */
 764:Drivers/STM32F4xx_HAL_Driver/Src/stm32f4xx_hal_tim.c ****   TIM_CCxChannelCmd(htim->Instance, Channel, TIM_CCx_DISABLE); 
 1419              		.loc 1 764 0
 1420 0096 7B68     		ldr	r3, [r7, #4]
 1421 0098 1B68     		ldr	r3, [r3]
 1422 009a 0022     		movs	r2, #0
 1423 009c 3968     		ldr	r1, [r7]
 1424 009e 1846     		mov	r0, r3
 1425 00a0 FFF7FEFF 		bl	TIM_CCxChannelCmd
 765:Drivers/STM32F4xx_HAL_Driver/Src/stm32f4xx_hal_tim.c ****   
 766:Drivers/STM32F4xx_HAL_Driver/Src/stm32f4xx_hal_tim.c ****   if(IS_TIM_ADVANCED_INSTANCE(htim->Instance) != RESET)  
 1426              		.loc 1 766 0
 1427 00a4 7B68     		ldr	r3, [r7, #4]
 1428 00a6 1B68     		ldr	r3, [r3]
 1429 00a8 1B4A     		ldr	r2, .L75
 1430 00aa 9342     		cmp	r3, r2
 1431 00ac 17D1     		bne	.L71
 767:Drivers/STM32F4xx_HAL_Driver/Src/stm32f4xx_hal_tim.c ****   {
 768:Drivers/STM32F4xx_HAL_Driver/Src/stm32f4xx_hal_tim.c ****     /* Disable the Main Output */
 769:Drivers/STM32F4xx_HAL_Driver/Src/stm32f4xx_hal_tim.c ****     __HAL_TIM_MOE_DISABLE(htim);
 1432              		.loc 1 769 0
ARM GAS  /tmp/cc4tSQEQ.s 			page 39


 1433 00ae 7B68     		ldr	r3, [r7, #4]
 1434 00b0 1B68     		ldr	r3, [r3]
 1435 00b2 1A6A     		ldr	r2, [r3, #32]
 1436 00b4 41F21113 		movw	r3, #4369
 1437 00b8 1340     		ands	r3, r3, r2
 1438 00ba 002B     		cmp	r3, #0
 1439 00bc 0FD1     		bne	.L71
 1440              		.loc 1 769 0 is_stmt 0 discriminator 1
 1441 00be 7B68     		ldr	r3, [r7, #4]
 1442 00c0 1B68     		ldr	r3, [r3]
 1443 00c2 1A6A     		ldr	r2, [r3, #32]
 1444 00c4 40F24443 		movw	r3, #1092
 1445 00c8 1340     		ands	r3, r3, r2
 1446 00ca 002B     		cmp	r3, #0
 1447 00cc 07D1     		bne	.L71
 1448              		.loc 1 769 0 discriminator 2
 1449 00ce 7B68     		ldr	r3, [r7, #4]
 1450 00d0 1B68     		ldr	r3, [r3]
 1451 00d2 7A68     		ldr	r2, [r7, #4]
 1452 00d4 1268     		ldr	r2, [r2]
 1453 00d6 526C     		ldr	r2, [r2, #68]
 1454 00d8 22F40042 		bic	r2, r2, #32768
 1455 00dc 5A64     		str	r2, [r3, #68]
 1456              	.L71:
 770:Drivers/STM32F4xx_HAL_Driver/Src/stm32f4xx_hal_tim.c ****   }
 771:Drivers/STM32F4xx_HAL_Driver/Src/stm32f4xx_hal_tim.c ****   
 772:Drivers/STM32F4xx_HAL_Driver/Src/stm32f4xx_hal_tim.c ****   /* Disable the Peripheral */
 773:Drivers/STM32F4xx_HAL_Driver/Src/stm32f4xx_hal_tim.c ****   __HAL_TIM_DISABLE(htim);  
 1457              		.loc 1 773 0 is_stmt 1
 1458 00de 7B68     		ldr	r3, [r7, #4]
 1459 00e0 1B68     		ldr	r3, [r3]
 1460 00e2 1A6A     		ldr	r2, [r3, #32]
 1461 00e4 41F21113 		movw	r3, #4369
 1462 00e8 1340     		ands	r3, r3, r2
 1463 00ea 002B     		cmp	r3, #0
 1464 00ec 0FD1     		bne	.L72
 1465              		.loc 1 773 0 is_stmt 0 discriminator 1
 1466 00ee 7B68     		ldr	r3, [r7, #4]
 1467 00f0 1B68     		ldr	r3, [r3]
 1468 00f2 1A6A     		ldr	r2, [r3, #32]
 1469 00f4 40F24443 		movw	r3, #1092
 1470 00f8 1340     		ands	r3, r3, r2
 1471 00fa 002B     		cmp	r3, #0
 1472 00fc 07D1     		bne	.L72
 1473              		.loc 1 773 0 discriminator 2
 1474 00fe 7B68     		ldr	r3, [r7, #4]
 1475 0100 1B68     		ldr	r3, [r3]
 1476 0102 7A68     		ldr	r2, [r7, #4]
 1477 0104 1268     		ldr	r2, [r2]
 1478 0106 1268     		ldr	r2, [r2]
 1479 0108 22F00102 		bic	r2, r2, #1
 1480 010c 1A60     		str	r2, [r3]
 1481              	.L72:
 774:Drivers/STM32F4xx_HAL_Driver/Src/stm32f4xx_hal_tim.c ****   
 775:Drivers/STM32F4xx_HAL_Driver/Src/stm32f4xx_hal_tim.c ****   /* Return function status */
 776:Drivers/STM32F4xx_HAL_Driver/Src/stm32f4xx_hal_tim.c ****   return HAL_OK;
 1482              		.loc 1 776 0 is_stmt 1
ARM GAS  /tmp/cc4tSQEQ.s 			page 40


 1483 010e 0023     		movs	r3, #0
 777:Drivers/STM32F4xx_HAL_Driver/Src/stm32f4xx_hal_tim.c **** }
 1484              		.loc 1 777 0
 1485 0110 1846     		mov	r0, r3
 1486 0112 0837     		adds	r7, r7, #8
 1487              	.LCFI97:
 1488              		.cfi_def_cfa_offset 8
 1489 0114 BD46     		mov	sp, r7
 1490              	.LCFI98:
 1491              		.cfi_def_cfa_register 13
 1492              		@ sp needed
 1493 0116 80BD     		pop	{r7, pc}
 1494              	.L76:
 1495              		.align	2
 1496              	.L75:
 1497 0118 00000140 		.word	1073807360
 1498              		.cfi_endproc
 1499              	.LFE141:
 1501              		.section	.text.HAL_TIM_OC_Start_DMA,"ax",%progbits
 1502              		.align	1
 1503              		.global	HAL_TIM_OC_Start_DMA
 1504              		.syntax unified
 1505              		.thumb
 1506              		.thumb_func
 1507              		.fpu fpv4-sp-d16
 1509              	HAL_TIM_OC_Start_DMA:
 1510              	.LFB142:
 778:Drivers/STM32F4xx_HAL_Driver/Src/stm32f4xx_hal_tim.c **** 
 779:Drivers/STM32F4xx_HAL_Driver/Src/stm32f4xx_hal_tim.c **** /**
 780:Drivers/STM32F4xx_HAL_Driver/Src/stm32f4xx_hal_tim.c ****   * @brief  Starts the TIM Output Compare signal generation in DMA mode.
 781:Drivers/STM32F4xx_HAL_Driver/Src/stm32f4xx_hal_tim.c ****   * @param  htim pointer to a TIM_HandleTypeDef structure that contains
 782:Drivers/STM32F4xx_HAL_Driver/Src/stm32f4xx_hal_tim.c ****   *                the configuration information for TIM module.
 783:Drivers/STM32F4xx_HAL_Driver/Src/stm32f4xx_hal_tim.c ****   * @param  Channel TIM Channel to be enabled.
 784:Drivers/STM32F4xx_HAL_Driver/Src/stm32f4xx_hal_tim.c ****   *          This parameter can be one of the following values:
 785:Drivers/STM32F4xx_HAL_Driver/Src/stm32f4xx_hal_tim.c ****   *            @arg TIM_CHANNEL_1: TIM Channel 1 selected
 786:Drivers/STM32F4xx_HAL_Driver/Src/stm32f4xx_hal_tim.c ****   *            @arg TIM_CHANNEL_2: TIM Channel 2 selected
 787:Drivers/STM32F4xx_HAL_Driver/Src/stm32f4xx_hal_tim.c ****   *            @arg TIM_CHANNEL_3: TIM Channel 3 selected
 788:Drivers/STM32F4xx_HAL_Driver/Src/stm32f4xx_hal_tim.c ****   *            @arg TIM_CHANNEL_4: TIM Channel 4 selected
 789:Drivers/STM32F4xx_HAL_Driver/Src/stm32f4xx_hal_tim.c ****   * @param  pData The source Buffer address.
 790:Drivers/STM32F4xx_HAL_Driver/Src/stm32f4xx_hal_tim.c ****   * @param  Length The length of data to be transferred from memory to TIM peripheral
 791:Drivers/STM32F4xx_HAL_Driver/Src/stm32f4xx_hal_tim.c ****   * @retval HAL status
 792:Drivers/STM32F4xx_HAL_Driver/Src/stm32f4xx_hal_tim.c ****   */
 793:Drivers/STM32F4xx_HAL_Driver/Src/stm32f4xx_hal_tim.c **** HAL_StatusTypeDef HAL_TIM_OC_Start_DMA(TIM_HandleTypeDef *htim, uint32_t Channel, uint32_t *pData, 
 794:Drivers/STM32F4xx_HAL_Driver/Src/stm32f4xx_hal_tim.c **** {
 1511              		.loc 1 794 0
 1512              		.cfi_startproc
 1513              		@ args = 0, pretend = 0, frame = 16
 1514              		@ frame_needed = 1, uses_anonymous_args = 0
 1515 0000 80B5     		push	{r7, lr}
 1516              	.LCFI99:
 1517              		.cfi_def_cfa_offset 8
 1518              		.cfi_offset 7, -8
 1519              		.cfi_offset 14, -4
 1520 0002 84B0     		sub	sp, sp, #16
 1521              	.LCFI100:
 1522              		.cfi_def_cfa_offset 24
 1523 0004 00AF     		add	r7, sp, #0
ARM GAS  /tmp/cc4tSQEQ.s 			page 41


 1524              	.LCFI101:
 1525              		.cfi_def_cfa_register 7
 1526 0006 F860     		str	r0, [r7, #12]
 1527 0008 B960     		str	r1, [r7, #8]
 1528 000a 7A60     		str	r2, [r7, #4]
 1529 000c 7B80     		strh	r3, [r7, #2]	@ movhi
 795:Drivers/STM32F4xx_HAL_Driver/Src/stm32f4xx_hal_tim.c ****   /* Check the parameters */
 796:Drivers/STM32F4xx_HAL_Driver/Src/stm32f4xx_hal_tim.c ****   assert_param(IS_TIM_CCX_INSTANCE(htim->Instance, Channel));
 797:Drivers/STM32F4xx_HAL_Driver/Src/stm32f4xx_hal_tim.c ****   
 798:Drivers/STM32F4xx_HAL_Driver/Src/stm32f4xx_hal_tim.c ****   if((htim->State == HAL_TIM_STATE_BUSY))
 1530              		.loc 1 798 0
 1531 000e FB68     		ldr	r3, [r7, #12]
 1532 0010 93F83930 		ldrb	r3, [r3, #57]
 1533 0014 DBB2     		uxtb	r3, r3
 1534 0016 022B     		cmp	r3, #2
 1535 0018 01D1     		bne	.L78
 799:Drivers/STM32F4xx_HAL_Driver/Src/stm32f4xx_hal_tim.c ****   {
 800:Drivers/STM32F4xx_HAL_Driver/Src/stm32f4xx_hal_tim.c ****      return HAL_BUSY;
 1536              		.loc 1 800 0
 1537 001a 0223     		movs	r3, #2
 1538 001c BCE0     		b	.L79
 1539              	.L78:
 801:Drivers/STM32F4xx_HAL_Driver/Src/stm32f4xx_hal_tim.c ****   }
 802:Drivers/STM32F4xx_HAL_Driver/Src/stm32f4xx_hal_tim.c ****   else if((htim->State == HAL_TIM_STATE_READY))
 1540              		.loc 1 802 0
 1541 001e FB68     		ldr	r3, [r7, #12]
 1542 0020 93F83930 		ldrb	r3, [r3, #57]
 1543 0024 DBB2     		uxtb	r3, r3
 1544 0026 012B     		cmp	r3, #1
 1545 0028 0BD1     		bne	.L80
 803:Drivers/STM32F4xx_HAL_Driver/Src/stm32f4xx_hal_tim.c ****   {
 804:Drivers/STM32F4xx_HAL_Driver/Src/stm32f4xx_hal_tim.c ****     if(((uint32_t)pData == 0U) && (Length > 0)) 
 1546              		.loc 1 804 0
 1547 002a 7B68     		ldr	r3, [r7, #4]
 1548 002c 002B     		cmp	r3, #0
 1549 002e 04D1     		bne	.L81
 1550              		.loc 1 804 0 is_stmt 0 discriminator 1
 1551 0030 7B88     		ldrh	r3, [r7, #2]
 1552 0032 002B     		cmp	r3, #0
 1553 0034 01D0     		beq	.L81
 805:Drivers/STM32F4xx_HAL_Driver/Src/stm32f4xx_hal_tim.c ****     {
 806:Drivers/STM32F4xx_HAL_Driver/Src/stm32f4xx_hal_tim.c ****       return HAL_ERROR;                                    
 1554              		.loc 1 806 0 is_stmt 1
 1555 0036 0123     		movs	r3, #1
 1556 0038 AEE0     		b	.L79
 1557              	.L81:
 807:Drivers/STM32F4xx_HAL_Driver/Src/stm32f4xx_hal_tim.c ****     }
 808:Drivers/STM32F4xx_HAL_Driver/Src/stm32f4xx_hal_tim.c ****     else
 809:Drivers/STM32F4xx_HAL_Driver/Src/stm32f4xx_hal_tim.c ****     {
 810:Drivers/STM32F4xx_HAL_Driver/Src/stm32f4xx_hal_tim.c ****       htim->State = HAL_TIM_STATE_BUSY;
 1558              		.loc 1 810 0
 1559 003a FB68     		ldr	r3, [r7, #12]
 1560 003c 0222     		movs	r2, #2
 1561 003e 83F83920 		strb	r2, [r3, #57]
 1562              	.L80:
 811:Drivers/STM32F4xx_HAL_Driver/Src/stm32f4xx_hal_tim.c ****     }
 812:Drivers/STM32F4xx_HAL_Driver/Src/stm32f4xx_hal_tim.c ****   }    
ARM GAS  /tmp/cc4tSQEQ.s 			page 42


 813:Drivers/STM32F4xx_HAL_Driver/Src/stm32f4xx_hal_tim.c ****   switch (Channel)
 1563              		.loc 1 813 0
 1564 0042 BB68     		ldr	r3, [r7, #8]
 1565 0044 0C2B     		cmp	r3, #12
 1566 0046 00F28980 		bhi	.L90
 1567 004a 01A2     		adr	r2, .L84
 1568 004c 52F823F0 		ldr	pc, [r2, r3, lsl #2]
 1569              		.p2align 2
 1570              	.L84:
 1571 0050 85000000 		.word	.L83+1
 1572 0054 5D010000 		.word	.L90+1
 1573 0058 5D010000 		.word	.L90+1
 1574 005c 5D010000 		.word	.L90+1
 1575 0060 BB000000 		.word	.L85+1
 1576 0064 5D010000 		.word	.L90+1
 1577 0068 5D010000 		.word	.L90+1
 1578 006c 5D010000 		.word	.L90+1
 1579 0070 F1000000 		.word	.L86+1
 1580 0074 5D010000 		.word	.L90+1
 1581 0078 5D010000 		.word	.L90+1
 1582 007c 5D010000 		.word	.L90+1
 1583 0080 27010000 		.word	.L87+1
 1584              		.p2align 1
 1585              	.L83:
 814:Drivers/STM32F4xx_HAL_Driver/Src/stm32f4xx_hal_tim.c ****   {
 815:Drivers/STM32F4xx_HAL_Driver/Src/stm32f4xx_hal_tim.c ****     case TIM_CHANNEL_1:
 816:Drivers/STM32F4xx_HAL_Driver/Src/stm32f4xx_hal_tim.c ****     {      
 817:Drivers/STM32F4xx_HAL_Driver/Src/stm32f4xx_hal_tim.c ****       /* Set the DMA Period elapsed callback */
 818:Drivers/STM32F4xx_HAL_Driver/Src/stm32f4xx_hal_tim.c ****       htim->hdma[TIM_DMA_ID_CC1]->XferCpltCallback = TIM_DMADelayPulseCplt;
 1586              		.loc 1 818 0
 1587 0084 FB68     		ldr	r3, [r7, #12]
 1588 0086 1B6A     		ldr	r3, [r3, #32]
 1589 0088 454A     		ldr	r2, .L91
 1590 008a DA63     		str	r2, [r3, #60]
 819:Drivers/STM32F4xx_HAL_Driver/Src/stm32f4xx_hal_tim.c ****      
 820:Drivers/STM32F4xx_HAL_Driver/Src/stm32f4xx_hal_tim.c ****       /* Set the DMA error callback */
 821:Drivers/STM32F4xx_HAL_Driver/Src/stm32f4xx_hal_tim.c ****       htim->hdma[TIM_DMA_ID_CC1]->XferErrorCallback = TIM_DMAError ;
 1591              		.loc 1 821 0
 1592 008c FB68     		ldr	r3, [r7, #12]
 1593 008e 1B6A     		ldr	r3, [r3, #32]
 1594 0090 444A     		ldr	r2, .L91+4
 1595 0092 DA64     		str	r2, [r3, #76]
 822:Drivers/STM32F4xx_HAL_Driver/Src/stm32f4xx_hal_tim.c ****       
 823:Drivers/STM32F4xx_HAL_Driver/Src/stm32f4xx_hal_tim.c ****       /* Enable the DMA Stream */
 824:Drivers/STM32F4xx_HAL_Driver/Src/stm32f4xx_hal_tim.c ****       HAL_DMA_Start_IT(htim->hdma[TIM_DMA_ID_CC1], (uint32_t)pData, (uint32_t)&htim->Instance->CCR1
 1596              		.loc 1 824 0
 1597 0094 FB68     		ldr	r3, [r7, #12]
 1598 0096 186A     		ldr	r0, [r3, #32]
 1599 0098 7968     		ldr	r1, [r7, #4]
 1600 009a FB68     		ldr	r3, [r7, #12]
 1601 009c 1B68     		ldr	r3, [r3]
 1602 009e 3433     		adds	r3, r3, #52
 1603 00a0 1A46     		mov	r2, r3
 1604 00a2 7B88     		ldrh	r3, [r7, #2]
 1605 00a4 FFF7FEFF 		bl	HAL_DMA_Start_IT
 825:Drivers/STM32F4xx_HAL_Driver/Src/stm32f4xx_hal_tim.c ****       
 826:Drivers/STM32F4xx_HAL_Driver/Src/stm32f4xx_hal_tim.c ****       /* Enable the TIM Capture/Compare 1 DMA request */
ARM GAS  /tmp/cc4tSQEQ.s 			page 43


 827:Drivers/STM32F4xx_HAL_Driver/Src/stm32f4xx_hal_tim.c ****       __HAL_TIM_ENABLE_DMA(htim, TIM_DMA_CC1);
 1606              		.loc 1 827 0
 1607 00a8 FB68     		ldr	r3, [r7, #12]
 1608 00aa 1B68     		ldr	r3, [r3]
 1609 00ac FA68     		ldr	r2, [r7, #12]
 1610 00ae 1268     		ldr	r2, [r2]
 1611 00b0 D268     		ldr	r2, [r2, #12]
 1612 00b2 42F40072 		orr	r2, r2, #512
 1613 00b6 DA60     		str	r2, [r3, #12]
 828:Drivers/STM32F4xx_HAL_Driver/Src/stm32f4xx_hal_tim.c ****     }
 829:Drivers/STM32F4xx_HAL_Driver/Src/stm32f4xx_hal_tim.c ****     break;
 1614              		.loc 1 829 0
 1615 00b8 51E0     		b	.L88
 1616              	.L85:
 830:Drivers/STM32F4xx_HAL_Driver/Src/stm32f4xx_hal_tim.c ****     
 831:Drivers/STM32F4xx_HAL_Driver/Src/stm32f4xx_hal_tim.c ****     case TIM_CHANNEL_2:
 832:Drivers/STM32F4xx_HAL_Driver/Src/stm32f4xx_hal_tim.c ****     {
 833:Drivers/STM32F4xx_HAL_Driver/Src/stm32f4xx_hal_tim.c ****       /* Set the DMA Period elapsed callback */
 834:Drivers/STM32F4xx_HAL_Driver/Src/stm32f4xx_hal_tim.c ****       htim->hdma[TIM_DMA_ID_CC2]->XferCpltCallback = TIM_DMADelayPulseCplt;
 1617              		.loc 1 834 0
 1618 00ba FB68     		ldr	r3, [r7, #12]
 1619 00bc 5B6A     		ldr	r3, [r3, #36]
 1620 00be 384A     		ldr	r2, .L91
 1621 00c0 DA63     		str	r2, [r3, #60]
 835:Drivers/STM32F4xx_HAL_Driver/Src/stm32f4xx_hal_tim.c ****      
 836:Drivers/STM32F4xx_HAL_Driver/Src/stm32f4xx_hal_tim.c ****       /* Set the DMA error callback */
 837:Drivers/STM32F4xx_HAL_Driver/Src/stm32f4xx_hal_tim.c ****       htim->hdma[TIM_DMA_ID_CC2]->XferErrorCallback = TIM_DMAError ;
 1622              		.loc 1 837 0
 1623 00c2 FB68     		ldr	r3, [r7, #12]
 1624 00c4 5B6A     		ldr	r3, [r3, #36]
 1625 00c6 374A     		ldr	r2, .L91+4
 1626 00c8 DA64     		str	r2, [r3, #76]
 838:Drivers/STM32F4xx_HAL_Driver/Src/stm32f4xx_hal_tim.c ****       
 839:Drivers/STM32F4xx_HAL_Driver/Src/stm32f4xx_hal_tim.c ****       /* Enable the DMA Stream */
 840:Drivers/STM32F4xx_HAL_Driver/Src/stm32f4xx_hal_tim.c ****       HAL_DMA_Start_IT(htim->hdma[TIM_DMA_ID_CC2], (uint32_t)pData, (uint32_t)&htim->Instance->CCR2
 1627              		.loc 1 840 0
 1628 00ca FB68     		ldr	r3, [r7, #12]
 1629 00cc 586A     		ldr	r0, [r3, #36]
 1630 00ce 7968     		ldr	r1, [r7, #4]
 1631 00d0 FB68     		ldr	r3, [r7, #12]
 1632 00d2 1B68     		ldr	r3, [r3]
 1633 00d4 3833     		adds	r3, r3, #56
 1634 00d6 1A46     		mov	r2, r3
 1635 00d8 7B88     		ldrh	r3, [r7, #2]
 1636 00da FFF7FEFF 		bl	HAL_DMA_Start_IT
 841:Drivers/STM32F4xx_HAL_Driver/Src/stm32f4xx_hal_tim.c ****       
 842:Drivers/STM32F4xx_HAL_Driver/Src/stm32f4xx_hal_tim.c ****       /* Enable the TIM Capture/Compare 2 DMA request */
 843:Drivers/STM32F4xx_HAL_Driver/Src/stm32f4xx_hal_tim.c ****       __HAL_TIM_ENABLE_DMA(htim, TIM_DMA_CC2);
 1637              		.loc 1 843 0
 1638 00de FB68     		ldr	r3, [r7, #12]
 1639 00e0 1B68     		ldr	r3, [r3]
 1640 00e2 FA68     		ldr	r2, [r7, #12]
 1641 00e4 1268     		ldr	r2, [r2]
 1642 00e6 D268     		ldr	r2, [r2, #12]
 1643 00e8 42F48062 		orr	r2, r2, #1024
 1644 00ec DA60     		str	r2, [r3, #12]
 844:Drivers/STM32F4xx_HAL_Driver/Src/stm32f4xx_hal_tim.c ****     }
ARM GAS  /tmp/cc4tSQEQ.s 			page 44


 845:Drivers/STM32F4xx_HAL_Driver/Src/stm32f4xx_hal_tim.c ****     break;
 1645              		.loc 1 845 0
 1646 00ee 36E0     		b	.L88
 1647              	.L86:
 846:Drivers/STM32F4xx_HAL_Driver/Src/stm32f4xx_hal_tim.c ****     
 847:Drivers/STM32F4xx_HAL_Driver/Src/stm32f4xx_hal_tim.c ****     case TIM_CHANNEL_3:
 848:Drivers/STM32F4xx_HAL_Driver/Src/stm32f4xx_hal_tim.c ****     {
 849:Drivers/STM32F4xx_HAL_Driver/Src/stm32f4xx_hal_tim.c ****       /* Set the DMA Period elapsed callback */
 850:Drivers/STM32F4xx_HAL_Driver/Src/stm32f4xx_hal_tim.c ****       htim->hdma[TIM_DMA_ID_CC3]->XferCpltCallback = TIM_DMADelayPulseCplt;
 1648              		.loc 1 850 0
 1649 00f0 FB68     		ldr	r3, [r7, #12]
 1650 00f2 9B6A     		ldr	r3, [r3, #40]
 1651 00f4 2A4A     		ldr	r2, .L91
 1652 00f6 DA63     		str	r2, [r3, #60]
 851:Drivers/STM32F4xx_HAL_Driver/Src/stm32f4xx_hal_tim.c ****      
 852:Drivers/STM32F4xx_HAL_Driver/Src/stm32f4xx_hal_tim.c ****       /* Set the DMA error callback */
 853:Drivers/STM32F4xx_HAL_Driver/Src/stm32f4xx_hal_tim.c ****       htim->hdma[TIM_DMA_ID_CC3]->XferErrorCallback = TIM_DMAError ;
 1653              		.loc 1 853 0
 1654 00f8 FB68     		ldr	r3, [r7, #12]
 1655 00fa 9B6A     		ldr	r3, [r3, #40]
 1656 00fc 294A     		ldr	r2, .L91+4
 1657 00fe DA64     		str	r2, [r3, #76]
 854:Drivers/STM32F4xx_HAL_Driver/Src/stm32f4xx_hal_tim.c ****       
 855:Drivers/STM32F4xx_HAL_Driver/Src/stm32f4xx_hal_tim.c ****       /* Enable the DMA Stream */
 856:Drivers/STM32F4xx_HAL_Driver/Src/stm32f4xx_hal_tim.c ****       HAL_DMA_Start_IT(htim->hdma[TIM_DMA_ID_CC3], (uint32_t)pData, (uint32_t)&htim->Instance->CCR3
 1658              		.loc 1 856 0
 1659 0100 FB68     		ldr	r3, [r7, #12]
 1660 0102 986A     		ldr	r0, [r3, #40]
 1661 0104 7968     		ldr	r1, [r7, #4]
 1662 0106 FB68     		ldr	r3, [r7, #12]
 1663 0108 1B68     		ldr	r3, [r3]
 1664 010a 3C33     		adds	r3, r3, #60
 1665 010c 1A46     		mov	r2, r3
 1666 010e 7B88     		ldrh	r3, [r7, #2]
 1667 0110 FFF7FEFF 		bl	HAL_DMA_Start_IT
 857:Drivers/STM32F4xx_HAL_Driver/Src/stm32f4xx_hal_tim.c ****       
 858:Drivers/STM32F4xx_HAL_Driver/Src/stm32f4xx_hal_tim.c ****       /* Enable the TIM Capture/Compare 3 DMA request */
 859:Drivers/STM32F4xx_HAL_Driver/Src/stm32f4xx_hal_tim.c ****       __HAL_TIM_ENABLE_DMA(htim, TIM_DMA_CC3);
 1668              		.loc 1 859 0
 1669 0114 FB68     		ldr	r3, [r7, #12]
 1670 0116 1B68     		ldr	r3, [r3]
 1671 0118 FA68     		ldr	r2, [r7, #12]
 1672 011a 1268     		ldr	r2, [r2]
 1673 011c D268     		ldr	r2, [r2, #12]
 1674 011e 42F40062 		orr	r2, r2, #2048
 1675 0122 DA60     		str	r2, [r3, #12]
 860:Drivers/STM32F4xx_HAL_Driver/Src/stm32f4xx_hal_tim.c ****     }
 861:Drivers/STM32F4xx_HAL_Driver/Src/stm32f4xx_hal_tim.c ****     break;
 1676              		.loc 1 861 0
 1677 0124 1BE0     		b	.L88
 1678              	.L87:
 862:Drivers/STM32F4xx_HAL_Driver/Src/stm32f4xx_hal_tim.c ****     
 863:Drivers/STM32F4xx_HAL_Driver/Src/stm32f4xx_hal_tim.c ****     case TIM_CHANNEL_4:
 864:Drivers/STM32F4xx_HAL_Driver/Src/stm32f4xx_hal_tim.c ****     {
 865:Drivers/STM32F4xx_HAL_Driver/Src/stm32f4xx_hal_tim.c ****      /* Set the DMA Period elapsed callback */
 866:Drivers/STM32F4xx_HAL_Driver/Src/stm32f4xx_hal_tim.c ****       htim->hdma[TIM_DMA_ID_CC4]->XferCpltCallback = TIM_DMADelayPulseCplt;
 1679              		.loc 1 866 0
ARM GAS  /tmp/cc4tSQEQ.s 			page 45


 1680 0126 FB68     		ldr	r3, [r7, #12]
 1681 0128 DB6A     		ldr	r3, [r3, #44]
 1682 012a 1D4A     		ldr	r2, .L91
 1683 012c DA63     		str	r2, [r3, #60]
 867:Drivers/STM32F4xx_HAL_Driver/Src/stm32f4xx_hal_tim.c ****      
 868:Drivers/STM32F4xx_HAL_Driver/Src/stm32f4xx_hal_tim.c ****       /* Set the DMA error callback */
 869:Drivers/STM32F4xx_HAL_Driver/Src/stm32f4xx_hal_tim.c ****       htim->hdma[TIM_DMA_ID_CC4]->XferErrorCallback = TIM_DMAError ;
 1684              		.loc 1 869 0
 1685 012e FB68     		ldr	r3, [r7, #12]
 1686 0130 DB6A     		ldr	r3, [r3, #44]
 1687 0132 1C4A     		ldr	r2, .L91+4
 1688 0134 DA64     		str	r2, [r3, #76]
 870:Drivers/STM32F4xx_HAL_Driver/Src/stm32f4xx_hal_tim.c ****       
 871:Drivers/STM32F4xx_HAL_Driver/Src/stm32f4xx_hal_tim.c ****       /* Enable the DMA Stream */
 872:Drivers/STM32F4xx_HAL_Driver/Src/stm32f4xx_hal_tim.c ****       HAL_DMA_Start_IT(htim->hdma[TIM_DMA_ID_CC4], (uint32_t)pData, (uint32_t)&htim->Instance->CCR4
 1689              		.loc 1 872 0
 1690 0136 FB68     		ldr	r3, [r7, #12]
 1691 0138 D86A     		ldr	r0, [r3, #44]
 1692 013a 7968     		ldr	r1, [r7, #4]
 1693 013c FB68     		ldr	r3, [r7, #12]
 1694 013e 1B68     		ldr	r3, [r3]
 1695 0140 4033     		adds	r3, r3, #64
 1696 0142 1A46     		mov	r2, r3
 1697 0144 7B88     		ldrh	r3, [r7, #2]
 1698 0146 FFF7FEFF 		bl	HAL_DMA_Start_IT
 873:Drivers/STM32F4xx_HAL_Driver/Src/stm32f4xx_hal_tim.c ****       
 874:Drivers/STM32F4xx_HAL_Driver/Src/stm32f4xx_hal_tim.c ****       /* Enable the TIM Capture/Compare 4 DMA request */
 875:Drivers/STM32F4xx_HAL_Driver/Src/stm32f4xx_hal_tim.c ****       __HAL_TIM_ENABLE_DMA(htim, TIM_DMA_CC4);
 1699              		.loc 1 875 0
 1700 014a FB68     		ldr	r3, [r7, #12]
 1701 014c 1B68     		ldr	r3, [r3]
 1702 014e FA68     		ldr	r2, [r7, #12]
 1703 0150 1268     		ldr	r2, [r2]
 1704 0152 D268     		ldr	r2, [r2, #12]
 1705 0154 42F48052 		orr	r2, r2, #4096
 1706 0158 DA60     		str	r2, [r3, #12]
 876:Drivers/STM32F4xx_HAL_Driver/Src/stm32f4xx_hal_tim.c ****     }
 877:Drivers/STM32F4xx_HAL_Driver/Src/stm32f4xx_hal_tim.c ****     break;
 1707              		.loc 1 877 0
 1708 015a 00E0     		b	.L88
 1709              	.L90:
 878:Drivers/STM32F4xx_HAL_Driver/Src/stm32f4xx_hal_tim.c ****     
 879:Drivers/STM32F4xx_HAL_Driver/Src/stm32f4xx_hal_tim.c ****     default:
 880:Drivers/STM32F4xx_HAL_Driver/Src/stm32f4xx_hal_tim.c ****     break;
 1710              		.loc 1 880 0
 1711 015c 00BF     		nop
 1712              	.L88:
 881:Drivers/STM32F4xx_HAL_Driver/Src/stm32f4xx_hal_tim.c ****   }
 882:Drivers/STM32F4xx_HAL_Driver/Src/stm32f4xx_hal_tim.c **** 
 883:Drivers/STM32F4xx_HAL_Driver/Src/stm32f4xx_hal_tim.c ****   /* Enable the Output compare channel */
 884:Drivers/STM32F4xx_HAL_Driver/Src/stm32f4xx_hal_tim.c ****   TIM_CCxChannelCmd(htim->Instance, Channel, TIM_CCx_ENABLE);
 1713              		.loc 1 884 0
 1714 015e FB68     		ldr	r3, [r7, #12]
 1715 0160 1B68     		ldr	r3, [r3]
 1716 0162 0122     		movs	r2, #1
 1717 0164 B968     		ldr	r1, [r7, #8]
 1718 0166 1846     		mov	r0, r3
ARM GAS  /tmp/cc4tSQEQ.s 			page 46


 1719 0168 FFF7FEFF 		bl	TIM_CCxChannelCmd
 885:Drivers/STM32F4xx_HAL_Driver/Src/stm32f4xx_hal_tim.c ****   
 886:Drivers/STM32F4xx_HAL_Driver/Src/stm32f4xx_hal_tim.c ****   if(IS_TIM_ADVANCED_INSTANCE(htim->Instance) != RESET)  
 1720              		.loc 1 886 0
 1721 016c FB68     		ldr	r3, [r7, #12]
 1722 016e 1B68     		ldr	r3, [r3]
 1723 0170 0D4A     		ldr	r2, .L91+8
 1724 0172 9342     		cmp	r3, r2
 1725 0174 07D1     		bne	.L89
 887:Drivers/STM32F4xx_HAL_Driver/Src/stm32f4xx_hal_tim.c ****   {
 888:Drivers/STM32F4xx_HAL_Driver/Src/stm32f4xx_hal_tim.c ****     /* Enable the main output */
 889:Drivers/STM32F4xx_HAL_Driver/Src/stm32f4xx_hal_tim.c ****     __HAL_TIM_MOE_ENABLE(htim);
 1726              		.loc 1 889 0
 1727 0176 FB68     		ldr	r3, [r7, #12]
 1728 0178 1B68     		ldr	r3, [r3]
 1729 017a FA68     		ldr	r2, [r7, #12]
 1730 017c 1268     		ldr	r2, [r2]
 1731 017e 526C     		ldr	r2, [r2, #68]
 1732 0180 42F40042 		orr	r2, r2, #32768
 1733 0184 5A64     		str	r2, [r3, #68]
 1734              	.L89:
 890:Drivers/STM32F4xx_HAL_Driver/Src/stm32f4xx_hal_tim.c ****   }  
 891:Drivers/STM32F4xx_HAL_Driver/Src/stm32f4xx_hal_tim.c ****   
 892:Drivers/STM32F4xx_HAL_Driver/Src/stm32f4xx_hal_tim.c ****   /* Enable the Peripheral */
 893:Drivers/STM32F4xx_HAL_Driver/Src/stm32f4xx_hal_tim.c ****   __HAL_TIM_ENABLE(htim); 
 1735              		.loc 1 893 0
 1736 0186 FB68     		ldr	r3, [r7, #12]
 1737 0188 1B68     		ldr	r3, [r3]
 1738 018a FA68     		ldr	r2, [r7, #12]
 1739 018c 1268     		ldr	r2, [r2]
 1740 018e 1268     		ldr	r2, [r2]
 1741 0190 42F00102 		orr	r2, r2, #1
 1742 0194 1A60     		str	r2, [r3]
 894:Drivers/STM32F4xx_HAL_Driver/Src/stm32f4xx_hal_tim.c ****   
 895:Drivers/STM32F4xx_HAL_Driver/Src/stm32f4xx_hal_tim.c ****   /* Return function status */
 896:Drivers/STM32F4xx_HAL_Driver/Src/stm32f4xx_hal_tim.c ****   return HAL_OK;
 1743              		.loc 1 896 0
 1744 0196 0023     		movs	r3, #0
 1745              	.L79:
 897:Drivers/STM32F4xx_HAL_Driver/Src/stm32f4xx_hal_tim.c **** }
 1746              		.loc 1 897 0
 1747 0198 1846     		mov	r0, r3
 1748 019a 1037     		adds	r7, r7, #16
 1749              	.LCFI102:
 1750              		.cfi_def_cfa_offset 8
 1751 019c BD46     		mov	sp, r7
 1752              	.LCFI103:
 1753              		.cfi_def_cfa_register 13
 1754              		@ sp needed
 1755 019e 80BD     		pop	{r7, pc}
 1756              	.L92:
 1757              		.align	2
 1758              	.L91:
 1759 01a0 00000000 		.word	TIM_DMADelayPulseCplt
 1760 01a4 00000000 		.word	TIM_DMAError
 1761 01a8 00000140 		.word	1073807360
 1762              		.cfi_endproc
ARM GAS  /tmp/cc4tSQEQ.s 			page 47


 1763              	.LFE142:
 1765              		.section	.text.HAL_TIM_OC_Stop_DMA,"ax",%progbits
 1766              		.align	1
 1767              		.global	HAL_TIM_OC_Stop_DMA
 1768              		.syntax unified
 1769              		.thumb
 1770              		.thumb_func
 1771              		.fpu fpv4-sp-d16
 1773              	HAL_TIM_OC_Stop_DMA:
 1774              	.LFB143:
 898:Drivers/STM32F4xx_HAL_Driver/Src/stm32f4xx_hal_tim.c **** 
 899:Drivers/STM32F4xx_HAL_Driver/Src/stm32f4xx_hal_tim.c **** /**
 900:Drivers/STM32F4xx_HAL_Driver/Src/stm32f4xx_hal_tim.c ****   * @brief  Stops the TIM Output Compare signal generation in DMA mode.
 901:Drivers/STM32F4xx_HAL_Driver/Src/stm32f4xx_hal_tim.c ****   * @param  htim pointer to a TIM_HandleTypeDef structure that contains
 902:Drivers/STM32F4xx_HAL_Driver/Src/stm32f4xx_hal_tim.c ****   *                the configuration information for TIM module.
 903:Drivers/STM32F4xx_HAL_Driver/Src/stm32f4xx_hal_tim.c ****   * @param  Channel TIM Channel to be disabled.
 904:Drivers/STM32F4xx_HAL_Driver/Src/stm32f4xx_hal_tim.c ****   *          This parameter can be one of the following values:
 905:Drivers/STM32F4xx_HAL_Driver/Src/stm32f4xx_hal_tim.c ****   *            @arg TIM_CHANNEL_1: TIM Channel 1 selected
 906:Drivers/STM32F4xx_HAL_Driver/Src/stm32f4xx_hal_tim.c ****   *            @arg TIM_CHANNEL_2: TIM Channel 2 selected
 907:Drivers/STM32F4xx_HAL_Driver/Src/stm32f4xx_hal_tim.c ****   *            @arg TIM_CHANNEL_3: TIM Channel 3 selected
 908:Drivers/STM32F4xx_HAL_Driver/Src/stm32f4xx_hal_tim.c ****   *            @arg TIM_CHANNEL_4: TIM Channel 4 selected
 909:Drivers/STM32F4xx_HAL_Driver/Src/stm32f4xx_hal_tim.c ****   * @retval HAL status
 910:Drivers/STM32F4xx_HAL_Driver/Src/stm32f4xx_hal_tim.c ****   */
 911:Drivers/STM32F4xx_HAL_Driver/Src/stm32f4xx_hal_tim.c **** HAL_StatusTypeDef HAL_TIM_OC_Stop_DMA(TIM_HandleTypeDef *htim, uint32_t Channel)
 912:Drivers/STM32F4xx_HAL_Driver/Src/stm32f4xx_hal_tim.c **** {
 1775              		.loc 1 912 0
 1776              		.cfi_startproc
 1777              		@ args = 0, pretend = 0, frame = 8
 1778              		@ frame_needed = 1, uses_anonymous_args = 0
 1779 0000 80B5     		push	{r7, lr}
 1780              	.LCFI104:
 1781              		.cfi_def_cfa_offset 8
 1782              		.cfi_offset 7, -8
 1783              		.cfi_offset 14, -4
 1784 0002 82B0     		sub	sp, sp, #8
 1785              	.LCFI105:
 1786              		.cfi_def_cfa_offset 16
 1787 0004 00AF     		add	r7, sp, #0
 1788              	.LCFI106:
 1789              		.cfi_def_cfa_register 7
 1790 0006 7860     		str	r0, [r7, #4]
 1791 0008 3960     		str	r1, [r7]
 913:Drivers/STM32F4xx_HAL_Driver/Src/stm32f4xx_hal_tim.c ****   /* Check the parameters */
 914:Drivers/STM32F4xx_HAL_Driver/Src/stm32f4xx_hal_tim.c ****   assert_param(IS_TIM_CCX_INSTANCE(htim->Instance, Channel));
 915:Drivers/STM32F4xx_HAL_Driver/Src/stm32f4xx_hal_tim.c ****   
 916:Drivers/STM32F4xx_HAL_Driver/Src/stm32f4xx_hal_tim.c ****   switch (Channel)
 1792              		.loc 1 916 0
 1793 000a 3B68     		ldr	r3, [r7]
 1794 000c 0C2B     		cmp	r3, #12
 1795 000e 41D8     		bhi	.L104
 1796 0010 01A2     		adr	r2, .L96
 1797 0012 52F823F0 		ldr	pc, [r2, r3, lsl #2]
 1798 0016 00BF     		.p2align 2
 1799              	.L96:
 1800 0018 4D000000 		.word	.L95+1
 1801 001c 95000000 		.word	.L104+1
 1802 0020 95000000 		.word	.L104+1
ARM GAS  /tmp/cc4tSQEQ.s 			page 48


 1803 0024 95000000 		.word	.L104+1
 1804 0028 5F000000 		.word	.L97+1
 1805 002c 95000000 		.word	.L104+1
 1806 0030 95000000 		.word	.L104+1
 1807 0034 95000000 		.word	.L104+1
 1808 0038 71000000 		.word	.L98+1
 1809 003c 95000000 		.word	.L104+1
 1810 0040 95000000 		.word	.L104+1
 1811 0044 95000000 		.word	.L104+1
 1812 0048 83000000 		.word	.L99+1
 1813              		.p2align 1
 1814              	.L95:
 917:Drivers/STM32F4xx_HAL_Driver/Src/stm32f4xx_hal_tim.c ****   {
 918:Drivers/STM32F4xx_HAL_Driver/Src/stm32f4xx_hal_tim.c ****     case TIM_CHANNEL_1:
 919:Drivers/STM32F4xx_HAL_Driver/Src/stm32f4xx_hal_tim.c ****     {       
 920:Drivers/STM32F4xx_HAL_Driver/Src/stm32f4xx_hal_tim.c ****       /* Disable the TIM Capture/Compare 1 DMA request */
 921:Drivers/STM32F4xx_HAL_Driver/Src/stm32f4xx_hal_tim.c ****       __HAL_TIM_DISABLE_DMA(htim, TIM_DMA_CC1);
 1815              		.loc 1 921 0
 1816 004c 7B68     		ldr	r3, [r7, #4]
 1817 004e 1B68     		ldr	r3, [r3]
 1818 0050 7A68     		ldr	r2, [r7, #4]
 1819 0052 1268     		ldr	r2, [r2]
 1820 0054 D268     		ldr	r2, [r2, #12]
 1821 0056 22F40072 		bic	r2, r2, #512
 1822 005a DA60     		str	r2, [r3, #12]
 922:Drivers/STM32F4xx_HAL_Driver/Src/stm32f4xx_hal_tim.c ****     }
 923:Drivers/STM32F4xx_HAL_Driver/Src/stm32f4xx_hal_tim.c ****     break;
 1823              		.loc 1 923 0
 1824 005c 1BE0     		b	.L100
 1825              	.L97:
 924:Drivers/STM32F4xx_HAL_Driver/Src/stm32f4xx_hal_tim.c ****     
 925:Drivers/STM32F4xx_HAL_Driver/Src/stm32f4xx_hal_tim.c ****     case TIM_CHANNEL_2:
 926:Drivers/STM32F4xx_HAL_Driver/Src/stm32f4xx_hal_tim.c ****     {
 927:Drivers/STM32F4xx_HAL_Driver/Src/stm32f4xx_hal_tim.c ****       /* Disable the TIM Capture/Compare 2 DMA request */
 928:Drivers/STM32F4xx_HAL_Driver/Src/stm32f4xx_hal_tim.c ****       __HAL_TIM_DISABLE_DMA(htim, TIM_DMA_CC2);
 1826              		.loc 1 928 0
 1827 005e 7B68     		ldr	r3, [r7, #4]
 1828 0060 1B68     		ldr	r3, [r3]
 1829 0062 7A68     		ldr	r2, [r7, #4]
 1830 0064 1268     		ldr	r2, [r2]
 1831 0066 D268     		ldr	r2, [r2, #12]
 1832 0068 22F48062 		bic	r2, r2, #1024
 1833 006c DA60     		str	r2, [r3, #12]
 929:Drivers/STM32F4xx_HAL_Driver/Src/stm32f4xx_hal_tim.c ****     }
 930:Drivers/STM32F4xx_HAL_Driver/Src/stm32f4xx_hal_tim.c ****     break;
 1834              		.loc 1 930 0
 1835 006e 12E0     		b	.L100
 1836              	.L98:
 931:Drivers/STM32F4xx_HAL_Driver/Src/stm32f4xx_hal_tim.c ****     
 932:Drivers/STM32F4xx_HAL_Driver/Src/stm32f4xx_hal_tim.c ****     case TIM_CHANNEL_3:
 933:Drivers/STM32F4xx_HAL_Driver/Src/stm32f4xx_hal_tim.c ****     {
 934:Drivers/STM32F4xx_HAL_Driver/Src/stm32f4xx_hal_tim.c ****       /* Disable the TIM Capture/Compare 3 DMA request */
 935:Drivers/STM32F4xx_HAL_Driver/Src/stm32f4xx_hal_tim.c ****       __HAL_TIM_DISABLE_DMA(htim, TIM_DMA_CC3);
 1837              		.loc 1 935 0
 1838 0070 7B68     		ldr	r3, [r7, #4]
 1839 0072 1B68     		ldr	r3, [r3]
 1840 0074 7A68     		ldr	r2, [r7, #4]
ARM GAS  /tmp/cc4tSQEQ.s 			page 49


 1841 0076 1268     		ldr	r2, [r2]
 1842 0078 D268     		ldr	r2, [r2, #12]
 1843 007a 22F40062 		bic	r2, r2, #2048
 1844 007e DA60     		str	r2, [r3, #12]
 936:Drivers/STM32F4xx_HAL_Driver/Src/stm32f4xx_hal_tim.c ****     }
 937:Drivers/STM32F4xx_HAL_Driver/Src/stm32f4xx_hal_tim.c ****     break;
 1845              		.loc 1 937 0
 1846 0080 09E0     		b	.L100
 1847              	.L99:
 938:Drivers/STM32F4xx_HAL_Driver/Src/stm32f4xx_hal_tim.c ****     
 939:Drivers/STM32F4xx_HAL_Driver/Src/stm32f4xx_hal_tim.c ****     case TIM_CHANNEL_4:
 940:Drivers/STM32F4xx_HAL_Driver/Src/stm32f4xx_hal_tim.c ****     {
 941:Drivers/STM32F4xx_HAL_Driver/Src/stm32f4xx_hal_tim.c ****       /* Disable the TIM Capture/Compare 4 interrupt */
 942:Drivers/STM32F4xx_HAL_Driver/Src/stm32f4xx_hal_tim.c ****       __HAL_TIM_DISABLE_DMA(htim, TIM_DMA_CC4);
 1848              		.loc 1 942 0
 1849 0082 7B68     		ldr	r3, [r7, #4]
 1850 0084 1B68     		ldr	r3, [r3]
 1851 0086 7A68     		ldr	r2, [r7, #4]
 1852 0088 1268     		ldr	r2, [r2]
 1853 008a D268     		ldr	r2, [r2, #12]
 1854 008c 22F48052 		bic	r2, r2, #4096
 1855 0090 DA60     		str	r2, [r3, #12]
 943:Drivers/STM32F4xx_HAL_Driver/Src/stm32f4xx_hal_tim.c ****     }
 944:Drivers/STM32F4xx_HAL_Driver/Src/stm32f4xx_hal_tim.c ****     break;
 1856              		.loc 1 944 0
 1857 0092 00E0     		b	.L100
 1858              	.L104:
 945:Drivers/STM32F4xx_HAL_Driver/Src/stm32f4xx_hal_tim.c ****     
 946:Drivers/STM32F4xx_HAL_Driver/Src/stm32f4xx_hal_tim.c ****     default:
 947:Drivers/STM32F4xx_HAL_Driver/Src/stm32f4xx_hal_tim.c ****     break;
 1859              		.loc 1 947 0
 1860 0094 00BF     		nop
 1861              	.L100:
 948:Drivers/STM32F4xx_HAL_Driver/Src/stm32f4xx_hal_tim.c ****   } 
 949:Drivers/STM32F4xx_HAL_Driver/Src/stm32f4xx_hal_tim.c ****   
 950:Drivers/STM32F4xx_HAL_Driver/Src/stm32f4xx_hal_tim.c ****   /* Disable the Output compare channel */
 951:Drivers/STM32F4xx_HAL_Driver/Src/stm32f4xx_hal_tim.c ****   TIM_CCxChannelCmd(htim->Instance, Channel, TIM_CCx_DISABLE);
 1862              		.loc 1 951 0
 1863 0096 7B68     		ldr	r3, [r7, #4]
 1864 0098 1B68     		ldr	r3, [r3]
 1865 009a 0022     		movs	r2, #0
 1866 009c 3968     		ldr	r1, [r7]
 1867 009e 1846     		mov	r0, r3
 1868 00a0 FFF7FEFF 		bl	TIM_CCxChannelCmd
 952:Drivers/STM32F4xx_HAL_Driver/Src/stm32f4xx_hal_tim.c ****   
 953:Drivers/STM32F4xx_HAL_Driver/Src/stm32f4xx_hal_tim.c ****   if(IS_TIM_ADVANCED_INSTANCE(htim->Instance) != RESET)  
 1869              		.loc 1 953 0
 1870 00a4 7B68     		ldr	r3, [r7, #4]
 1871 00a6 1B68     		ldr	r3, [r3]
 1872 00a8 1D4A     		ldr	r2, .L105
 1873 00aa 9342     		cmp	r3, r2
 1874 00ac 17D1     		bne	.L101
 954:Drivers/STM32F4xx_HAL_Driver/Src/stm32f4xx_hal_tim.c ****   {
 955:Drivers/STM32F4xx_HAL_Driver/Src/stm32f4xx_hal_tim.c ****     /* Disable the Main Output */
 956:Drivers/STM32F4xx_HAL_Driver/Src/stm32f4xx_hal_tim.c ****     __HAL_TIM_MOE_DISABLE(htim);
 1875              		.loc 1 956 0
 1876 00ae 7B68     		ldr	r3, [r7, #4]
ARM GAS  /tmp/cc4tSQEQ.s 			page 50


 1877 00b0 1B68     		ldr	r3, [r3]
 1878 00b2 1A6A     		ldr	r2, [r3, #32]
 1879 00b4 41F21113 		movw	r3, #4369
 1880 00b8 1340     		ands	r3, r3, r2
 1881 00ba 002B     		cmp	r3, #0
 1882 00bc 0FD1     		bne	.L101
 1883              		.loc 1 956 0 is_stmt 0 discriminator 1
 1884 00be 7B68     		ldr	r3, [r7, #4]
 1885 00c0 1B68     		ldr	r3, [r3]
 1886 00c2 1A6A     		ldr	r2, [r3, #32]
 1887 00c4 40F24443 		movw	r3, #1092
 1888 00c8 1340     		ands	r3, r3, r2
 1889 00ca 002B     		cmp	r3, #0
 1890 00cc 07D1     		bne	.L101
 1891              		.loc 1 956 0 discriminator 2
 1892 00ce 7B68     		ldr	r3, [r7, #4]
 1893 00d0 1B68     		ldr	r3, [r3]
 1894 00d2 7A68     		ldr	r2, [r7, #4]
 1895 00d4 1268     		ldr	r2, [r2]
 1896 00d6 526C     		ldr	r2, [r2, #68]
 1897 00d8 22F40042 		bic	r2, r2, #32768
 1898 00dc 5A64     		str	r2, [r3, #68]
 1899              	.L101:
 957:Drivers/STM32F4xx_HAL_Driver/Src/stm32f4xx_hal_tim.c ****   }
 958:Drivers/STM32F4xx_HAL_Driver/Src/stm32f4xx_hal_tim.c ****   
 959:Drivers/STM32F4xx_HAL_Driver/Src/stm32f4xx_hal_tim.c ****   /* Disable the Peripheral */
 960:Drivers/STM32F4xx_HAL_Driver/Src/stm32f4xx_hal_tim.c ****   __HAL_TIM_DISABLE(htim);
 1900              		.loc 1 960 0 is_stmt 1
 1901 00de 7B68     		ldr	r3, [r7, #4]
 1902 00e0 1B68     		ldr	r3, [r3]
 1903 00e2 1A6A     		ldr	r2, [r3, #32]
 1904 00e4 41F21113 		movw	r3, #4369
 1905 00e8 1340     		ands	r3, r3, r2
 1906 00ea 002B     		cmp	r3, #0
 1907 00ec 0FD1     		bne	.L102
 1908              		.loc 1 960 0 is_stmt 0 discriminator 1
 1909 00ee 7B68     		ldr	r3, [r7, #4]
 1910 00f0 1B68     		ldr	r3, [r3]
 1911 00f2 1A6A     		ldr	r2, [r3, #32]
 1912 00f4 40F24443 		movw	r3, #1092
 1913 00f8 1340     		ands	r3, r3, r2
 1914 00fa 002B     		cmp	r3, #0
 1915 00fc 07D1     		bne	.L102
 1916              		.loc 1 960 0 discriminator 2
 1917 00fe 7B68     		ldr	r3, [r7, #4]
 1918 0100 1B68     		ldr	r3, [r3]
 1919 0102 7A68     		ldr	r2, [r7, #4]
 1920 0104 1268     		ldr	r2, [r2]
 1921 0106 1268     		ldr	r2, [r2]
 1922 0108 22F00102 		bic	r2, r2, #1
 1923 010c 1A60     		str	r2, [r3]
 1924              	.L102:
 961:Drivers/STM32F4xx_HAL_Driver/Src/stm32f4xx_hal_tim.c ****   
 962:Drivers/STM32F4xx_HAL_Driver/Src/stm32f4xx_hal_tim.c ****   /* Change the htim state */
 963:Drivers/STM32F4xx_HAL_Driver/Src/stm32f4xx_hal_tim.c ****   htim->State = HAL_TIM_STATE_READY;
 1925              		.loc 1 963 0 is_stmt 1
 1926 010e 7B68     		ldr	r3, [r7, #4]
ARM GAS  /tmp/cc4tSQEQ.s 			page 51


 1927 0110 0122     		movs	r2, #1
 1928 0112 83F83920 		strb	r2, [r3, #57]
 964:Drivers/STM32F4xx_HAL_Driver/Src/stm32f4xx_hal_tim.c ****   
 965:Drivers/STM32F4xx_HAL_Driver/Src/stm32f4xx_hal_tim.c ****   /* Return function status */
 966:Drivers/STM32F4xx_HAL_Driver/Src/stm32f4xx_hal_tim.c ****   return HAL_OK;
 1929              		.loc 1 966 0
 1930 0116 0023     		movs	r3, #0
 967:Drivers/STM32F4xx_HAL_Driver/Src/stm32f4xx_hal_tim.c **** }
 1931              		.loc 1 967 0
 1932 0118 1846     		mov	r0, r3
 1933 011a 0837     		adds	r7, r7, #8
 1934              	.LCFI107:
 1935              		.cfi_def_cfa_offset 8
 1936 011c BD46     		mov	sp, r7
 1937              	.LCFI108:
 1938              		.cfi_def_cfa_register 13
 1939              		@ sp needed
 1940 011e 80BD     		pop	{r7, pc}
 1941              	.L106:
 1942              		.align	2
 1943              	.L105:
 1944 0120 00000140 		.word	1073807360
 1945              		.cfi_endproc
 1946              	.LFE143:
 1948              		.section	.text.HAL_TIM_PWM_Init,"ax",%progbits
 1949              		.align	1
 1950              		.global	HAL_TIM_PWM_Init
 1951              		.syntax unified
 1952              		.thumb
 1953              		.thumb_func
 1954              		.fpu fpv4-sp-d16
 1956              	HAL_TIM_PWM_Init:
 1957              	.LFB144:
 968:Drivers/STM32F4xx_HAL_Driver/Src/stm32f4xx_hal_tim.c **** /**
 969:Drivers/STM32F4xx_HAL_Driver/Src/stm32f4xx_hal_tim.c ****   * @}
 970:Drivers/STM32F4xx_HAL_Driver/Src/stm32f4xx_hal_tim.c ****   */
 971:Drivers/STM32F4xx_HAL_Driver/Src/stm32f4xx_hal_tim.c **** 
 972:Drivers/STM32F4xx_HAL_Driver/Src/stm32f4xx_hal_tim.c **** /** @defgroup TIM_Exported_Functions_Group3 Time PWM functions 
 973:Drivers/STM32F4xx_HAL_Driver/Src/stm32f4xx_hal_tim.c ****  *  @brief    Time PWM functions 
 974:Drivers/STM32F4xx_HAL_Driver/Src/stm32f4xx_hal_tim.c ****  *
 975:Drivers/STM32F4xx_HAL_Driver/Src/stm32f4xx_hal_tim.c **** @verbatim    
 976:Drivers/STM32F4xx_HAL_Driver/Src/stm32f4xx_hal_tim.c ****   ==============================================================================
 977:Drivers/STM32F4xx_HAL_Driver/Src/stm32f4xx_hal_tim.c ****                           ##### Time PWM functions #####
 978:Drivers/STM32F4xx_HAL_Driver/Src/stm32f4xx_hal_tim.c ****   ==============================================================================
 979:Drivers/STM32F4xx_HAL_Driver/Src/stm32f4xx_hal_tim.c ****   [..]  
 980:Drivers/STM32F4xx_HAL_Driver/Src/stm32f4xx_hal_tim.c ****     This section provides functions allowing to:
 981:Drivers/STM32F4xx_HAL_Driver/Src/stm32f4xx_hal_tim.c ****     (+) Initialize and configure the TIM OPWM. 
 982:Drivers/STM32F4xx_HAL_Driver/Src/stm32f4xx_hal_tim.c ****     (+) De-initialize the TIM PWM.
 983:Drivers/STM32F4xx_HAL_Driver/Src/stm32f4xx_hal_tim.c ****     (+) Start the Time PWM.
 984:Drivers/STM32F4xx_HAL_Driver/Src/stm32f4xx_hal_tim.c ****     (+) Stop the Time PWM.
 985:Drivers/STM32F4xx_HAL_Driver/Src/stm32f4xx_hal_tim.c ****     (+) Start the Time PWM and enable interrupt.
 986:Drivers/STM32F4xx_HAL_Driver/Src/stm32f4xx_hal_tim.c ****     (+) Stop the Time PWM and disable interrupt.
 987:Drivers/STM32F4xx_HAL_Driver/Src/stm32f4xx_hal_tim.c ****     (+) Start the Time PWM and enable DMA transfer.
 988:Drivers/STM32F4xx_HAL_Driver/Src/stm32f4xx_hal_tim.c ****     (+) Stop the Time PWM and disable DMA transfer.
 989:Drivers/STM32F4xx_HAL_Driver/Src/stm32f4xx_hal_tim.c ****  
 990:Drivers/STM32F4xx_HAL_Driver/Src/stm32f4xx_hal_tim.c **** @endverbatim
 991:Drivers/STM32F4xx_HAL_Driver/Src/stm32f4xx_hal_tim.c ****   * @{
ARM GAS  /tmp/cc4tSQEQ.s 			page 52


 992:Drivers/STM32F4xx_HAL_Driver/Src/stm32f4xx_hal_tim.c ****   */
 993:Drivers/STM32F4xx_HAL_Driver/Src/stm32f4xx_hal_tim.c **** /**
 994:Drivers/STM32F4xx_HAL_Driver/Src/stm32f4xx_hal_tim.c ****   * @brief  Initializes the TIM PWM Time Base according to the specified
 995:Drivers/STM32F4xx_HAL_Driver/Src/stm32f4xx_hal_tim.c ****   *         parameters in the TIM_HandleTypeDef and create the associated handle.
 996:Drivers/STM32F4xx_HAL_Driver/Src/stm32f4xx_hal_tim.c ****   * @param  htim pointer to a TIM_HandleTypeDef structure that contains
 997:Drivers/STM32F4xx_HAL_Driver/Src/stm32f4xx_hal_tim.c ****   *                the configuration information for TIM module.
 998:Drivers/STM32F4xx_HAL_Driver/Src/stm32f4xx_hal_tim.c ****   * @retval HAL status
 999:Drivers/STM32F4xx_HAL_Driver/Src/stm32f4xx_hal_tim.c ****   */
1000:Drivers/STM32F4xx_HAL_Driver/Src/stm32f4xx_hal_tim.c **** HAL_StatusTypeDef HAL_TIM_PWM_Init(TIM_HandleTypeDef *htim)
1001:Drivers/STM32F4xx_HAL_Driver/Src/stm32f4xx_hal_tim.c **** {
 1958              		.loc 1 1001 0
 1959              		.cfi_startproc
 1960              		@ args = 0, pretend = 0, frame = 8
 1961              		@ frame_needed = 1, uses_anonymous_args = 0
 1962 0000 80B5     		push	{r7, lr}
 1963              	.LCFI109:
 1964              		.cfi_def_cfa_offset 8
 1965              		.cfi_offset 7, -8
 1966              		.cfi_offset 14, -4
 1967 0002 82B0     		sub	sp, sp, #8
 1968              	.LCFI110:
 1969              		.cfi_def_cfa_offset 16
 1970 0004 00AF     		add	r7, sp, #0
 1971              	.LCFI111:
 1972              		.cfi_def_cfa_register 7
 1973 0006 7860     		str	r0, [r7, #4]
1002:Drivers/STM32F4xx_HAL_Driver/Src/stm32f4xx_hal_tim.c ****   /* Check the TIM handle allocation */
1003:Drivers/STM32F4xx_HAL_Driver/Src/stm32f4xx_hal_tim.c ****   if(htim == NULL)
 1974              		.loc 1 1003 0
 1975 0008 7B68     		ldr	r3, [r7, #4]
 1976 000a 002B     		cmp	r3, #0
 1977 000c 01D1     		bne	.L108
1004:Drivers/STM32F4xx_HAL_Driver/Src/stm32f4xx_hal_tim.c ****   {
1005:Drivers/STM32F4xx_HAL_Driver/Src/stm32f4xx_hal_tim.c ****     return HAL_ERROR;
 1978              		.loc 1 1005 0
 1979 000e 0123     		movs	r3, #1
 1980 0010 1DE0     		b	.L109
 1981              	.L108:
1006:Drivers/STM32F4xx_HAL_Driver/Src/stm32f4xx_hal_tim.c ****   }
1007:Drivers/STM32F4xx_HAL_Driver/Src/stm32f4xx_hal_tim.c **** 
1008:Drivers/STM32F4xx_HAL_Driver/Src/stm32f4xx_hal_tim.c ****   /* Check the parameters */
1009:Drivers/STM32F4xx_HAL_Driver/Src/stm32f4xx_hal_tim.c ****   assert_param(IS_TIM_INSTANCE(htim->Instance));
1010:Drivers/STM32F4xx_HAL_Driver/Src/stm32f4xx_hal_tim.c ****   assert_param(IS_TIM_COUNTER_MODE(htim->Init.CounterMode));
1011:Drivers/STM32F4xx_HAL_Driver/Src/stm32f4xx_hal_tim.c ****   assert_param(IS_TIM_CLOCKDIVISION_DIV(htim->Init.ClockDivision));
1012:Drivers/STM32F4xx_HAL_Driver/Src/stm32f4xx_hal_tim.c **** 
1013:Drivers/STM32F4xx_HAL_Driver/Src/stm32f4xx_hal_tim.c ****   if(htim->State == HAL_TIM_STATE_RESET)
 1982              		.loc 1 1013 0
 1983 0012 7B68     		ldr	r3, [r7, #4]
 1984 0014 93F83930 		ldrb	r3, [r3, #57]
 1985 0018 DBB2     		uxtb	r3, r3
 1986 001a 002B     		cmp	r3, #0
 1987 001c 06D1     		bne	.L110
1014:Drivers/STM32F4xx_HAL_Driver/Src/stm32f4xx_hal_tim.c ****   {
1015:Drivers/STM32F4xx_HAL_Driver/Src/stm32f4xx_hal_tim.c ****     /* Allocate lock resource and initialize it */
1016:Drivers/STM32F4xx_HAL_Driver/Src/stm32f4xx_hal_tim.c ****     htim->Lock = HAL_UNLOCKED;
 1988              		.loc 1 1016 0
 1989 001e 7B68     		ldr	r3, [r7, #4]
ARM GAS  /tmp/cc4tSQEQ.s 			page 53


 1990 0020 0022     		movs	r2, #0
 1991 0022 83F83820 		strb	r2, [r3, #56]
1017:Drivers/STM32F4xx_HAL_Driver/Src/stm32f4xx_hal_tim.c ****     /* Init the low level hardware : GPIO, CLOCK, NVIC and DMA */
1018:Drivers/STM32F4xx_HAL_Driver/Src/stm32f4xx_hal_tim.c ****     HAL_TIM_PWM_MspInit(htim);
 1992              		.loc 1 1018 0
 1993 0026 7868     		ldr	r0, [r7, #4]
 1994 0028 FFF7FEFF 		bl	HAL_TIM_PWM_MspInit
 1995              	.L110:
1019:Drivers/STM32F4xx_HAL_Driver/Src/stm32f4xx_hal_tim.c ****   }
1020:Drivers/STM32F4xx_HAL_Driver/Src/stm32f4xx_hal_tim.c **** 
1021:Drivers/STM32F4xx_HAL_Driver/Src/stm32f4xx_hal_tim.c ****   /* Set the TIM state */
1022:Drivers/STM32F4xx_HAL_Driver/Src/stm32f4xx_hal_tim.c ****   htim->State= HAL_TIM_STATE_BUSY;  
 1996              		.loc 1 1022 0
 1997 002c 7B68     		ldr	r3, [r7, #4]
 1998 002e 0222     		movs	r2, #2
 1999 0030 83F83920 		strb	r2, [r3, #57]
1023:Drivers/STM32F4xx_HAL_Driver/Src/stm32f4xx_hal_tim.c ****   
1024:Drivers/STM32F4xx_HAL_Driver/Src/stm32f4xx_hal_tim.c ****   /* Init the base time for the PWM */  
1025:Drivers/STM32F4xx_HAL_Driver/Src/stm32f4xx_hal_tim.c ****   TIM_Base_SetConfig(htim->Instance, &htim->Init); 
 2000              		.loc 1 1025 0
 2001 0034 7B68     		ldr	r3, [r7, #4]
 2002 0036 1A68     		ldr	r2, [r3]
 2003 0038 7B68     		ldr	r3, [r7, #4]
 2004 003a 0433     		adds	r3, r3, #4
 2005 003c 1946     		mov	r1, r3
 2006 003e 1046     		mov	r0, r2
 2007 0040 FFF7FEFF 		bl	TIM_Base_SetConfig
1026:Drivers/STM32F4xx_HAL_Driver/Src/stm32f4xx_hal_tim.c ****    
1027:Drivers/STM32F4xx_HAL_Driver/Src/stm32f4xx_hal_tim.c ****   /* Initialize the TIM state*/
1028:Drivers/STM32F4xx_HAL_Driver/Src/stm32f4xx_hal_tim.c ****   htim->State= HAL_TIM_STATE_READY;
 2008              		.loc 1 1028 0
 2009 0044 7B68     		ldr	r3, [r7, #4]
 2010 0046 0122     		movs	r2, #1
 2011 0048 83F83920 		strb	r2, [r3, #57]
1029:Drivers/STM32F4xx_HAL_Driver/Src/stm32f4xx_hal_tim.c ****   
1030:Drivers/STM32F4xx_HAL_Driver/Src/stm32f4xx_hal_tim.c ****   return HAL_OK;
 2012              		.loc 1 1030 0
 2013 004c 0023     		movs	r3, #0
 2014              	.L109:
1031:Drivers/STM32F4xx_HAL_Driver/Src/stm32f4xx_hal_tim.c **** }  
 2015              		.loc 1 1031 0
 2016 004e 1846     		mov	r0, r3
 2017 0050 0837     		adds	r7, r7, #8
 2018              	.LCFI112:
 2019              		.cfi_def_cfa_offset 8
 2020 0052 BD46     		mov	sp, r7
 2021              	.LCFI113:
 2022              		.cfi_def_cfa_register 13
 2023              		@ sp needed
 2024 0054 80BD     		pop	{r7, pc}
 2025              		.cfi_endproc
 2026              	.LFE144:
 2028              		.section	.text.HAL_TIM_PWM_DeInit,"ax",%progbits
 2029              		.align	1
 2030              		.global	HAL_TIM_PWM_DeInit
 2031              		.syntax unified
 2032              		.thumb
ARM GAS  /tmp/cc4tSQEQ.s 			page 54


 2033              		.thumb_func
 2034              		.fpu fpv4-sp-d16
 2036              	HAL_TIM_PWM_DeInit:
 2037              	.LFB145:
1032:Drivers/STM32F4xx_HAL_Driver/Src/stm32f4xx_hal_tim.c **** 
1033:Drivers/STM32F4xx_HAL_Driver/Src/stm32f4xx_hal_tim.c **** /**
1034:Drivers/STM32F4xx_HAL_Driver/Src/stm32f4xx_hal_tim.c ****   * @brief  DeInitializes the TIM peripheral 
1035:Drivers/STM32F4xx_HAL_Driver/Src/stm32f4xx_hal_tim.c ****   * @param  htim pointer to a TIM_HandleTypeDef structure that contains
1036:Drivers/STM32F4xx_HAL_Driver/Src/stm32f4xx_hal_tim.c ****   *                the configuration information for TIM module.
1037:Drivers/STM32F4xx_HAL_Driver/Src/stm32f4xx_hal_tim.c ****   * @retval HAL status
1038:Drivers/STM32F4xx_HAL_Driver/Src/stm32f4xx_hal_tim.c ****   */
1039:Drivers/STM32F4xx_HAL_Driver/Src/stm32f4xx_hal_tim.c **** HAL_StatusTypeDef HAL_TIM_PWM_DeInit(TIM_HandleTypeDef *htim)
1040:Drivers/STM32F4xx_HAL_Driver/Src/stm32f4xx_hal_tim.c **** {
 2038              		.loc 1 1040 0
 2039              		.cfi_startproc
 2040              		@ args = 0, pretend = 0, frame = 8
 2041              		@ frame_needed = 1, uses_anonymous_args = 0
 2042 0000 80B5     		push	{r7, lr}
 2043              	.LCFI114:
 2044              		.cfi_def_cfa_offset 8
 2045              		.cfi_offset 7, -8
 2046              		.cfi_offset 14, -4
 2047 0002 82B0     		sub	sp, sp, #8
 2048              	.LCFI115:
 2049              		.cfi_def_cfa_offset 16
 2050 0004 00AF     		add	r7, sp, #0
 2051              	.LCFI116:
 2052              		.cfi_def_cfa_register 7
 2053 0006 7860     		str	r0, [r7, #4]
1041:Drivers/STM32F4xx_HAL_Driver/Src/stm32f4xx_hal_tim.c ****   /* Check the parameters */
1042:Drivers/STM32F4xx_HAL_Driver/Src/stm32f4xx_hal_tim.c ****   assert_param(IS_TIM_INSTANCE(htim->Instance));
1043:Drivers/STM32F4xx_HAL_Driver/Src/stm32f4xx_hal_tim.c ****   
1044:Drivers/STM32F4xx_HAL_Driver/Src/stm32f4xx_hal_tim.c ****   htim->State = HAL_TIM_STATE_BUSY;
 2054              		.loc 1 1044 0
 2055 0008 7B68     		ldr	r3, [r7, #4]
 2056 000a 0222     		movs	r2, #2
 2057 000c 83F83920 		strb	r2, [r3, #57]
1045:Drivers/STM32F4xx_HAL_Driver/Src/stm32f4xx_hal_tim.c ****   
1046:Drivers/STM32F4xx_HAL_Driver/Src/stm32f4xx_hal_tim.c ****   /* Disable the TIM Peripheral Clock */
1047:Drivers/STM32F4xx_HAL_Driver/Src/stm32f4xx_hal_tim.c ****   __HAL_TIM_DISABLE(htim);
 2058              		.loc 1 1047 0
 2059 0010 7B68     		ldr	r3, [r7, #4]
 2060 0012 1B68     		ldr	r3, [r3]
 2061 0014 1A6A     		ldr	r2, [r3, #32]
 2062 0016 41F21113 		movw	r3, #4369
 2063 001a 1340     		ands	r3, r3, r2
 2064 001c 002B     		cmp	r3, #0
 2065 001e 0FD1     		bne	.L112
 2066              		.loc 1 1047 0 is_stmt 0 discriminator 1
 2067 0020 7B68     		ldr	r3, [r7, #4]
 2068 0022 1B68     		ldr	r3, [r3]
 2069 0024 1A6A     		ldr	r2, [r3, #32]
 2070 0026 40F24443 		movw	r3, #1092
 2071 002a 1340     		ands	r3, r3, r2
 2072 002c 002B     		cmp	r3, #0
 2073 002e 07D1     		bne	.L112
 2074              		.loc 1 1047 0 discriminator 2
ARM GAS  /tmp/cc4tSQEQ.s 			page 55


 2075 0030 7B68     		ldr	r3, [r7, #4]
 2076 0032 1B68     		ldr	r3, [r3]
 2077 0034 7A68     		ldr	r2, [r7, #4]
 2078 0036 1268     		ldr	r2, [r2]
 2079 0038 1268     		ldr	r2, [r2]
 2080 003a 22F00102 		bic	r2, r2, #1
 2081 003e 1A60     		str	r2, [r3]
 2082              	.L112:
1048:Drivers/STM32F4xx_HAL_Driver/Src/stm32f4xx_hal_tim.c ****     
1049:Drivers/STM32F4xx_HAL_Driver/Src/stm32f4xx_hal_tim.c ****   /* DeInit the low level hardware: GPIO, CLOCK, NVIC and DMA */
1050:Drivers/STM32F4xx_HAL_Driver/Src/stm32f4xx_hal_tim.c ****   HAL_TIM_PWM_MspDeInit(htim);
 2083              		.loc 1 1050 0 is_stmt 1
 2084 0040 7868     		ldr	r0, [r7, #4]
 2085 0042 FFF7FEFF 		bl	HAL_TIM_PWM_MspDeInit
1051:Drivers/STM32F4xx_HAL_Driver/Src/stm32f4xx_hal_tim.c ****     
1052:Drivers/STM32F4xx_HAL_Driver/Src/stm32f4xx_hal_tim.c ****   /* Change TIM state */  
1053:Drivers/STM32F4xx_HAL_Driver/Src/stm32f4xx_hal_tim.c ****   htim->State = HAL_TIM_STATE_RESET; 
 2086              		.loc 1 1053 0
 2087 0046 7B68     		ldr	r3, [r7, #4]
 2088 0048 0022     		movs	r2, #0
 2089 004a 83F83920 		strb	r2, [r3, #57]
1054:Drivers/STM32F4xx_HAL_Driver/Src/stm32f4xx_hal_tim.c **** 
1055:Drivers/STM32F4xx_HAL_Driver/Src/stm32f4xx_hal_tim.c ****   /* Release Lock */
1056:Drivers/STM32F4xx_HAL_Driver/Src/stm32f4xx_hal_tim.c ****   __HAL_UNLOCK(htim);
 2090              		.loc 1 1056 0
 2091 004e 7B68     		ldr	r3, [r7, #4]
 2092 0050 0022     		movs	r2, #0
 2093 0052 83F83820 		strb	r2, [r3, #56]
1057:Drivers/STM32F4xx_HAL_Driver/Src/stm32f4xx_hal_tim.c **** 
1058:Drivers/STM32F4xx_HAL_Driver/Src/stm32f4xx_hal_tim.c ****   return HAL_OK;
 2094              		.loc 1 1058 0
 2095 0056 0023     		movs	r3, #0
1059:Drivers/STM32F4xx_HAL_Driver/Src/stm32f4xx_hal_tim.c **** }
 2096              		.loc 1 1059 0
 2097 0058 1846     		mov	r0, r3
 2098 005a 0837     		adds	r7, r7, #8
 2099              	.LCFI117:
 2100              		.cfi_def_cfa_offset 8
 2101 005c BD46     		mov	sp, r7
 2102              	.LCFI118:
 2103              		.cfi_def_cfa_register 13
 2104              		@ sp needed
 2105 005e 80BD     		pop	{r7, pc}
 2106              		.cfi_endproc
 2107              	.LFE145:
 2109              		.section	.text.HAL_TIM_PWM_MspInit,"ax",%progbits
 2110              		.align	1
 2111              		.weak	HAL_TIM_PWM_MspInit
 2112              		.syntax unified
 2113              		.thumb
 2114              		.thumb_func
 2115              		.fpu fpv4-sp-d16
 2117              	HAL_TIM_PWM_MspInit:
 2118              	.LFB146:
1060:Drivers/STM32F4xx_HAL_Driver/Src/stm32f4xx_hal_tim.c **** 
1061:Drivers/STM32F4xx_HAL_Driver/Src/stm32f4xx_hal_tim.c **** /**
1062:Drivers/STM32F4xx_HAL_Driver/Src/stm32f4xx_hal_tim.c ****   * @brief  Initializes the TIM PWM MSP.
ARM GAS  /tmp/cc4tSQEQ.s 			page 56


1063:Drivers/STM32F4xx_HAL_Driver/Src/stm32f4xx_hal_tim.c ****   * @param  htim pointer to a TIM_HandleTypeDef structure that contains
1064:Drivers/STM32F4xx_HAL_Driver/Src/stm32f4xx_hal_tim.c ****   *                the configuration information for TIM module.
1065:Drivers/STM32F4xx_HAL_Driver/Src/stm32f4xx_hal_tim.c ****   * @retval None
1066:Drivers/STM32F4xx_HAL_Driver/Src/stm32f4xx_hal_tim.c ****   */
1067:Drivers/STM32F4xx_HAL_Driver/Src/stm32f4xx_hal_tim.c **** __weak void HAL_TIM_PWM_MspInit(TIM_HandleTypeDef *htim)
1068:Drivers/STM32F4xx_HAL_Driver/Src/stm32f4xx_hal_tim.c **** {
 2119              		.loc 1 1068 0
 2120              		.cfi_startproc
 2121              		@ args = 0, pretend = 0, frame = 8
 2122              		@ frame_needed = 1, uses_anonymous_args = 0
 2123              		@ link register save eliminated.
 2124 0000 80B4     		push	{r7}
 2125              	.LCFI119:
 2126              		.cfi_def_cfa_offset 4
 2127              		.cfi_offset 7, -4
 2128 0002 83B0     		sub	sp, sp, #12
 2129              	.LCFI120:
 2130              		.cfi_def_cfa_offset 16
 2131 0004 00AF     		add	r7, sp, #0
 2132              	.LCFI121:
 2133              		.cfi_def_cfa_register 7
 2134 0006 7860     		str	r0, [r7, #4]
1069:Drivers/STM32F4xx_HAL_Driver/Src/stm32f4xx_hal_tim.c ****   /* Prevent unused argument(s) compilation warning */
1070:Drivers/STM32F4xx_HAL_Driver/Src/stm32f4xx_hal_tim.c ****   UNUSED(htim);
1071:Drivers/STM32F4xx_HAL_Driver/Src/stm32f4xx_hal_tim.c ****   /* NOTE : This function Should not be modified, when the callback is needed,
1072:Drivers/STM32F4xx_HAL_Driver/Src/stm32f4xx_hal_tim.c ****             the HAL_TIM_PWM_MspInit could be implemented in the user file
1073:Drivers/STM32F4xx_HAL_Driver/Src/stm32f4xx_hal_tim.c ****    */
1074:Drivers/STM32F4xx_HAL_Driver/Src/stm32f4xx_hal_tim.c **** }
 2135              		.loc 1 1074 0
 2136 0008 00BF     		nop
 2137 000a 0C37     		adds	r7, r7, #12
 2138              	.LCFI122:
 2139              		.cfi_def_cfa_offset 4
 2140 000c BD46     		mov	sp, r7
 2141              	.LCFI123:
 2142              		.cfi_def_cfa_register 13
 2143              		@ sp needed
 2144 000e 5DF8047B 		ldr	r7, [sp], #4
 2145              	.LCFI124:
 2146              		.cfi_restore 7
 2147              		.cfi_def_cfa_offset 0
 2148 0012 7047     		bx	lr
 2149              		.cfi_endproc
 2150              	.LFE146:
 2152              		.section	.text.HAL_TIM_PWM_MspDeInit,"ax",%progbits
 2153              		.align	1
 2154              		.weak	HAL_TIM_PWM_MspDeInit
 2155              		.syntax unified
 2156              		.thumb
 2157              		.thumb_func
 2158              		.fpu fpv4-sp-d16
 2160              	HAL_TIM_PWM_MspDeInit:
 2161              	.LFB147:
1075:Drivers/STM32F4xx_HAL_Driver/Src/stm32f4xx_hal_tim.c **** 
1076:Drivers/STM32F4xx_HAL_Driver/Src/stm32f4xx_hal_tim.c **** /**
1077:Drivers/STM32F4xx_HAL_Driver/Src/stm32f4xx_hal_tim.c ****   * @brief  DeInitializes TIM PWM MSP.
1078:Drivers/STM32F4xx_HAL_Driver/Src/stm32f4xx_hal_tim.c ****   * @param  htim pointer to a TIM_HandleTypeDef structure that contains
ARM GAS  /tmp/cc4tSQEQ.s 			page 57


1079:Drivers/STM32F4xx_HAL_Driver/Src/stm32f4xx_hal_tim.c ****   *                the configuration information for TIM module.
1080:Drivers/STM32F4xx_HAL_Driver/Src/stm32f4xx_hal_tim.c ****   * @retval None
1081:Drivers/STM32F4xx_HAL_Driver/Src/stm32f4xx_hal_tim.c ****   */
1082:Drivers/STM32F4xx_HAL_Driver/Src/stm32f4xx_hal_tim.c **** __weak void HAL_TIM_PWM_MspDeInit(TIM_HandleTypeDef *htim)
1083:Drivers/STM32F4xx_HAL_Driver/Src/stm32f4xx_hal_tim.c **** {
 2162              		.loc 1 1083 0
 2163              		.cfi_startproc
 2164              		@ args = 0, pretend = 0, frame = 8
 2165              		@ frame_needed = 1, uses_anonymous_args = 0
 2166              		@ link register save eliminated.
 2167 0000 80B4     		push	{r7}
 2168              	.LCFI125:
 2169              		.cfi_def_cfa_offset 4
 2170              		.cfi_offset 7, -4
 2171 0002 83B0     		sub	sp, sp, #12
 2172              	.LCFI126:
 2173              		.cfi_def_cfa_offset 16
 2174 0004 00AF     		add	r7, sp, #0
 2175              	.LCFI127:
 2176              		.cfi_def_cfa_register 7
 2177 0006 7860     		str	r0, [r7, #4]
1084:Drivers/STM32F4xx_HAL_Driver/Src/stm32f4xx_hal_tim.c ****   /* Prevent unused argument(s) compilation warning */
1085:Drivers/STM32F4xx_HAL_Driver/Src/stm32f4xx_hal_tim.c ****   UNUSED(htim);
1086:Drivers/STM32F4xx_HAL_Driver/Src/stm32f4xx_hal_tim.c ****   /* NOTE : This function Should not be modified, when the callback is needed,
1087:Drivers/STM32F4xx_HAL_Driver/Src/stm32f4xx_hal_tim.c ****             the HAL_TIM_PWM_MspDeInit could be implemented in the user file
1088:Drivers/STM32F4xx_HAL_Driver/Src/stm32f4xx_hal_tim.c ****    */
1089:Drivers/STM32F4xx_HAL_Driver/Src/stm32f4xx_hal_tim.c **** }
 2178              		.loc 1 1089 0
 2179 0008 00BF     		nop
 2180 000a 0C37     		adds	r7, r7, #12
 2181              	.LCFI128:
 2182              		.cfi_def_cfa_offset 4
 2183 000c BD46     		mov	sp, r7
 2184              	.LCFI129:
 2185              		.cfi_def_cfa_register 13
 2186              		@ sp needed
 2187 000e 5DF8047B 		ldr	r7, [sp], #4
 2188              	.LCFI130:
 2189              		.cfi_restore 7
 2190              		.cfi_def_cfa_offset 0
 2191 0012 7047     		bx	lr
 2192              		.cfi_endproc
 2193              	.LFE147:
 2195              		.section	.text.HAL_TIM_PWM_Start,"ax",%progbits
 2196              		.align	1
 2197              		.global	HAL_TIM_PWM_Start
 2198              		.syntax unified
 2199              		.thumb
 2200              		.thumb_func
 2201              		.fpu fpv4-sp-d16
 2203              	HAL_TIM_PWM_Start:
 2204              	.LFB148:
1090:Drivers/STM32F4xx_HAL_Driver/Src/stm32f4xx_hal_tim.c **** 
1091:Drivers/STM32F4xx_HAL_Driver/Src/stm32f4xx_hal_tim.c **** /**
1092:Drivers/STM32F4xx_HAL_Driver/Src/stm32f4xx_hal_tim.c ****   * @brief  Starts the PWM signal generation.
1093:Drivers/STM32F4xx_HAL_Driver/Src/stm32f4xx_hal_tim.c ****   * @param  htim pointer to a TIM_HandleTypeDef structure that contains
1094:Drivers/STM32F4xx_HAL_Driver/Src/stm32f4xx_hal_tim.c ****   *                the configuration information for TIM module.
ARM GAS  /tmp/cc4tSQEQ.s 			page 58


1095:Drivers/STM32F4xx_HAL_Driver/Src/stm32f4xx_hal_tim.c ****   * @param  Channel TIM Channels to be enabled.
1096:Drivers/STM32F4xx_HAL_Driver/Src/stm32f4xx_hal_tim.c ****   *          This parameter can be one of the following values:
1097:Drivers/STM32F4xx_HAL_Driver/Src/stm32f4xx_hal_tim.c ****   *            @arg TIM_CHANNEL_1: TIM Channel 1 selected
1098:Drivers/STM32F4xx_HAL_Driver/Src/stm32f4xx_hal_tim.c ****   *            @arg TIM_CHANNEL_2: TIM Channel 2 selected
1099:Drivers/STM32F4xx_HAL_Driver/Src/stm32f4xx_hal_tim.c ****   *            @arg TIM_CHANNEL_3: TIM Channel 3 selected
1100:Drivers/STM32F4xx_HAL_Driver/Src/stm32f4xx_hal_tim.c ****   *            @arg TIM_CHANNEL_4: TIM Channel 4 selected
1101:Drivers/STM32F4xx_HAL_Driver/Src/stm32f4xx_hal_tim.c ****   * @retval HAL status
1102:Drivers/STM32F4xx_HAL_Driver/Src/stm32f4xx_hal_tim.c ****   */
1103:Drivers/STM32F4xx_HAL_Driver/Src/stm32f4xx_hal_tim.c **** HAL_StatusTypeDef HAL_TIM_PWM_Start(TIM_HandleTypeDef *htim, uint32_t Channel)
1104:Drivers/STM32F4xx_HAL_Driver/Src/stm32f4xx_hal_tim.c **** {
 2205              		.loc 1 1104 0
 2206              		.cfi_startproc
 2207              		@ args = 0, pretend = 0, frame = 8
 2208              		@ frame_needed = 1, uses_anonymous_args = 0
 2209 0000 80B5     		push	{r7, lr}
 2210              	.LCFI131:
 2211              		.cfi_def_cfa_offset 8
 2212              		.cfi_offset 7, -8
 2213              		.cfi_offset 14, -4
 2214 0002 82B0     		sub	sp, sp, #8
 2215              	.LCFI132:
 2216              		.cfi_def_cfa_offset 16
 2217 0004 00AF     		add	r7, sp, #0
 2218              	.LCFI133:
 2219              		.cfi_def_cfa_register 7
 2220 0006 7860     		str	r0, [r7, #4]
 2221 0008 3960     		str	r1, [r7]
1105:Drivers/STM32F4xx_HAL_Driver/Src/stm32f4xx_hal_tim.c ****   /* Check the parameters */
1106:Drivers/STM32F4xx_HAL_Driver/Src/stm32f4xx_hal_tim.c ****   assert_param(IS_TIM_CCX_INSTANCE(htim->Instance, Channel));
1107:Drivers/STM32F4xx_HAL_Driver/Src/stm32f4xx_hal_tim.c **** 
1108:Drivers/STM32F4xx_HAL_Driver/Src/stm32f4xx_hal_tim.c ****   /* Enable the Capture compare channel */
1109:Drivers/STM32F4xx_HAL_Driver/Src/stm32f4xx_hal_tim.c ****   TIM_CCxChannelCmd(htim->Instance, Channel, TIM_CCx_ENABLE);
 2222              		.loc 1 1109 0
 2223 000a 7B68     		ldr	r3, [r7, #4]
 2224 000c 1B68     		ldr	r3, [r3]
 2225 000e 0122     		movs	r2, #1
 2226 0010 3968     		ldr	r1, [r7]
 2227 0012 1846     		mov	r0, r3
 2228 0014 FFF7FEFF 		bl	TIM_CCxChannelCmd
1110:Drivers/STM32F4xx_HAL_Driver/Src/stm32f4xx_hal_tim.c ****   
1111:Drivers/STM32F4xx_HAL_Driver/Src/stm32f4xx_hal_tim.c ****   if(IS_TIM_ADVANCED_INSTANCE(htim->Instance) != RESET)  
 2229              		.loc 1 1111 0
 2230 0018 7B68     		ldr	r3, [r7, #4]
 2231 001a 1B68     		ldr	r3, [r3]
 2232 001c 0B4A     		ldr	r2, .L119
 2233 001e 9342     		cmp	r3, r2
 2234 0020 07D1     		bne	.L117
1112:Drivers/STM32F4xx_HAL_Driver/Src/stm32f4xx_hal_tim.c ****   {
1113:Drivers/STM32F4xx_HAL_Driver/Src/stm32f4xx_hal_tim.c ****     /* Enable the main output */
1114:Drivers/STM32F4xx_HAL_Driver/Src/stm32f4xx_hal_tim.c ****     __HAL_TIM_MOE_ENABLE(htim);
 2235              		.loc 1 1114 0
 2236 0022 7B68     		ldr	r3, [r7, #4]
 2237 0024 1B68     		ldr	r3, [r3]
 2238 0026 7A68     		ldr	r2, [r7, #4]
 2239 0028 1268     		ldr	r2, [r2]
 2240 002a 526C     		ldr	r2, [r2, #68]
 2241 002c 42F40042 		orr	r2, r2, #32768
ARM GAS  /tmp/cc4tSQEQ.s 			page 59


 2242 0030 5A64     		str	r2, [r3, #68]
 2243              	.L117:
1115:Drivers/STM32F4xx_HAL_Driver/Src/stm32f4xx_hal_tim.c ****   }
1116:Drivers/STM32F4xx_HAL_Driver/Src/stm32f4xx_hal_tim.c ****     
1117:Drivers/STM32F4xx_HAL_Driver/Src/stm32f4xx_hal_tim.c ****   /* Enable the Peripheral */
1118:Drivers/STM32F4xx_HAL_Driver/Src/stm32f4xx_hal_tim.c ****   __HAL_TIM_ENABLE(htim);
 2244              		.loc 1 1118 0
 2245 0032 7B68     		ldr	r3, [r7, #4]
 2246 0034 1B68     		ldr	r3, [r3]
 2247 0036 7A68     		ldr	r2, [r7, #4]
 2248 0038 1268     		ldr	r2, [r2]
 2249 003a 1268     		ldr	r2, [r2]
 2250 003c 42F00102 		orr	r2, r2, #1
 2251 0040 1A60     		str	r2, [r3]
1119:Drivers/STM32F4xx_HAL_Driver/Src/stm32f4xx_hal_tim.c ****   
1120:Drivers/STM32F4xx_HAL_Driver/Src/stm32f4xx_hal_tim.c ****   /* Return function status */
1121:Drivers/STM32F4xx_HAL_Driver/Src/stm32f4xx_hal_tim.c ****   return HAL_OK;
 2252              		.loc 1 1121 0
 2253 0042 0023     		movs	r3, #0
1122:Drivers/STM32F4xx_HAL_Driver/Src/stm32f4xx_hal_tim.c **** } 
 2254              		.loc 1 1122 0
 2255 0044 1846     		mov	r0, r3
 2256 0046 0837     		adds	r7, r7, #8
 2257              	.LCFI134:
 2258              		.cfi_def_cfa_offset 8
 2259 0048 BD46     		mov	sp, r7
 2260              	.LCFI135:
 2261              		.cfi_def_cfa_register 13
 2262              		@ sp needed
 2263 004a 80BD     		pop	{r7, pc}
 2264              	.L120:
 2265              		.align	2
 2266              	.L119:
 2267 004c 00000140 		.word	1073807360
 2268              		.cfi_endproc
 2269              	.LFE148:
 2271              		.section	.text.HAL_TIM_PWM_Stop,"ax",%progbits
 2272              		.align	1
 2273              		.global	HAL_TIM_PWM_Stop
 2274              		.syntax unified
 2275              		.thumb
 2276              		.thumb_func
 2277              		.fpu fpv4-sp-d16
 2279              	HAL_TIM_PWM_Stop:
 2280              	.LFB149:
1123:Drivers/STM32F4xx_HAL_Driver/Src/stm32f4xx_hal_tim.c **** 
1124:Drivers/STM32F4xx_HAL_Driver/Src/stm32f4xx_hal_tim.c **** /**
1125:Drivers/STM32F4xx_HAL_Driver/Src/stm32f4xx_hal_tim.c ****   * @brief  Stops the PWM signal generation.
1126:Drivers/STM32F4xx_HAL_Driver/Src/stm32f4xx_hal_tim.c ****   * @param  htim pointer to a TIM_HandleTypeDef structure that contains
1127:Drivers/STM32F4xx_HAL_Driver/Src/stm32f4xx_hal_tim.c ****   *                the configuration information for TIM module.
1128:Drivers/STM32F4xx_HAL_Driver/Src/stm32f4xx_hal_tim.c ****   * @param  Channel TIM Channels to be disabled.
1129:Drivers/STM32F4xx_HAL_Driver/Src/stm32f4xx_hal_tim.c ****   *          This parameter can be one of the following values:
1130:Drivers/STM32F4xx_HAL_Driver/Src/stm32f4xx_hal_tim.c ****   *            @arg TIM_CHANNEL_1: TIM Channel 1 selected
1131:Drivers/STM32F4xx_HAL_Driver/Src/stm32f4xx_hal_tim.c ****   *            @arg TIM_CHANNEL_2: TIM Channel 2 selected
1132:Drivers/STM32F4xx_HAL_Driver/Src/stm32f4xx_hal_tim.c ****   *            @arg TIM_CHANNEL_3: TIM Channel 3 selected
1133:Drivers/STM32F4xx_HAL_Driver/Src/stm32f4xx_hal_tim.c ****   *            @arg TIM_CHANNEL_4: TIM Channel 4 selected
1134:Drivers/STM32F4xx_HAL_Driver/Src/stm32f4xx_hal_tim.c ****   * @retval HAL status
ARM GAS  /tmp/cc4tSQEQ.s 			page 60


1135:Drivers/STM32F4xx_HAL_Driver/Src/stm32f4xx_hal_tim.c ****   */
1136:Drivers/STM32F4xx_HAL_Driver/Src/stm32f4xx_hal_tim.c **** HAL_StatusTypeDef HAL_TIM_PWM_Stop(TIM_HandleTypeDef *htim, uint32_t Channel)
1137:Drivers/STM32F4xx_HAL_Driver/Src/stm32f4xx_hal_tim.c **** { 
 2281              		.loc 1 1137 0
 2282              		.cfi_startproc
 2283              		@ args = 0, pretend = 0, frame = 8
 2284              		@ frame_needed = 1, uses_anonymous_args = 0
 2285 0000 80B5     		push	{r7, lr}
 2286              	.LCFI136:
 2287              		.cfi_def_cfa_offset 8
 2288              		.cfi_offset 7, -8
 2289              		.cfi_offset 14, -4
 2290 0002 82B0     		sub	sp, sp, #8
 2291              	.LCFI137:
 2292              		.cfi_def_cfa_offset 16
 2293 0004 00AF     		add	r7, sp, #0
 2294              	.LCFI138:
 2295              		.cfi_def_cfa_register 7
 2296 0006 7860     		str	r0, [r7, #4]
 2297 0008 3960     		str	r1, [r7]
1138:Drivers/STM32F4xx_HAL_Driver/Src/stm32f4xx_hal_tim.c ****   /* Check the parameters */
1139:Drivers/STM32F4xx_HAL_Driver/Src/stm32f4xx_hal_tim.c ****   assert_param(IS_TIM_CCX_INSTANCE(htim->Instance, Channel));
1140:Drivers/STM32F4xx_HAL_Driver/Src/stm32f4xx_hal_tim.c ****     
1141:Drivers/STM32F4xx_HAL_Driver/Src/stm32f4xx_hal_tim.c ****   /* Disable the Capture compare channel */
1142:Drivers/STM32F4xx_HAL_Driver/Src/stm32f4xx_hal_tim.c ****   TIM_CCxChannelCmd(htim->Instance, Channel, TIM_CCx_DISABLE);
 2298              		.loc 1 1142 0
 2299 000a 7B68     		ldr	r3, [r7, #4]
 2300 000c 1B68     		ldr	r3, [r3]
 2301 000e 0022     		movs	r2, #0
 2302 0010 3968     		ldr	r1, [r7]
 2303 0012 1846     		mov	r0, r3
 2304 0014 FFF7FEFF 		bl	TIM_CCxChannelCmd
1143:Drivers/STM32F4xx_HAL_Driver/Src/stm32f4xx_hal_tim.c ****   
1144:Drivers/STM32F4xx_HAL_Driver/Src/stm32f4xx_hal_tim.c ****   if(IS_TIM_ADVANCED_INSTANCE(htim->Instance) != RESET)  
 2305              		.loc 1 1144 0
 2306 0018 7B68     		ldr	r3, [r7, #4]
 2307 001a 1B68     		ldr	r3, [r3]
 2308 001c 1D4A     		ldr	r2, .L125
 2309 001e 9342     		cmp	r3, r2
 2310 0020 17D1     		bne	.L122
1145:Drivers/STM32F4xx_HAL_Driver/Src/stm32f4xx_hal_tim.c ****   {
1146:Drivers/STM32F4xx_HAL_Driver/Src/stm32f4xx_hal_tim.c ****     /* Disable the Main Output */
1147:Drivers/STM32F4xx_HAL_Driver/Src/stm32f4xx_hal_tim.c ****     __HAL_TIM_MOE_DISABLE(htim);
 2311              		.loc 1 1147 0
 2312 0022 7B68     		ldr	r3, [r7, #4]
 2313 0024 1B68     		ldr	r3, [r3]
 2314 0026 1A6A     		ldr	r2, [r3, #32]
 2315 0028 41F21113 		movw	r3, #4369
 2316 002c 1340     		ands	r3, r3, r2
 2317 002e 002B     		cmp	r3, #0
 2318 0030 0FD1     		bne	.L122
 2319              		.loc 1 1147 0 is_stmt 0 discriminator 1
 2320 0032 7B68     		ldr	r3, [r7, #4]
 2321 0034 1B68     		ldr	r3, [r3]
 2322 0036 1A6A     		ldr	r2, [r3, #32]
 2323 0038 40F24443 		movw	r3, #1092
 2324 003c 1340     		ands	r3, r3, r2
ARM GAS  /tmp/cc4tSQEQ.s 			page 61


 2325 003e 002B     		cmp	r3, #0
 2326 0040 07D1     		bne	.L122
 2327              		.loc 1 1147 0 discriminator 2
 2328 0042 7B68     		ldr	r3, [r7, #4]
 2329 0044 1B68     		ldr	r3, [r3]
 2330 0046 7A68     		ldr	r2, [r7, #4]
 2331 0048 1268     		ldr	r2, [r2]
 2332 004a 526C     		ldr	r2, [r2, #68]
 2333 004c 22F40042 		bic	r2, r2, #32768
 2334 0050 5A64     		str	r2, [r3, #68]
 2335              	.L122:
1148:Drivers/STM32F4xx_HAL_Driver/Src/stm32f4xx_hal_tim.c ****   }
1149:Drivers/STM32F4xx_HAL_Driver/Src/stm32f4xx_hal_tim.c ****   
1150:Drivers/STM32F4xx_HAL_Driver/Src/stm32f4xx_hal_tim.c ****   /* Disable the Peripheral */
1151:Drivers/STM32F4xx_HAL_Driver/Src/stm32f4xx_hal_tim.c ****   __HAL_TIM_DISABLE(htim);
 2336              		.loc 1 1151 0 is_stmt 1
 2337 0052 7B68     		ldr	r3, [r7, #4]
 2338 0054 1B68     		ldr	r3, [r3]
 2339 0056 1A6A     		ldr	r2, [r3, #32]
 2340 0058 41F21113 		movw	r3, #4369
 2341 005c 1340     		ands	r3, r3, r2
 2342 005e 002B     		cmp	r3, #0
 2343 0060 0FD1     		bne	.L123
 2344              		.loc 1 1151 0 is_stmt 0 discriminator 1
 2345 0062 7B68     		ldr	r3, [r7, #4]
 2346 0064 1B68     		ldr	r3, [r3]
 2347 0066 1A6A     		ldr	r2, [r3, #32]
 2348 0068 40F24443 		movw	r3, #1092
 2349 006c 1340     		ands	r3, r3, r2
 2350 006e 002B     		cmp	r3, #0
 2351 0070 07D1     		bne	.L123
 2352              		.loc 1 1151 0 discriminator 2
 2353 0072 7B68     		ldr	r3, [r7, #4]
 2354 0074 1B68     		ldr	r3, [r3]
 2355 0076 7A68     		ldr	r2, [r7, #4]
 2356 0078 1268     		ldr	r2, [r2]
 2357 007a 1268     		ldr	r2, [r2]
 2358 007c 22F00102 		bic	r2, r2, #1
 2359 0080 1A60     		str	r2, [r3]
 2360              	.L123:
1152:Drivers/STM32F4xx_HAL_Driver/Src/stm32f4xx_hal_tim.c ****   
1153:Drivers/STM32F4xx_HAL_Driver/Src/stm32f4xx_hal_tim.c ****   /* Change the htim state */
1154:Drivers/STM32F4xx_HAL_Driver/Src/stm32f4xx_hal_tim.c ****   htim->State = HAL_TIM_STATE_READY;
 2361              		.loc 1 1154 0 is_stmt 1
 2362 0082 7B68     		ldr	r3, [r7, #4]
 2363 0084 0122     		movs	r2, #1
 2364 0086 83F83920 		strb	r2, [r3, #57]
1155:Drivers/STM32F4xx_HAL_Driver/Src/stm32f4xx_hal_tim.c ****   
1156:Drivers/STM32F4xx_HAL_Driver/Src/stm32f4xx_hal_tim.c ****   /* Return function status */
1157:Drivers/STM32F4xx_HAL_Driver/Src/stm32f4xx_hal_tim.c ****   return HAL_OK;
 2365              		.loc 1 1157 0
 2366 008a 0023     		movs	r3, #0
1158:Drivers/STM32F4xx_HAL_Driver/Src/stm32f4xx_hal_tim.c **** } 
 2367              		.loc 1 1158 0
 2368 008c 1846     		mov	r0, r3
 2369 008e 0837     		adds	r7, r7, #8
 2370              	.LCFI139:
ARM GAS  /tmp/cc4tSQEQ.s 			page 62


 2371              		.cfi_def_cfa_offset 8
 2372 0090 BD46     		mov	sp, r7
 2373              	.LCFI140:
 2374              		.cfi_def_cfa_register 13
 2375              		@ sp needed
 2376 0092 80BD     		pop	{r7, pc}
 2377              	.L126:
 2378              		.align	2
 2379              	.L125:
 2380 0094 00000140 		.word	1073807360
 2381              		.cfi_endproc
 2382              	.LFE149:
 2384              		.section	.text.HAL_TIM_PWM_Start_IT,"ax",%progbits
 2385              		.align	1
 2386              		.global	HAL_TIM_PWM_Start_IT
 2387              		.syntax unified
 2388              		.thumb
 2389              		.thumb_func
 2390              		.fpu fpv4-sp-d16
 2392              	HAL_TIM_PWM_Start_IT:
 2393              	.LFB150:
1159:Drivers/STM32F4xx_HAL_Driver/Src/stm32f4xx_hal_tim.c **** 
1160:Drivers/STM32F4xx_HAL_Driver/Src/stm32f4xx_hal_tim.c **** /**
1161:Drivers/STM32F4xx_HAL_Driver/Src/stm32f4xx_hal_tim.c ****   * @brief  Starts the PWM signal generation in interrupt mode.
1162:Drivers/STM32F4xx_HAL_Driver/Src/stm32f4xx_hal_tim.c ****   * @param  htim pointer to a TIM_HandleTypeDef structure that contains
1163:Drivers/STM32F4xx_HAL_Driver/Src/stm32f4xx_hal_tim.c ****   *                the configuration information for TIM module.
1164:Drivers/STM32F4xx_HAL_Driver/Src/stm32f4xx_hal_tim.c ****   * @param  Channel TIM Channel to be enabled.
1165:Drivers/STM32F4xx_HAL_Driver/Src/stm32f4xx_hal_tim.c ****   *          This parameter can be one of the following values:
1166:Drivers/STM32F4xx_HAL_Driver/Src/stm32f4xx_hal_tim.c ****   *            @arg TIM_CHANNEL_1: TIM Channel 1 selected
1167:Drivers/STM32F4xx_HAL_Driver/Src/stm32f4xx_hal_tim.c ****   *            @arg TIM_CHANNEL_2: TIM Channel 2 selected
1168:Drivers/STM32F4xx_HAL_Driver/Src/stm32f4xx_hal_tim.c ****   *            @arg TIM_CHANNEL_3: TIM Channel 3 selected
1169:Drivers/STM32F4xx_HAL_Driver/Src/stm32f4xx_hal_tim.c ****   *            @arg TIM_CHANNEL_4: TIM Channel 4 selected
1170:Drivers/STM32F4xx_HAL_Driver/Src/stm32f4xx_hal_tim.c ****   * @retval HAL status
1171:Drivers/STM32F4xx_HAL_Driver/Src/stm32f4xx_hal_tim.c ****   */
1172:Drivers/STM32F4xx_HAL_Driver/Src/stm32f4xx_hal_tim.c **** HAL_StatusTypeDef HAL_TIM_PWM_Start_IT(TIM_HandleTypeDef *htim, uint32_t Channel)
1173:Drivers/STM32F4xx_HAL_Driver/Src/stm32f4xx_hal_tim.c **** {
 2394              		.loc 1 1173 0
 2395              		.cfi_startproc
 2396              		@ args = 0, pretend = 0, frame = 8
 2397              		@ frame_needed = 1, uses_anonymous_args = 0
 2398 0000 80B5     		push	{r7, lr}
 2399              	.LCFI141:
 2400              		.cfi_def_cfa_offset 8
 2401              		.cfi_offset 7, -8
 2402              		.cfi_offset 14, -4
 2403 0002 82B0     		sub	sp, sp, #8
 2404              	.LCFI142:
 2405              		.cfi_def_cfa_offset 16
 2406 0004 00AF     		add	r7, sp, #0
 2407              	.LCFI143:
 2408              		.cfi_def_cfa_register 7
 2409 0006 7860     		str	r0, [r7, #4]
 2410 0008 3960     		str	r1, [r7]
1174:Drivers/STM32F4xx_HAL_Driver/Src/stm32f4xx_hal_tim.c ****   /* Check the parameters */
1175:Drivers/STM32F4xx_HAL_Driver/Src/stm32f4xx_hal_tim.c ****   assert_param(IS_TIM_CCX_INSTANCE(htim->Instance, Channel));
1176:Drivers/STM32F4xx_HAL_Driver/Src/stm32f4xx_hal_tim.c ****   
1177:Drivers/STM32F4xx_HAL_Driver/Src/stm32f4xx_hal_tim.c ****   switch (Channel)
ARM GAS  /tmp/cc4tSQEQ.s 			page 63


 2411              		.loc 1 1177 0
 2412 000a 3B68     		ldr	r3, [r7]
 2413 000c 0C2B     		cmp	r3, #12
 2414 000e 41D8     		bhi	.L137
 2415 0010 01A2     		adr	r2, .L130
 2416 0012 52F823F0 		ldr	pc, [r2, r3, lsl #2]
 2417 0016 00BF     		.p2align 2
 2418              	.L130:
 2419 0018 4D000000 		.word	.L129+1
 2420 001c 95000000 		.word	.L137+1
 2421 0020 95000000 		.word	.L137+1
 2422 0024 95000000 		.word	.L137+1
 2423 0028 5F000000 		.word	.L131+1
 2424 002c 95000000 		.word	.L137+1
 2425 0030 95000000 		.word	.L137+1
 2426 0034 95000000 		.word	.L137+1
 2427 0038 71000000 		.word	.L132+1
 2428 003c 95000000 		.word	.L137+1
 2429 0040 95000000 		.word	.L137+1
 2430 0044 95000000 		.word	.L137+1
 2431 0048 83000000 		.word	.L133+1
 2432              		.p2align 1
 2433              	.L129:
1178:Drivers/STM32F4xx_HAL_Driver/Src/stm32f4xx_hal_tim.c ****   {
1179:Drivers/STM32F4xx_HAL_Driver/Src/stm32f4xx_hal_tim.c ****     case TIM_CHANNEL_1:
1180:Drivers/STM32F4xx_HAL_Driver/Src/stm32f4xx_hal_tim.c ****     {       
1181:Drivers/STM32F4xx_HAL_Driver/Src/stm32f4xx_hal_tim.c ****       /* Enable the TIM Capture/Compare 1 interrupt */
1182:Drivers/STM32F4xx_HAL_Driver/Src/stm32f4xx_hal_tim.c ****       __HAL_TIM_ENABLE_IT(htim, TIM_IT_CC1);
 2434              		.loc 1 1182 0
 2435 004c 7B68     		ldr	r3, [r7, #4]
 2436 004e 1B68     		ldr	r3, [r3]
 2437 0050 7A68     		ldr	r2, [r7, #4]
 2438 0052 1268     		ldr	r2, [r2]
 2439 0054 D268     		ldr	r2, [r2, #12]
 2440 0056 42F00202 		orr	r2, r2, #2
 2441 005a DA60     		str	r2, [r3, #12]
1183:Drivers/STM32F4xx_HAL_Driver/Src/stm32f4xx_hal_tim.c ****     }
1184:Drivers/STM32F4xx_HAL_Driver/Src/stm32f4xx_hal_tim.c ****     break;
 2442              		.loc 1 1184 0
 2443 005c 1BE0     		b	.L134
 2444              	.L131:
1185:Drivers/STM32F4xx_HAL_Driver/Src/stm32f4xx_hal_tim.c ****     
1186:Drivers/STM32F4xx_HAL_Driver/Src/stm32f4xx_hal_tim.c ****     case TIM_CHANNEL_2:
1187:Drivers/STM32F4xx_HAL_Driver/Src/stm32f4xx_hal_tim.c ****     {
1188:Drivers/STM32F4xx_HAL_Driver/Src/stm32f4xx_hal_tim.c ****       /* Enable the TIM Capture/Compare 2 interrupt */
1189:Drivers/STM32F4xx_HAL_Driver/Src/stm32f4xx_hal_tim.c ****       __HAL_TIM_ENABLE_IT(htim, TIM_IT_CC2);
 2445              		.loc 1 1189 0
 2446 005e 7B68     		ldr	r3, [r7, #4]
 2447 0060 1B68     		ldr	r3, [r3]
 2448 0062 7A68     		ldr	r2, [r7, #4]
 2449 0064 1268     		ldr	r2, [r2]
 2450 0066 D268     		ldr	r2, [r2, #12]
 2451 0068 42F00402 		orr	r2, r2, #4
 2452 006c DA60     		str	r2, [r3, #12]
1190:Drivers/STM32F4xx_HAL_Driver/Src/stm32f4xx_hal_tim.c ****     }
1191:Drivers/STM32F4xx_HAL_Driver/Src/stm32f4xx_hal_tim.c ****     break;
 2453              		.loc 1 1191 0
ARM GAS  /tmp/cc4tSQEQ.s 			page 64


 2454 006e 12E0     		b	.L134
 2455              	.L132:
1192:Drivers/STM32F4xx_HAL_Driver/Src/stm32f4xx_hal_tim.c ****     
1193:Drivers/STM32F4xx_HAL_Driver/Src/stm32f4xx_hal_tim.c ****     case TIM_CHANNEL_3:
1194:Drivers/STM32F4xx_HAL_Driver/Src/stm32f4xx_hal_tim.c ****     {
1195:Drivers/STM32F4xx_HAL_Driver/Src/stm32f4xx_hal_tim.c ****       /* Enable the TIM Capture/Compare 3 interrupt */
1196:Drivers/STM32F4xx_HAL_Driver/Src/stm32f4xx_hal_tim.c ****       __HAL_TIM_ENABLE_IT(htim, TIM_IT_CC3);
 2456              		.loc 1 1196 0
 2457 0070 7B68     		ldr	r3, [r7, #4]
 2458 0072 1B68     		ldr	r3, [r3]
 2459 0074 7A68     		ldr	r2, [r7, #4]
 2460 0076 1268     		ldr	r2, [r2]
 2461 0078 D268     		ldr	r2, [r2, #12]
 2462 007a 42F00802 		orr	r2, r2, #8
 2463 007e DA60     		str	r2, [r3, #12]
1197:Drivers/STM32F4xx_HAL_Driver/Src/stm32f4xx_hal_tim.c ****     }
1198:Drivers/STM32F4xx_HAL_Driver/Src/stm32f4xx_hal_tim.c ****     break;
 2464              		.loc 1 1198 0
 2465 0080 09E0     		b	.L134
 2466              	.L133:
1199:Drivers/STM32F4xx_HAL_Driver/Src/stm32f4xx_hal_tim.c ****     
1200:Drivers/STM32F4xx_HAL_Driver/Src/stm32f4xx_hal_tim.c ****     case TIM_CHANNEL_4:
1201:Drivers/STM32F4xx_HAL_Driver/Src/stm32f4xx_hal_tim.c ****     {
1202:Drivers/STM32F4xx_HAL_Driver/Src/stm32f4xx_hal_tim.c ****       /* Enable the TIM Capture/Compare 4 interrupt */
1203:Drivers/STM32F4xx_HAL_Driver/Src/stm32f4xx_hal_tim.c ****       __HAL_TIM_ENABLE_IT(htim, TIM_IT_CC4);
 2467              		.loc 1 1203 0
 2468 0082 7B68     		ldr	r3, [r7, #4]
 2469 0084 1B68     		ldr	r3, [r3]
 2470 0086 7A68     		ldr	r2, [r7, #4]
 2471 0088 1268     		ldr	r2, [r2]
 2472 008a D268     		ldr	r2, [r2, #12]
 2473 008c 42F01002 		orr	r2, r2, #16
 2474 0090 DA60     		str	r2, [r3, #12]
1204:Drivers/STM32F4xx_HAL_Driver/Src/stm32f4xx_hal_tim.c ****     }
1205:Drivers/STM32F4xx_HAL_Driver/Src/stm32f4xx_hal_tim.c ****     break;
 2475              		.loc 1 1205 0
 2476 0092 00E0     		b	.L134
 2477              	.L137:
1206:Drivers/STM32F4xx_HAL_Driver/Src/stm32f4xx_hal_tim.c ****     
1207:Drivers/STM32F4xx_HAL_Driver/Src/stm32f4xx_hal_tim.c ****     default:
1208:Drivers/STM32F4xx_HAL_Driver/Src/stm32f4xx_hal_tim.c ****     break;
 2478              		.loc 1 1208 0
 2479 0094 00BF     		nop
 2480              	.L134:
1209:Drivers/STM32F4xx_HAL_Driver/Src/stm32f4xx_hal_tim.c ****   } 
1210:Drivers/STM32F4xx_HAL_Driver/Src/stm32f4xx_hal_tim.c ****   
1211:Drivers/STM32F4xx_HAL_Driver/Src/stm32f4xx_hal_tim.c ****   /* Enable the Capture compare channel */
1212:Drivers/STM32F4xx_HAL_Driver/Src/stm32f4xx_hal_tim.c ****   TIM_CCxChannelCmd(htim->Instance, Channel, TIM_CCx_ENABLE);
 2481              		.loc 1 1212 0
 2482 0096 7B68     		ldr	r3, [r7, #4]
 2483 0098 1B68     		ldr	r3, [r3]
 2484 009a 0122     		movs	r2, #1
 2485 009c 3968     		ldr	r1, [r7]
 2486 009e 1846     		mov	r0, r3
 2487 00a0 FFF7FEFF 		bl	TIM_CCxChannelCmd
1213:Drivers/STM32F4xx_HAL_Driver/Src/stm32f4xx_hal_tim.c ****   
1214:Drivers/STM32F4xx_HAL_Driver/Src/stm32f4xx_hal_tim.c ****   if(IS_TIM_ADVANCED_INSTANCE(htim->Instance) != RESET)  
ARM GAS  /tmp/cc4tSQEQ.s 			page 65


 2488              		.loc 1 1214 0
 2489 00a4 7B68     		ldr	r3, [r7, #4]
 2490 00a6 1B68     		ldr	r3, [r3]
 2491 00a8 0B4A     		ldr	r2, .L138
 2492 00aa 9342     		cmp	r3, r2
 2493 00ac 07D1     		bne	.L135
1215:Drivers/STM32F4xx_HAL_Driver/Src/stm32f4xx_hal_tim.c ****   {
1216:Drivers/STM32F4xx_HAL_Driver/Src/stm32f4xx_hal_tim.c ****     /* Enable the main output */
1217:Drivers/STM32F4xx_HAL_Driver/Src/stm32f4xx_hal_tim.c ****     __HAL_TIM_MOE_ENABLE(htim);
 2494              		.loc 1 1217 0
 2495 00ae 7B68     		ldr	r3, [r7, #4]
 2496 00b0 1B68     		ldr	r3, [r3]
 2497 00b2 7A68     		ldr	r2, [r7, #4]
 2498 00b4 1268     		ldr	r2, [r2]
 2499 00b6 526C     		ldr	r2, [r2, #68]
 2500 00b8 42F40042 		orr	r2, r2, #32768
 2501 00bc 5A64     		str	r2, [r3, #68]
 2502              	.L135:
1218:Drivers/STM32F4xx_HAL_Driver/Src/stm32f4xx_hal_tim.c ****   }
1219:Drivers/STM32F4xx_HAL_Driver/Src/stm32f4xx_hal_tim.c **** 
1220:Drivers/STM32F4xx_HAL_Driver/Src/stm32f4xx_hal_tim.c ****   /* Enable the Peripheral */
1221:Drivers/STM32F4xx_HAL_Driver/Src/stm32f4xx_hal_tim.c ****   __HAL_TIM_ENABLE(htim);
 2503              		.loc 1 1221 0
 2504 00be 7B68     		ldr	r3, [r7, #4]
 2505 00c0 1B68     		ldr	r3, [r3]
 2506 00c2 7A68     		ldr	r2, [r7, #4]
 2507 00c4 1268     		ldr	r2, [r2]
 2508 00c6 1268     		ldr	r2, [r2]
 2509 00c8 42F00102 		orr	r2, r2, #1
 2510 00cc 1A60     		str	r2, [r3]
1222:Drivers/STM32F4xx_HAL_Driver/Src/stm32f4xx_hal_tim.c ****   
1223:Drivers/STM32F4xx_HAL_Driver/Src/stm32f4xx_hal_tim.c ****   /* Return function status */
1224:Drivers/STM32F4xx_HAL_Driver/Src/stm32f4xx_hal_tim.c ****   return HAL_OK;
 2511              		.loc 1 1224 0
 2512 00ce 0023     		movs	r3, #0
1225:Drivers/STM32F4xx_HAL_Driver/Src/stm32f4xx_hal_tim.c **** } 
 2513              		.loc 1 1225 0
 2514 00d0 1846     		mov	r0, r3
 2515 00d2 0837     		adds	r7, r7, #8
 2516              	.LCFI144:
 2517              		.cfi_def_cfa_offset 8
 2518 00d4 BD46     		mov	sp, r7
 2519              	.LCFI145:
 2520              		.cfi_def_cfa_register 13
 2521              		@ sp needed
 2522 00d6 80BD     		pop	{r7, pc}
 2523              	.L139:
 2524              		.align	2
 2525              	.L138:
 2526 00d8 00000140 		.word	1073807360
 2527              		.cfi_endproc
 2528              	.LFE150:
 2530              		.section	.text.HAL_TIM_PWM_Stop_IT,"ax",%progbits
 2531              		.align	1
 2532              		.global	HAL_TIM_PWM_Stop_IT
 2533              		.syntax unified
 2534              		.thumb
ARM GAS  /tmp/cc4tSQEQ.s 			page 66


 2535              		.thumb_func
 2536              		.fpu fpv4-sp-d16
 2538              	HAL_TIM_PWM_Stop_IT:
 2539              	.LFB151:
1226:Drivers/STM32F4xx_HAL_Driver/Src/stm32f4xx_hal_tim.c **** 
1227:Drivers/STM32F4xx_HAL_Driver/Src/stm32f4xx_hal_tim.c **** /**
1228:Drivers/STM32F4xx_HAL_Driver/Src/stm32f4xx_hal_tim.c ****   * @brief  Stops the PWM signal generation in interrupt mode.
1229:Drivers/STM32F4xx_HAL_Driver/Src/stm32f4xx_hal_tim.c ****   * @param  htim pointer to a TIM_HandleTypeDef structure that contains
1230:Drivers/STM32F4xx_HAL_Driver/Src/stm32f4xx_hal_tim.c ****   *                the configuration information for TIM module.
1231:Drivers/STM32F4xx_HAL_Driver/Src/stm32f4xx_hal_tim.c ****   * @param  Channel TIM Channels to be disabled.
1232:Drivers/STM32F4xx_HAL_Driver/Src/stm32f4xx_hal_tim.c ****   *          This parameter can be one of the following values:
1233:Drivers/STM32F4xx_HAL_Driver/Src/stm32f4xx_hal_tim.c ****   *            @arg TIM_CHANNEL_1: TIM Channel 1 selected
1234:Drivers/STM32F4xx_HAL_Driver/Src/stm32f4xx_hal_tim.c ****   *            @arg TIM_CHANNEL_2: TIM Channel 2 selected
1235:Drivers/STM32F4xx_HAL_Driver/Src/stm32f4xx_hal_tim.c ****   *            @arg TIM_CHANNEL_3: TIM Channel 3 selected
1236:Drivers/STM32F4xx_HAL_Driver/Src/stm32f4xx_hal_tim.c ****   *            @arg TIM_CHANNEL_4: TIM Channel 4 selected
1237:Drivers/STM32F4xx_HAL_Driver/Src/stm32f4xx_hal_tim.c ****   * @retval HAL status
1238:Drivers/STM32F4xx_HAL_Driver/Src/stm32f4xx_hal_tim.c ****   */
1239:Drivers/STM32F4xx_HAL_Driver/Src/stm32f4xx_hal_tim.c **** HAL_StatusTypeDef HAL_TIM_PWM_Stop_IT (TIM_HandleTypeDef *htim, uint32_t Channel)
1240:Drivers/STM32F4xx_HAL_Driver/Src/stm32f4xx_hal_tim.c **** {
 2540              		.loc 1 1240 0
 2541              		.cfi_startproc
 2542              		@ args = 0, pretend = 0, frame = 8
 2543              		@ frame_needed = 1, uses_anonymous_args = 0
 2544 0000 80B5     		push	{r7, lr}
 2545              	.LCFI146:
 2546              		.cfi_def_cfa_offset 8
 2547              		.cfi_offset 7, -8
 2548              		.cfi_offset 14, -4
 2549 0002 82B0     		sub	sp, sp, #8
 2550              	.LCFI147:
 2551              		.cfi_def_cfa_offset 16
 2552 0004 00AF     		add	r7, sp, #0
 2553              	.LCFI148:
 2554              		.cfi_def_cfa_register 7
 2555 0006 7860     		str	r0, [r7, #4]
 2556 0008 3960     		str	r1, [r7]
1241:Drivers/STM32F4xx_HAL_Driver/Src/stm32f4xx_hal_tim.c ****   /* Check the parameters */
1242:Drivers/STM32F4xx_HAL_Driver/Src/stm32f4xx_hal_tim.c ****   assert_param(IS_TIM_CCX_INSTANCE(htim->Instance, Channel));
1243:Drivers/STM32F4xx_HAL_Driver/Src/stm32f4xx_hal_tim.c ****   
1244:Drivers/STM32F4xx_HAL_Driver/Src/stm32f4xx_hal_tim.c ****   switch (Channel)
 2557              		.loc 1 1244 0
 2558 000a 3B68     		ldr	r3, [r7]
 2559 000c 0C2B     		cmp	r3, #12
 2560 000e 41D8     		bhi	.L151
 2561 0010 01A2     		adr	r2, .L143
 2562 0012 52F823F0 		ldr	pc, [r2, r3, lsl #2]
 2563 0016 00BF     		.p2align 2
 2564              	.L143:
 2565 0018 4D000000 		.word	.L142+1
 2566 001c 95000000 		.word	.L151+1
 2567 0020 95000000 		.word	.L151+1
 2568 0024 95000000 		.word	.L151+1
 2569 0028 5F000000 		.word	.L144+1
 2570 002c 95000000 		.word	.L151+1
 2571 0030 95000000 		.word	.L151+1
 2572 0034 95000000 		.word	.L151+1
 2573 0038 71000000 		.word	.L145+1
ARM GAS  /tmp/cc4tSQEQ.s 			page 67


 2574 003c 95000000 		.word	.L151+1
 2575 0040 95000000 		.word	.L151+1
 2576 0044 95000000 		.word	.L151+1
 2577 0048 83000000 		.word	.L146+1
 2578              		.p2align 1
 2579              	.L142:
1245:Drivers/STM32F4xx_HAL_Driver/Src/stm32f4xx_hal_tim.c ****   {
1246:Drivers/STM32F4xx_HAL_Driver/Src/stm32f4xx_hal_tim.c ****     case TIM_CHANNEL_1:
1247:Drivers/STM32F4xx_HAL_Driver/Src/stm32f4xx_hal_tim.c ****     {       
1248:Drivers/STM32F4xx_HAL_Driver/Src/stm32f4xx_hal_tim.c ****       /* Disable the TIM Capture/Compare 1 interrupt */
1249:Drivers/STM32F4xx_HAL_Driver/Src/stm32f4xx_hal_tim.c ****       __HAL_TIM_DISABLE_IT(htim, TIM_IT_CC1);
 2580              		.loc 1 1249 0
 2581 004c 7B68     		ldr	r3, [r7, #4]
 2582 004e 1B68     		ldr	r3, [r3]
 2583 0050 7A68     		ldr	r2, [r7, #4]
 2584 0052 1268     		ldr	r2, [r2]
 2585 0054 D268     		ldr	r2, [r2, #12]
 2586 0056 22F00202 		bic	r2, r2, #2
 2587 005a DA60     		str	r2, [r3, #12]
1250:Drivers/STM32F4xx_HAL_Driver/Src/stm32f4xx_hal_tim.c ****     }
1251:Drivers/STM32F4xx_HAL_Driver/Src/stm32f4xx_hal_tim.c ****     break;
 2588              		.loc 1 1251 0
 2589 005c 1BE0     		b	.L147
 2590              	.L144:
1252:Drivers/STM32F4xx_HAL_Driver/Src/stm32f4xx_hal_tim.c ****     
1253:Drivers/STM32F4xx_HAL_Driver/Src/stm32f4xx_hal_tim.c ****     case TIM_CHANNEL_2:
1254:Drivers/STM32F4xx_HAL_Driver/Src/stm32f4xx_hal_tim.c ****     {
1255:Drivers/STM32F4xx_HAL_Driver/Src/stm32f4xx_hal_tim.c ****       /* Disable the TIM Capture/Compare 2 interrupt */
1256:Drivers/STM32F4xx_HAL_Driver/Src/stm32f4xx_hal_tim.c ****       __HAL_TIM_DISABLE_IT(htim, TIM_IT_CC2);
 2591              		.loc 1 1256 0
 2592 005e 7B68     		ldr	r3, [r7, #4]
 2593 0060 1B68     		ldr	r3, [r3]
 2594 0062 7A68     		ldr	r2, [r7, #4]
 2595 0064 1268     		ldr	r2, [r2]
 2596 0066 D268     		ldr	r2, [r2, #12]
 2597 0068 22F00402 		bic	r2, r2, #4
 2598 006c DA60     		str	r2, [r3, #12]
1257:Drivers/STM32F4xx_HAL_Driver/Src/stm32f4xx_hal_tim.c ****     }
1258:Drivers/STM32F4xx_HAL_Driver/Src/stm32f4xx_hal_tim.c ****     break;
 2599              		.loc 1 1258 0
 2600 006e 12E0     		b	.L147
 2601              	.L145:
1259:Drivers/STM32F4xx_HAL_Driver/Src/stm32f4xx_hal_tim.c ****     
1260:Drivers/STM32F4xx_HAL_Driver/Src/stm32f4xx_hal_tim.c ****     case TIM_CHANNEL_3:
1261:Drivers/STM32F4xx_HAL_Driver/Src/stm32f4xx_hal_tim.c ****     {
1262:Drivers/STM32F4xx_HAL_Driver/Src/stm32f4xx_hal_tim.c ****       /* Disable the TIM Capture/Compare 3 interrupt */
1263:Drivers/STM32F4xx_HAL_Driver/Src/stm32f4xx_hal_tim.c ****       __HAL_TIM_DISABLE_IT(htim, TIM_IT_CC3);
 2602              		.loc 1 1263 0
 2603 0070 7B68     		ldr	r3, [r7, #4]
 2604 0072 1B68     		ldr	r3, [r3]
 2605 0074 7A68     		ldr	r2, [r7, #4]
 2606 0076 1268     		ldr	r2, [r2]
 2607 0078 D268     		ldr	r2, [r2, #12]
 2608 007a 22F00802 		bic	r2, r2, #8
 2609 007e DA60     		str	r2, [r3, #12]
1264:Drivers/STM32F4xx_HAL_Driver/Src/stm32f4xx_hal_tim.c ****     }
1265:Drivers/STM32F4xx_HAL_Driver/Src/stm32f4xx_hal_tim.c ****     break;
ARM GAS  /tmp/cc4tSQEQ.s 			page 68


 2610              		.loc 1 1265 0
 2611 0080 09E0     		b	.L147
 2612              	.L146:
1266:Drivers/STM32F4xx_HAL_Driver/Src/stm32f4xx_hal_tim.c ****     
1267:Drivers/STM32F4xx_HAL_Driver/Src/stm32f4xx_hal_tim.c ****     case TIM_CHANNEL_4:
1268:Drivers/STM32F4xx_HAL_Driver/Src/stm32f4xx_hal_tim.c ****     {
1269:Drivers/STM32F4xx_HAL_Driver/Src/stm32f4xx_hal_tim.c ****       /* Disable the TIM Capture/Compare 4 interrupt */
1270:Drivers/STM32F4xx_HAL_Driver/Src/stm32f4xx_hal_tim.c ****       __HAL_TIM_DISABLE_IT(htim, TIM_IT_CC4);
 2613              		.loc 1 1270 0
 2614 0082 7B68     		ldr	r3, [r7, #4]
 2615 0084 1B68     		ldr	r3, [r3]
 2616 0086 7A68     		ldr	r2, [r7, #4]
 2617 0088 1268     		ldr	r2, [r2]
 2618 008a D268     		ldr	r2, [r2, #12]
 2619 008c 22F01002 		bic	r2, r2, #16
 2620 0090 DA60     		str	r2, [r3, #12]
1271:Drivers/STM32F4xx_HAL_Driver/Src/stm32f4xx_hal_tim.c ****     }
1272:Drivers/STM32F4xx_HAL_Driver/Src/stm32f4xx_hal_tim.c ****     break;
 2621              		.loc 1 1272 0
 2622 0092 00E0     		b	.L147
 2623              	.L151:
1273:Drivers/STM32F4xx_HAL_Driver/Src/stm32f4xx_hal_tim.c ****     
1274:Drivers/STM32F4xx_HAL_Driver/Src/stm32f4xx_hal_tim.c ****     default:
1275:Drivers/STM32F4xx_HAL_Driver/Src/stm32f4xx_hal_tim.c ****     break; 
 2624              		.loc 1 1275 0
 2625 0094 00BF     		nop
 2626              	.L147:
1276:Drivers/STM32F4xx_HAL_Driver/Src/stm32f4xx_hal_tim.c ****   }
1277:Drivers/STM32F4xx_HAL_Driver/Src/stm32f4xx_hal_tim.c ****   
1278:Drivers/STM32F4xx_HAL_Driver/Src/stm32f4xx_hal_tim.c ****   /* Disable the Capture compare channel */
1279:Drivers/STM32F4xx_HAL_Driver/Src/stm32f4xx_hal_tim.c ****   TIM_CCxChannelCmd(htim->Instance, Channel, TIM_CCx_DISABLE);
 2627              		.loc 1 1279 0
 2628 0096 7B68     		ldr	r3, [r7, #4]
 2629 0098 1B68     		ldr	r3, [r3]
 2630 009a 0022     		movs	r2, #0
 2631 009c 3968     		ldr	r1, [r7]
 2632 009e 1846     		mov	r0, r3
 2633 00a0 FFF7FEFF 		bl	TIM_CCxChannelCmd
1280:Drivers/STM32F4xx_HAL_Driver/Src/stm32f4xx_hal_tim.c ****   
1281:Drivers/STM32F4xx_HAL_Driver/Src/stm32f4xx_hal_tim.c ****   if(IS_TIM_ADVANCED_INSTANCE(htim->Instance) != RESET)  
 2634              		.loc 1 1281 0
 2635 00a4 7B68     		ldr	r3, [r7, #4]
 2636 00a6 1B68     		ldr	r3, [r3]
 2637 00a8 1B4A     		ldr	r2, .L152
 2638 00aa 9342     		cmp	r3, r2
 2639 00ac 17D1     		bne	.L148
1282:Drivers/STM32F4xx_HAL_Driver/Src/stm32f4xx_hal_tim.c ****   {
1283:Drivers/STM32F4xx_HAL_Driver/Src/stm32f4xx_hal_tim.c ****     /* Disable the Main Output */
1284:Drivers/STM32F4xx_HAL_Driver/Src/stm32f4xx_hal_tim.c ****     __HAL_TIM_MOE_DISABLE(htim);
 2640              		.loc 1 1284 0
 2641 00ae 7B68     		ldr	r3, [r7, #4]
 2642 00b0 1B68     		ldr	r3, [r3]
 2643 00b2 1A6A     		ldr	r2, [r3, #32]
 2644 00b4 41F21113 		movw	r3, #4369
 2645 00b8 1340     		ands	r3, r3, r2
 2646 00ba 002B     		cmp	r3, #0
 2647 00bc 0FD1     		bne	.L148
ARM GAS  /tmp/cc4tSQEQ.s 			page 69


 2648              		.loc 1 1284 0 is_stmt 0 discriminator 1
 2649 00be 7B68     		ldr	r3, [r7, #4]
 2650 00c0 1B68     		ldr	r3, [r3]
 2651 00c2 1A6A     		ldr	r2, [r3, #32]
 2652 00c4 40F24443 		movw	r3, #1092
 2653 00c8 1340     		ands	r3, r3, r2
 2654 00ca 002B     		cmp	r3, #0
 2655 00cc 07D1     		bne	.L148
 2656              		.loc 1 1284 0 discriminator 2
 2657 00ce 7B68     		ldr	r3, [r7, #4]
 2658 00d0 1B68     		ldr	r3, [r3]
 2659 00d2 7A68     		ldr	r2, [r7, #4]
 2660 00d4 1268     		ldr	r2, [r2]
 2661 00d6 526C     		ldr	r2, [r2, #68]
 2662 00d8 22F40042 		bic	r2, r2, #32768
 2663 00dc 5A64     		str	r2, [r3, #68]
 2664              	.L148:
1285:Drivers/STM32F4xx_HAL_Driver/Src/stm32f4xx_hal_tim.c ****   }
1286:Drivers/STM32F4xx_HAL_Driver/Src/stm32f4xx_hal_tim.c ****   
1287:Drivers/STM32F4xx_HAL_Driver/Src/stm32f4xx_hal_tim.c ****   /* Disable the Peripheral */
1288:Drivers/STM32F4xx_HAL_Driver/Src/stm32f4xx_hal_tim.c ****   __HAL_TIM_DISABLE(htim);
 2665              		.loc 1 1288 0 is_stmt 1
 2666 00de 7B68     		ldr	r3, [r7, #4]
 2667 00e0 1B68     		ldr	r3, [r3]
 2668 00e2 1A6A     		ldr	r2, [r3, #32]
 2669 00e4 41F21113 		movw	r3, #4369
 2670 00e8 1340     		ands	r3, r3, r2
 2671 00ea 002B     		cmp	r3, #0
 2672 00ec 0FD1     		bne	.L149
 2673              		.loc 1 1288 0 is_stmt 0 discriminator 1
 2674 00ee 7B68     		ldr	r3, [r7, #4]
 2675 00f0 1B68     		ldr	r3, [r3]
 2676 00f2 1A6A     		ldr	r2, [r3, #32]
 2677 00f4 40F24443 		movw	r3, #1092
 2678 00f8 1340     		ands	r3, r3, r2
 2679 00fa 002B     		cmp	r3, #0
 2680 00fc 07D1     		bne	.L149
 2681              		.loc 1 1288 0 discriminator 2
 2682 00fe 7B68     		ldr	r3, [r7, #4]
 2683 0100 1B68     		ldr	r3, [r3]
 2684 0102 7A68     		ldr	r2, [r7, #4]
 2685 0104 1268     		ldr	r2, [r2]
 2686 0106 1268     		ldr	r2, [r2]
 2687 0108 22F00102 		bic	r2, r2, #1
 2688 010c 1A60     		str	r2, [r3]
 2689              	.L149:
1289:Drivers/STM32F4xx_HAL_Driver/Src/stm32f4xx_hal_tim.c ****   
1290:Drivers/STM32F4xx_HAL_Driver/Src/stm32f4xx_hal_tim.c ****   /* Return function status */
1291:Drivers/STM32F4xx_HAL_Driver/Src/stm32f4xx_hal_tim.c ****   return HAL_OK;
 2690              		.loc 1 1291 0 is_stmt 1
 2691 010e 0023     		movs	r3, #0
1292:Drivers/STM32F4xx_HAL_Driver/Src/stm32f4xx_hal_tim.c **** } 
 2692              		.loc 1 1292 0
 2693 0110 1846     		mov	r0, r3
 2694 0112 0837     		adds	r7, r7, #8
 2695              	.LCFI149:
 2696              		.cfi_def_cfa_offset 8
ARM GAS  /tmp/cc4tSQEQ.s 			page 70


 2697 0114 BD46     		mov	sp, r7
 2698              	.LCFI150:
 2699              		.cfi_def_cfa_register 13
 2700              		@ sp needed
 2701 0116 80BD     		pop	{r7, pc}
 2702              	.L153:
 2703              		.align	2
 2704              	.L152:
 2705 0118 00000140 		.word	1073807360
 2706              		.cfi_endproc
 2707              	.LFE151:
 2709              		.section	.text.HAL_TIM_PWM_Start_DMA,"ax",%progbits
 2710              		.align	1
 2711              		.global	HAL_TIM_PWM_Start_DMA
 2712              		.syntax unified
 2713              		.thumb
 2714              		.thumb_func
 2715              		.fpu fpv4-sp-d16
 2717              	HAL_TIM_PWM_Start_DMA:
 2718              	.LFB152:
1293:Drivers/STM32F4xx_HAL_Driver/Src/stm32f4xx_hal_tim.c **** 
1294:Drivers/STM32F4xx_HAL_Driver/Src/stm32f4xx_hal_tim.c **** /**
1295:Drivers/STM32F4xx_HAL_Driver/Src/stm32f4xx_hal_tim.c ****   * @brief  Starts the TIM PWM signal generation in DMA mode.
1296:Drivers/STM32F4xx_HAL_Driver/Src/stm32f4xx_hal_tim.c ****   * @param  htim pointer to a TIM_HandleTypeDef structure that contains
1297:Drivers/STM32F4xx_HAL_Driver/Src/stm32f4xx_hal_tim.c ****   *                the configuration information for TIM module.
1298:Drivers/STM32F4xx_HAL_Driver/Src/stm32f4xx_hal_tim.c ****   * @param  Channel TIM Channels to be enabled.
1299:Drivers/STM32F4xx_HAL_Driver/Src/stm32f4xx_hal_tim.c ****   *          This parameter can be one of the following values:
1300:Drivers/STM32F4xx_HAL_Driver/Src/stm32f4xx_hal_tim.c ****   *            @arg TIM_CHANNEL_1: TIM Channel 1 selected
1301:Drivers/STM32F4xx_HAL_Driver/Src/stm32f4xx_hal_tim.c ****   *            @arg TIM_CHANNEL_2: TIM Channel 2 selected
1302:Drivers/STM32F4xx_HAL_Driver/Src/stm32f4xx_hal_tim.c ****   *            @arg TIM_CHANNEL_3: TIM Channel 3 selected
1303:Drivers/STM32F4xx_HAL_Driver/Src/stm32f4xx_hal_tim.c ****   *            @arg TIM_CHANNEL_4: TIM Channel 4 selected
1304:Drivers/STM32F4xx_HAL_Driver/Src/stm32f4xx_hal_tim.c ****   * @param  pData The source Buffer address.
1305:Drivers/STM32F4xx_HAL_Driver/Src/stm32f4xx_hal_tim.c ****   * @param  Length The length of data to be transferred from memory to TIM peripheral
1306:Drivers/STM32F4xx_HAL_Driver/Src/stm32f4xx_hal_tim.c ****   * @retval HAL status
1307:Drivers/STM32F4xx_HAL_Driver/Src/stm32f4xx_hal_tim.c ****   */
1308:Drivers/STM32F4xx_HAL_Driver/Src/stm32f4xx_hal_tim.c **** HAL_StatusTypeDef HAL_TIM_PWM_Start_DMA(TIM_HandleTypeDef *htim, uint32_t Channel, uint32_t *pData,
1309:Drivers/STM32F4xx_HAL_Driver/Src/stm32f4xx_hal_tim.c **** {
 2719              		.loc 1 1309 0
 2720              		.cfi_startproc
 2721              		@ args = 0, pretend = 0, frame = 16
 2722              		@ frame_needed = 1, uses_anonymous_args = 0
 2723 0000 80B5     		push	{r7, lr}
 2724              	.LCFI151:
 2725              		.cfi_def_cfa_offset 8
 2726              		.cfi_offset 7, -8
 2727              		.cfi_offset 14, -4
 2728 0002 84B0     		sub	sp, sp, #16
 2729              	.LCFI152:
 2730              		.cfi_def_cfa_offset 24
 2731 0004 00AF     		add	r7, sp, #0
 2732              	.LCFI153:
 2733              		.cfi_def_cfa_register 7
 2734 0006 F860     		str	r0, [r7, #12]
 2735 0008 B960     		str	r1, [r7, #8]
 2736 000a 7A60     		str	r2, [r7, #4]
 2737 000c 7B80     		strh	r3, [r7, #2]	@ movhi
1310:Drivers/STM32F4xx_HAL_Driver/Src/stm32f4xx_hal_tim.c ****   /* Check the parameters */
ARM GAS  /tmp/cc4tSQEQ.s 			page 71


1311:Drivers/STM32F4xx_HAL_Driver/Src/stm32f4xx_hal_tim.c ****   assert_param(IS_TIM_CCX_INSTANCE(htim->Instance, Channel));
1312:Drivers/STM32F4xx_HAL_Driver/Src/stm32f4xx_hal_tim.c ****   
1313:Drivers/STM32F4xx_HAL_Driver/Src/stm32f4xx_hal_tim.c ****   if((htim->State == HAL_TIM_STATE_BUSY))
 2738              		.loc 1 1313 0
 2739 000e FB68     		ldr	r3, [r7, #12]
 2740 0010 93F83930 		ldrb	r3, [r3, #57]
 2741 0014 DBB2     		uxtb	r3, r3
 2742 0016 022B     		cmp	r3, #2
 2743 0018 01D1     		bne	.L155
1314:Drivers/STM32F4xx_HAL_Driver/Src/stm32f4xx_hal_tim.c ****   {
1315:Drivers/STM32F4xx_HAL_Driver/Src/stm32f4xx_hal_tim.c ****      return HAL_BUSY;
 2744              		.loc 1 1315 0
 2745 001a 0223     		movs	r3, #2
 2746 001c BCE0     		b	.L156
 2747              	.L155:
1316:Drivers/STM32F4xx_HAL_Driver/Src/stm32f4xx_hal_tim.c ****   }
1317:Drivers/STM32F4xx_HAL_Driver/Src/stm32f4xx_hal_tim.c ****   else if((htim->State == HAL_TIM_STATE_READY))
 2748              		.loc 1 1317 0
 2749 001e FB68     		ldr	r3, [r7, #12]
 2750 0020 93F83930 		ldrb	r3, [r3, #57]
 2751 0024 DBB2     		uxtb	r3, r3
 2752 0026 012B     		cmp	r3, #1
 2753 0028 0BD1     		bne	.L157
1318:Drivers/STM32F4xx_HAL_Driver/Src/stm32f4xx_hal_tim.c ****   {
1319:Drivers/STM32F4xx_HAL_Driver/Src/stm32f4xx_hal_tim.c ****     if(((uint32_t)pData == 0U) && (Length > 0)) 
 2754              		.loc 1 1319 0
 2755 002a 7B68     		ldr	r3, [r7, #4]
 2756 002c 002B     		cmp	r3, #0
 2757 002e 04D1     		bne	.L158
 2758              		.loc 1 1319 0 is_stmt 0 discriminator 1
 2759 0030 7B88     		ldrh	r3, [r7, #2]
 2760 0032 002B     		cmp	r3, #0
 2761 0034 01D0     		beq	.L158
1320:Drivers/STM32F4xx_HAL_Driver/Src/stm32f4xx_hal_tim.c ****     {
1321:Drivers/STM32F4xx_HAL_Driver/Src/stm32f4xx_hal_tim.c ****       return HAL_ERROR;                                    
 2762              		.loc 1 1321 0 is_stmt 1
 2763 0036 0123     		movs	r3, #1
 2764 0038 AEE0     		b	.L156
 2765              	.L158:
1322:Drivers/STM32F4xx_HAL_Driver/Src/stm32f4xx_hal_tim.c ****     }
1323:Drivers/STM32F4xx_HAL_Driver/Src/stm32f4xx_hal_tim.c ****     else
1324:Drivers/STM32F4xx_HAL_Driver/Src/stm32f4xx_hal_tim.c ****     {
1325:Drivers/STM32F4xx_HAL_Driver/Src/stm32f4xx_hal_tim.c ****       htim->State = HAL_TIM_STATE_BUSY;
 2766              		.loc 1 1325 0
 2767 003a FB68     		ldr	r3, [r7, #12]
 2768 003c 0222     		movs	r2, #2
 2769 003e 83F83920 		strb	r2, [r3, #57]
 2770              	.L157:
1326:Drivers/STM32F4xx_HAL_Driver/Src/stm32f4xx_hal_tim.c ****     }
1327:Drivers/STM32F4xx_HAL_Driver/Src/stm32f4xx_hal_tim.c ****   }    
1328:Drivers/STM32F4xx_HAL_Driver/Src/stm32f4xx_hal_tim.c ****   switch (Channel)
 2771              		.loc 1 1328 0
 2772 0042 BB68     		ldr	r3, [r7, #8]
 2773 0044 0C2B     		cmp	r3, #12
 2774 0046 00F28980 		bhi	.L167
 2775 004a 01A2     		adr	r2, .L161
 2776 004c 52F823F0 		ldr	pc, [r2, r3, lsl #2]
ARM GAS  /tmp/cc4tSQEQ.s 			page 72


 2777              		.p2align 2
 2778              	.L161:
 2779 0050 85000000 		.word	.L160+1
 2780 0054 5D010000 		.word	.L167+1
 2781 0058 5D010000 		.word	.L167+1
 2782 005c 5D010000 		.word	.L167+1
 2783 0060 BB000000 		.word	.L162+1
 2784 0064 5D010000 		.word	.L167+1
 2785 0068 5D010000 		.word	.L167+1
 2786 006c 5D010000 		.word	.L167+1
 2787 0070 F1000000 		.word	.L163+1
 2788 0074 5D010000 		.word	.L167+1
 2789 0078 5D010000 		.word	.L167+1
 2790 007c 5D010000 		.word	.L167+1
 2791 0080 27010000 		.word	.L164+1
 2792              		.p2align 1
 2793              	.L160:
1329:Drivers/STM32F4xx_HAL_Driver/Src/stm32f4xx_hal_tim.c ****   {
1330:Drivers/STM32F4xx_HAL_Driver/Src/stm32f4xx_hal_tim.c ****     case TIM_CHANNEL_1:
1331:Drivers/STM32F4xx_HAL_Driver/Src/stm32f4xx_hal_tim.c ****     {      
1332:Drivers/STM32F4xx_HAL_Driver/Src/stm32f4xx_hal_tim.c ****       /* Set the DMA Period elapsed callback */
1333:Drivers/STM32F4xx_HAL_Driver/Src/stm32f4xx_hal_tim.c ****       htim->hdma[TIM_DMA_ID_CC1]->XferCpltCallback = TIM_DMADelayPulseCplt;
 2794              		.loc 1 1333 0
 2795 0084 FB68     		ldr	r3, [r7, #12]
 2796 0086 1B6A     		ldr	r3, [r3, #32]
 2797 0088 454A     		ldr	r2, .L168
 2798 008a DA63     		str	r2, [r3, #60]
1334:Drivers/STM32F4xx_HAL_Driver/Src/stm32f4xx_hal_tim.c ****      
1335:Drivers/STM32F4xx_HAL_Driver/Src/stm32f4xx_hal_tim.c ****       /* Set the DMA error callback */
1336:Drivers/STM32F4xx_HAL_Driver/Src/stm32f4xx_hal_tim.c ****       htim->hdma[TIM_DMA_ID_CC1]->XferErrorCallback = TIM_DMAError ;
 2799              		.loc 1 1336 0
 2800 008c FB68     		ldr	r3, [r7, #12]
 2801 008e 1B6A     		ldr	r3, [r3, #32]
 2802 0090 444A     		ldr	r2, .L168+4
 2803 0092 DA64     		str	r2, [r3, #76]
1337:Drivers/STM32F4xx_HAL_Driver/Src/stm32f4xx_hal_tim.c ****       
1338:Drivers/STM32F4xx_HAL_Driver/Src/stm32f4xx_hal_tim.c ****       /* Enable the DMA Stream */
1339:Drivers/STM32F4xx_HAL_Driver/Src/stm32f4xx_hal_tim.c ****       HAL_DMA_Start_IT(htim->hdma[TIM_DMA_ID_CC1], (uint32_t)pData, (uint32_t)&htim->Instance->CCR1
 2804              		.loc 1 1339 0
 2805 0094 FB68     		ldr	r3, [r7, #12]
 2806 0096 186A     		ldr	r0, [r3, #32]
 2807 0098 7968     		ldr	r1, [r7, #4]
 2808 009a FB68     		ldr	r3, [r7, #12]
 2809 009c 1B68     		ldr	r3, [r3]
 2810 009e 3433     		adds	r3, r3, #52
 2811 00a0 1A46     		mov	r2, r3
 2812 00a2 7B88     		ldrh	r3, [r7, #2]
 2813 00a4 FFF7FEFF 		bl	HAL_DMA_Start_IT
1340:Drivers/STM32F4xx_HAL_Driver/Src/stm32f4xx_hal_tim.c ****       
1341:Drivers/STM32F4xx_HAL_Driver/Src/stm32f4xx_hal_tim.c ****       /* Enable the TIM Capture/Compare 1 DMA request */
1342:Drivers/STM32F4xx_HAL_Driver/Src/stm32f4xx_hal_tim.c ****       __HAL_TIM_ENABLE_DMA(htim, TIM_DMA_CC1);
 2814              		.loc 1 1342 0
 2815 00a8 FB68     		ldr	r3, [r7, #12]
 2816 00aa 1B68     		ldr	r3, [r3]
 2817 00ac FA68     		ldr	r2, [r7, #12]
 2818 00ae 1268     		ldr	r2, [r2]
 2819 00b0 D268     		ldr	r2, [r2, #12]
ARM GAS  /tmp/cc4tSQEQ.s 			page 73


 2820 00b2 42F40072 		orr	r2, r2, #512
 2821 00b6 DA60     		str	r2, [r3, #12]
1343:Drivers/STM32F4xx_HAL_Driver/Src/stm32f4xx_hal_tim.c ****     }
1344:Drivers/STM32F4xx_HAL_Driver/Src/stm32f4xx_hal_tim.c ****     break;
 2822              		.loc 1 1344 0
 2823 00b8 51E0     		b	.L165
 2824              	.L162:
1345:Drivers/STM32F4xx_HAL_Driver/Src/stm32f4xx_hal_tim.c ****     
1346:Drivers/STM32F4xx_HAL_Driver/Src/stm32f4xx_hal_tim.c ****     case TIM_CHANNEL_2:
1347:Drivers/STM32F4xx_HAL_Driver/Src/stm32f4xx_hal_tim.c ****     {
1348:Drivers/STM32F4xx_HAL_Driver/Src/stm32f4xx_hal_tim.c ****       /* Set the DMA Period elapsed callback */
1349:Drivers/STM32F4xx_HAL_Driver/Src/stm32f4xx_hal_tim.c ****       htim->hdma[TIM_DMA_ID_CC2]->XferCpltCallback = TIM_DMADelayPulseCplt;
 2825              		.loc 1 1349 0
 2826 00ba FB68     		ldr	r3, [r7, #12]
 2827 00bc 5B6A     		ldr	r3, [r3, #36]
 2828 00be 384A     		ldr	r2, .L168
 2829 00c0 DA63     		str	r2, [r3, #60]
1350:Drivers/STM32F4xx_HAL_Driver/Src/stm32f4xx_hal_tim.c ****      
1351:Drivers/STM32F4xx_HAL_Driver/Src/stm32f4xx_hal_tim.c ****       /* Set the DMA error callback */
1352:Drivers/STM32F4xx_HAL_Driver/Src/stm32f4xx_hal_tim.c ****       htim->hdma[TIM_DMA_ID_CC2]->XferErrorCallback = TIM_DMAError ;
 2830              		.loc 1 1352 0
 2831 00c2 FB68     		ldr	r3, [r7, #12]
 2832 00c4 5B6A     		ldr	r3, [r3, #36]
 2833 00c6 374A     		ldr	r2, .L168+4
 2834 00c8 DA64     		str	r2, [r3, #76]
1353:Drivers/STM32F4xx_HAL_Driver/Src/stm32f4xx_hal_tim.c ****       
1354:Drivers/STM32F4xx_HAL_Driver/Src/stm32f4xx_hal_tim.c ****       /* Enable the DMA Stream */
1355:Drivers/STM32F4xx_HAL_Driver/Src/stm32f4xx_hal_tim.c ****       HAL_DMA_Start_IT(htim->hdma[TIM_DMA_ID_CC2], (uint32_t)pData, (uint32_t)&htim->Instance->CCR2
 2835              		.loc 1 1355 0
 2836 00ca FB68     		ldr	r3, [r7, #12]
 2837 00cc 586A     		ldr	r0, [r3, #36]
 2838 00ce 7968     		ldr	r1, [r7, #4]
 2839 00d0 FB68     		ldr	r3, [r7, #12]
 2840 00d2 1B68     		ldr	r3, [r3]
 2841 00d4 3833     		adds	r3, r3, #56
 2842 00d6 1A46     		mov	r2, r3
 2843 00d8 7B88     		ldrh	r3, [r7, #2]
 2844 00da FFF7FEFF 		bl	HAL_DMA_Start_IT
1356:Drivers/STM32F4xx_HAL_Driver/Src/stm32f4xx_hal_tim.c ****       
1357:Drivers/STM32F4xx_HAL_Driver/Src/stm32f4xx_hal_tim.c ****       /* Enable the TIM Capture/Compare 2 DMA request */
1358:Drivers/STM32F4xx_HAL_Driver/Src/stm32f4xx_hal_tim.c ****       __HAL_TIM_ENABLE_DMA(htim, TIM_DMA_CC2);
 2845              		.loc 1 1358 0
 2846 00de FB68     		ldr	r3, [r7, #12]
 2847 00e0 1B68     		ldr	r3, [r3]
 2848 00e2 FA68     		ldr	r2, [r7, #12]
 2849 00e4 1268     		ldr	r2, [r2]
 2850 00e6 D268     		ldr	r2, [r2, #12]
 2851 00e8 42F48062 		orr	r2, r2, #1024
 2852 00ec DA60     		str	r2, [r3, #12]
1359:Drivers/STM32F4xx_HAL_Driver/Src/stm32f4xx_hal_tim.c ****     }
1360:Drivers/STM32F4xx_HAL_Driver/Src/stm32f4xx_hal_tim.c ****     break;
 2853              		.loc 1 1360 0
 2854 00ee 36E0     		b	.L165
 2855              	.L163:
1361:Drivers/STM32F4xx_HAL_Driver/Src/stm32f4xx_hal_tim.c ****     
1362:Drivers/STM32F4xx_HAL_Driver/Src/stm32f4xx_hal_tim.c ****     case TIM_CHANNEL_3:
1363:Drivers/STM32F4xx_HAL_Driver/Src/stm32f4xx_hal_tim.c ****     {
ARM GAS  /tmp/cc4tSQEQ.s 			page 74


1364:Drivers/STM32F4xx_HAL_Driver/Src/stm32f4xx_hal_tim.c ****       /* Set the DMA Period elapsed callback */
1365:Drivers/STM32F4xx_HAL_Driver/Src/stm32f4xx_hal_tim.c ****       htim->hdma[TIM_DMA_ID_CC3]->XferCpltCallback = TIM_DMADelayPulseCplt;
 2856              		.loc 1 1365 0
 2857 00f0 FB68     		ldr	r3, [r7, #12]
 2858 00f2 9B6A     		ldr	r3, [r3, #40]
 2859 00f4 2A4A     		ldr	r2, .L168
 2860 00f6 DA63     		str	r2, [r3, #60]
1366:Drivers/STM32F4xx_HAL_Driver/Src/stm32f4xx_hal_tim.c ****      
1367:Drivers/STM32F4xx_HAL_Driver/Src/stm32f4xx_hal_tim.c ****       /* Set the DMA error callback */
1368:Drivers/STM32F4xx_HAL_Driver/Src/stm32f4xx_hal_tim.c ****       htim->hdma[TIM_DMA_ID_CC3]->XferErrorCallback = TIM_DMAError ;
 2861              		.loc 1 1368 0
 2862 00f8 FB68     		ldr	r3, [r7, #12]
 2863 00fa 9B6A     		ldr	r3, [r3, #40]
 2864 00fc 294A     		ldr	r2, .L168+4
 2865 00fe DA64     		str	r2, [r3, #76]
1369:Drivers/STM32F4xx_HAL_Driver/Src/stm32f4xx_hal_tim.c ****       
1370:Drivers/STM32F4xx_HAL_Driver/Src/stm32f4xx_hal_tim.c ****       /* Enable the DMA Stream */
1371:Drivers/STM32F4xx_HAL_Driver/Src/stm32f4xx_hal_tim.c ****       HAL_DMA_Start_IT(htim->hdma[TIM_DMA_ID_CC3], (uint32_t)pData, (uint32_t)&htim->Instance->CCR3
 2866              		.loc 1 1371 0
 2867 0100 FB68     		ldr	r3, [r7, #12]
 2868 0102 986A     		ldr	r0, [r3, #40]
 2869 0104 7968     		ldr	r1, [r7, #4]
 2870 0106 FB68     		ldr	r3, [r7, #12]
 2871 0108 1B68     		ldr	r3, [r3]
 2872 010a 3C33     		adds	r3, r3, #60
 2873 010c 1A46     		mov	r2, r3
 2874 010e 7B88     		ldrh	r3, [r7, #2]
 2875 0110 FFF7FEFF 		bl	HAL_DMA_Start_IT
1372:Drivers/STM32F4xx_HAL_Driver/Src/stm32f4xx_hal_tim.c ****       
1373:Drivers/STM32F4xx_HAL_Driver/Src/stm32f4xx_hal_tim.c ****       /* Enable the TIM Output Capture/Compare 3 request */
1374:Drivers/STM32F4xx_HAL_Driver/Src/stm32f4xx_hal_tim.c ****       __HAL_TIM_ENABLE_DMA(htim, TIM_DMA_CC3);
 2876              		.loc 1 1374 0
 2877 0114 FB68     		ldr	r3, [r7, #12]
 2878 0116 1B68     		ldr	r3, [r3]
 2879 0118 FA68     		ldr	r2, [r7, #12]
 2880 011a 1268     		ldr	r2, [r2]
 2881 011c D268     		ldr	r2, [r2, #12]
 2882 011e 42F40062 		orr	r2, r2, #2048
 2883 0122 DA60     		str	r2, [r3, #12]
1375:Drivers/STM32F4xx_HAL_Driver/Src/stm32f4xx_hal_tim.c ****     }
1376:Drivers/STM32F4xx_HAL_Driver/Src/stm32f4xx_hal_tim.c ****     break;
 2884              		.loc 1 1376 0
 2885 0124 1BE0     		b	.L165
 2886              	.L164:
1377:Drivers/STM32F4xx_HAL_Driver/Src/stm32f4xx_hal_tim.c ****     
1378:Drivers/STM32F4xx_HAL_Driver/Src/stm32f4xx_hal_tim.c ****     case TIM_CHANNEL_4:
1379:Drivers/STM32F4xx_HAL_Driver/Src/stm32f4xx_hal_tim.c ****     {
1380:Drivers/STM32F4xx_HAL_Driver/Src/stm32f4xx_hal_tim.c ****      /* Set the DMA Period elapsed callback */
1381:Drivers/STM32F4xx_HAL_Driver/Src/stm32f4xx_hal_tim.c ****       htim->hdma[TIM_DMA_ID_CC4]->XferCpltCallback = TIM_DMADelayPulseCplt;
 2887              		.loc 1 1381 0
 2888 0126 FB68     		ldr	r3, [r7, #12]
 2889 0128 DB6A     		ldr	r3, [r3, #44]
 2890 012a 1D4A     		ldr	r2, .L168
 2891 012c DA63     		str	r2, [r3, #60]
1382:Drivers/STM32F4xx_HAL_Driver/Src/stm32f4xx_hal_tim.c ****      
1383:Drivers/STM32F4xx_HAL_Driver/Src/stm32f4xx_hal_tim.c ****       /* Set the DMA error callback */
1384:Drivers/STM32F4xx_HAL_Driver/Src/stm32f4xx_hal_tim.c ****       htim->hdma[TIM_DMA_ID_CC4]->XferErrorCallback = TIM_DMAError ;
ARM GAS  /tmp/cc4tSQEQ.s 			page 75


 2892              		.loc 1 1384 0
 2893 012e FB68     		ldr	r3, [r7, #12]
 2894 0130 DB6A     		ldr	r3, [r3, #44]
 2895 0132 1C4A     		ldr	r2, .L168+4
 2896 0134 DA64     		str	r2, [r3, #76]
1385:Drivers/STM32F4xx_HAL_Driver/Src/stm32f4xx_hal_tim.c ****       
1386:Drivers/STM32F4xx_HAL_Driver/Src/stm32f4xx_hal_tim.c ****       /* Enable the DMA Stream */
1387:Drivers/STM32F4xx_HAL_Driver/Src/stm32f4xx_hal_tim.c ****       HAL_DMA_Start_IT(htim->hdma[TIM_DMA_ID_CC4], (uint32_t)pData, (uint32_t)&htim->Instance->CCR4
 2897              		.loc 1 1387 0
 2898 0136 FB68     		ldr	r3, [r7, #12]
 2899 0138 D86A     		ldr	r0, [r3, #44]
 2900 013a 7968     		ldr	r1, [r7, #4]
 2901 013c FB68     		ldr	r3, [r7, #12]
 2902 013e 1B68     		ldr	r3, [r3]
 2903 0140 4033     		adds	r3, r3, #64
 2904 0142 1A46     		mov	r2, r3
 2905 0144 7B88     		ldrh	r3, [r7, #2]
 2906 0146 FFF7FEFF 		bl	HAL_DMA_Start_IT
1388:Drivers/STM32F4xx_HAL_Driver/Src/stm32f4xx_hal_tim.c ****       
1389:Drivers/STM32F4xx_HAL_Driver/Src/stm32f4xx_hal_tim.c ****       /* Enable the TIM Capture/Compare 4 DMA request */
1390:Drivers/STM32F4xx_HAL_Driver/Src/stm32f4xx_hal_tim.c ****       __HAL_TIM_ENABLE_DMA(htim, TIM_DMA_CC4);
 2907              		.loc 1 1390 0
 2908 014a FB68     		ldr	r3, [r7, #12]
 2909 014c 1B68     		ldr	r3, [r3]
 2910 014e FA68     		ldr	r2, [r7, #12]
 2911 0150 1268     		ldr	r2, [r2]
 2912 0152 D268     		ldr	r2, [r2, #12]
 2913 0154 42F48052 		orr	r2, r2, #4096
 2914 0158 DA60     		str	r2, [r3, #12]
1391:Drivers/STM32F4xx_HAL_Driver/Src/stm32f4xx_hal_tim.c ****     }
1392:Drivers/STM32F4xx_HAL_Driver/Src/stm32f4xx_hal_tim.c ****     break;
 2915              		.loc 1 1392 0
 2916 015a 00E0     		b	.L165
 2917              	.L167:
1393:Drivers/STM32F4xx_HAL_Driver/Src/stm32f4xx_hal_tim.c ****     
1394:Drivers/STM32F4xx_HAL_Driver/Src/stm32f4xx_hal_tim.c ****     default:
1395:Drivers/STM32F4xx_HAL_Driver/Src/stm32f4xx_hal_tim.c ****     break;
 2918              		.loc 1 1395 0
 2919 015c 00BF     		nop
 2920              	.L165:
1396:Drivers/STM32F4xx_HAL_Driver/Src/stm32f4xx_hal_tim.c ****   }
1397:Drivers/STM32F4xx_HAL_Driver/Src/stm32f4xx_hal_tim.c **** 
1398:Drivers/STM32F4xx_HAL_Driver/Src/stm32f4xx_hal_tim.c ****   /* Enable the Capture compare channel */
1399:Drivers/STM32F4xx_HAL_Driver/Src/stm32f4xx_hal_tim.c ****   TIM_CCxChannelCmd(htim->Instance, Channel, TIM_CCx_ENABLE);
 2921              		.loc 1 1399 0
 2922 015e FB68     		ldr	r3, [r7, #12]
 2923 0160 1B68     		ldr	r3, [r3]
 2924 0162 0122     		movs	r2, #1
 2925 0164 B968     		ldr	r1, [r7, #8]
 2926 0166 1846     		mov	r0, r3
 2927 0168 FFF7FEFF 		bl	TIM_CCxChannelCmd
1400:Drivers/STM32F4xx_HAL_Driver/Src/stm32f4xx_hal_tim.c ****     
1401:Drivers/STM32F4xx_HAL_Driver/Src/stm32f4xx_hal_tim.c ****   if(IS_TIM_ADVANCED_INSTANCE(htim->Instance) != RESET)  
 2928              		.loc 1 1401 0
 2929 016c FB68     		ldr	r3, [r7, #12]
 2930 016e 1B68     		ldr	r3, [r3]
 2931 0170 0D4A     		ldr	r2, .L168+8
ARM GAS  /tmp/cc4tSQEQ.s 			page 76


 2932 0172 9342     		cmp	r3, r2
 2933 0174 07D1     		bne	.L166
1402:Drivers/STM32F4xx_HAL_Driver/Src/stm32f4xx_hal_tim.c ****   {
1403:Drivers/STM32F4xx_HAL_Driver/Src/stm32f4xx_hal_tim.c ****     /* Enable the main output */
1404:Drivers/STM32F4xx_HAL_Driver/Src/stm32f4xx_hal_tim.c ****     __HAL_TIM_MOE_ENABLE(htim);
 2934              		.loc 1 1404 0
 2935 0176 FB68     		ldr	r3, [r7, #12]
 2936 0178 1B68     		ldr	r3, [r3]
 2937 017a FA68     		ldr	r2, [r7, #12]
 2938 017c 1268     		ldr	r2, [r2]
 2939 017e 526C     		ldr	r2, [r2, #68]
 2940 0180 42F40042 		orr	r2, r2, #32768
 2941 0184 5A64     		str	r2, [r3, #68]
 2942              	.L166:
1405:Drivers/STM32F4xx_HAL_Driver/Src/stm32f4xx_hal_tim.c ****   }
1406:Drivers/STM32F4xx_HAL_Driver/Src/stm32f4xx_hal_tim.c ****   
1407:Drivers/STM32F4xx_HAL_Driver/Src/stm32f4xx_hal_tim.c ****   /* Enable the Peripheral */
1408:Drivers/STM32F4xx_HAL_Driver/Src/stm32f4xx_hal_tim.c ****   __HAL_TIM_ENABLE(htim); 
 2943              		.loc 1 1408 0
 2944 0186 FB68     		ldr	r3, [r7, #12]
 2945 0188 1B68     		ldr	r3, [r3]
 2946 018a FA68     		ldr	r2, [r7, #12]
 2947 018c 1268     		ldr	r2, [r2]
 2948 018e 1268     		ldr	r2, [r2]
 2949 0190 42F00102 		orr	r2, r2, #1
 2950 0194 1A60     		str	r2, [r3]
1409:Drivers/STM32F4xx_HAL_Driver/Src/stm32f4xx_hal_tim.c ****   
1410:Drivers/STM32F4xx_HAL_Driver/Src/stm32f4xx_hal_tim.c ****   /* Return function status */
1411:Drivers/STM32F4xx_HAL_Driver/Src/stm32f4xx_hal_tim.c ****   return HAL_OK;
 2951              		.loc 1 1411 0
 2952 0196 0023     		movs	r3, #0
 2953              	.L156:
1412:Drivers/STM32F4xx_HAL_Driver/Src/stm32f4xx_hal_tim.c **** }
 2954              		.loc 1 1412 0
 2955 0198 1846     		mov	r0, r3
 2956 019a 1037     		adds	r7, r7, #16
 2957              	.LCFI154:
 2958              		.cfi_def_cfa_offset 8
 2959 019c BD46     		mov	sp, r7
 2960              	.LCFI155:
 2961              		.cfi_def_cfa_register 13
 2962              		@ sp needed
 2963 019e 80BD     		pop	{r7, pc}
 2964              	.L169:
 2965              		.align	2
 2966              	.L168:
 2967 01a0 00000000 		.word	TIM_DMADelayPulseCplt
 2968 01a4 00000000 		.word	TIM_DMAError
 2969 01a8 00000140 		.word	1073807360
 2970              		.cfi_endproc
 2971              	.LFE152:
 2973              		.section	.text.HAL_TIM_PWM_Stop_DMA,"ax",%progbits
 2974              		.align	1
 2975              		.global	HAL_TIM_PWM_Stop_DMA
 2976              		.syntax unified
 2977              		.thumb
 2978              		.thumb_func
ARM GAS  /tmp/cc4tSQEQ.s 			page 77


 2979              		.fpu fpv4-sp-d16
 2981              	HAL_TIM_PWM_Stop_DMA:
 2982              	.LFB153:
1413:Drivers/STM32F4xx_HAL_Driver/Src/stm32f4xx_hal_tim.c **** 
1414:Drivers/STM32F4xx_HAL_Driver/Src/stm32f4xx_hal_tim.c **** /**
1415:Drivers/STM32F4xx_HAL_Driver/Src/stm32f4xx_hal_tim.c ****   * @brief  Stops the TIM PWM signal generation in DMA mode.
1416:Drivers/STM32F4xx_HAL_Driver/Src/stm32f4xx_hal_tim.c ****   * @param  htim pointer to a TIM_HandleTypeDef structure that contains
1417:Drivers/STM32F4xx_HAL_Driver/Src/stm32f4xx_hal_tim.c ****   *                the configuration information for TIM module.
1418:Drivers/STM32F4xx_HAL_Driver/Src/stm32f4xx_hal_tim.c ****   * @param  Channel TIM Channels to be disabled.
1419:Drivers/STM32F4xx_HAL_Driver/Src/stm32f4xx_hal_tim.c ****   *          This parameter can be one of the following values:
1420:Drivers/STM32F4xx_HAL_Driver/Src/stm32f4xx_hal_tim.c ****   *            @arg TIM_CHANNEL_1: TIM Channel 1 selected
1421:Drivers/STM32F4xx_HAL_Driver/Src/stm32f4xx_hal_tim.c ****   *            @arg TIM_CHANNEL_2: TIM Channel 2 selected
1422:Drivers/STM32F4xx_HAL_Driver/Src/stm32f4xx_hal_tim.c ****   *            @arg TIM_CHANNEL_3: TIM Channel 3 selected
1423:Drivers/STM32F4xx_HAL_Driver/Src/stm32f4xx_hal_tim.c ****   *            @arg TIM_CHANNEL_4: TIM Channel 4 selected
1424:Drivers/STM32F4xx_HAL_Driver/Src/stm32f4xx_hal_tim.c ****   * @retval HAL status
1425:Drivers/STM32F4xx_HAL_Driver/Src/stm32f4xx_hal_tim.c ****   */
1426:Drivers/STM32F4xx_HAL_Driver/Src/stm32f4xx_hal_tim.c **** HAL_StatusTypeDef HAL_TIM_PWM_Stop_DMA(TIM_HandleTypeDef *htim, uint32_t Channel)
1427:Drivers/STM32F4xx_HAL_Driver/Src/stm32f4xx_hal_tim.c **** {
 2983              		.loc 1 1427 0
 2984              		.cfi_startproc
 2985              		@ args = 0, pretend = 0, frame = 8
 2986              		@ frame_needed = 1, uses_anonymous_args = 0
 2987 0000 80B5     		push	{r7, lr}
 2988              	.LCFI156:
 2989              		.cfi_def_cfa_offset 8
 2990              		.cfi_offset 7, -8
 2991              		.cfi_offset 14, -4
 2992 0002 82B0     		sub	sp, sp, #8
 2993              	.LCFI157:
 2994              		.cfi_def_cfa_offset 16
 2995 0004 00AF     		add	r7, sp, #0
 2996              	.LCFI158:
 2997              		.cfi_def_cfa_register 7
 2998 0006 7860     		str	r0, [r7, #4]
 2999 0008 3960     		str	r1, [r7]
1428:Drivers/STM32F4xx_HAL_Driver/Src/stm32f4xx_hal_tim.c ****   /* Check the parameters */
1429:Drivers/STM32F4xx_HAL_Driver/Src/stm32f4xx_hal_tim.c ****   assert_param(IS_TIM_CCX_INSTANCE(htim->Instance, Channel));
1430:Drivers/STM32F4xx_HAL_Driver/Src/stm32f4xx_hal_tim.c ****   
1431:Drivers/STM32F4xx_HAL_Driver/Src/stm32f4xx_hal_tim.c ****   switch (Channel)
 3000              		.loc 1 1431 0
 3001 000a 3B68     		ldr	r3, [r7]
 3002 000c 0C2B     		cmp	r3, #12
 3003 000e 41D8     		bhi	.L181
 3004 0010 01A2     		adr	r2, .L173
 3005 0012 52F823F0 		ldr	pc, [r2, r3, lsl #2]
 3006 0016 00BF     		.p2align 2
 3007              	.L173:
 3008 0018 4D000000 		.word	.L172+1
 3009 001c 95000000 		.word	.L181+1
 3010 0020 95000000 		.word	.L181+1
 3011 0024 95000000 		.word	.L181+1
 3012 0028 5F000000 		.word	.L174+1
 3013 002c 95000000 		.word	.L181+1
 3014 0030 95000000 		.word	.L181+1
 3015 0034 95000000 		.word	.L181+1
 3016 0038 71000000 		.word	.L175+1
 3017 003c 95000000 		.word	.L181+1
ARM GAS  /tmp/cc4tSQEQ.s 			page 78


 3018 0040 95000000 		.word	.L181+1
 3019 0044 95000000 		.word	.L181+1
 3020 0048 83000000 		.word	.L176+1
 3021              		.p2align 1
 3022              	.L172:
1432:Drivers/STM32F4xx_HAL_Driver/Src/stm32f4xx_hal_tim.c ****   {
1433:Drivers/STM32F4xx_HAL_Driver/Src/stm32f4xx_hal_tim.c ****     case TIM_CHANNEL_1:
1434:Drivers/STM32F4xx_HAL_Driver/Src/stm32f4xx_hal_tim.c ****     {       
1435:Drivers/STM32F4xx_HAL_Driver/Src/stm32f4xx_hal_tim.c ****       /* Disable the TIM Capture/Compare 1 DMA request */
1436:Drivers/STM32F4xx_HAL_Driver/Src/stm32f4xx_hal_tim.c ****       __HAL_TIM_DISABLE_DMA(htim, TIM_DMA_CC1);
 3023              		.loc 1 1436 0
 3024 004c 7B68     		ldr	r3, [r7, #4]
 3025 004e 1B68     		ldr	r3, [r3]
 3026 0050 7A68     		ldr	r2, [r7, #4]
 3027 0052 1268     		ldr	r2, [r2]
 3028 0054 D268     		ldr	r2, [r2, #12]
 3029 0056 22F40072 		bic	r2, r2, #512
 3030 005a DA60     		str	r2, [r3, #12]
1437:Drivers/STM32F4xx_HAL_Driver/Src/stm32f4xx_hal_tim.c ****     }
1438:Drivers/STM32F4xx_HAL_Driver/Src/stm32f4xx_hal_tim.c ****     break;
 3031              		.loc 1 1438 0
 3032 005c 1BE0     		b	.L177
 3033              	.L174:
1439:Drivers/STM32F4xx_HAL_Driver/Src/stm32f4xx_hal_tim.c ****     
1440:Drivers/STM32F4xx_HAL_Driver/Src/stm32f4xx_hal_tim.c ****     case TIM_CHANNEL_2:
1441:Drivers/STM32F4xx_HAL_Driver/Src/stm32f4xx_hal_tim.c ****     {
1442:Drivers/STM32F4xx_HAL_Driver/Src/stm32f4xx_hal_tim.c ****       /* Disable the TIM Capture/Compare 2 DMA request */
1443:Drivers/STM32F4xx_HAL_Driver/Src/stm32f4xx_hal_tim.c ****       __HAL_TIM_DISABLE_DMA(htim, TIM_DMA_CC2);
 3034              		.loc 1 1443 0
 3035 005e 7B68     		ldr	r3, [r7, #4]
 3036 0060 1B68     		ldr	r3, [r3]
 3037 0062 7A68     		ldr	r2, [r7, #4]
 3038 0064 1268     		ldr	r2, [r2]
 3039 0066 D268     		ldr	r2, [r2, #12]
 3040 0068 22F48062 		bic	r2, r2, #1024
 3041 006c DA60     		str	r2, [r3, #12]
1444:Drivers/STM32F4xx_HAL_Driver/Src/stm32f4xx_hal_tim.c ****     }
1445:Drivers/STM32F4xx_HAL_Driver/Src/stm32f4xx_hal_tim.c ****     break;
 3042              		.loc 1 1445 0
 3043 006e 12E0     		b	.L177
 3044              	.L175:
1446:Drivers/STM32F4xx_HAL_Driver/Src/stm32f4xx_hal_tim.c ****     
1447:Drivers/STM32F4xx_HAL_Driver/Src/stm32f4xx_hal_tim.c ****     case TIM_CHANNEL_3:
1448:Drivers/STM32F4xx_HAL_Driver/Src/stm32f4xx_hal_tim.c ****     {
1449:Drivers/STM32F4xx_HAL_Driver/Src/stm32f4xx_hal_tim.c ****       /* Disable the TIM Capture/Compare 3 DMA request */
1450:Drivers/STM32F4xx_HAL_Driver/Src/stm32f4xx_hal_tim.c ****       __HAL_TIM_DISABLE_DMA(htim, TIM_DMA_CC3);
 3045              		.loc 1 1450 0
 3046 0070 7B68     		ldr	r3, [r7, #4]
 3047 0072 1B68     		ldr	r3, [r3]
 3048 0074 7A68     		ldr	r2, [r7, #4]
 3049 0076 1268     		ldr	r2, [r2]
 3050 0078 D268     		ldr	r2, [r2, #12]
 3051 007a 22F40062 		bic	r2, r2, #2048
 3052 007e DA60     		str	r2, [r3, #12]
1451:Drivers/STM32F4xx_HAL_Driver/Src/stm32f4xx_hal_tim.c ****     }
1452:Drivers/STM32F4xx_HAL_Driver/Src/stm32f4xx_hal_tim.c ****     break;
 3053              		.loc 1 1452 0
ARM GAS  /tmp/cc4tSQEQ.s 			page 79


 3054 0080 09E0     		b	.L177
 3055              	.L176:
1453:Drivers/STM32F4xx_HAL_Driver/Src/stm32f4xx_hal_tim.c ****     
1454:Drivers/STM32F4xx_HAL_Driver/Src/stm32f4xx_hal_tim.c ****     case TIM_CHANNEL_4:
1455:Drivers/STM32F4xx_HAL_Driver/Src/stm32f4xx_hal_tim.c ****     {
1456:Drivers/STM32F4xx_HAL_Driver/Src/stm32f4xx_hal_tim.c ****       /* Disable the TIM Capture/Compare 4 interrupt */
1457:Drivers/STM32F4xx_HAL_Driver/Src/stm32f4xx_hal_tim.c ****       __HAL_TIM_DISABLE_DMA(htim, TIM_DMA_CC4);
 3056              		.loc 1 1457 0
 3057 0082 7B68     		ldr	r3, [r7, #4]
 3058 0084 1B68     		ldr	r3, [r3]
 3059 0086 7A68     		ldr	r2, [r7, #4]
 3060 0088 1268     		ldr	r2, [r2]
 3061 008a D268     		ldr	r2, [r2, #12]
 3062 008c 22F48052 		bic	r2, r2, #4096
 3063 0090 DA60     		str	r2, [r3, #12]
1458:Drivers/STM32F4xx_HAL_Driver/Src/stm32f4xx_hal_tim.c ****     }
1459:Drivers/STM32F4xx_HAL_Driver/Src/stm32f4xx_hal_tim.c ****     break;
 3064              		.loc 1 1459 0
 3065 0092 00E0     		b	.L177
 3066              	.L181:
1460:Drivers/STM32F4xx_HAL_Driver/Src/stm32f4xx_hal_tim.c ****     
1461:Drivers/STM32F4xx_HAL_Driver/Src/stm32f4xx_hal_tim.c ****     default:
1462:Drivers/STM32F4xx_HAL_Driver/Src/stm32f4xx_hal_tim.c ****     break;
 3067              		.loc 1 1462 0
 3068 0094 00BF     		nop
 3069              	.L177:
1463:Drivers/STM32F4xx_HAL_Driver/Src/stm32f4xx_hal_tim.c ****   } 
1464:Drivers/STM32F4xx_HAL_Driver/Src/stm32f4xx_hal_tim.c ****   
1465:Drivers/STM32F4xx_HAL_Driver/Src/stm32f4xx_hal_tim.c ****   /* Disable the Capture compare channel */
1466:Drivers/STM32F4xx_HAL_Driver/Src/stm32f4xx_hal_tim.c ****   TIM_CCxChannelCmd(htim->Instance, Channel, TIM_CCx_DISABLE);
 3070              		.loc 1 1466 0
 3071 0096 7B68     		ldr	r3, [r7, #4]
 3072 0098 1B68     		ldr	r3, [r3]
 3073 009a 0022     		movs	r2, #0
 3074 009c 3968     		ldr	r1, [r7]
 3075 009e 1846     		mov	r0, r3
 3076 00a0 FFF7FEFF 		bl	TIM_CCxChannelCmd
1467:Drivers/STM32F4xx_HAL_Driver/Src/stm32f4xx_hal_tim.c ****   
1468:Drivers/STM32F4xx_HAL_Driver/Src/stm32f4xx_hal_tim.c ****   if(IS_TIM_ADVANCED_INSTANCE(htim->Instance) != RESET)  
 3077              		.loc 1 1468 0
 3078 00a4 7B68     		ldr	r3, [r7, #4]
 3079 00a6 1B68     		ldr	r3, [r3]
 3080 00a8 1D4A     		ldr	r2, .L182
 3081 00aa 9342     		cmp	r3, r2
 3082 00ac 17D1     		bne	.L178
1469:Drivers/STM32F4xx_HAL_Driver/Src/stm32f4xx_hal_tim.c ****   {
1470:Drivers/STM32F4xx_HAL_Driver/Src/stm32f4xx_hal_tim.c ****     /* Disable the Main Output */
1471:Drivers/STM32F4xx_HAL_Driver/Src/stm32f4xx_hal_tim.c ****     __HAL_TIM_MOE_DISABLE(htim);
 3083              		.loc 1 1471 0
 3084 00ae 7B68     		ldr	r3, [r7, #4]
 3085 00b0 1B68     		ldr	r3, [r3]
 3086 00b2 1A6A     		ldr	r2, [r3, #32]
 3087 00b4 41F21113 		movw	r3, #4369
 3088 00b8 1340     		ands	r3, r3, r2
 3089 00ba 002B     		cmp	r3, #0
 3090 00bc 0FD1     		bne	.L178
 3091              		.loc 1 1471 0 is_stmt 0 discriminator 1
ARM GAS  /tmp/cc4tSQEQ.s 			page 80


 3092 00be 7B68     		ldr	r3, [r7, #4]
 3093 00c0 1B68     		ldr	r3, [r3]
 3094 00c2 1A6A     		ldr	r2, [r3, #32]
 3095 00c4 40F24443 		movw	r3, #1092
 3096 00c8 1340     		ands	r3, r3, r2
 3097 00ca 002B     		cmp	r3, #0
 3098 00cc 07D1     		bne	.L178
 3099              		.loc 1 1471 0 discriminator 2
 3100 00ce 7B68     		ldr	r3, [r7, #4]
 3101 00d0 1B68     		ldr	r3, [r3]
 3102 00d2 7A68     		ldr	r2, [r7, #4]
 3103 00d4 1268     		ldr	r2, [r2]
 3104 00d6 526C     		ldr	r2, [r2, #68]
 3105 00d8 22F40042 		bic	r2, r2, #32768
 3106 00dc 5A64     		str	r2, [r3, #68]
 3107              	.L178:
1472:Drivers/STM32F4xx_HAL_Driver/Src/stm32f4xx_hal_tim.c ****   }
1473:Drivers/STM32F4xx_HAL_Driver/Src/stm32f4xx_hal_tim.c ****   
1474:Drivers/STM32F4xx_HAL_Driver/Src/stm32f4xx_hal_tim.c ****   /* Disable the Peripheral */
1475:Drivers/STM32F4xx_HAL_Driver/Src/stm32f4xx_hal_tim.c ****   __HAL_TIM_DISABLE(htim);
 3108              		.loc 1 1475 0 is_stmt 1
 3109 00de 7B68     		ldr	r3, [r7, #4]
 3110 00e0 1B68     		ldr	r3, [r3]
 3111 00e2 1A6A     		ldr	r2, [r3, #32]
 3112 00e4 41F21113 		movw	r3, #4369
 3113 00e8 1340     		ands	r3, r3, r2
 3114 00ea 002B     		cmp	r3, #0
 3115 00ec 0FD1     		bne	.L179
 3116              		.loc 1 1475 0 is_stmt 0 discriminator 1
 3117 00ee 7B68     		ldr	r3, [r7, #4]
 3118 00f0 1B68     		ldr	r3, [r3]
 3119 00f2 1A6A     		ldr	r2, [r3, #32]
 3120 00f4 40F24443 		movw	r3, #1092
 3121 00f8 1340     		ands	r3, r3, r2
 3122 00fa 002B     		cmp	r3, #0
 3123 00fc 07D1     		bne	.L179
 3124              		.loc 1 1475 0 discriminator 2
 3125 00fe 7B68     		ldr	r3, [r7, #4]
 3126 0100 1B68     		ldr	r3, [r3]
 3127 0102 7A68     		ldr	r2, [r7, #4]
 3128 0104 1268     		ldr	r2, [r2]
 3129 0106 1268     		ldr	r2, [r2]
 3130 0108 22F00102 		bic	r2, r2, #1
 3131 010c 1A60     		str	r2, [r3]
 3132              	.L179:
1476:Drivers/STM32F4xx_HAL_Driver/Src/stm32f4xx_hal_tim.c ****   
1477:Drivers/STM32F4xx_HAL_Driver/Src/stm32f4xx_hal_tim.c ****   /* Change the htim state */
1478:Drivers/STM32F4xx_HAL_Driver/Src/stm32f4xx_hal_tim.c ****   htim->State = HAL_TIM_STATE_READY;
 3133              		.loc 1 1478 0 is_stmt 1
 3134 010e 7B68     		ldr	r3, [r7, #4]
 3135 0110 0122     		movs	r2, #1
 3136 0112 83F83920 		strb	r2, [r3, #57]
1479:Drivers/STM32F4xx_HAL_Driver/Src/stm32f4xx_hal_tim.c ****   
1480:Drivers/STM32F4xx_HAL_Driver/Src/stm32f4xx_hal_tim.c ****   /* Return function status */
1481:Drivers/STM32F4xx_HAL_Driver/Src/stm32f4xx_hal_tim.c ****   return HAL_OK;
 3137              		.loc 1 1481 0
 3138 0116 0023     		movs	r3, #0
ARM GAS  /tmp/cc4tSQEQ.s 			page 81


1482:Drivers/STM32F4xx_HAL_Driver/Src/stm32f4xx_hal_tim.c **** }
 3139              		.loc 1 1482 0
 3140 0118 1846     		mov	r0, r3
 3141 011a 0837     		adds	r7, r7, #8
 3142              	.LCFI159:
 3143              		.cfi_def_cfa_offset 8
 3144 011c BD46     		mov	sp, r7
 3145              	.LCFI160:
 3146              		.cfi_def_cfa_register 13
 3147              		@ sp needed
 3148 011e 80BD     		pop	{r7, pc}
 3149              	.L183:
 3150              		.align	2
 3151              	.L182:
 3152 0120 00000140 		.word	1073807360
 3153              		.cfi_endproc
 3154              	.LFE153:
 3156              		.section	.text.HAL_TIM_IC_Init,"ax",%progbits
 3157              		.align	1
 3158              		.global	HAL_TIM_IC_Init
 3159              		.syntax unified
 3160              		.thumb
 3161              		.thumb_func
 3162              		.fpu fpv4-sp-d16
 3164              	HAL_TIM_IC_Init:
 3165              	.LFB154:
1483:Drivers/STM32F4xx_HAL_Driver/Src/stm32f4xx_hal_tim.c **** /**
1484:Drivers/STM32F4xx_HAL_Driver/Src/stm32f4xx_hal_tim.c ****   * @}
1485:Drivers/STM32F4xx_HAL_Driver/Src/stm32f4xx_hal_tim.c ****   */
1486:Drivers/STM32F4xx_HAL_Driver/Src/stm32f4xx_hal_tim.c **** 
1487:Drivers/STM32F4xx_HAL_Driver/Src/stm32f4xx_hal_tim.c **** /** @defgroup TIM_Exported_Functions_Group4 Time Input Capture functions 
1488:Drivers/STM32F4xx_HAL_Driver/Src/stm32f4xx_hal_tim.c ****  *  @brief    Time Input Capture functions 
1489:Drivers/STM32F4xx_HAL_Driver/Src/stm32f4xx_hal_tim.c ****  *
1490:Drivers/STM32F4xx_HAL_Driver/Src/stm32f4xx_hal_tim.c **** @verbatim    
1491:Drivers/STM32F4xx_HAL_Driver/Src/stm32f4xx_hal_tim.c ****   ==============================================================================
1492:Drivers/STM32F4xx_HAL_Driver/Src/stm32f4xx_hal_tim.c ****               ##### Time Input Capture functions #####
1493:Drivers/STM32F4xx_HAL_Driver/Src/stm32f4xx_hal_tim.c ****   ==============================================================================
1494:Drivers/STM32F4xx_HAL_Driver/Src/stm32f4xx_hal_tim.c ****  [..]  
1495:Drivers/STM32F4xx_HAL_Driver/Src/stm32f4xx_hal_tim.c ****    This section provides functions allowing to:
1496:Drivers/STM32F4xx_HAL_Driver/Src/stm32f4xx_hal_tim.c ****    (+) Initialize and configure the TIM Input Capture. 
1497:Drivers/STM32F4xx_HAL_Driver/Src/stm32f4xx_hal_tim.c ****    (+) De-initialize the TIM Input Capture.
1498:Drivers/STM32F4xx_HAL_Driver/Src/stm32f4xx_hal_tim.c ****    (+) Start the Time Input Capture.
1499:Drivers/STM32F4xx_HAL_Driver/Src/stm32f4xx_hal_tim.c ****    (+) Stop the Time Input Capture.
1500:Drivers/STM32F4xx_HAL_Driver/Src/stm32f4xx_hal_tim.c ****    (+) Start the Time Input Capture and enable interrupt.
1501:Drivers/STM32F4xx_HAL_Driver/Src/stm32f4xx_hal_tim.c ****    (+) Stop the Time Input Capture and disable interrupt.
1502:Drivers/STM32F4xx_HAL_Driver/Src/stm32f4xx_hal_tim.c ****    (+) Start the Time Input Capture and enable DMA transfer.
1503:Drivers/STM32F4xx_HAL_Driver/Src/stm32f4xx_hal_tim.c ****    (+) Stop the Time Input Capture and disable DMA transfer.
1504:Drivers/STM32F4xx_HAL_Driver/Src/stm32f4xx_hal_tim.c ****  
1505:Drivers/STM32F4xx_HAL_Driver/Src/stm32f4xx_hal_tim.c **** @endverbatim
1506:Drivers/STM32F4xx_HAL_Driver/Src/stm32f4xx_hal_tim.c ****   * @{
1507:Drivers/STM32F4xx_HAL_Driver/Src/stm32f4xx_hal_tim.c ****   */
1508:Drivers/STM32F4xx_HAL_Driver/Src/stm32f4xx_hal_tim.c **** /**
1509:Drivers/STM32F4xx_HAL_Driver/Src/stm32f4xx_hal_tim.c ****   * @brief  Initializes the TIM Input Capture Time base according to the specified
1510:Drivers/STM32F4xx_HAL_Driver/Src/stm32f4xx_hal_tim.c ****   *         parameters in the TIM_HandleTypeDef and create the associated handle.
1511:Drivers/STM32F4xx_HAL_Driver/Src/stm32f4xx_hal_tim.c ****   * @param  htim pointer to a TIM_HandleTypeDef structure that contains
1512:Drivers/STM32F4xx_HAL_Driver/Src/stm32f4xx_hal_tim.c ****   *                the configuration information for TIM module.
1513:Drivers/STM32F4xx_HAL_Driver/Src/stm32f4xx_hal_tim.c ****   * @retval HAL status
ARM GAS  /tmp/cc4tSQEQ.s 			page 82


1514:Drivers/STM32F4xx_HAL_Driver/Src/stm32f4xx_hal_tim.c ****   */
1515:Drivers/STM32F4xx_HAL_Driver/Src/stm32f4xx_hal_tim.c **** HAL_StatusTypeDef HAL_TIM_IC_Init(TIM_HandleTypeDef *htim)
1516:Drivers/STM32F4xx_HAL_Driver/Src/stm32f4xx_hal_tim.c **** {
 3166              		.loc 1 1516 0
 3167              		.cfi_startproc
 3168              		@ args = 0, pretend = 0, frame = 8
 3169              		@ frame_needed = 1, uses_anonymous_args = 0
 3170 0000 80B5     		push	{r7, lr}
 3171              	.LCFI161:
 3172              		.cfi_def_cfa_offset 8
 3173              		.cfi_offset 7, -8
 3174              		.cfi_offset 14, -4
 3175 0002 82B0     		sub	sp, sp, #8
 3176              	.LCFI162:
 3177              		.cfi_def_cfa_offset 16
 3178 0004 00AF     		add	r7, sp, #0
 3179              	.LCFI163:
 3180              		.cfi_def_cfa_register 7
 3181 0006 7860     		str	r0, [r7, #4]
1517:Drivers/STM32F4xx_HAL_Driver/Src/stm32f4xx_hal_tim.c ****   /* Check the TIM handle allocation */
1518:Drivers/STM32F4xx_HAL_Driver/Src/stm32f4xx_hal_tim.c ****   if(htim == NULL)
 3182              		.loc 1 1518 0
 3183 0008 7B68     		ldr	r3, [r7, #4]
 3184 000a 002B     		cmp	r3, #0
 3185 000c 01D1     		bne	.L185
1519:Drivers/STM32F4xx_HAL_Driver/Src/stm32f4xx_hal_tim.c ****   {
1520:Drivers/STM32F4xx_HAL_Driver/Src/stm32f4xx_hal_tim.c ****     return HAL_ERROR;
 3186              		.loc 1 1520 0
 3187 000e 0123     		movs	r3, #1
 3188 0010 1DE0     		b	.L186
 3189              	.L185:
1521:Drivers/STM32F4xx_HAL_Driver/Src/stm32f4xx_hal_tim.c ****   }
1522:Drivers/STM32F4xx_HAL_Driver/Src/stm32f4xx_hal_tim.c **** 
1523:Drivers/STM32F4xx_HAL_Driver/Src/stm32f4xx_hal_tim.c ****   /* Check the parameters */
1524:Drivers/STM32F4xx_HAL_Driver/Src/stm32f4xx_hal_tim.c ****   assert_param(IS_TIM_INSTANCE(htim->Instance));
1525:Drivers/STM32F4xx_HAL_Driver/Src/stm32f4xx_hal_tim.c ****   assert_param(IS_TIM_COUNTER_MODE(htim->Init.CounterMode));
1526:Drivers/STM32F4xx_HAL_Driver/Src/stm32f4xx_hal_tim.c ****   assert_param(IS_TIM_CLOCKDIVISION_DIV(htim->Init.ClockDivision)); 
1527:Drivers/STM32F4xx_HAL_Driver/Src/stm32f4xx_hal_tim.c **** 
1528:Drivers/STM32F4xx_HAL_Driver/Src/stm32f4xx_hal_tim.c ****   if(htim->State == HAL_TIM_STATE_RESET)
 3190              		.loc 1 1528 0
 3191 0012 7B68     		ldr	r3, [r7, #4]
 3192 0014 93F83930 		ldrb	r3, [r3, #57]
 3193 0018 DBB2     		uxtb	r3, r3
 3194 001a 002B     		cmp	r3, #0
 3195 001c 06D1     		bne	.L187
1529:Drivers/STM32F4xx_HAL_Driver/Src/stm32f4xx_hal_tim.c ****   { 
1530:Drivers/STM32F4xx_HAL_Driver/Src/stm32f4xx_hal_tim.c ****     /* Allocate lock resource and initialize it */
1531:Drivers/STM32F4xx_HAL_Driver/Src/stm32f4xx_hal_tim.c ****     htim->Lock = HAL_UNLOCKED;
 3196              		.loc 1 1531 0
 3197 001e 7B68     		ldr	r3, [r7, #4]
 3198 0020 0022     		movs	r2, #0
 3199 0022 83F83820 		strb	r2, [r3, #56]
1532:Drivers/STM32F4xx_HAL_Driver/Src/stm32f4xx_hal_tim.c ****     /* Init the low level hardware : GPIO, CLOCK, NVIC and DMA */
1533:Drivers/STM32F4xx_HAL_Driver/Src/stm32f4xx_hal_tim.c ****     HAL_TIM_IC_MspInit(htim);
 3200              		.loc 1 1533 0
 3201 0026 7868     		ldr	r0, [r7, #4]
 3202 0028 FFF7FEFF 		bl	HAL_TIM_IC_MspInit
ARM GAS  /tmp/cc4tSQEQ.s 			page 83


 3203              	.L187:
1534:Drivers/STM32F4xx_HAL_Driver/Src/stm32f4xx_hal_tim.c ****   }
1535:Drivers/STM32F4xx_HAL_Driver/Src/stm32f4xx_hal_tim.c ****   
1536:Drivers/STM32F4xx_HAL_Driver/Src/stm32f4xx_hal_tim.c ****   /* Set the TIM state */
1537:Drivers/STM32F4xx_HAL_Driver/Src/stm32f4xx_hal_tim.c ****   htim->State= HAL_TIM_STATE_BUSY;   
 3204              		.loc 1 1537 0
 3205 002c 7B68     		ldr	r3, [r7, #4]
 3206 002e 0222     		movs	r2, #2
 3207 0030 83F83920 		strb	r2, [r3, #57]
1538:Drivers/STM32F4xx_HAL_Driver/Src/stm32f4xx_hal_tim.c ****   
1539:Drivers/STM32F4xx_HAL_Driver/Src/stm32f4xx_hal_tim.c ****   /* Init the base time for the input capture */  
1540:Drivers/STM32F4xx_HAL_Driver/Src/stm32f4xx_hal_tim.c ****   TIM_Base_SetConfig(htim->Instance, &htim->Init); 
 3208              		.loc 1 1540 0
 3209 0034 7B68     		ldr	r3, [r7, #4]
 3210 0036 1A68     		ldr	r2, [r3]
 3211 0038 7B68     		ldr	r3, [r7, #4]
 3212 003a 0433     		adds	r3, r3, #4
 3213 003c 1946     		mov	r1, r3
 3214 003e 1046     		mov	r0, r2
 3215 0040 FFF7FEFF 		bl	TIM_Base_SetConfig
1541:Drivers/STM32F4xx_HAL_Driver/Src/stm32f4xx_hal_tim.c ****    
1542:Drivers/STM32F4xx_HAL_Driver/Src/stm32f4xx_hal_tim.c ****   /* Initialize the TIM state*/
1543:Drivers/STM32F4xx_HAL_Driver/Src/stm32f4xx_hal_tim.c ****   htim->State= HAL_TIM_STATE_READY;
 3216              		.loc 1 1543 0
 3217 0044 7B68     		ldr	r3, [r7, #4]
 3218 0046 0122     		movs	r2, #1
 3219 0048 83F83920 		strb	r2, [r3, #57]
1544:Drivers/STM32F4xx_HAL_Driver/Src/stm32f4xx_hal_tim.c ****   
1545:Drivers/STM32F4xx_HAL_Driver/Src/stm32f4xx_hal_tim.c ****   return HAL_OK;
 3220              		.loc 1 1545 0
 3221 004c 0023     		movs	r3, #0
 3222              	.L186:
1546:Drivers/STM32F4xx_HAL_Driver/Src/stm32f4xx_hal_tim.c **** }
 3223              		.loc 1 1546 0
 3224 004e 1846     		mov	r0, r3
 3225 0050 0837     		adds	r7, r7, #8
 3226              	.LCFI164:
 3227              		.cfi_def_cfa_offset 8
 3228 0052 BD46     		mov	sp, r7
 3229              	.LCFI165:
 3230              		.cfi_def_cfa_register 13
 3231              		@ sp needed
 3232 0054 80BD     		pop	{r7, pc}
 3233              		.cfi_endproc
 3234              	.LFE154:
 3236              		.section	.text.HAL_TIM_IC_DeInit,"ax",%progbits
 3237              		.align	1
 3238              		.global	HAL_TIM_IC_DeInit
 3239              		.syntax unified
 3240              		.thumb
 3241              		.thumb_func
 3242              		.fpu fpv4-sp-d16
 3244              	HAL_TIM_IC_DeInit:
 3245              	.LFB155:
1547:Drivers/STM32F4xx_HAL_Driver/Src/stm32f4xx_hal_tim.c **** 
1548:Drivers/STM32F4xx_HAL_Driver/Src/stm32f4xx_hal_tim.c **** /**
1549:Drivers/STM32F4xx_HAL_Driver/Src/stm32f4xx_hal_tim.c ****   * @brief  DeInitializes the TIM peripheral 
ARM GAS  /tmp/cc4tSQEQ.s 			page 84


1550:Drivers/STM32F4xx_HAL_Driver/Src/stm32f4xx_hal_tim.c ****   * @param  htim pointer to a TIM_HandleTypeDef structure that contains
1551:Drivers/STM32F4xx_HAL_Driver/Src/stm32f4xx_hal_tim.c ****   *                the configuration information for TIM module.
1552:Drivers/STM32F4xx_HAL_Driver/Src/stm32f4xx_hal_tim.c ****   * @retval HAL status
1553:Drivers/STM32F4xx_HAL_Driver/Src/stm32f4xx_hal_tim.c ****   */
1554:Drivers/STM32F4xx_HAL_Driver/Src/stm32f4xx_hal_tim.c **** HAL_StatusTypeDef HAL_TIM_IC_DeInit(TIM_HandleTypeDef *htim)
1555:Drivers/STM32F4xx_HAL_Driver/Src/stm32f4xx_hal_tim.c **** {
 3246              		.loc 1 1555 0
 3247              		.cfi_startproc
 3248              		@ args = 0, pretend = 0, frame = 8
 3249              		@ frame_needed = 1, uses_anonymous_args = 0
 3250 0000 80B5     		push	{r7, lr}
 3251              	.LCFI166:
 3252              		.cfi_def_cfa_offset 8
 3253              		.cfi_offset 7, -8
 3254              		.cfi_offset 14, -4
 3255 0002 82B0     		sub	sp, sp, #8
 3256              	.LCFI167:
 3257              		.cfi_def_cfa_offset 16
 3258 0004 00AF     		add	r7, sp, #0
 3259              	.LCFI168:
 3260              		.cfi_def_cfa_register 7
 3261 0006 7860     		str	r0, [r7, #4]
1556:Drivers/STM32F4xx_HAL_Driver/Src/stm32f4xx_hal_tim.c ****   /* Check the parameters */
1557:Drivers/STM32F4xx_HAL_Driver/Src/stm32f4xx_hal_tim.c ****   assert_param(IS_TIM_INSTANCE(htim->Instance));
1558:Drivers/STM32F4xx_HAL_Driver/Src/stm32f4xx_hal_tim.c **** 
1559:Drivers/STM32F4xx_HAL_Driver/Src/stm32f4xx_hal_tim.c ****   htim->State = HAL_TIM_STATE_BUSY;
 3262              		.loc 1 1559 0
 3263 0008 7B68     		ldr	r3, [r7, #4]
 3264 000a 0222     		movs	r2, #2
 3265 000c 83F83920 		strb	r2, [r3, #57]
1560:Drivers/STM32F4xx_HAL_Driver/Src/stm32f4xx_hal_tim.c ****   
1561:Drivers/STM32F4xx_HAL_Driver/Src/stm32f4xx_hal_tim.c ****   /* Disable the TIM Peripheral Clock */
1562:Drivers/STM32F4xx_HAL_Driver/Src/stm32f4xx_hal_tim.c ****   __HAL_TIM_DISABLE(htim);
 3266              		.loc 1 1562 0
 3267 0010 7B68     		ldr	r3, [r7, #4]
 3268 0012 1B68     		ldr	r3, [r3]
 3269 0014 1A6A     		ldr	r2, [r3, #32]
 3270 0016 41F21113 		movw	r3, #4369
 3271 001a 1340     		ands	r3, r3, r2
 3272 001c 002B     		cmp	r3, #0
 3273 001e 0FD1     		bne	.L189
 3274              		.loc 1 1562 0 is_stmt 0 discriminator 1
 3275 0020 7B68     		ldr	r3, [r7, #4]
 3276 0022 1B68     		ldr	r3, [r3]
 3277 0024 1A6A     		ldr	r2, [r3, #32]
 3278 0026 40F24443 		movw	r3, #1092
 3279 002a 1340     		ands	r3, r3, r2
 3280 002c 002B     		cmp	r3, #0
 3281 002e 07D1     		bne	.L189
 3282              		.loc 1 1562 0 discriminator 2
 3283 0030 7B68     		ldr	r3, [r7, #4]
 3284 0032 1B68     		ldr	r3, [r3]
 3285 0034 7A68     		ldr	r2, [r7, #4]
 3286 0036 1268     		ldr	r2, [r2]
 3287 0038 1268     		ldr	r2, [r2]
 3288 003a 22F00102 		bic	r2, r2, #1
 3289 003e 1A60     		str	r2, [r3]
ARM GAS  /tmp/cc4tSQEQ.s 			page 85


 3290              	.L189:
1563:Drivers/STM32F4xx_HAL_Driver/Src/stm32f4xx_hal_tim.c ****     
1564:Drivers/STM32F4xx_HAL_Driver/Src/stm32f4xx_hal_tim.c ****   /* DeInit the low level hardware: GPIO, CLOCK, NVIC and DMA */
1565:Drivers/STM32F4xx_HAL_Driver/Src/stm32f4xx_hal_tim.c ****   HAL_TIM_IC_MspDeInit(htim);
 3291              		.loc 1 1565 0 is_stmt 1
 3292 0040 7868     		ldr	r0, [r7, #4]
 3293 0042 FFF7FEFF 		bl	HAL_TIM_IC_MspDeInit
1566:Drivers/STM32F4xx_HAL_Driver/Src/stm32f4xx_hal_tim.c ****     
1567:Drivers/STM32F4xx_HAL_Driver/Src/stm32f4xx_hal_tim.c ****   /* Change TIM state */  
1568:Drivers/STM32F4xx_HAL_Driver/Src/stm32f4xx_hal_tim.c ****   htim->State = HAL_TIM_STATE_RESET;
 3294              		.loc 1 1568 0
 3295 0046 7B68     		ldr	r3, [r7, #4]
 3296 0048 0022     		movs	r2, #0
 3297 004a 83F83920 		strb	r2, [r3, #57]
1569:Drivers/STM32F4xx_HAL_Driver/Src/stm32f4xx_hal_tim.c **** 
1570:Drivers/STM32F4xx_HAL_Driver/Src/stm32f4xx_hal_tim.c ****   /* Release Lock */
1571:Drivers/STM32F4xx_HAL_Driver/Src/stm32f4xx_hal_tim.c ****   __HAL_UNLOCK(htim);
 3298              		.loc 1 1571 0
 3299 004e 7B68     		ldr	r3, [r7, #4]
 3300 0050 0022     		movs	r2, #0
 3301 0052 83F83820 		strb	r2, [r3, #56]
1572:Drivers/STM32F4xx_HAL_Driver/Src/stm32f4xx_hal_tim.c **** 
1573:Drivers/STM32F4xx_HAL_Driver/Src/stm32f4xx_hal_tim.c ****   return HAL_OK;
 3302              		.loc 1 1573 0
 3303 0056 0023     		movs	r3, #0
1574:Drivers/STM32F4xx_HAL_Driver/Src/stm32f4xx_hal_tim.c **** }
 3304              		.loc 1 1574 0
 3305 0058 1846     		mov	r0, r3
 3306 005a 0837     		adds	r7, r7, #8
 3307              	.LCFI169:
 3308              		.cfi_def_cfa_offset 8
 3309 005c BD46     		mov	sp, r7
 3310              	.LCFI170:
 3311              		.cfi_def_cfa_register 13
 3312              		@ sp needed
 3313 005e 80BD     		pop	{r7, pc}
 3314              		.cfi_endproc
 3315              	.LFE155:
 3317              		.section	.text.HAL_TIM_IC_MspInit,"ax",%progbits
 3318              		.align	1
 3319              		.weak	HAL_TIM_IC_MspInit
 3320              		.syntax unified
 3321              		.thumb
 3322              		.thumb_func
 3323              		.fpu fpv4-sp-d16
 3325              	HAL_TIM_IC_MspInit:
 3326              	.LFB156:
1575:Drivers/STM32F4xx_HAL_Driver/Src/stm32f4xx_hal_tim.c **** 
1576:Drivers/STM32F4xx_HAL_Driver/Src/stm32f4xx_hal_tim.c **** /**
1577:Drivers/STM32F4xx_HAL_Driver/Src/stm32f4xx_hal_tim.c ****   * @brief  Initializes the TIM INput Capture MSP.
1578:Drivers/STM32F4xx_HAL_Driver/Src/stm32f4xx_hal_tim.c ****   * @param  htim pointer to a TIM_HandleTypeDef structure that contains
1579:Drivers/STM32F4xx_HAL_Driver/Src/stm32f4xx_hal_tim.c ****   *                the configuration information for TIM module.
1580:Drivers/STM32F4xx_HAL_Driver/Src/stm32f4xx_hal_tim.c ****   * @retval None
1581:Drivers/STM32F4xx_HAL_Driver/Src/stm32f4xx_hal_tim.c ****   */
1582:Drivers/STM32F4xx_HAL_Driver/Src/stm32f4xx_hal_tim.c **** __weak void HAL_TIM_IC_MspInit(TIM_HandleTypeDef *htim)
1583:Drivers/STM32F4xx_HAL_Driver/Src/stm32f4xx_hal_tim.c **** {
 3327              		.loc 1 1583 0
ARM GAS  /tmp/cc4tSQEQ.s 			page 86


 3328              		.cfi_startproc
 3329              		@ args = 0, pretend = 0, frame = 8
 3330              		@ frame_needed = 1, uses_anonymous_args = 0
 3331              		@ link register save eliminated.
 3332 0000 80B4     		push	{r7}
 3333              	.LCFI171:
 3334              		.cfi_def_cfa_offset 4
 3335              		.cfi_offset 7, -4
 3336 0002 83B0     		sub	sp, sp, #12
 3337              	.LCFI172:
 3338              		.cfi_def_cfa_offset 16
 3339 0004 00AF     		add	r7, sp, #0
 3340              	.LCFI173:
 3341              		.cfi_def_cfa_register 7
 3342 0006 7860     		str	r0, [r7, #4]
1584:Drivers/STM32F4xx_HAL_Driver/Src/stm32f4xx_hal_tim.c ****   /* Prevent unused argument(s) compilation warning */
1585:Drivers/STM32F4xx_HAL_Driver/Src/stm32f4xx_hal_tim.c ****   UNUSED(htim);
1586:Drivers/STM32F4xx_HAL_Driver/Src/stm32f4xx_hal_tim.c ****   /* NOTE : This function Should not be modified, when the callback is needed,
1587:Drivers/STM32F4xx_HAL_Driver/Src/stm32f4xx_hal_tim.c ****             the HAL_TIM_IC_MspInit could be implemented in the user file
1588:Drivers/STM32F4xx_HAL_Driver/Src/stm32f4xx_hal_tim.c ****    */
1589:Drivers/STM32F4xx_HAL_Driver/Src/stm32f4xx_hal_tim.c **** }
 3343              		.loc 1 1589 0
 3344 0008 00BF     		nop
 3345 000a 0C37     		adds	r7, r7, #12
 3346              	.LCFI174:
 3347              		.cfi_def_cfa_offset 4
 3348 000c BD46     		mov	sp, r7
 3349              	.LCFI175:
 3350              		.cfi_def_cfa_register 13
 3351              		@ sp needed
 3352 000e 5DF8047B 		ldr	r7, [sp], #4
 3353              	.LCFI176:
 3354              		.cfi_restore 7
 3355              		.cfi_def_cfa_offset 0
 3356 0012 7047     		bx	lr
 3357              		.cfi_endproc
 3358              	.LFE156:
 3360              		.section	.text.HAL_TIM_IC_MspDeInit,"ax",%progbits
 3361              		.align	1
 3362              		.weak	HAL_TIM_IC_MspDeInit
 3363              		.syntax unified
 3364              		.thumb
 3365              		.thumb_func
 3366              		.fpu fpv4-sp-d16
 3368              	HAL_TIM_IC_MspDeInit:
 3369              	.LFB157:
1590:Drivers/STM32F4xx_HAL_Driver/Src/stm32f4xx_hal_tim.c **** 
1591:Drivers/STM32F4xx_HAL_Driver/Src/stm32f4xx_hal_tim.c **** /**
1592:Drivers/STM32F4xx_HAL_Driver/Src/stm32f4xx_hal_tim.c ****   * @brief  DeInitializes TIM Input Capture MSP.
1593:Drivers/STM32F4xx_HAL_Driver/Src/stm32f4xx_hal_tim.c ****   * @param  htim pointer to a TIM_HandleTypeDef structure that contains
1594:Drivers/STM32F4xx_HAL_Driver/Src/stm32f4xx_hal_tim.c ****   *                the configuration information for TIM module.
1595:Drivers/STM32F4xx_HAL_Driver/Src/stm32f4xx_hal_tim.c ****   * @retval None
1596:Drivers/STM32F4xx_HAL_Driver/Src/stm32f4xx_hal_tim.c ****   */
1597:Drivers/STM32F4xx_HAL_Driver/Src/stm32f4xx_hal_tim.c **** __weak void HAL_TIM_IC_MspDeInit(TIM_HandleTypeDef *htim)
1598:Drivers/STM32F4xx_HAL_Driver/Src/stm32f4xx_hal_tim.c **** {
 3370              		.loc 1 1598 0
 3371              		.cfi_startproc
ARM GAS  /tmp/cc4tSQEQ.s 			page 87


 3372              		@ args = 0, pretend = 0, frame = 8
 3373              		@ frame_needed = 1, uses_anonymous_args = 0
 3374              		@ link register save eliminated.
 3375 0000 80B4     		push	{r7}
 3376              	.LCFI177:
 3377              		.cfi_def_cfa_offset 4
 3378              		.cfi_offset 7, -4
 3379 0002 83B0     		sub	sp, sp, #12
 3380              	.LCFI178:
 3381              		.cfi_def_cfa_offset 16
 3382 0004 00AF     		add	r7, sp, #0
 3383              	.LCFI179:
 3384              		.cfi_def_cfa_register 7
 3385 0006 7860     		str	r0, [r7, #4]
1599:Drivers/STM32F4xx_HAL_Driver/Src/stm32f4xx_hal_tim.c ****   /* Prevent unused argument(s) compilation warning */
1600:Drivers/STM32F4xx_HAL_Driver/Src/stm32f4xx_hal_tim.c ****   UNUSED(htim);
1601:Drivers/STM32F4xx_HAL_Driver/Src/stm32f4xx_hal_tim.c ****   /* NOTE : This function Should not be modified, when the callback is needed,
1602:Drivers/STM32F4xx_HAL_Driver/Src/stm32f4xx_hal_tim.c ****             the HAL_TIM_IC_MspDeInit could be implemented in the user file
1603:Drivers/STM32F4xx_HAL_Driver/Src/stm32f4xx_hal_tim.c ****    */
1604:Drivers/STM32F4xx_HAL_Driver/Src/stm32f4xx_hal_tim.c **** }
 3386              		.loc 1 1604 0
 3387 0008 00BF     		nop
 3388 000a 0C37     		adds	r7, r7, #12
 3389              	.LCFI180:
 3390              		.cfi_def_cfa_offset 4
 3391 000c BD46     		mov	sp, r7
 3392              	.LCFI181:
 3393              		.cfi_def_cfa_register 13
 3394              		@ sp needed
 3395 000e 5DF8047B 		ldr	r7, [sp], #4
 3396              	.LCFI182:
 3397              		.cfi_restore 7
 3398              		.cfi_def_cfa_offset 0
 3399 0012 7047     		bx	lr
 3400              		.cfi_endproc
 3401              	.LFE157:
 3403              		.section	.text.HAL_TIM_IC_Start,"ax",%progbits
 3404              		.align	1
 3405              		.global	HAL_TIM_IC_Start
 3406              		.syntax unified
 3407              		.thumb
 3408              		.thumb_func
 3409              		.fpu fpv4-sp-d16
 3411              	HAL_TIM_IC_Start:
 3412              	.LFB158:
1605:Drivers/STM32F4xx_HAL_Driver/Src/stm32f4xx_hal_tim.c **** 
1606:Drivers/STM32F4xx_HAL_Driver/Src/stm32f4xx_hal_tim.c **** /**
1607:Drivers/STM32F4xx_HAL_Driver/Src/stm32f4xx_hal_tim.c ****   * @brief  Starts the TIM Input Capture measurement.
1608:Drivers/STM32F4xx_HAL_Driver/Src/stm32f4xx_hal_tim.c ****   * @param  htim pointer to a TIM_HandleTypeDef structure that contains
1609:Drivers/STM32F4xx_HAL_Driver/Src/stm32f4xx_hal_tim.c ****   *                the configuration information for TIM module.
1610:Drivers/STM32F4xx_HAL_Driver/Src/stm32f4xx_hal_tim.c ****   * @param  Channel TIM Channels to be enabled.
1611:Drivers/STM32F4xx_HAL_Driver/Src/stm32f4xx_hal_tim.c ****   *          This parameter can be one of the following values:
1612:Drivers/STM32F4xx_HAL_Driver/Src/stm32f4xx_hal_tim.c ****   *            @arg TIM_CHANNEL_1: TIM Channel 1 selected
1613:Drivers/STM32F4xx_HAL_Driver/Src/stm32f4xx_hal_tim.c ****   *            @arg TIM_CHANNEL_2: TIM Channel 2 selected
1614:Drivers/STM32F4xx_HAL_Driver/Src/stm32f4xx_hal_tim.c ****   *            @arg TIM_CHANNEL_3: TIM Channel 3 selected
1615:Drivers/STM32F4xx_HAL_Driver/Src/stm32f4xx_hal_tim.c ****   *            @arg TIM_CHANNEL_4: TIM Channel 4 selected
1616:Drivers/STM32F4xx_HAL_Driver/Src/stm32f4xx_hal_tim.c ****   * @retval HAL status
ARM GAS  /tmp/cc4tSQEQ.s 			page 88


1617:Drivers/STM32F4xx_HAL_Driver/Src/stm32f4xx_hal_tim.c ****   */
1618:Drivers/STM32F4xx_HAL_Driver/Src/stm32f4xx_hal_tim.c **** HAL_StatusTypeDef HAL_TIM_IC_Start (TIM_HandleTypeDef *htim, uint32_t Channel)
1619:Drivers/STM32F4xx_HAL_Driver/Src/stm32f4xx_hal_tim.c **** {
 3413              		.loc 1 1619 0
 3414              		.cfi_startproc
 3415              		@ args = 0, pretend = 0, frame = 8
 3416              		@ frame_needed = 1, uses_anonymous_args = 0
 3417 0000 80B5     		push	{r7, lr}
 3418              	.LCFI183:
 3419              		.cfi_def_cfa_offset 8
 3420              		.cfi_offset 7, -8
 3421              		.cfi_offset 14, -4
 3422 0002 82B0     		sub	sp, sp, #8
 3423              	.LCFI184:
 3424              		.cfi_def_cfa_offset 16
 3425 0004 00AF     		add	r7, sp, #0
 3426              	.LCFI185:
 3427              		.cfi_def_cfa_register 7
 3428 0006 7860     		str	r0, [r7, #4]
 3429 0008 3960     		str	r1, [r7]
1620:Drivers/STM32F4xx_HAL_Driver/Src/stm32f4xx_hal_tim.c ****   /* Check the parameters */
1621:Drivers/STM32F4xx_HAL_Driver/Src/stm32f4xx_hal_tim.c ****   assert_param(IS_TIM_CCX_INSTANCE(htim->Instance, Channel));
1622:Drivers/STM32F4xx_HAL_Driver/Src/stm32f4xx_hal_tim.c ****   
1623:Drivers/STM32F4xx_HAL_Driver/Src/stm32f4xx_hal_tim.c ****   /* Enable the Input Capture channel */
1624:Drivers/STM32F4xx_HAL_Driver/Src/stm32f4xx_hal_tim.c ****   TIM_CCxChannelCmd(htim->Instance, Channel, TIM_CCx_ENABLE);
 3430              		.loc 1 1624 0
 3431 000a 7B68     		ldr	r3, [r7, #4]
 3432 000c 1B68     		ldr	r3, [r3]
 3433 000e 0122     		movs	r2, #1
 3434 0010 3968     		ldr	r1, [r7]
 3435 0012 1846     		mov	r0, r3
 3436 0014 FFF7FEFF 		bl	TIM_CCxChannelCmd
1625:Drivers/STM32F4xx_HAL_Driver/Src/stm32f4xx_hal_tim.c ****     
1626:Drivers/STM32F4xx_HAL_Driver/Src/stm32f4xx_hal_tim.c ****   /* Enable the Peripheral */
1627:Drivers/STM32F4xx_HAL_Driver/Src/stm32f4xx_hal_tim.c ****   __HAL_TIM_ENABLE(htim);  
 3437              		.loc 1 1627 0
 3438 0018 7B68     		ldr	r3, [r7, #4]
 3439 001a 1B68     		ldr	r3, [r3]
 3440 001c 7A68     		ldr	r2, [r7, #4]
 3441 001e 1268     		ldr	r2, [r2]
 3442 0020 1268     		ldr	r2, [r2]
 3443 0022 42F00102 		orr	r2, r2, #1
 3444 0026 1A60     		str	r2, [r3]
1628:Drivers/STM32F4xx_HAL_Driver/Src/stm32f4xx_hal_tim.c **** 
1629:Drivers/STM32F4xx_HAL_Driver/Src/stm32f4xx_hal_tim.c ****   /* Return function status */
1630:Drivers/STM32F4xx_HAL_Driver/Src/stm32f4xx_hal_tim.c ****   return HAL_OK;  
 3445              		.loc 1 1630 0
 3446 0028 0023     		movs	r3, #0
1631:Drivers/STM32F4xx_HAL_Driver/Src/stm32f4xx_hal_tim.c **** } 
 3447              		.loc 1 1631 0
 3448 002a 1846     		mov	r0, r3
 3449 002c 0837     		adds	r7, r7, #8
 3450              	.LCFI186:
 3451              		.cfi_def_cfa_offset 8
 3452 002e BD46     		mov	sp, r7
 3453              	.LCFI187:
 3454              		.cfi_def_cfa_register 13
ARM GAS  /tmp/cc4tSQEQ.s 			page 89


 3455              		@ sp needed
 3456 0030 80BD     		pop	{r7, pc}
 3457              		.cfi_endproc
 3458              	.LFE158:
 3460              		.section	.text.HAL_TIM_IC_Stop,"ax",%progbits
 3461              		.align	1
 3462              		.global	HAL_TIM_IC_Stop
 3463              		.syntax unified
 3464              		.thumb
 3465              		.thumb_func
 3466              		.fpu fpv4-sp-d16
 3468              	HAL_TIM_IC_Stop:
 3469              	.LFB159:
1632:Drivers/STM32F4xx_HAL_Driver/Src/stm32f4xx_hal_tim.c **** 
1633:Drivers/STM32F4xx_HAL_Driver/Src/stm32f4xx_hal_tim.c **** /**
1634:Drivers/STM32F4xx_HAL_Driver/Src/stm32f4xx_hal_tim.c ****   * @brief  Stops the TIM Input Capture measurement.
1635:Drivers/STM32F4xx_HAL_Driver/Src/stm32f4xx_hal_tim.c ****   * @param  htim pointer to a TIM_HandleTypeDef structure that contains
1636:Drivers/STM32F4xx_HAL_Driver/Src/stm32f4xx_hal_tim.c ****   *                the configuration information for TIM module.
1637:Drivers/STM32F4xx_HAL_Driver/Src/stm32f4xx_hal_tim.c ****   * @param  Channel TIM Channels to be disabled.
1638:Drivers/STM32F4xx_HAL_Driver/Src/stm32f4xx_hal_tim.c ****   *          This parameter can be one of the following values:
1639:Drivers/STM32F4xx_HAL_Driver/Src/stm32f4xx_hal_tim.c ****   *            @arg TIM_CHANNEL_1: TIM Channel 1 selected
1640:Drivers/STM32F4xx_HAL_Driver/Src/stm32f4xx_hal_tim.c ****   *            @arg TIM_CHANNEL_2: TIM Channel 2 selected
1641:Drivers/STM32F4xx_HAL_Driver/Src/stm32f4xx_hal_tim.c ****   *            @arg TIM_CHANNEL_3: TIM Channel 3 selected
1642:Drivers/STM32F4xx_HAL_Driver/Src/stm32f4xx_hal_tim.c ****   *            @arg TIM_CHANNEL_4: TIM Channel 4 selected
1643:Drivers/STM32F4xx_HAL_Driver/Src/stm32f4xx_hal_tim.c ****   * @retval HAL status
1644:Drivers/STM32F4xx_HAL_Driver/Src/stm32f4xx_hal_tim.c ****   */
1645:Drivers/STM32F4xx_HAL_Driver/Src/stm32f4xx_hal_tim.c **** HAL_StatusTypeDef HAL_TIM_IC_Stop(TIM_HandleTypeDef *htim, uint32_t Channel)
1646:Drivers/STM32F4xx_HAL_Driver/Src/stm32f4xx_hal_tim.c **** { 
 3470              		.loc 1 1646 0
 3471              		.cfi_startproc
 3472              		@ args = 0, pretend = 0, frame = 8
 3473              		@ frame_needed = 1, uses_anonymous_args = 0
 3474 0000 80B5     		push	{r7, lr}
 3475              	.LCFI188:
 3476              		.cfi_def_cfa_offset 8
 3477              		.cfi_offset 7, -8
 3478              		.cfi_offset 14, -4
 3479 0002 82B0     		sub	sp, sp, #8
 3480              	.LCFI189:
 3481              		.cfi_def_cfa_offset 16
 3482 0004 00AF     		add	r7, sp, #0
 3483              	.LCFI190:
 3484              		.cfi_def_cfa_register 7
 3485 0006 7860     		str	r0, [r7, #4]
 3486 0008 3960     		str	r1, [r7]
1647:Drivers/STM32F4xx_HAL_Driver/Src/stm32f4xx_hal_tim.c ****   /* Check the parameters */
1648:Drivers/STM32F4xx_HAL_Driver/Src/stm32f4xx_hal_tim.c ****   assert_param(IS_TIM_CCX_INSTANCE(htim->Instance, Channel));
1649:Drivers/STM32F4xx_HAL_Driver/Src/stm32f4xx_hal_tim.c ****   
1650:Drivers/STM32F4xx_HAL_Driver/Src/stm32f4xx_hal_tim.c ****   /* Disable the Input Capture channel */
1651:Drivers/STM32F4xx_HAL_Driver/Src/stm32f4xx_hal_tim.c ****   TIM_CCxChannelCmd(htim->Instance, Channel, TIM_CCx_DISABLE);
 3487              		.loc 1 1651 0
 3488 000a 7B68     		ldr	r3, [r7, #4]
 3489 000c 1B68     		ldr	r3, [r3]
 3490 000e 0022     		movs	r2, #0
 3491 0010 3968     		ldr	r1, [r7]
 3492 0012 1846     		mov	r0, r3
 3493 0014 FFF7FEFF 		bl	TIM_CCxChannelCmd
ARM GAS  /tmp/cc4tSQEQ.s 			page 90


1652:Drivers/STM32F4xx_HAL_Driver/Src/stm32f4xx_hal_tim.c ****   
1653:Drivers/STM32F4xx_HAL_Driver/Src/stm32f4xx_hal_tim.c ****   /* Disable the Peripheral */
1654:Drivers/STM32F4xx_HAL_Driver/Src/stm32f4xx_hal_tim.c ****   __HAL_TIM_DISABLE(htim); 
 3494              		.loc 1 1654 0
 3495 0018 7B68     		ldr	r3, [r7, #4]
 3496 001a 1B68     		ldr	r3, [r3]
 3497 001c 1A6A     		ldr	r2, [r3, #32]
 3498 001e 41F21113 		movw	r3, #4369
 3499 0022 1340     		ands	r3, r3, r2
 3500 0024 002B     		cmp	r3, #0
 3501 0026 0FD1     		bne	.L196
 3502              		.loc 1 1654 0 is_stmt 0 discriminator 1
 3503 0028 7B68     		ldr	r3, [r7, #4]
 3504 002a 1B68     		ldr	r3, [r3]
 3505 002c 1A6A     		ldr	r2, [r3, #32]
 3506 002e 40F24443 		movw	r3, #1092
 3507 0032 1340     		ands	r3, r3, r2
 3508 0034 002B     		cmp	r3, #0
 3509 0036 07D1     		bne	.L196
 3510              		.loc 1 1654 0 discriminator 2
 3511 0038 7B68     		ldr	r3, [r7, #4]
 3512 003a 1B68     		ldr	r3, [r3]
 3513 003c 7A68     		ldr	r2, [r7, #4]
 3514 003e 1268     		ldr	r2, [r2]
 3515 0040 1268     		ldr	r2, [r2]
 3516 0042 22F00102 		bic	r2, r2, #1
 3517 0046 1A60     		str	r2, [r3]
 3518              	.L196:
1655:Drivers/STM32F4xx_HAL_Driver/Src/stm32f4xx_hal_tim.c ****   
1656:Drivers/STM32F4xx_HAL_Driver/Src/stm32f4xx_hal_tim.c ****   /* Return function status */
1657:Drivers/STM32F4xx_HAL_Driver/Src/stm32f4xx_hal_tim.c ****   return HAL_OK;
 3519              		.loc 1 1657 0 is_stmt 1
 3520 0048 0023     		movs	r3, #0
1658:Drivers/STM32F4xx_HAL_Driver/Src/stm32f4xx_hal_tim.c **** }
 3521              		.loc 1 1658 0
 3522 004a 1846     		mov	r0, r3
 3523 004c 0837     		adds	r7, r7, #8
 3524              	.LCFI191:
 3525              		.cfi_def_cfa_offset 8
 3526 004e BD46     		mov	sp, r7
 3527              	.LCFI192:
 3528              		.cfi_def_cfa_register 13
 3529              		@ sp needed
 3530 0050 80BD     		pop	{r7, pc}
 3531              		.cfi_endproc
 3532              	.LFE159:
 3534              		.section	.text.HAL_TIM_IC_Start_IT,"ax",%progbits
 3535              		.align	1
 3536              		.global	HAL_TIM_IC_Start_IT
 3537              		.syntax unified
 3538              		.thumb
 3539              		.thumb_func
 3540              		.fpu fpv4-sp-d16
 3542              	HAL_TIM_IC_Start_IT:
 3543              	.LFB160:
1659:Drivers/STM32F4xx_HAL_Driver/Src/stm32f4xx_hal_tim.c **** 
1660:Drivers/STM32F4xx_HAL_Driver/Src/stm32f4xx_hal_tim.c **** /**
ARM GAS  /tmp/cc4tSQEQ.s 			page 91


1661:Drivers/STM32F4xx_HAL_Driver/Src/stm32f4xx_hal_tim.c ****   * @brief  Starts the TIM Input Capture measurement in interrupt mode.
1662:Drivers/STM32F4xx_HAL_Driver/Src/stm32f4xx_hal_tim.c ****   * @param  htim pointer to a TIM_HandleTypeDef structure that contains
1663:Drivers/STM32F4xx_HAL_Driver/Src/stm32f4xx_hal_tim.c ****   *                the configuration information for TIM module.
1664:Drivers/STM32F4xx_HAL_Driver/Src/stm32f4xx_hal_tim.c ****   * @param  Channel TIM Channels to be enabled.
1665:Drivers/STM32F4xx_HAL_Driver/Src/stm32f4xx_hal_tim.c ****   *          This parameter can be one of the following values:
1666:Drivers/STM32F4xx_HAL_Driver/Src/stm32f4xx_hal_tim.c ****   *            @arg TIM_CHANNEL_1: TIM Channel 1 selected
1667:Drivers/STM32F4xx_HAL_Driver/Src/stm32f4xx_hal_tim.c ****   *            @arg TIM_CHANNEL_2: TIM Channel 2 selected
1668:Drivers/STM32F4xx_HAL_Driver/Src/stm32f4xx_hal_tim.c ****   *            @arg TIM_CHANNEL_3: TIM Channel 3 selected
1669:Drivers/STM32F4xx_HAL_Driver/Src/stm32f4xx_hal_tim.c ****   *            @arg TIM_CHANNEL_4: TIM Channel 4 selected
1670:Drivers/STM32F4xx_HAL_Driver/Src/stm32f4xx_hal_tim.c ****   * @retval HAL status
1671:Drivers/STM32F4xx_HAL_Driver/Src/stm32f4xx_hal_tim.c ****   */
1672:Drivers/STM32F4xx_HAL_Driver/Src/stm32f4xx_hal_tim.c **** HAL_StatusTypeDef HAL_TIM_IC_Start_IT (TIM_HandleTypeDef *htim, uint32_t Channel)
1673:Drivers/STM32F4xx_HAL_Driver/Src/stm32f4xx_hal_tim.c **** {
 3544              		.loc 1 1673 0
 3545              		.cfi_startproc
 3546              		@ args = 0, pretend = 0, frame = 8
 3547              		@ frame_needed = 1, uses_anonymous_args = 0
 3548 0000 80B5     		push	{r7, lr}
 3549              	.LCFI193:
 3550              		.cfi_def_cfa_offset 8
 3551              		.cfi_offset 7, -8
 3552              		.cfi_offset 14, -4
 3553 0002 82B0     		sub	sp, sp, #8
 3554              	.LCFI194:
 3555              		.cfi_def_cfa_offset 16
 3556 0004 00AF     		add	r7, sp, #0
 3557              	.LCFI195:
 3558              		.cfi_def_cfa_register 7
 3559 0006 7860     		str	r0, [r7, #4]
 3560 0008 3960     		str	r1, [r7]
1674:Drivers/STM32F4xx_HAL_Driver/Src/stm32f4xx_hal_tim.c ****   /* Check the parameters */
1675:Drivers/STM32F4xx_HAL_Driver/Src/stm32f4xx_hal_tim.c ****   assert_param(IS_TIM_CCX_INSTANCE(htim->Instance, Channel));
1676:Drivers/STM32F4xx_HAL_Driver/Src/stm32f4xx_hal_tim.c ****   
1677:Drivers/STM32F4xx_HAL_Driver/Src/stm32f4xx_hal_tim.c ****   switch (Channel)
 3561              		.loc 1 1677 0
 3562 000a 3B68     		ldr	r3, [r7]
 3563 000c 0C2B     		cmp	r3, #12
 3564 000e 41D8     		bhi	.L207
 3565 0010 01A2     		adr	r2, .L201
 3566 0012 52F823F0 		ldr	pc, [r2, r3, lsl #2]
 3567 0016 00BF     		.p2align 2
 3568              	.L201:
 3569 0018 4D000000 		.word	.L200+1
 3570 001c 95000000 		.word	.L207+1
 3571 0020 95000000 		.word	.L207+1
 3572 0024 95000000 		.word	.L207+1
 3573 0028 5F000000 		.word	.L202+1
 3574 002c 95000000 		.word	.L207+1
 3575 0030 95000000 		.word	.L207+1
 3576 0034 95000000 		.word	.L207+1
 3577 0038 71000000 		.word	.L203+1
 3578 003c 95000000 		.word	.L207+1
 3579 0040 95000000 		.word	.L207+1
 3580 0044 95000000 		.word	.L207+1
 3581 0048 83000000 		.word	.L204+1
 3582              		.p2align 1
 3583              	.L200:
ARM GAS  /tmp/cc4tSQEQ.s 			page 92


1678:Drivers/STM32F4xx_HAL_Driver/Src/stm32f4xx_hal_tim.c ****   {
1679:Drivers/STM32F4xx_HAL_Driver/Src/stm32f4xx_hal_tim.c ****     case TIM_CHANNEL_1:
1680:Drivers/STM32F4xx_HAL_Driver/Src/stm32f4xx_hal_tim.c ****     {       
1681:Drivers/STM32F4xx_HAL_Driver/Src/stm32f4xx_hal_tim.c ****       /* Enable the TIM Capture/Compare 1 interrupt */
1682:Drivers/STM32F4xx_HAL_Driver/Src/stm32f4xx_hal_tim.c ****       __HAL_TIM_ENABLE_IT(htim, TIM_IT_CC1);
 3584              		.loc 1 1682 0
 3585 004c 7B68     		ldr	r3, [r7, #4]
 3586 004e 1B68     		ldr	r3, [r3]
 3587 0050 7A68     		ldr	r2, [r7, #4]
 3588 0052 1268     		ldr	r2, [r2]
 3589 0054 D268     		ldr	r2, [r2, #12]
 3590 0056 42F00202 		orr	r2, r2, #2
 3591 005a DA60     		str	r2, [r3, #12]
1683:Drivers/STM32F4xx_HAL_Driver/Src/stm32f4xx_hal_tim.c ****     }
1684:Drivers/STM32F4xx_HAL_Driver/Src/stm32f4xx_hal_tim.c ****     break;
 3592              		.loc 1 1684 0
 3593 005c 1BE0     		b	.L205
 3594              	.L202:
1685:Drivers/STM32F4xx_HAL_Driver/Src/stm32f4xx_hal_tim.c ****     
1686:Drivers/STM32F4xx_HAL_Driver/Src/stm32f4xx_hal_tim.c ****     case TIM_CHANNEL_2:
1687:Drivers/STM32F4xx_HAL_Driver/Src/stm32f4xx_hal_tim.c ****     {
1688:Drivers/STM32F4xx_HAL_Driver/Src/stm32f4xx_hal_tim.c ****       /* Enable the TIM Capture/Compare 2 interrupt */
1689:Drivers/STM32F4xx_HAL_Driver/Src/stm32f4xx_hal_tim.c ****       __HAL_TIM_ENABLE_IT(htim, TIM_IT_CC2);
 3595              		.loc 1 1689 0
 3596 005e 7B68     		ldr	r3, [r7, #4]
 3597 0060 1B68     		ldr	r3, [r3]
 3598 0062 7A68     		ldr	r2, [r7, #4]
 3599 0064 1268     		ldr	r2, [r2]
 3600 0066 D268     		ldr	r2, [r2, #12]
 3601 0068 42F00402 		orr	r2, r2, #4
 3602 006c DA60     		str	r2, [r3, #12]
1690:Drivers/STM32F4xx_HAL_Driver/Src/stm32f4xx_hal_tim.c ****     }
1691:Drivers/STM32F4xx_HAL_Driver/Src/stm32f4xx_hal_tim.c ****     break;
 3603              		.loc 1 1691 0
 3604 006e 12E0     		b	.L205
 3605              	.L203:
1692:Drivers/STM32F4xx_HAL_Driver/Src/stm32f4xx_hal_tim.c ****     
1693:Drivers/STM32F4xx_HAL_Driver/Src/stm32f4xx_hal_tim.c ****     case TIM_CHANNEL_3:
1694:Drivers/STM32F4xx_HAL_Driver/Src/stm32f4xx_hal_tim.c ****     {
1695:Drivers/STM32F4xx_HAL_Driver/Src/stm32f4xx_hal_tim.c ****       /* Enable the TIM Capture/Compare 3 interrupt */
1696:Drivers/STM32F4xx_HAL_Driver/Src/stm32f4xx_hal_tim.c ****       __HAL_TIM_ENABLE_IT(htim, TIM_IT_CC3);
 3606              		.loc 1 1696 0
 3607 0070 7B68     		ldr	r3, [r7, #4]
 3608 0072 1B68     		ldr	r3, [r3]
 3609 0074 7A68     		ldr	r2, [r7, #4]
 3610 0076 1268     		ldr	r2, [r2]
 3611 0078 D268     		ldr	r2, [r2, #12]
 3612 007a 42F00802 		orr	r2, r2, #8
 3613 007e DA60     		str	r2, [r3, #12]
1697:Drivers/STM32F4xx_HAL_Driver/Src/stm32f4xx_hal_tim.c ****     }
1698:Drivers/STM32F4xx_HAL_Driver/Src/stm32f4xx_hal_tim.c ****     break;
 3614              		.loc 1 1698 0
 3615 0080 09E0     		b	.L205
 3616              	.L204:
1699:Drivers/STM32F4xx_HAL_Driver/Src/stm32f4xx_hal_tim.c ****     
1700:Drivers/STM32F4xx_HAL_Driver/Src/stm32f4xx_hal_tim.c ****     case TIM_CHANNEL_4:
1701:Drivers/STM32F4xx_HAL_Driver/Src/stm32f4xx_hal_tim.c ****     {
ARM GAS  /tmp/cc4tSQEQ.s 			page 93


1702:Drivers/STM32F4xx_HAL_Driver/Src/stm32f4xx_hal_tim.c ****       /* Enable the TIM Capture/Compare 4 interrupt */
1703:Drivers/STM32F4xx_HAL_Driver/Src/stm32f4xx_hal_tim.c ****       __HAL_TIM_ENABLE_IT(htim, TIM_IT_CC4);
 3617              		.loc 1 1703 0
 3618 0082 7B68     		ldr	r3, [r7, #4]
 3619 0084 1B68     		ldr	r3, [r3]
 3620 0086 7A68     		ldr	r2, [r7, #4]
 3621 0088 1268     		ldr	r2, [r2]
 3622 008a D268     		ldr	r2, [r2, #12]
 3623 008c 42F01002 		orr	r2, r2, #16
 3624 0090 DA60     		str	r2, [r3, #12]
1704:Drivers/STM32F4xx_HAL_Driver/Src/stm32f4xx_hal_tim.c ****     }
1705:Drivers/STM32F4xx_HAL_Driver/Src/stm32f4xx_hal_tim.c ****     break;
 3625              		.loc 1 1705 0
 3626 0092 00E0     		b	.L205
 3627              	.L207:
1706:Drivers/STM32F4xx_HAL_Driver/Src/stm32f4xx_hal_tim.c ****     
1707:Drivers/STM32F4xx_HAL_Driver/Src/stm32f4xx_hal_tim.c ****     default:
1708:Drivers/STM32F4xx_HAL_Driver/Src/stm32f4xx_hal_tim.c ****     break;
 3628              		.loc 1 1708 0
 3629 0094 00BF     		nop
 3630              	.L205:
1709:Drivers/STM32F4xx_HAL_Driver/Src/stm32f4xx_hal_tim.c ****   }  
1710:Drivers/STM32F4xx_HAL_Driver/Src/stm32f4xx_hal_tim.c ****   /* Enable the Input Capture channel */
1711:Drivers/STM32F4xx_HAL_Driver/Src/stm32f4xx_hal_tim.c ****   TIM_CCxChannelCmd(htim->Instance, Channel, TIM_CCx_ENABLE);
 3631              		.loc 1 1711 0
 3632 0096 7B68     		ldr	r3, [r7, #4]
 3633 0098 1B68     		ldr	r3, [r3]
 3634 009a 0122     		movs	r2, #1
 3635 009c 3968     		ldr	r1, [r7]
 3636 009e 1846     		mov	r0, r3
 3637 00a0 FFF7FEFF 		bl	TIM_CCxChannelCmd
1712:Drivers/STM32F4xx_HAL_Driver/Src/stm32f4xx_hal_tim.c ****     
1713:Drivers/STM32F4xx_HAL_Driver/Src/stm32f4xx_hal_tim.c ****   /* Enable the Peripheral */
1714:Drivers/STM32F4xx_HAL_Driver/Src/stm32f4xx_hal_tim.c ****   __HAL_TIM_ENABLE(htim);  
 3638              		.loc 1 1714 0
 3639 00a4 7B68     		ldr	r3, [r7, #4]
 3640 00a6 1B68     		ldr	r3, [r3]
 3641 00a8 7A68     		ldr	r2, [r7, #4]
 3642 00aa 1268     		ldr	r2, [r2]
 3643 00ac 1268     		ldr	r2, [r2]
 3644 00ae 42F00102 		orr	r2, r2, #1
 3645 00b2 1A60     		str	r2, [r3]
1715:Drivers/STM32F4xx_HAL_Driver/Src/stm32f4xx_hal_tim.c **** 
1716:Drivers/STM32F4xx_HAL_Driver/Src/stm32f4xx_hal_tim.c ****   /* Return function status */
1717:Drivers/STM32F4xx_HAL_Driver/Src/stm32f4xx_hal_tim.c ****   return HAL_OK;  
 3646              		.loc 1 1717 0
 3647 00b4 0023     		movs	r3, #0
1718:Drivers/STM32F4xx_HAL_Driver/Src/stm32f4xx_hal_tim.c **** } 
 3648              		.loc 1 1718 0
 3649 00b6 1846     		mov	r0, r3
 3650 00b8 0837     		adds	r7, r7, #8
 3651              	.LCFI196:
 3652              		.cfi_def_cfa_offset 8
 3653 00ba BD46     		mov	sp, r7
 3654              	.LCFI197:
 3655              		.cfi_def_cfa_register 13
 3656              		@ sp needed
ARM GAS  /tmp/cc4tSQEQ.s 			page 94


 3657 00bc 80BD     		pop	{r7, pc}
 3658              		.cfi_endproc
 3659              	.LFE160:
 3661 00be 00BF     		.section	.text.HAL_TIM_IC_Stop_IT,"ax",%progbits
 3662              		.align	1
 3663              		.global	HAL_TIM_IC_Stop_IT
 3664              		.syntax unified
 3665              		.thumb
 3666              		.thumb_func
 3667              		.fpu fpv4-sp-d16
 3669              	HAL_TIM_IC_Stop_IT:
 3670              	.LFB161:
1719:Drivers/STM32F4xx_HAL_Driver/Src/stm32f4xx_hal_tim.c **** 
1720:Drivers/STM32F4xx_HAL_Driver/Src/stm32f4xx_hal_tim.c **** /**
1721:Drivers/STM32F4xx_HAL_Driver/Src/stm32f4xx_hal_tim.c ****   * @brief  Stops the TIM Input Capture measurement in interrupt mode.
1722:Drivers/STM32F4xx_HAL_Driver/Src/stm32f4xx_hal_tim.c ****   * @param  htim pointer to a TIM_HandleTypeDef structure that contains
1723:Drivers/STM32F4xx_HAL_Driver/Src/stm32f4xx_hal_tim.c ****   *                the configuration information for TIM module.
1724:Drivers/STM32F4xx_HAL_Driver/Src/stm32f4xx_hal_tim.c ****   * @param  Channel TIM Channels to be disabled.
1725:Drivers/STM32F4xx_HAL_Driver/Src/stm32f4xx_hal_tim.c ****   *          This parameter can be one of the following values:
1726:Drivers/STM32F4xx_HAL_Driver/Src/stm32f4xx_hal_tim.c ****   *            @arg TIM_CHANNEL_1: TIM Channel 1 selected
1727:Drivers/STM32F4xx_HAL_Driver/Src/stm32f4xx_hal_tim.c ****   *            @arg TIM_CHANNEL_2: TIM Channel 2 selected
1728:Drivers/STM32F4xx_HAL_Driver/Src/stm32f4xx_hal_tim.c ****   *            @arg TIM_CHANNEL_3: TIM Channel 3 selected
1729:Drivers/STM32F4xx_HAL_Driver/Src/stm32f4xx_hal_tim.c ****   *            @arg TIM_CHANNEL_4: TIM Channel 4 selected
1730:Drivers/STM32F4xx_HAL_Driver/Src/stm32f4xx_hal_tim.c ****   * @retval HAL status
1731:Drivers/STM32F4xx_HAL_Driver/Src/stm32f4xx_hal_tim.c ****   */
1732:Drivers/STM32F4xx_HAL_Driver/Src/stm32f4xx_hal_tim.c **** HAL_StatusTypeDef HAL_TIM_IC_Stop_IT(TIM_HandleTypeDef *htim, uint32_t Channel)
1733:Drivers/STM32F4xx_HAL_Driver/Src/stm32f4xx_hal_tim.c **** {
 3671              		.loc 1 1733 0
 3672              		.cfi_startproc
 3673              		@ args = 0, pretend = 0, frame = 8
 3674              		@ frame_needed = 1, uses_anonymous_args = 0
 3675 0000 80B5     		push	{r7, lr}
 3676              	.LCFI198:
 3677              		.cfi_def_cfa_offset 8
 3678              		.cfi_offset 7, -8
 3679              		.cfi_offset 14, -4
 3680 0002 82B0     		sub	sp, sp, #8
 3681              	.LCFI199:
 3682              		.cfi_def_cfa_offset 16
 3683 0004 00AF     		add	r7, sp, #0
 3684              	.LCFI200:
 3685              		.cfi_def_cfa_register 7
 3686 0006 7860     		str	r0, [r7, #4]
 3687 0008 3960     		str	r1, [r7]
1734:Drivers/STM32F4xx_HAL_Driver/Src/stm32f4xx_hal_tim.c ****   /* Check the parameters */
1735:Drivers/STM32F4xx_HAL_Driver/Src/stm32f4xx_hal_tim.c ****   assert_param(IS_TIM_CCX_INSTANCE(htim->Instance, Channel));
1736:Drivers/STM32F4xx_HAL_Driver/Src/stm32f4xx_hal_tim.c ****   
1737:Drivers/STM32F4xx_HAL_Driver/Src/stm32f4xx_hal_tim.c ****   switch (Channel)
 3688              		.loc 1 1737 0
 3689 000a 3B68     		ldr	r3, [r7]
 3690 000c 0C2B     		cmp	r3, #12
 3691 000e 41D8     		bhi	.L218
 3692 0010 01A2     		adr	r2, .L211
 3693 0012 52F823F0 		ldr	pc, [r2, r3, lsl #2]
 3694 0016 00BF     		.p2align 2
 3695              	.L211:
 3696 0018 4D000000 		.word	.L210+1
ARM GAS  /tmp/cc4tSQEQ.s 			page 95


 3697 001c 95000000 		.word	.L218+1
 3698 0020 95000000 		.word	.L218+1
 3699 0024 95000000 		.word	.L218+1
 3700 0028 5F000000 		.word	.L212+1
 3701 002c 95000000 		.word	.L218+1
 3702 0030 95000000 		.word	.L218+1
 3703 0034 95000000 		.word	.L218+1
 3704 0038 71000000 		.word	.L213+1
 3705 003c 95000000 		.word	.L218+1
 3706 0040 95000000 		.word	.L218+1
 3707 0044 95000000 		.word	.L218+1
 3708 0048 83000000 		.word	.L214+1
 3709              		.p2align 1
 3710              	.L210:
1738:Drivers/STM32F4xx_HAL_Driver/Src/stm32f4xx_hal_tim.c ****   {
1739:Drivers/STM32F4xx_HAL_Driver/Src/stm32f4xx_hal_tim.c ****     case TIM_CHANNEL_1:
1740:Drivers/STM32F4xx_HAL_Driver/Src/stm32f4xx_hal_tim.c ****     {       
1741:Drivers/STM32F4xx_HAL_Driver/Src/stm32f4xx_hal_tim.c ****       /* Disable the TIM Capture/Compare 1 interrupt */
1742:Drivers/STM32F4xx_HAL_Driver/Src/stm32f4xx_hal_tim.c ****       __HAL_TIM_DISABLE_IT(htim, TIM_IT_CC1);
 3711              		.loc 1 1742 0
 3712 004c 7B68     		ldr	r3, [r7, #4]
 3713 004e 1B68     		ldr	r3, [r3]
 3714 0050 7A68     		ldr	r2, [r7, #4]
 3715 0052 1268     		ldr	r2, [r2]
 3716 0054 D268     		ldr	r2, [r2, #12]
 3717 0056 22F00202 		bic	r2, r2, #2
 3718 005a DA60     		str	r2, [r3, #12]
1743:Drivers/STM32F4xx_HAL_Driver/Src/stm32f4xx_hal_tim.c ****     }
1744:Drivers/STM32F4xx_HAL_Driver/Src/stm32f4xx_hal_tim.c ****     break;
 3719              		.loc 1 1744 0
 3720 005c 1BE0     		b	.L215
 3721              	.L212:
1745:Drivers/STM32F4xx_HAL_Driver/Src/stm32f4xx_hal_tim.c ****     
1746:Drivers/STM32F4xx_HAL_Driver/Src/stm32f4xx_hal_tim.c ****     case TIM_CHANNEL_2:
1747:Drivers/STM32F4xx_HAL_Driver/Src/stm32f4xx_hal_tim.c ****     {
1748:Drivers/STM32F4xx_HAL_Driver/Src/stm32f4xx_hal_tim.c ****       /* Disable the TIM Capture/Compare 2 interrupt */
1749:Drivers/STM32F4xx_HAL_Driver/Src/stm32f4xx_hal_tim.c ****       __HAL_TIM_DISABLE_IT(htim, TIM_IT_CC2);
 3722              		.loc 1 1749 0
 3723 005e 7B68     		ldr	r3, [r7, #4]
 3724 0060 1B68     		ldr	r3, [r3]
 3725 0062 7A68     		ldr	r2, [r7, #4]
 3726 0064 1268     		ldr	r2, [r2]
 3727 0066 D268     		ldr	r2, [r2, #12]
 3728 0068 22F00402 		bic	r2, r2, #4
 3729 006c DA60     		str	r2, [r3, #12]
1750:Drivers/STM32F4xx_HAL_Driver/Src/stm32f4xx_hal_tim.c ****     }
1751:Drivers/STM32F4xx_HAL_Driver/Src/stm32f4xx_hal_tim.c ****     break;
 3730              		.loc 1 1751 0
 3731 006e 12E0     		b	.L215
 3732              	.L213:
1752:Drivers/STM32F4xx_HAL_Driver/Src/stm32f4xx_hal_tim.c ****     
1753:Drivers/STM32F4xx_HAL_Driver/Src/stm32f4xx_hal_tim.c ****     case TIM_CHANNEL_3:
1754:Drivers/STM32F4xx_HAL_Driver/Src/stm32f4xx_hal_tim.c ****     {
1755:Drivers/STM32F4xx_HAL_Driver/Src/stm32f4xx_hal_tim.c ****       /* Disable the TIM Capture/Compare 3 interrupt */
1756:Drivers/STM32F4xx_HAL_Driver/Src/stm32f4xx_hal_tim.c ****       __HAL_TIM_DISABLE_IT(htim, TIM_IT_CC3);
 3733              		.loc 1 1756 0
 3734 0070 7B68     		ldr	r3, [r7, #4]
ARM GAS  /tmp/cc4tSQEQ.s 			page 96


 3735 0072 1B68     		ldr	r3, [r3]
 3736 0074 7A68     		ldr	r2, [r7, #4]
 3737 0076 1268     		ldr	r2, [r2]
 3738 0078 D268     		ldr	r2, [r2, #12]
 3739 007a 22F00802 		bic	r2, r2, #8
 3740 007e DA60     		str	r2, [r3, #12]
1757:Drivers/STM32F4xx_HAL_Driver/Src/stm32f4xx_hal_tim.c ****     }
1758:Drivers/STM32F4xx_HAL_Driver/Src/stm32f4xx_hal_tim.c ****     break;
 3741              		.loc 1 1758 0
 3742 0080 09E0     		b	.L215
 3743              	.L214:
1759:Drivers/STM32F4xx_HAL_Driver/Src/stm32f4xx_hal_tim.c ****     
1760:Drivers/STM32F4xx_HAL_Driver/Src/stm32f4xx_hal_tim.c ****     case TIM_CHANNEL_4:
1761:Drivers/STM32F4xx_HAL_Driver/Src/stm32f4xx_hal_tim.c ****     {
1762:Drivers/STM32F4xx_HAL_Driver/Src/stm32f4xx_hal_tim.c ****       /* Disable the TIM Capture/Compare 4 interrupt */
1763:Drivers/STM32F4xx_HAL_Driver/Src/stm32f4xx_hal_tim.c ****       __HAL_TIM_DISABLE_IT(htim, TIM_IT_CC4);
 3744              		.loc 1 1763 0
 3745 0082 7B68     		ldr	r3, [r7, #4]
 3746 0084 1B68     		ldr	r3, [r3]
 3747 0086 7A68     		ldr	r2, [r7, #4]
 3748 0088 1268     		ldr	r2, [r2]
 3749 008a D268     		ldr	r2, [r2, #12]
 3750 008c 22F01002 		bic	r2, r2, #16
 3751 0090 DA60     		str	r2, [r3, #12]
1764:Drivers/STM32F4xx_HAL_Driver/Src/stm32f4xx_hal_tim.c ****     }
1765:Drivers/STM32F4xx_HAL_Driver/Src/stm32f4xx_hal_tim.c ****     break;
 3752              		.loc 1 1765 0
 3753 0092 00E0     		b	.L215
 3754              	.L218:
1766:Drivers/STM32F4xx_HAL_Driver/Src/stm32f4xx_hal_tim.c ****     
1767:Drivers/STM32F4xx_HAL_Driver/Src/stm32f4xx_hal_tim.c ****     default:
1768:Drivers/STM32F4xx_HAL_Driver/Src/stm32f4xx_hal_tim.c ****     break; 
 3755              		.loc 1 1768 0
 3756 0094 00BF     		nop
 3757              	.L215:
1769:Drivers/STM32F4xx_HAL_Driver/Src/stm32f4xx_hal_tim.c ****   } 
1770:Drivers/STM32F4xx_HAL_Driver/Src/stm32f4xx_hal_tim.c ****   
1771:Drivers/STM32F4xx_HAL_Driver/Src/stm32f4xx_hal_tim.c ****   /* Disable the Input Capture channel */
1772:Drivers/STM32F4xx_HAL_Driver/Src/stm32f4xx_hal_tim.c ****   TIM_CCxChannelCmd(htim->Instance, Channel, TIM_CCx_DISABLE); 
 3758              		.loc 1 1772 0
 3759 0096 7B68     		ldr	r3, [r7, #4]
 3760 0098 1B68     		ldr	r3, [r3]
 3761 009a 0022     		movs	r2, #0
 3762 009c 3968     		ldr	r1, [r7]
 3763 009e 1846     		mov	r0, r3
 3764 00a0 FFF7FEFF 		bl	TIM_CCxChannelCmd
1773:Drivers/STM32F4xx_HAL_Driver/Src/stm32f4xx_hal_tim.c ****   
1774:Drivers/STM32F4xx_HAL_Driver/Src/stm32f4xx_hal_tim.c ****   /* Disable the Peripheral */
1775:Drivers/STM32F4xx_HAL_Driver/Src/stm32f4xx_hal_tim.c ****   __HAL_TIM_DISABLE(htim); 
 3765              		.loc 1 1775 0
 3766 00a4 7B68     		ldr	r3, [r7, #4]
 3767 00a6 1B68     		ldr	r3, [r3]
 3768 00a8 1A6A     		ldr	r2, [r3, #32]
 3769 00aa 41F21113 		movw	r3, #4369
 3770 00ae 1340     		ands	r3, r3, r2
 3771 00b0 002B     		cmp	r3, #0
 3772 00b2 0FD1     		bne	.L216
ARM GAS  /tmp/cc4tSQEQ.s 			page 97


 3773              		.loc 1 1775 0 is_stmt 0 discriminator 1
 3774 00b4 7B68     		ldr	r3, [r7, #4]
 3775 00b6 1B68     		ldr	r3, [r3]
 3776 00b8 1A6A     		ldr	r2, [r3, #32]
 3777 00ba 40F24443 		movw	r3, #1092
 3778 00be 1340     		ands	r3, r3, r2
 3779 00c0 002B     		cmp	r3, #0
 3780 00c2 07D1     		bne	.L216
 3781              		.loc 1 1775 0 discriminator 2
 3782 00c4 7B68     		ldr	r3, [r7, #4]
 3783 00c6 1B68     		ldr	r3, [r3]
 3784 00c8 7A68     		ldr	r2, [r7, #4]
 3785 00ca 1268     		ldr	r2, [r2]
 3786 00cc 1268     		ldr	r2, [r2]
 3787 00ce 22F00102 		bic	r2, r2, #1
 3788 00d2 1A60     		str	r2, [r3]
 3789              	.L216:
1776:Drivers/STM32F4xx_HAL_Driver/Src/stm32f4xx_hal_tim.c ****   
1777:Drivers/STM32F4xx_HAL_Driver/Src/stm32f4xx_hal_tim.c ****   /* Return function status */
1778:Drivers/STM32F4xx_HAL_Driver/Src/stm32f4xx_hal_tim.c ****   return HAL_OK;
 3790              		.loc 1 1778 0 is_stmt 1
 3791 00d4 0023     		movs	r3, #0
1779:Drivers/STM32F4xx_HAL_Driver/Src/stm32f4xx_hal_tim.c **** }
 3792              		.loc 1 1779 0
 3793 00d6 1846     		mov	r0, r3
 3794 00d8 0837     		adds	r7, r7, #8
 3795              	.LCFI201:
 3796              		.cfi_def_cfa_offset 8
 3797 00da BD46     		mov	sp, r7
 3798              	.LCFI202:
 3799              		.cfi_def_cfa_register 13
 3800              		@ sp needed
 3801 00dc 80BD     		pop	{r7, pc}
 3802              		.cfi_endproc
 3803              	.LFE161:
 3805 00de 00BF     		.section	.text.HAL_TIM_IC_Start_DMA,"ax",%progbits
 3806              		.align	1
 3807              		.global	HAL_TIM_IC_Start_DMA
 3808              		.syntax unified
 3809              		.thumb
 3810              		.thumb_func
 3811              		.fpu fpv4-sp-d16
 3813              	HAL_TIM_IC_Start_DMA:
 3814              	.LFB162:
1780:Drivers/STM32F4xx_HAL_Driver/Src/stm32f4xx_hal_tim.c **** 
1781:Drivers/STM32F4xx_HAL_Driver/Src/stm32f4xx_hal_tim.c **** /**
1782:Drivers/STM32F4xx_HAL_Driver/Src/stm32f4xx_hal_tim.c ****   * @brief  Starts the TIM Input Capture measurement on in DMA mode.
1783:Drivers/STM32F4xx_HAL_Driver/Src/stm32f4xx_hal_tim.c ****   * @param  htim pointer to a TIM_HandleTypeDef structure that contains
1784:Drivers/STM32F4xx_HAL_Driver/Src/stm32f4xx_hal_tim.c ****   *                the configuration information for TIM module.
1785:Drivers/STM32F4xx_HAL_Driver/Src/stm32f4xx_hal_tim.c ****   * @param  Channel TIM Channels to be enabled.
1786:Drivers/STM32F4xx_HAL_Driver/Src/stm32f4xx_hal_tim.c ****   *          This parameter can be one of the following values:
1787:Drivers/STM32F4xx_HAL_Driver/Src/stm32f4xx_hal_tim.c ****   *            @arg TIM_CHANNEL_1: TIM Channel 1 selected
1788:Drivers/STM32F4xx_HAL_Driver/Src/stm32f4xx_hal_tim.c ****   *            @arg TIM_CHANNEL_2: TIM Channel 2 selected
1789:Drivers/STM32F4xx_HAL_Driver/Src/stm32f4xx_hal_tim.c ****   *            @arg TIM_CHANNEL_3: TIM Channel 3 selected
1790:Drivers/STM32F4xx_HAL_Driver/Src/stm32f4xx_hal_tim.c ****   *            @arg TIM_CHANNEL_4: TIM Channel 4 selected
1791:Drivers/STM32F4xx_HAL_Driver/Src/stm32f4xx_hal_tim.c ****   * @param  pData The destination Buffer address.
1792:Drivers/STM32F4xx_HAL_Driver/Src/stm32f4xx_hal_tim.c ****   * @param  Length The length of data to be transferred from TIM peripheral to memory.
ARM GAS  /tmp/cc4tSQEQ.s 			page 98


1793:Drivers/STM32F4xx_HAL_Driver/Src/stm32f4xx_hal_tim.c ****   * @retval HAL status
1794:Drivers/STM32F4xx_HAL_Driver/Src/stm32f4xx_hal_tim.c ****   */
1795:Drivers/STM32F4xx_HAL_Driver/Src/stm32f4xx_hal_tim.c **** HAL_StatusTypeDef HAL_TIM_IC_Start_DMA(TIM_HandleTypeDef *htim, uint32_t Channel, uint32_t *pData, 
1796:Drivers/STM32F4xx_HAL_Driver/Src/stm32f4xx_hal_tim.c **** {
 3815              		.loc 1 1796 0
 3816              		.cfi_startproc
 3817              		@ args = 0, pretend = 0, frame = 16
 3818              		@ frame_needed = 1, uses_anonymous_args = 0
 3819 0000 80B5     		push	{r7, lr}
 3820              	.LCFI203:
 3821              		.cfi_def_cfa_offset 8
 3822              		.cfi_offset 7, -8
 3823              		.cfi_offset 14, -4
 3824 0002 84B0     		sub	sp, sp, #16
 3825              	.LCFI204:
 3826              		.cfi_def_cfa_offset 24
 3827 0004 00AF     		add	r7, sp, #0
 3828              	.LCFI205:
 3829              		.cfi_def_cfa_register 7
 3830 0006 F860     		str	r0, [r7, #12]
 3831 0008 B960     		str	r1, [r7, #8]
 3832 000a 7A60     		str	r2, [r7, #4]
 3833 000c 7B80     		strh	r3, [r7, #2]	@ movhi
1797:Drivers/STM32F4xx_HAL_Driver/Src/stm32f4xx_hal_tim.c ****   /* Check the parameters */
1798:Drivers/STM32F4xx_HAL_Driver/Src/stm32f4xx_hal_tim.c ****   assert_param(IS_TIM_CCX_INSTANCE(htim->Instance, Channel));
1799:Drivers/STM32F4xx_HAL_Driver/Src/stm32f4xx_hal_tim.c ****   assert_param(IS_TIM_DMA_CC_INSTANCE(htim->Instance));
1800:Drivers/STM32F4xx_HAL_Driver/Src/stm32f4xx_hal_tim.c ****   
1801:Drivers/STM32F4xx_HAL_Driver/Src/stm32f4xx_hal_tim.c ****   if((htim->State == HAL_TIM_STATE_BUSY))
 3834              		.loc 1 1801 0
 3835 000e FB68     		ldr	r3, [r7, #12]
 3836 0010 93F83930 		ldrb	r3, [r3, #57]
 3837 0014 DBB2     		uxtb	r3, r3
 3838 0016 022B     		cmp	r3, #2
 3839 0018 01D1     		bne	.L220
1802:Drivers/STM32F4xx_HAL_Driver/Src/stm32f4xx_hal_tim.c ****   {
1803:Drivers/STM32F4xx_HAL_Driver/Src/stm32f4xx_hal_tim.c ****      return HAL_BUSY;
 3840              		.loc 1 1803 0
 3841 001a 0223     		movs	r3, #2
 3842 001c AFE0     		b	.L221
 3843              	.L220:
1804:Drivers/STM32F4xx_HAL_Driver/Src/stm32f4xx_hal_tim.c ****   }
1805:Drivers/STM32F4xx_HAL_Driver/Src/stm32f4xx_hal_tim.c ****   else if((htim->State == HAL_TIM_STATE_READY))
 3844              		.loc 1 1805 0
 3845 001e FB68     		ldr	r3, [r7, #12]
 3846 0020 93F83930 		ldrb	r3, [r3, #57]
 3847 0024 DBB2     		uxtb	r3, r3
 3848 0026 012B     		cmp	r3, #1
 3849 0028 0BD1     		bne	.L222
1806:Drivers/STM32F4xx_HAL_Driver/Src/stm32f4xx_hal_tim.c ****   {
1807:Drivers/STM32F4xx_HAL_Driver/Src/stm32f4xx_hal_tim.c ****     if((pData == 0U) && (Length > 0)) 
 3850              		.loc 1 1807 0
 3851 002a 7B68     		ldr	r3, [r7, #4]
 3852 002c 002B     		cmp	r3, #0
 3853 002e 04D1     		bne	.L223
 3854              		.loc 1 1807 0 is_stmt 0 discriminator 1
 3855 0030 7B88     		ldrh	r3, [r7, #2]
 3856 0032 002B     		cmp	r3, #0
ARM GAS  /tmp/cc4tSQEQ.s 			page 99


 3857 0034 01D0     		beq	.L223
1808:Drivers/STM32F4xx_HAL_Driver/Src/stm32f4xx_hal_tim.c ****     {
1809:Drivers/STM32F4xx_HAL_Driver/Src/stm32f4xx_hal_tim.c ****       return HAL_ERROR;                                    
 3858              		.loc 1 1809 0 is_stmt 1
 3859 0036 0123     		movs	r3, #1
 3860 0038 A1E0     		b	.L221
 3861              	.L223:
1810:Drivers/STM32F4xx_HAL_Driver/Src/stm32f4xx_hal_tim.c ****     }
1811:Drivers/STM32F4xx_HAL_Driver/Src/stm32f4xx_hal_tim.c ****     else
1812:Drivers/STM32F4xx_HAL_Driver/Src/stm32f4xx_hal_tim.c ****     {
1813:Drivers/STM32F4xx_HAL_Driver/Src/stm32f4xx_hal_tim.c ****       htim->State = HAL_TIM_STATE_BUSY;
 3862              		.loc 1 1813 0
 3863 003a FB68     		ldr	r3, [r7, #12]
 3864 003c 0222     		movs	r2, #2
 3865 003e 83F83920 		strb	r2, [r3, #57]
 3866              	.L222:
1814:Drivers/STM32F4xx_HAL_Driver/Src/stm32f4xx_hal_tim.c ****     }
1815:Drivers/STM32F4xx_HAL_Driver/Src/stm32f4xx_hal_tim.c ****   }  
1816:Drivers/STM32F4xx_HAL_Driver/Src/stm32f4xx_hal_tim.c ****    
1817:Drivers/STM32F4xx_HAL_Driver/Src/stm32f4xx_hal_tim.c ****   switch (Channel)
 3867              		.loc 1 1817 0
 3868 0042 BB68     		ldr	r3, [r7, #8]
 3869 0044 0C2B     		cmp	r3, #12
 3870 0046 00F28980 		bhi	.L231
 3871 004a 01A2     		adr	r2, .L226
 3872 004c 52F823F0 		ldr	pc, [r2, r3, lsl #2]
 3873              		.p2align 2
 3874              	.L226:
 3875 0050 85000000 		.word	.L225+1
 3876 0054 5D010000 		.word	.L231+1
 3877 0058 5D010000 		.word	.L231+1
 3878 005c 5D010000 		.word	.L231+1
 3879 0060 BB000000 		.word	.L227+1
 3880 0064 5D010000 		.word	.L231+1
 3881 0068 5D010000 		.word	.L231+1
 3882 006c 5D010000 		.word	.L231+1
 3883 0070 F1000000 		.word	.L228+1
 3884 0074 5D010000 		.word	.L231+1
 3885 0078 5D010000 		.word	.L231+1
 3886 007c 5D010000 		.word	.L231+1
 3887 0080 27010000 		.word	.L229+1
 3888              		.p2align 1
 3889              	.L225:
1818:Drivers/STM32F4xx_HAL_Driver/Src/stm32f4xx_hal_tim.c ****   {
1819:Drivers/STM32F4xx_HAL_Driver/Src/stm32f4xx_hal_tim.c ****     case TIM_CHANNEL_1:
1820:Drivers/STM32F4xx_HAL_Driver/Src/stm32f4xx_hal_tim.c ****     {
1821:Drivers/STM32F4xx_HAL_Driver/Src/stm32f4xx_hal_tim.c ****       /* Set the DMA Period elapsed callback */
1822:Drivers/STM32F4xx_HAL_Driver/Src/stm32f4xx_hal_tim.c ****       htim->hdma[TIM_DMA_ID_CC1]->XferCpltCallback = TIM_DMACaptureCplt;
 3890              		.loc 1 1822 0
 3891 0084 FB68     		ldr	r3, [r7, #12]
 3892 0086 1B6A     		ldr	r3, [r3, #32]
 3893 0088 3F4A     		ldr	r2, .L232
 3894 008a DA63     		str	r2, [r3, #60]
1823:Drivers/STM32F4xx_HAL_Driver/Src/stm32f4xx_hal_tim.c ****      
1824:Drivers/STM32F4xx_HAL_Driver/Src/stm32f4xx_hal_tim.c ****       /* Set the DMA error callback */
1825:Drivers/STM32F4xx_HAL_Driver/Src/stm32f4xx_hal_tim.c ****       htim->hdma[TIM_DMA_ID_CC1]->XferErrorCallback = TIM_DMAError ;
 3895              		.loc 1 1825 0
ARM GAS  /tmp/cc4tSQEQ.s 			page 100


 3896 008c FB68     		ldr	r3, [r7, #12]
 3897 008e 1B6A     		ldr	r3, [r3, #32]
 3898 0090 3E4A     		ldr	r2, .L232+4
 3899 0092 DA64     		str	r2, [r3, #76]
1826:Drivers/STM32F4xx_HAL_Driver/Src/stm32f4xx_hal_tim.c ****       
1827:Drivers/STM32F4xx_HAL_Driver/Src/stm32f4xx_hal_tim.c ****       /* Enable the DMA Stream */
1828:Drivers/STM32F4xx_HAL_Driver/Src/stm32f4xx_hal_tim.c ****       HAL_DMA_Start_IT(htim->hdma[TIM_DMA_ID_CC1], (uint32_t)&htim->Instance->CCR1, (uint32_t)pData
 3900              		.loc 1 1828 0
 3901 0094 FB68     		ldr	r3, [r7, #12]
 3902 0096 186A     		ldr	r0, [r3, #32]
 3903 0098 FB68     		ldr	r3, [r7, #12]
 3904 009a 1B68     		ldr	r3, [r3]
 3905 009c 3433     		adds	r3, r3, #52
 3906 009e 1946     		mov	r1, r3
 3907 00a0 7A68     		ldr	r2, [r7, #4]
 3908 00a2 7B88     		ldrh	r3, [r7, #2]
 3909 00a4 FFF7FEFF 		bl	HAL_DMA_Start_IT
1829:Drivers/STM32F4xx_HAL_Driver/Src/stm32f4xx_hal_tim.c ****       
1830:Drivers/STM32F4xx_HAL_Driver/Src/stm32f4xx_hal_tim.c ****       /* Enable the TIM Capture/Compare 1 DMA request */      
1831:Drivers/STM32F4xx_HAL_Driver/Src/stm32f4xx_hal_tim.c ****       __HAL_TIM_ENABLE_DMA(htim, TIM_DMA_CC1);
 3910              		.loc 1 1831 0
 3911 00a8 FB68     		ldr	r3, [r7, #12]
 3912 00aa 1B68     		ldr	r3, [r3]
 3913 00ac FA68     		ldr	r2, [r7, #12]
 3914 00ae 1268     		ldr	r2, [r2]
 3915 00b0 D268     		ldr	r2, [r2, #12]
 3916 00b2 42F40072 		orr	r2, r2, #512
 3917 00b6 DA60     		str	r2, [r3, #12]
1832:Drivers/STM32F4xx_HAL_Driver/Src/stm32f4xx_hal_tim.c ****     }
1833:Drivers/STM32F4xx_HAL_Driver/Src/stm32f4xx_hal_tim.c ****     break;
 3918              		.loc 1 1833 0
 3919 00b8 51E0     		b	.L230
 3920              	.L227:
1834:Drivers/STM32F4xx_HAL_Driver/Src/stm32f4xx_hal_tim.c ****     
1835:Drivers/STM32F4xx_HAL_Driver/Src/stm32f4xx_hal_tim.c ****     case TIM_CHANNEL_2:
1836:Drivers/STM32F4xx_HAL_Driver/Src/stm32f4xx_hal_tim.c ****     {
1837:Drivers/STM32F4xx_HAL_Driver/Src/stm32f4xx_hal_tim.c ****       /* Set the DMA Period elapsed callback */
1838:Drivers/STM32F4xx_HAL_Driver/Src/stm32f4xx_hal_tim.c ****       htim->hdma[TIM_DMA_ID_CC2]->XferCpltCallback = TIM_DMACaptureCplt;
 3921              		.loc 1 1838 0
 3922 00ba FB68     		ldr	r3, [r7, #12]
 3923 00bc 5B6A     		ldr	r3, [r3, #36]
 3924 00be 324A     		ldr	r2, .L232
 3925 00c0 DA63     		str	r2, [r3, #60]
1839:Drivers/STM32F4xx_HAL_Driver/Src/stm32f4xx_hal_tim.c ****      
1840:Drivers/STM32F4xx_HAL_Driver/Src/stm32f4xx_hal_tim.c ****       /* Set the DMA error callback */
1841:Drivers/STM32F4xx_HAL_Driver/Src/stm32f4xx_hal_tim.c ****       htim->hdma[TIM_DMA_ID_CC2]->XferErrorCallback = TIM_DMAError ;
 3926              		.loc 1 1841 0
 3927 00c2 FB68     		ldr	r3, [r7, #12]
 3928 00c4 5B6A     		ldr	r3, [r3, #36]
 3929 00c6 314A     		ldr	r2, .L232+4
 3930 00c8 DA64     		str	r2, [r3, #76]
1842:Drivers/STM32F4xx_HAL_Driver/Src/stm32f4xx_hal_tim.c ****       
1843:Drivers/STM32F4xx_HAL_Driver/Src/stm32f4xx_hal_tim.c ****       /* Enable the DMA Stream */
1844:Drivers/STM32F4xx_HAL_Driver/Src/stm32f4xx_hal_tim.c ****       HAL_DMA_Start_IT(htim->hdma[TIM_DMA_ID_CC2], (uint32_t)&htim->Instance->CCR2, (uint32_t)pData
 3931              		.loc 1 1844 0
 3932 00ca FB68     		ldr	r3, [r7, #12]
 3933 00cc 586A     		ldr	r0, [r3, #36]
ARM GAS  /tmp/cc4tSQEQ.s 			page 101


 3934 00ce FB68     		ldr	r3, [r7, #12]
 3935 00d0 1B68     		ldr	r3, [r3]
 3936 00d2 3833     		adds	r3, r3, #56
 3937 00d4 1946     		mov	r1, r3
 3938 00d6 7A68     		ldr	r2, [r7, #4]
 3939 00d8 7B88     		ldrh	r3, [r7, #2]
 3940 00da FFF7FEFF 		bl	HAL_DMA_Start_IT
1845:Drivers/STM32F4xx_HAL_Driver/Src/stm32f4xx_hal_tim.c ****       
1846:Drivers/STM32F4xx_HAL_Driver/Src/stm32f4xx_hal_tim.c ****       /* Enable the TIM Capture/Compare 2  DMA request */
1847:Drivers/STM32F4xx_HAL_Driver/Src/stm32f4xx_hal_tim.c ****       __HAL_TIM_ENABLE_DMA(htim, TIM_DMA_CC2);
 3941              		.loc 1 1847 0
 3942 00de FB68     		ldr	r3, [r7, #12]
 3943 00e0 1B68     		ldr	r3, [r3]
 3944 00e2 FA68     		ldr	r2, [r7, #12]
 3945 00e4 1268     		ldr	r2, [r2]
 3946 00e6 D268     		ldr	r2, [r2, #12]
 3947 00e8 42F48062 		orr	r2, r2, #1024
 3948 00ec DA60     		str	r2, [r3, #12]
1848:Drivers/STM32F4xx_HAL_Driver/Src/stm32f4xx_hal_tim.c ****     }
1849:Drivers/STM32F4xx_HAL_Driver/Src/stm32f4xx_hal_tim.c ****     break;
 3949              		.loc 1 1849 0
 3950 00ee 36E0     		b	.L230
 3951              	.L228:
1850:Drivers/STM32F4xx_HAL_Driver/Src/stm32f4xx_hal_tim.c ****     
1851:Drivers/STM32F4xx_HAL_Driver/Src/stm32f4xx_hal_tim.c ****     case TIM_CHANNEL_3:
1852:Drivers/STM32F4xx_HAL_Driver/Src/stm32f4xx_hal_tim.c ****     {
1853:Drivers/STM32F4xx_HAL_Driver/Src/stm32f4xx_hal_tim.c ****       /* Set the DMA Period elapsed callback */
1854:Drivers/STM32F4xx_HAL_Driver/Src/stm32f4xx_hal_tim.c ****       htim->hdma[TIM_DMA_ID_CC3]->XferCpltCallback = TIM_DMACaptureCplt;
 3952              		.loc 1 1854 0
 3953 00f0 FB68     		ldr	r3, [r7, #12]
 3954 00f2 9B6A     		ldr	r3, [r3, #40]
 3955 00f4 244A     		ldr	r2, .L232
 3956 00f6 DA63     		str	r2, [r3, #60]
1855:Drivers/STM32F4xx_HAL_Driver/Src/stm32f4xx_hal_tim.c ****      
1856:Drivers/STM32F4xx_HAL_Driver/Src/stm32f4xx_hal_tim.c ****       /* Set the DMA error callback */
1857:Drivers/STM32F4xx_HAL_Driver/Src/stm32f4xx_hal_tim.c ****       htim->hdma[TIM_DMA_ID_CC3]->XferErrorCallback = TIM_DMAError ;
 3957              		.loc 1 1857 0
 3958 00f8 FB68     		ldr	r3, [r7, #12]
 3959 00fa 9B6A     		ldr	r3, [r3, #40]
 3960 00fc 234A     		ldr	r2, .L232+4
 3961 00fe DA64     		str	r2, [r3, #76]
1858:Drivers/STM32F4xx_HAL_Driver/Src/stm32f4xx_hal_tim.c ****       
1859:Drivers/STM32F4xx_HAL_Driver/Src/stm32f4xx_hal_tim.c ****       /* Enable the DMA Stream */
1860:Drivers/STM32F4xx_HAL_Driver/Src/stm32f4xx_hal_tim.c ****       HAL_DMA_Start_IT(htim->hdma[TIM_DMA_ID_CC3], (uint32_t)&htim->Instance->CCR3, (uint32_t)pData
 3962              		.loc 1 1860 0
 3963 0100 FB68     		ldr	r3, [r7, #12]
 3964 0102 986A     		ldr	r0, [r3, #40]
 3965 0104 FB68     		ldr	r3, [r7, #12]
 3966 0106 1B68     		ldr	r3, [r3]
 3967 0108 3C33     		adds	r3, r3, #60
 3968 010a 1946     		mov	r1, r3
 3969 010c 7A68     		ldr	r2, [r7, #4]
 3970 010e 7B88     		ldrh	r3, [r7, #2]
 3971 0110 FFF7FEFF 		bl	HAL_DMA_Start_IT
1861:Drivers/STM32F4xx_HAL_Driver/Src/stm32f4xx_hal_tim.c ****       
1862:Drivers/STM32F4xx_HAL_Driver/Src/stm32f4xx_hal_tim.c ****       /* Enable the TIM Capture/Compare 3  DMA request */
1863:Drivers/STM32F4xx_HAL_Driver/Src/stm32f4xx_hal_tim.c ****       __HAL_TIM_ENABLE_DMA(htim, TIM_DMA_CC3);
ARM GAS  /tmp/cc4tSQEQ.s 			page 102


 3972              		.loc 1 1863 0
 3973 0114 FB68     		ldr	r3, [r7, #12]
 3974 0116 1B68     		ldr	r3, [r3]
 3975 0118 FA68     		ldr	r2, [r7, #12]
 3976 011a 1268     		ldr	r2, [r2]
 3977 011c D268     		ldr	r2, [r2, #12]
 3978 011e 42F40062 		orr	r2, r2, #2048
 3979 0122 DA60     		str	r2, [r3, #12]
1864:Drivers/STM32F4xx_HAL_Driver/Src/stm32f4xx_hal_tim.c ****     }
1865:Drivers/STM32F4xx_HAL_Driver/Src/stm32f4xx_hal_tim.c ****     break;
 3980              		.loc 1 1865 0
 3981 0124 1BE0     		b	.L230
 3982              	.L229:
1866:Drivers/STM32F4xx_HAL_Driver/Src/stm32f4xx_hal_tim.c ****     
1867:Drivers/STM32F4xx_HAL_Driver/Src/stm32f4xx_hal_tim.c ****     case TIM_CHANNEL_4:
1868:Drivers/STM32F4xx_HAL_Driver/Src/stm32f4xx_hal_tim.c ****     {
1869:Drivers/STM32F4xx_HAL_Driver/Src/stm32f4xx_hal_tim.c ****       /* Set the DMA Period elapsed callback */
1870:Drivers/STM32F4xx_HAL_Driver/Src/stm32f4xx_hal_tim.c ****       htim->hdma[TIM_DMA_ID_CC4]->XferCpltCallback = TIM_DMACaptureCplt;
 3983              		.loc 1 1870 0
 3984 0126 FB68     		ldr	r3, [r7, #12]
 3985 0128 DB6A     		ldr	r3, [r3, #44]
 3986 012a 174A     		ldr	r2, .L232
 3987 012c DA63     		str	r2, [r3, #60]
1871:Drivers/STM32F4xx_HAL_Driver/Src/stm32f4xx_hal_tim.c ****      
1872:Drivers/STM32F4xx_HAL_Driver/Src/stm32f4xx_hal_tim.c ****       /* Set the DMA error callback */
1873:Drivers/STM32F4xx_HAL_Driver/Src/stm32f4xx_hal_tim.c ****       htim->hdma[TIM_DMA_ID_CC4]->XferErrorCallback = TIM_DMAError ;
 3988              		.loc 1 1873 0
 3989 012e FB68     		ldr	r3, [r7, #12]
 3990 0130 DB6A     		ldr	r3, [r3, #44]
 3991 0132 164A     		ldr	r2, .L232+4
 3992 0134 DA64     		str	r2, [r3, #76]
1874:Drivers/STM32F4xx_HAL_Driver/Src/stm32f4xx_hal_tim.c ****       
1875:Drivers/STM32F4xx_HAL_Driver/Src/stm32f4xx_hal_tim.c ****       /* Enable the DMA Stream */
1876:Drivers/STM32F4xx_HAL_Driver/Src/stm32f4xx_hal_tim.c ****       HAL_DMA_Start_IT(htim->hdma[TIM_DMA_ID_CC4], (uint32_t)&htim->Instance->CCR4, (uint32_t)pData
 3993              		.loc 1 1876 0
 3994 0136 FB68     		ldr	r3, [r7, #12]
 3995 0138 D86A     		ldr	r0, [r3, #44]
 3996 013a FB68     		ldr	r3, [r7, #12]
 3997 013c 1B68     		ldr	r3, [r3]
 3998 013e 4033     		adds	r3, r3, #64
 3999 0140 1946     		mov	r1, r3
 4000 0142 7A68     		ldr	r2, [r7, #4]
 4001 0144 7B88     		ldrh	r3, [r7, #2]
 4002 0146 FFF7FEFF 		bl	HAL_DMA_Start_IT
1877:Drivers/STM32F4xx_HAL_Driver/Src/stm32f4xx_hal_tim.c ****       
1878:Drivers/STM32F4xx_HAL_Driver/Src/stm32f4xx_hal_tim.c ****       /* Enable the TIM Capture/Compare 4  DMA request */
1879:Drivers/STM32F4xx_HAL_Driver/Src/stm32f4xx_hal_tim.c ****       __HAL_TIM_ENABLE_DMA(htim, TIM_DMA_CC4);
 4003              		.loc 1 1879 0
 4004 014a FB68     		ldr	r3, [r7, #12]
 4005 014c 1B68     		ldr	r3, [r3]
 4006 014e FA68     		ldr	r2, [r7, #12]
 4007 0150 1268     		ldr	r2, [r2]
 4008 0152 D268     		ldr	r2, [r2, #12]
 4009 0154 42F48052 		orr	r2, r2, #4096
 4010 0158 DA60     		str	r2, [r3, #12]
1880:Drivers/STM32F4xx_HAL_Driver/Src/stm32f4xx_hal_tim.c ****     }
1881:Drivers/STM32F4xx_HAL_Driver/Src/stm32f4xx_hal_tim.c ****     break;
ARM GAS  /tmp/cc4tSQEQ.s 			page 103


 4011              		.loc 1 1881 0
 4012 015a 00E0     		b	.L230
 4013              	.L231:
1882:Drivers/STM32F4xx_HAL_Driver/Src/stm32f4xx_hal_tim.c ****     
1883:Drivers/STM32F4xx_HAL_Driver/Src/stm32f4xx_hal_tim.c ****     default:
1884:Drivers/STM32F4xx_HAL_Driver/Src/stm32f4xx_hal_tim.c ****     break;
 4014              		.loc 1 1884 0
 4015 015c 00BF     		nop
 4016              	.L230:
1885:Drivers/STM32F4xx_HAL_Driver/Src/stm32f4xx_hal_tim.c ****   }
1886:Drivers/STM32F4xx_HAL_Driver/Src/stm32f4xx_hal_tim.c **** 
1887:Drivers/STM32F4xx_HAL_Driver/Src/stm32f4xx_hal_tim.c ****   /* Enable the Input Capture channel */
1888:Drivers/STM32F4xx_HAL_Driver/Src/stm32f4xx_hal_tim.c ****   TIM_CCxChannelCmd(htim->Instance, Channel, TIM_CCx_ENABLE);
 4017              		.loc 1 1888 0
 4018 015e FB68     		ldr	r3, [r7, #12]
 4019 0160 1B68     		ldr	r3, [r3]
 4020 0162 0122     		movs	r2, #1
 4021 0164 B968     		ldr	r1, [r7, #8]
 4022 0166 1846     		mov	r0, r3
 4023 0168 FFF7FEFF 		bl	TIM_CCxChannelCmd
1889:Drivers/STM32F4xx_HAL_Driver/Src/stm32f4xx_hal_tim.c ****    
1890:Drivers/STM32F4xx_HAL_Driver/Src/stm32f4xx_hal_tim.c ****   /* Enable the Peripheral */
1891:Drivers/STM32F4xx_HAL_Driver/Src/stm32f4xx_hal_tim.c ****   __HAL_TIM_ENABLE(htim); 
 4024              		.loc 1 1891 0
 4025 016c FB68     		ldr	r3, [r7, #12]
 4026 016e 1B68     		ldr	r3, [r3]
 4027 0170 FA68     		ldr	r2, [r7, #12]
 4028 0172 1268     		ldr	r2, [r2]
 4029 0174 1268     		ldr	r2, [r2]
 4030 0176 42F00102 		orr	r2, r2, #1
 4031 017a 1A60     		str	r2, [r3]
1892:Drivers/STM32F4xx_HAL_Driver/Src/stm32f4xx_hal_tim.c ****   
1893:Drivers/STM32F4xx_HAL_Driver/Src/stm32f4xx_hal_tim.c ****   /* Return function status */
1894:Drivers/STM32F4xx_HAL_Driver/Src/stm32f4xx_hal_tim.c ****   return HAL_OK;
 4032              		.loc 1 1894 0
 4033 017c 0023     		movs	r3, #0
 4034              	.L221:
1895:Drivers/STM32F4xx_HAL_Driver/Src/stm32f4xx_hal_tim.c **** }
 4035              		.loc 1 1895 0
 4036 017e 1846     		mov	r0, r3
 4037 0180 1037     		adds	r7, r7, #16
 4038              	.LCFI206:
 4039              		.cfi_def_cfa_offset 8
 4040 0182 BD46     		mov	sp, r7
 4041              	.LCFI207:
 4042              		.cfi_def_cfa_register 13
 4043              		@ sp needed
 4044 0184 80BD     		pop	{r7, pc}
 4045              	.L233:
 4046 0186 00BF     		.align	2
 4047              	.L232:
 4048 0188 00000000 		.word	TIM_DMACaptureCplt
 4049 018c 00000000 		.word	TIM_DMAError
 4050              		.cfi_endproc
 4051              	.LFE162:
 4053              		.section	.text.HAL_TIM_IC_Stop_DMA,"ax",%progbits
 4054              		.align	1
ARM GAS  /tmp/cc4tSQEQ.s 			page 104


 4055              		.global	HAL_TIM_IC_Stop_DMA
 4056              		.syntax unified
 4057              		.thumb
 4058              		.thumb_func
 4059              		.fpu fpv4-sp-d16
 4061              	HAL_TIM_IC_Stop_DMA:
 4062              	.LFB163:
1896:Drivers/STM32F4xx_HAL_Driver/Src/stm32f4xx_hal_tim.c **** 
1897:Drivers/STM32F4xx_HAL_Driver/Src/stm32f4xx_hal_tim.c **** /**
1898:Drivers/STM32F4xx_HAL_Driver/Src/stm32f4xx_hal_tim.c ****   * @brief  Stops the TIM Input Capture measurement on in DMA mode.
1899:Drivers/STM32F4xx_HAL_Driver/Src/stm32f4xx_hal_tim.c ****   * @param  htim pointer to a TIM_HandleTypeDef structure that contains
1900:Drivers/STM32F4xx_HAL_Driver/Src/stm32f4xx_hal_tim.c ****   *                the configuration information for TIM module.
1901:Drivers/STM32F4xx_HAL_Driver/Src/stm32f4xx_hal_tim.c ****   * @param  Channel TIM Channels to be disabled.
1902:Drivers/STM32F4xx_HAL_Driver/Src/stm32f4xx_hal_tim.c ****   *          This parameter can be one of the following values:
1903:Drivers/STM32F4xx_HAL_Driver/Src/stm32f4xx_hal_tim.c ****   *            @arg TIM_CHANNEL_1: TIM Channel 1 selected
1904:Drivers/STM32F4xx_HAL_Driver/Src/stm32f4xx_hal_tim.c ****   *            @arg TIM_CHANNEL_2: TIM Channel 2 selected
1905:Drivers/STM32F4xx_HAL_Driver/Src/stm32f4xx_hal_tim.c ****   *            @arg TIM_CHANNEL_3: TIM Channel 3 selected
1906:Drivers/STM32F4xx_HAL_Driver/Src/stm32f4xx_hal_tim.c ****   *            @arg TIM_CHANNEL_4: TIM Channel 4 selected
1907:Drivers/STM32F4xx_HAL_Driver/Src/stm32f4xx_hal_tim.c ****   * @retval HAL status
1908:Drivers/STM32F4xx_HAL_Driver/Src/stm32f4xx_hal_tim.c ****   */
1909:Drivers/STM32F4xx_HAL_Driver/Src/stm32f4xx_hal_tim.c **** HAL_StatusTypeDef HAL_TIM_IC_Stop_DMA(TIM_HandleTypeDef *htim, uint32_t Channel)
1910:Drivers/STM32F4xx_HAL_Driver/Src/stm32f4xx_hal_tim.c **** {
 4063              		.loc 1 1910 0
 4064              		.cfi_startproc
 4065              		@ args = 0, pretend = 0, frame = 8
 4066              		@ frame_needed = 1, uses_anonymous_args = 0
 4067 0000 80B5     		push	{r7, lr}
 4068              	.LCFI208:
 4069              		.cfi_def_cfa_offset 8
 4070              		.cfi_offset 7, -8
 4071              		.cfi_offset 14, -4
 4072 0002 82B0     		sub	sp, sp, #8
 4073              	.LCFI209:
 4074              		.cfi_def_cfa_offset 16
 4075 0004 00AF     		add	r7, sp, #0
 4076              	.LCFI210:
 4077              		.cfi_def_cfa_register 7
 4078 0006 7860     		str	r0, [r7, #4]
 4079 0008 3960     		str	r1, [r7]
1911:Drivers/STM32F4xx_HAL_Driver/Src/stm32f4xx_hal_tim.c ****   /* Check the parameters */
1912:Drivers/STM32F4xx_HAL_Driver/Src/stm32f4xx_hal_tim.c ****   assert_param(IS_TIM_CCX_INSTANCE(htim->Instance, Channel));
1913:Drivers/STM32F4xx_HAL_Driver/Src/stm32f4xx_hal_tim.c ****   assert_param(IS_TIM_DMA_CC_INSTANCE(htim->Instance));
1914:Drivers/STM32F4xx_HAL_Driver/Src/stm32f4xx_hal_tim.c ****   
1915:Drivers/STM32F4xx_HAL_Driver/Src/stm32f4xx_hal_tim.c ****   switch (Channel)
 4080              		.loc 1 1915 0
 4081 000a 3B68     		ldr	r3, [r7]
 4082 000c 0C2B     		cmp	r3, #12
 4083 000e 41D8     		bhi	.L244
 4084 0010 01A2     		adr	r2, .L237
 4085 0012 52F823F0 		ldr	pc, [r2, r3, lsl #2]
 4086 0016 00BF     		.p2align 2
 4087              	.L237:
 4088 0018 4D000000 		.word	.L236+1
 4089 001c 95000000 		.word	.L244+1
 4090 0020 95000000 		.word	.L244+1
 4091 0024 95000000 		.word	.L244+1
 4092 0028 5F000000 		.word	.L238+1
ARM GAS  /tmp/cc4tSQEQ.s 			page 105


 4093 002c 95000000 		.word	.L244+1
 4094 0030 95000000 		.word	.L244+1
 4095 0034 95000000 		.word	.L244+1
 4096 0038 71000000 		.word	.L239+1
 4097 003c 95000000 		.word	.L244+1
 4098 0040 95000000 		.word	.L244+1
 4099 0044 95000000 		.word	.L244+1
 4100 0048 83000000 		.word	.L240+1
 4101              		.p2align 1
 4102              	.L236:
1916:Drivers/STM32F4xx_HAL_Driver/Src/stm32f4xx_hal_tim.c ****   {
1917:Drivers/STM32F4xx_HAL_Driver/Src/stm32f4xx_hal_tim.c ****     case TIM_CHANNEL_1:
1918:Drivers/STM32F4xx_HAL_Driver/Src/stm32f4xx_hal_tim.c ****     {       
1919:Drivers/STM32F4xx_HAL_Driver/Src/stm32f4xx_hal_tim.c ****       /* Disable the TIM Capture/Compare 1 DMA request */
1920:Drivers/STM32F4xx_HAL_Driver/Src/stm32f4xx_hal_tim.c ****       __HAL_TIM_DISABLE_DMA(htim, TIM_DMA_CC1);
 4103              		.loc 1 1920 0
 4104 004c 7B68     		ldr	r3, [r7, #4]
 4105 004e 1B68     		ldr	r3, [r3]
 4106 0050 7A68     		ldr	r2, [r7, #4]
 4107 0052 1268     		ldr	r2, [r2]
 4108 0054 D268     		ldr	r2, [r2, #12]
 4109 0056 22F40072 		bic	r2, r2, #512
 4110 005a DA60     		str	r2, [r3, #12]
1921:Drivers/STM32F4xx_HAL_Driver/Src/stm32f4xx_hal_tim.c ****     }
1922:Drivers/STM32F4xx_HAL_Driver/Src/stm32f4xx_hal_tim.c ****     break;
 4111              		.loc 1 1922 0
 4112 005c 1BE0     		b	.L241
 4113              	.L238:
1923:Drivers/STM32F4xx_HAL_Driver/Src/stm32f4xx_hal_tim.c ****     
1924:Drivers/STM32F4xx_HAL_Driver/Src/stm32f4xx_hal_tim.c ****     case TIM_CHANNEL_2:
1925:Drivers/STM32F4xx_HAL_Driver/Src/stm32f4xx_hal_tim.c ****     {
1926:Drivers/STM32F4xx_HAL_Driver/Src/stm32f4xx_hal_tim.c ****       /* Disable the TIM Capture/Compare 2 DMA request */
1927:Drivers/STM32F4xx_HAL_Driver/Src/stm32f4xx_hal_tim.c ****       __HAL_TIM_DISABLE_DMA(htim, TIM_DMA_CC2);
 4114              		.loc 1 1927 0
 4115 005e 7B68     		ldr	r3, [r7, #4]
 4116 0060 1B68     		ldr	r3, [r3]
 4117 0062 7A68     		ldr	r2, [r7, #4]
 4118 0064 1268     		ldr	r2, [r2]
 4119 0066 D268     		ldr	r2, [r2, #12]
 4120 0068 22F48062 		bic	r2, r2, #1024
 4121 006c DA60     		str	r2, [r3, #12]
1928:Drivers/STM32F4xx_HAL_Driver/Src/stm32f4xx_hal_tim.c ****     }
1929:Drivers/STM32F4xx_HAL_Driver/Src/stm32f4xx_hal_tim.c ****     break;
 4122              		.loc 1 1929 0
 4123 006e 12E0     		b	.L241
 4124              	.L239:
1930:Drivers/STM32F4xx_HAL_Driver/Src/stm32f4xx_hal_tim.c ****     
1931:Drivers/STM32F4xx_HAL_Driver/Src/stm32f4xx_hal_tim.c ****     case TIM_CHANNEL_3:
1932:Drivers/STM32F4xx_HAL_Driver/Src/stm32f4xx_hal_tim.c ****     {
1933:Drivers/STM32F4xx_HAL_Driver/Src/stm32f4xx_hal_tim.c ****       /* Disable the TIM Capture/Compare 3  DMA request */
1934:Drivers/STM32F4xx_HAL_Driver/Src/stm32f4xx_hal_tim.c ****       __HAL_TIM_DISABLE_DMA(htim, TIM_DMA_CC3);
 4125              		.loc 1 1934 0
 4126 0070 7B68     		ldr	r3, [r7, #4]
 4127 0072 1B68     		ldr	r3, [r3]
 4128 0074 7A68     		ldr	r2, [r7, #4]
 4129 0076 1268     		ldr	r2, [r2]
 4130 0078 D268     		ldr	r2, [r2, #12]
ARM GAS  /tmp/cc4tSQEQ.s 			page 106


 4131 007a 22F40062 		bic	r2, r2, #2048
 4132 007e DA60     		str	r2, [r3, #12]
1935:Drivers/STM32F4xx_HAL_Driver/Src/stm32f4xx_hal_tim.c ****     }
1936:Drivers/STM32F4xx_HAL_Driver/Src/stm32f4xx_hal_tim.c ****     break;
 4133              		.loc 1 1936 0
 4134 0080 09E0     		b	.L241
 4135              	.L240:
1937:Drivers/STM32F4xx_HAL_Driver/Src/stm32f4xx_hal_tim.c ****     
1938:Drivers/STM32F4xx_HAL_Driver/Src/stm32f4xx_hal_tim.c ****     case TIM_CHANNEL_4:
1939:Drivers/STM32F4xx_HAL_Driver/Src/stm32f4xx_hal_tim.c ****     {
1940:Drivers/STM32F4xx_HAL_Driver/Src/stm32f4xx_hal_tim.c ****       /* Disable the TIM Capture/Compare 4  DMA request */
1941:Drivers/STM32F4xx_HAL_Driver/Src/stm32f4xx_hal_tim.c ****       __HAL_TIM_DISABLE_DMA(htim, TIM_DMA_CC4);
 4136              		.loc 1 1941 0
 4137 0082 7B68     		ldr	r3, [r7, #4]
 4138 0084 1B68     		ldr	r3, [r3]
 4139 0086 7A68     		ldr	r2, [r7, #4]
 4140 0088 1268     		ldr	r2, [r2]
 4141 008a D268     		ldr	r2, [r2, #12]
 4142 008c 22F48052 		bic	r2, r2, #4096
 4143 0090 DA60     		str	r2, [r3, #12]
1942:Drivers/STM32F4xx_HAL_Driver/Src/stm32f4xx_hal_tim.c ****     }
1943:Drivers/STM32F4xx_HAL_Driver/Src/stm32f4xx_hal_tim.c ****     break;
 4144              		.loc 1 1943 0
 4145 0092 00E0     		b	.L241
 4146              	.L244:
1944:Drivers/STM32F4xx_HAL_Driver/Src/stm32f4xx_hal_tim.c ****     
1945:Drivers/STM32F4xx_HAL_Driver/Src/stm32f4xx_hal_tim.c ****     default:
1946:Drivers/STM32F4xx_HAL_Driver/Src/stm32f4xx_hal_tim.c ****     break;
 4147              		.loc 1 1946 0
 4148 0094 00BF     		nop
 4149              	.L241:
1947:Drivers/STM32F4xx_HAL_Driver/Src/stm32f4xx_hal_tim.c ****   }
1948:Drivers/STM32F4xx_HAL_Driver/Src/stm32f4xx_hal_tim.c **** 
1949:Drivers/STM32F4xx_HAL_Driver/Src/stm32f4xx_hal_tim.c ****   /* Disable the Input Capture channel */
1950:Drivers/STM32F4xx_HAL_Driver/Src/stm32f4xx_hal_tim.c ****   TIM_CCxChannelCmd(htim->Instance, Channel, TIM_CCx_DISABLE);
 4150              		.loc 1 1950 0
 4151 0096 7B68     		ldr	r3, [r7, #4]
 4152 0098 1B68     		ldr	r3, [r3]
 4153 009a 0022     		movs	r2, #0
 4154 009c 3968     		ldr	r1, [r7]
 4155 009e 1846     		mov	r0, r3
 4156 00a0 FFF7FEFF 		bl	TIM_CCxChannelCmd
1951:Drivers/STM32F4xx_HAL_Driver/Src/stm32f4xx_hal_tim.c ****   
1952:Drivers/STM32F4xx_HAL_Driver/Src/stm32f4xx_hal_tim.c ****   /* Disable the Peripheral */
1953:Drivers/STM32F4xx_HAL_Driver/Src/stm32f4xx_hal_tim.c ****   __HAL_TIM_DISABLE(htim); 
 4157              		.loc 1 1953 0
 4158 00a4 7B68     		ldr	r3, [r7, #4]
 4159 00a6 1B68     		ldr	r3, [r3]
 4160 00a8 1A6A     		ldr	r2, [r3, #32]
 4161 00aa 41F21113 		movw	r3, #4369
 4162 00ae 1340     		ands	r3, r3, r2
 4163 00b0 002B     		cmp	r3, #0
 4164 00b2 0FD1     		bne	.L242
 4165              		.loc 1 1953 0 is_stmt 0 discriminator 1
 4166 00b4 7B68     		ldr	r3, [r7, #4]
 4167 00b6 1B68     		ldr	r3, [r3]
 4168 00b8 1A6A     		ldr	r2, [r3, #32]
ARM GAS  /tmp/cc4tSQEQ.s 			page 107


 4169 00ba 40F24443 		movw	r3, #1092
 4170 00be 1340     		ands	r3, r3, r2
 4171 00c0 002B     		cmp	r3, #0
 4172 00c2 07D1     		bne	.L242
 4173              		.loc 1 1953 0 discriminator 2
 4174 00c4 7B68     		ldr	r3, [r7, #4]
 4175 00c6 1B68     		ldr	r3, [r3]
 4176 00c8 7A68     		ldr	r2, [r7, #4]
 4177 00ca 1268     		ldr	r2, [r2]
 4178 00cc 1268     		ldr	r2, [r2]
 4179 00ce 22F00102 		bic	r2, r2, #1
 4180 00d2 1A60     		str	r2, [r3]
 4181              	.L242:
1954:Drivers/STM32F4xx_HAL_Driver/Src/stm32f4xx_hal_tim.c ****   
1955:Drivers/STM32F4xx_HAL_Driver/Src/stm32f4xx_hal_tim.c ****   /* Change the htim state */
1956:Drivers/STM32F4xx_HAL_Driver/Src/stm32f4xx_hal_tim.c ****   htim->State = HAL_TIM_STATE_READY;
 4182              		.loc 1 1956 0 is_stmt 1
 4183 00d4 7B68     		ldr	r3, [r7, #4]
 4184 00d6 0122     		movs	r2, #1
 4185 00d8 83F83920 		strb	r2, [r3, #57]
1957:Drivers/STM32F4xx_HAL_Driver/Src/stm32f4xx_hal_tim.c ****   
1958:Drivers/STM32F4xx_HAL_Driver/Src/stm32f4xx_hal_tim.c ****   /* Return function status */
1959:Drivers/STM32F4xx_HAL_Driver/Src/stm32f4xx_hal_tim.c ****   return HAL_OK;
 4186              		.loc 1 1959 0
 4187 00dc 0023     		movs	r3, #0
1960:Drivers/STM32F4xx_HAL_Driver/Src/stm32f4xx_hal_tim.c **** }  
 4188              		.loc 1 1960 0
 4189 00de 1846     		mov	r0, r3
 4190 00e0 0837     		adds	r7, r7, #8
 4191              	.LCFI211:
 4192              		.cfi_def_cfa_offset 8
 4193 00e2 BD46     		mov	sp, r7
 4194              	.LCFI212:
 4195              		.cfi_def_cfa_register 13
 4196              		@ sp needed
 4197 00e4 80BD     		pop	{r7, pc}
 4198              		.cfi_endproc
 4199              	.LFE163:
 4201 00e6 00BF     		.section	.text.HAL_TIM_OnePulse_Init,"ax",%progbits
 4202              		.align	1
 4203              		.global	HAL_TIM_OnePulse_Init
 4204              		.syntax unified
 4205              		.thumb
 4206              		.thumb_func
 4207              		.fpu fpv4-sp-d16
 4209              	HAL_TIM_OnePulse_Init:
 4210              	.LFB164:
1961:Drivers/STM32F4xx_HAL_Driver/Src/stm32f4xx_hal_tim.c **** /**
1962:Drivers/STM32F4xx_HAL_Driver/Src/stm32f4xx_hal_tim.c ****   * @}
1963:Drivers/STM32F4xx_HAL_Driver/Src/stm32f4xx_hal_tim.c ****   */
1964:Drivers/STM32F4xx_HAL_Driver/Src/stm32f4xx_hal_tim.c ****   
1965:Drivers/STM32F4xx_HAL_Driver/Src/stm32f4xx_hal_tim.c **** /** @defgroup TIM_Exported_Functions_Group5 Time One Pulse functions 
1966:Drivers/STM32F4xx_HAL_Driver/Src/stm32f4xx_hal_tim.c ****  *  @brief    Time One Pulse functions 
1967:Drivers/STM32F4xx_HAL_Driver/Src/stm32f4xx_hal_tim.c ****  *
1968:Drivers/STM32F4xx_HAL_Driver/Src/stm32f4xx_hal_tim.c **** @verbatim    
1969:Drivers/STM32F4xx_HAL_Driver/Src/stm32f4xx_hal_tim.c ****   ==============================================================================
1970:Drivers/STM32F4xx_HAL_Driver/Src/stm32f4xx_hal_tim.c ****                         ##### Time One Pulse functions #####
ARM GAS  /tmp/cc4tSQEQ.s 			page 108


1971:Drivers/STM32F4xx_HAL_Driver/Src/stm32f4xx_hal_tim.c ****   ==============================================================================
1972:Drivers/STM32F4xx_HAL_Driver/Src/stm32f4xx_hal_tim.c ****   [..]  
1973:Drivers/STM32F4xx_HAL_Driver/Src/stm32f4xx_hal_tim.c ****     This section provides functions allowing to:
1974:Drivers/STM32F4xx_HAL_Driver/Src/stm32f4xx_hal_tim.c ****     (+) Initialize and configure the TIM One Pulse. 
1975:Drivers/STM32F4xx_HAL_Driver/Src/stm32f4xx_hal_tim.c ****     (+) De-initialize the TIM One Pulse.
1976:Drivers/STM32F4xx_HAL_Driver/Src/stm32f4xx_hal_tim.c ****     (+) Start the Time One Pulse.
1977:Drivers/STM32F4xx_HAL_Driver/Src/stm32f4xx_hal_tim.c ****     (+) Stop the Time One Pulse.
1978:Drivers/STM32F4xx_HAL_Driver/Src/stm32f4xx_hal_tim.c ****     (+) Start the Time One Pulse and enable interrupt.
1979:Drivers/STM32F4xx_HAL_Driver/Src/stm32f4xx_hal_tim.c ****     (+) Stop the Time One Pulse and disable interrupt.
1980:Drivers/STM32F4xx_HAL_Driver/Src/stm32f4xx_hal_tim.c ****     (+) Start the Time One Pulse and enable DMA transfer.
1981:Drivers/STM32F4xx_HAL_Driver/Src/stm32f4xx_hal_tim.c ****     (+) Stop the Time One Pulse and disable DMA transfer.
1982:Drivers/STM32F4xx_HAL_Driver/Src/stm32f4xx_hal_tim.c ****  
1983:Drivers/STM32F4xx_HAL_Driver/Src/stm32f4xx_hal_tim.c **** @endverbatim
1984:Drivers/STM32F4xx_HAL_Driver/Src/stm32f4xx_hal_tim.c ****   * @{
1985:Drivers/STM32F4xx_HAL_Driver/Src/stm32f4xx_hal_tim.c ****   */
1986:Drivers/STM32F4xx_HAL_Driver/Src/stm32f4xx_hal_tim.c **** /**
1987:Drivers/STM32F4xx_HAL_Driver/Src/stm32f4xx_hal_tim.c ****   * @brief  Initializes the TIM One Pulse Time Base according to the specified
1988:Drivers/STM32F4xx_HAL_Driver/Src/stm32f4xx_hal_tim.c ****   *         parameters in the TIM_HandleTypeDef and create the associated handle.
1989:Drivers/STM32F4xx_HAL_Driver/Src/stm32f4xx_hal_tim.c ****   * @param  htim pointer to a TIM_HandleTypeDef structure that contains
1990:Drivers/STM32F4xx_HAL_Driver/Src/stm32f4xx_hal_tim.c ****   *                the configuration information for TIM module.
1991:Drivers/STM32F4xx_HAL_Driver/Src/stm32f4xx_hal_tim.c ****   * @param  OnePulseMode Select the One pulse mode.
1992:Drivers/STM32F4xx_HAL_Driver/Src/stm32f4xx_hal_tim.c ****   *         This parameter can be one of the following values:
1993:Drivers/STM32F4xx_HAL_Driver/Src/stm32f4xx_hal_tim.c ****   *            @arg TIM_OPMODE_SINGLE: Only one pulse will be generated.
1994:Drivers/STM32F4xx_HAL_Driver/Src/stm32f4xx_hal_tim.c ****   *            @arg TIM_OPMODE_REPETITIVE: Repetitive pulses will be generated.
1995:Drivers/STM32F4xx_HAL_Driver/Src/stm32f4xx_hal_tim.c ****   * @retval HAL status
1996:Drivers/STM32F4xx_HAL_Driver/Src/stm32f4xx_hal_tim.c ****   */
1997:Drivers/STM32F4xx_HAL_Driver/Src/stm32f4xx_hal_tim.c **** HAL_StatusTypeDef HAL_TIM_OnePulse_Init(TIM_HandleTypeDef *htim, uint32_t OnePulseMode)
1998:Drivers/STM32F4xx_HAL_Driver/Src/stm32f4xx_hal_tim.c **** {
 4211              		.loc 1 1998 0
 4212              		.cfi_startproc
 4213              		@ args = 0, pretend = 0, frame = 8
 4214              		@ frame_needed = 1, uses_anonymous_args = 0
 4215 0000 80B5     		push	{r7, lr}
 4216              	.LCFI213:
 4217              		.cfi_def_cfa_offset 8
 4218              		.cfi_offset 7, -8
 4219              		.cfi_offset 14, -4
 4220 0002 82B0     		sub	sp, sp, #8
 4221              	.LCFI214:
 4222              		.cfi_def_cfa_offset 16
 4223 0004 00AF     		add	r7, sp, #0
 4224              	.LCFI215:
 4225              		.cfi_def_cfa_register 7
 4226 0006 7860     		str	r0, [r7, #4]
 4227 0008 3960     		str	r1, [r7]
1999:Drivers/STM32F4xx_HAL_Driver/Src/stm32f4xx_hal_tim.c ****   /* Check the TIM handle allocation */
2000:Drivers/STM32F4xx_HAL_Driver/Src/stm32f4xx_hal_tim.c ****   if(htim == NULL)
 4228              		.loc 1 2000 0
 4229 000a 7B68     		ldr	r3, [r7, #4]
 4230 000c 002B     		cmp	r3, #0
 4231 000e 01D1     		bne	.L246
2001:Drivers/STM32F4xx_HAL_Driver/Src/stm32f4xx_hal_tim.c ****   {
2002:Drivers/STM32F4xx_HAL_Driver/Src/stm32f4xx_hal_tim.c ****     return HAL_ERROR;
 4232              		.loc 1 2002 0
 4233 0010 0123     		movs	r3, #1
 4234 0012 2DE0     		b	.L247
 4235              	.L246:
ARM GAS  /tmp/cc4tSQEQ.s 			page 109


2003:Drivers/STM32F4xx_HAL_Driver/Src/stm32f4xx_hal_tim.c ****   }
2004:Drivers/STM32F4xx_HAL_Driver/Src/stm32f4xx_hal_tim.c **** 
2005:Drivers/STM32F4xx_HAL_Driver/Src/stm32f4xx_hal_tim.c ****   /* Check the parameters */
2006:Drivers/STM32F4xx_HAL_Driver/Src/stm32f4xx_hal_tim.c ****   assert_param(IS_TIM_INSTANCE(htim->Instance));
2007:Drivers/STM32F4xx_HAL_Driver/Src/stm32f4xx_hal_tim.c ****   assert_param(IS_TIM_COUNTER_MODE(htim->Init.CounterMode));
2008:Drivers/STM32F4xx_HAL_Driver/Src/stm32f4xx_hal_tim.c ****   assert_param(IS_TIM_CLOCKDIVISION_DIV(htim->Init.ClockDivision));
2009:Drivers/STM32F4xx_HAL_Driver/Src/stm32f4xx_hal_tim.c ****   assert_param(IS_TIM_OPM_MODE(OnePulseMode));
2010:Drivers/STM32F4xx_HAL_Driver/Src/stm32f4xx_hal_tim.c ****   
2011:Drivers/STM32F4xx_HAL_Driver/Src/stm32f4xx_hal_tim.c ****   if(htim->State == HAL_TIM_STATE_RESET)
 4236              		.loc 1 2011 0
 4237 0014 7B68     		ldr	r3, [r7, #4]
 4238 0016 93F83930 		ldrb	r3, [r3, #57]
 4239 001a DBB2     		uxtb	r3, r3
 4240 001c 002B     		cmp	r3, #0
 4241 001e 06D1     		bne	.L248
2012:Drivers/STM32F4xx_HAL_Driver/Src/stm32f4xx_hal_tim.c ****   { 
2013:Drivers/STM32F4xx_HAL_Driver/Src/stm32f4xx_hal_tim.c ****     /* Allocate lock resource and initialize it */
2014:Drivers/STM32F4xx_HAL_Driver/Src/stm32f4xx_hal_tim.c ****     htim->Lock = HAL_UNLOCKED;
 4242              		.loc 1 2014 0
 4243 0020 7B68     		ldr	r3, [r7, #4]
 4244 0022 0022     		movs	r2, #0
 4245 0024 83F83820 		strb	r2, [r3, #56]
2015:Drivers/STM32F4xx_HAL_Driver/Src/stm32f4xx_hal_tim.c ****     /* Init the low level hardware : GPIO, CLOCK, NVIC and DMA */
2016:Drivers/STM32F4xx_HAL_Driver/Src/stm32f4xx_hal_tim.c ****     HAL_TIM_OnePulse_MspInit(htim);
 4246              		.loc 1 2016 0
 4247 0028 7868     		ldr	r0, [r7, #4]
 4248 002a FFF7FEFF 		bl	HAL_TIM_OnePulse_MspInit
 4249              	.L248:
2017:Drivers/STM32F4xx_HAL_Driver/Src/stm32f4xx_hal_tim.c ****   }
2018:Drivers/STM32F4xx_HAL_Driver/Src/stm32f4xx_hal_tim.c ****   
2019:Drivers/STM32F4xx_HAL_Driver/Src/stm32f4xx_hal_tim.c ****   /* Set the TIM state */
2020:Drivers/STM32F4xx_HAL_Driver/Src/stm32f4xx_hal_tim.c ****   htim->State= HAL_TIM_STATE_BUSY;  
 4250              		.loc 1 2020 0
 4251 002e 7B68     		ldr	r3, [r7, #4]
 4252 0030 0222     		movs	r2, #2
 4253 0032 83F83920 		strb	r2, [r3, #57]
2021:Drivers/STM32F4xx_HAL_Driver/Src/stm32f4xx_hal_tim.c ****   
2022:Drivers/STM32F4xx_HAL_Driver/Src/stm32f4xx_hal_tim.c ****   /* Configure the Time base in the One Pulse Mode */
2023:Drivers/STM32F4xx_HAL_Driver/Src/stm32f4xx_hal_tim.c ****   TIM_Base_SetConfig(htim->Instance, &htim->Init);
 4254              		.loc 1 2023 0
 4255 0036 7B68     		ldr	r3, [r7, #4]
 4256 0038 1A68     		ldr	r2, [r3]
 4257 003a 7B68     		ldr	r3, [r7, #4]
 4258 003c 0433     		adds	r3, r3, #4
 4259 003e 1946     		mov	r1, r3
 4260 0040 1046     		mov	r0, r2
 4261 0042 FFF7FEFF 		bl	TIM_Base_SetConfig
2024:Drivers/STM32F4xx_HAL_Driver/Src/stm32f4xx_hal_tim.c ****   
2025:Drivers/STM32F4xx_HAL_Driver/Src/stm32f4xx_hal_tim.c ****   /* Reset the OPM Bit */
2026:Drivers/STM32F4xx_HAL_Driver/Src/stm32f4xx_hal_tim.c ****   htim->Instance->CR1 &= ~TIM_CR1_OPM;
 4262              		.loc 1 2026 0
 4263 0046 7B68     		ldr	r3, [r7, #4]
 4264 0048 1B68     		ldr	r3, [r3]
 4265 004a 7A68     		ldr	r2, [r7, #4]
 4266 004c 1268     		ldr	r2, [r2]
 4267 004e 1268     		ldr	r2, [r2]
 4268 0050 22F00802 		bic	r2, r2, #8
ARM GAS  /tmp/cc4tSQEQ.s 			page 110


 4269 0054 1A60     		str	r2, [r3]
2027:Drivers/STM32F4xx_HAL_Driver/Src/stm32f4xx_hal_tim.c **** 
2028:Drivers/STM32F4xx_HAL_Driver/Src/stm32f4xx_hal_tim.c ****   /* Configure the OPM Mode */
2029:Drivers/STM32F4xx_HAL_Driver/Src/stm32f4xx_hal_tim.c ****   htim->Instance->CR1 |= OnePulseMode;
 4270              		.loc 1 2029 0
 4271 0056 7B68     		ldr	r3, [r7, #4]
 4272 0058 1B68     		ldr	r3, [r3]
 4273 005a 7A68     		ldr	r2, [r7, #4]
 4274 005c 1268     		ldr	r2, [r2]
 4275 005e 1168     		ldr	r1, [r2]
 4276 0060 3A68     		ldr	r2, [r7]
 4277 0062 0A43     		orrs	r2, r2, r1
 4278 0064 1A60     		str	r2, [r3]
2030:Drivers/STM32F4xx_HAL_Driver/Src/stm32f4xx_hal_tim.c ****    
2031:Drivers/STM32F4xx_HAL_Driver/Src/stm32f4xx_hal_tim.c ****   /* Initialize the TIM state*/
2032:Drivers/STM32F4xx_HAL_Driver/Src/stm32f4xx_hal_tim.c ****   htim->State= HAL_TIM_STATE_READY;
 4279              		.loc 1 2032 0
 4280 0066 7B68     		ldr	r3, [r7, #4]
 4281 0068 0122     		movs	r2, #1
 4282 006a 83F83920 		strb	r2, [r3, #57]
2033:Drivers/STM32F4xx_HAL_Driver/Src/stm32f4xx_hal_tim.c ****   
2034:Drivers/STM32F4xx_HAL_Driver/Src/stm32f4xx_hal_tim.c ****   return HAL_OK;
 4283              		.loc 1 2034 0
 4284 006e 0023     		movs	r3, #0
 4285              	.L247:
2035:Drivers/STM32F4xx_HAL_Driver/Src/stm32f4xx_hal_tim.c **** }
 4286              		.loc 1 2035 0
 4287 0070 1846     		mov	r0, r3
 4288 0072 0837     		adds	r7, r7, #8
 4289              	.LCFI216:
 4290              		.cfi_def_cfa_offset 8
 4291 0074 BD46     		mov	sp, r7
 4292              	.LCFI217:
 4293              		.cfi_def_cfa_register 13
 4294              		@ sp needed
 4295 0076 80BD     		pop	{r7, pc}
 4296              		.cfi_endproc
 4297              	.LFE164:
 4299              		.section	.text.HAL_TIM_OnePulse_DeInit,"ax",%progbits
 4300              		.align	1
 4301              		.global	HAL_TIM_OnePulse_DeInit
 4302              		.syntax unified
 4303              		.thumb
 4304              		.thumb_func
 4305              		.fpu fpv4-sp-d16
 4307              	HAL_TIM_OnePulse_DeInit:
 4308              	.LFB165:
2036:Drivers/STM32F4xx_HAL_Driver/Src/stm32f4xx_hal_tim.c **** 
2037:Drivers/STM32F4xx_HAL_Driver/Src/stm32f4xx_hal_tim.c **** /**
2038:Drivers/STM32F4xx_HAL_Driver/Src/stm32f4xx_hal_tim.c ****   * @brief  DeInitializes the TIM One Pulse  
2039:Drivers/STM32F4xx_HAL_Driver/Src/stm32f4xx_hal_tim.c ****   * @param  htim pointer to a TIM_HandleTypeDef structure that contains
2040:Drivers/STM32F4xx_HAL_Driver/Src/stm32f4xx_hal_tim.c ****   *                the configuration information for TIM module.
2041:Drivers/STM32F4xx_HAL_Driver/Src/stm32f4xx_hal_tim.c ****   * @retval HAL status
2042:Drivers/STM32F4xx_HAL_Driver/Src/stm32f4xx_hal_tim.c ****   */
2043:Drivers/STM32F4xx_HAL_Driver/Src/stm32f4xx_hal_tim.c **** HAL_StatusTypeDef HAL_TIM_OnePulse_DeInit(TIM_HandleTypeDef *htim)
2044:Drivers/STM32F4xx_HAL_Driver/Src/stm32f4xx_hal_tim.c **** {
 4309              		.loc 1 2044 0
ARM GAS  /tmp/cc4tSQEQ.s 			page 111


 4310              		.cfi_startproc
 4311              		@ args = 0, pretend = 0, frame = 8
 4312              		@ frame_needed = 1, uses_anonymous_args = 0
 4313 0000 80B5     		push	{r7, lr}
 4314              	.LCFI218:
 4315              		.cfi_def_cfa_offset 8
 4316              		.cfi_offset 7, -8
 4317              		.cfi_offset 14, -4
 4318 0002 82B0     		sub	sp, sp, #8
 4319              	.LCFI219:
 4320              		.cfi_def_cfa_offset 16
 4321 0004 00AF     		add	r7, sp, #0
 4322              	.LCFI220:
 4323              		.cfi_def_cfa_register 7
 4324 0006 7860     		str	r0, [r7, #4]
2045:Drivers/STM32F4xx_HAL_Driver/Src/stm32f4xx_hal_tim.c ****   /* Check the parameters */
2046:Drivers/STM32F4xx_HAL_Driver/Src/stm32f4xx_hal_tim.c ****   assert_param(IS_TIM_INSTANCE(htim->Instance));
2047:Drivers/STM32F4xx_HAL_Driver/Src/stm32f4xx_hal_tim.c ****   
2048:Drivers/STM32F4xx_HAL_Driver/Src/stm32f4xx_hal_tim.c ****   htim->State = HAL_TIM_STATE_BUSY;
 4325              		.loc 1 2048 0
 4326 0008 7B68     		ldr	r3, [r7, #4]
 4327 000a 0222     		movs	r2, #2
 4328 000c 83F83920 		strb	r2, [r3, #57]
2049:Drivers/STM32F4xx_HAL_Driver/Src/stm32f4xx_hal_tim.c ****   
2050:Drivers/STM32F4xx_HAL_Driver/Src/stm32f4xx_hal_tim.c ****   /* Disable the TIM Peripheral Clock */
2051:Drivers/STM32F4xx_HAL_Driver/Src/stm32f4xx_hal_tim.c ****   __HAL_TIM_DISABLE(htim);
 4329              		.loc 1 2051 0
 4330 0010 7B68     		ldr	r3, [r7, #4]
 4331 0012 1B68     		ldr	r3, [r3]
 4332 0014 1A6A     		ldr	r2, [r3, #32]
 4333 0016 41F21113 		movw	r3, #4369
 4334 001a 1340     		ands	r3, r3, r2
 4335 001c 002B     		cmp	r3, #0
 4336 001e 0FD1     		bne	.L250
 4337              		.loc 1 2051 0 is_stmt 0 discriminator 1
 4338 0020 7B68     		ldr	r3, [r7, #4]
 4339 0022 1B68     		ldr	r3, [r3]
 4340 0024 1A6A     		ldr	r2, [r3, #32]
 4341 0026 40F24443 		movw	r3, #1092
 4342 002a 1340     		ands	r3, r3, r2
 4343 002c 002B     		cmp	r3, #0
 4344 002e 07D1     		bne	.L250
 4345              		.loc 1 2051 0 discriminator 2
 4346 0030 7B68     		ldr	r3, [r7, #4]
 4347 0032 1B68     		ldr	r3, [r3]
 4348 0034 7A68     		ldr	r2, [r7, #4]
 4349 0036 1268     		ldr	r2, [r2]
 4350 0038 1268     		ldr	r2, [r2]
 4351 003a 22F00102 		bic	r2, r2, #1
 4352 003e 1A60     		str	r2, [r3]
 4353              	.L250:
2052:Drivers/STM32F4xx_HAL_Driver/Src/stm32f4xx_hal_tim.c ****   
2053:Drivers/STM32F4xx_HAL_Driver/Src/stm32f4xx_hal_tim.c ****   /* DeInit the low level hardware: GPIO, CLOCK, NVIC */
2054:Drivers/STM32F4xx_HAL_Driver/Src/stm32f4xx_hal_tim.c ****   HAL_TIM_OnePulse_MspDeInit(htim);
 4354              		.loc 1 2054 0 is_stmt 1
 4355 0040 7868     		ldr	r0, [r7, #4]
 4356 0042 FFF7FEFF 		bl	HAL_TIM_OnePulse_MspDeInit
ARM GAS  /tmp/cc4tSQEQ.s 			page 112


2055:Drivers/STM32F4xx_HAL_Driver/Src/stm32f4xx_hal_tim.c ****     
2056:Drivers/STM32F4xx_HAL_Driver/Src/stm32f4xx_hal_tim.c ****   /* Change TIM state */  
2057:Drivers/STM32F4xx_HAL_Driver/Src/stm32f4xx_hal_tim.c ****   htim->State = HAL_TIM_STATE_RESET;
 4357              		.loc 1 2057 0
 4358 0046 7B68     		ldr	r3, [r7, #4]
 4359 0048 0022     		movs	r2, #0
 4360 004a 83F83920 		strb	r2, [r3, #57]
2058:Drivers/STM32F4xx_HAL_Driver/Src/stm32f4xx_hal_tim.c **** 
2059:Drivers/STM32F4xx_HAL_Driver/Src/stm32f4xx_hal_tim.c ****   /* Release Lock */
2060:Drivers/STM32F4xx_HAL_Driver/Src/stm32f4xx_hal_tim.c ****   __HAL_UNLOCK(htim);
 4361              		.loc 1 2060 0
 4362 004e 7B68     		ldr	r3, [r7, #4]
 4363 0050 0022     		movs	r2, #0
 4364 0052 83F83820 		strb	r2, [r3, #56]
2061:Drivers/STM32F4xx_HAL_Driver/Src/stm32f4xx_hal_tim.c **** 
2062:Drivers/STM32F4xx_HAL_Driver/Src/stm32f4xx_hal_tim.c ****   return HAL_OK;
 4365              		.loc 1 2062 0
 4366 0056 0023     		movs	r3, #0
2063:Drivers/STM32F4xx_HAL_Driver/Src/stm32f4xx_hal_tim.c **** }
 4367              		.loc 1 2063 0
 4368 0058 1846     		mov	r0, r3
 4369 005a 0837     		adds	r7, r7, #8
 4370              	.LCFI221:
 4371              		.cfi_def_cfa_offset 8
 4372 005c BD46     		mov	sp, r7
 4373              	.LCFI222:
 4374              		.cfi_def_cfa_register 13
 4375              		@ sp needed
 4376 005e 80BD     		pop	{r7, pc}
 4377              		.cfi_endproc
 4378              	.LFE165:
 4380              		.section	.text.HAL_TIM_OnePulse_MspInit,"ax",%progbits
 4381              		.align	1
 4382              		.weak	HAL_TIM_OnePulse_MspInit
 4383              		.syntax unified
 4384              		.thumb
 4385              		.thumb_func
 4386              		.fpu fpv4-sp-d16
 4388              	HAL_TIM_OnePulse_MspInit:
 4389              	.LFB166:
2064:Drivers/STM32F4xx_HAL_Driver/Src/stm32f4xx_hal_tim.c **** 
2065:Drivers/STM32F4xx_HAL_Driver/Src/stm32f4xx_hal_tim.c **** /**
2066:Drivers/STM32F4xx_HAL_Driver/Src/stm32f4xx_hal_tim.c ****   * @brief  Initializes the TIM One Pulse MSP.
2067:Drivers/STM32F4xx_HAL_Driver/Src/stm32f4xx_hal_tim.c ****   * @param  htim pointer to a TIM_HandleTypeDef structure that contains
2068:Drivers/STM32F4xx_HAL_Driver/Src/stm32f4xx_hal_tim.c ****   *                the configuration information for TIM module.
2069:Drivers/STM32F4xx_HAL_Driver/Src/stm32f4xx_hal_tim.c ****   * @retval None
2070:Drivers/STM32F4xx_HAL_Driver/Src/stm32f4xx_hal_tim.c ****   */
2071:Drivers/STM32F4xx_HAL_Driver/Src/stm32f4xx_hal_tim.c **** __weak void HAL_TIM_OnePulse_MspInit(TIM_HandleTypeDef *htim)
2072:Drivers/STM32F4xx_HAL_Driver/Src/stm32f4xx_hal_tim.c **** {
 4390              		.loc 1 2072 0
 4391              		.cfi_startproc
 4392              		@ args = 0, pretend = 0, frame = 8
 4393              		@ frame_needed = 1, uses_anonymous_args = 0
 4394              		@ link register save eliminated.
 4395 0000 80B4     		push	{r7}
 4396              	.LCFI223:
 4397              		.cfi_def_cfa_offset 4
ARM GAS  /tmp/cc4tSQEQ.s 			page 113


 4398              		.cfi_offset 7, -4
 4399 0002 83B0     		sub	sp, sp, #12
 4400              	.LCFI224:
 4401              		.cfi_def_cfa_offset 16
 4402 0004 00AF     		add	r7, sp, #0
 4403              	.LCFI225:
 4404              		.cfi_def_cfa_register 7
 4405 0006 7860     		str	r0, [r7, #4]
2073:Drivers/STM32F4xx_HAL_Driver/Src/stm32f4xx_hal_tim.c ****   /* Prevent unused argument(s) compilation warning */
2074:Drivers/STM32F4xx_HAL_Driver/Src/stm32f4xx_hal_tim.c ****   UNUSED(htim);
2075:Drivers/STM32F4xx_HAL_Driver/Src/stm32f4xx_hal_tim.c ****   /* NOTE : This function Should not be modified, when the callback is needed,
2076:Drivers/STM32F4xx_HAL_Driver/Src/stm32f4xx_hal_tim.c ****             the HAL_TIM_OnePulse_MspInit could be implemented in the user file
2077:Drivers/STM32F4xx_HAL_Driver/Src/stm32f4xx_hal_tim.c ****    */
2078:Drivers/STM32F4xx_HAL_Driver/Src/stm32f4xx_hal_tim.c **** }
 4406              		.loc 1 2078 0
 4407 0008 00BF     		nop
 4408 000a 0C37     		adds	r7, r7, #12
 4409              	.LCFI226:
 4410              		.cfi_def_cfa_offset 4
 4411 000c BD46     		mov	sp, r7
 4412              	.LCFI227:
 4413              		.cfi_def_cfa_register 13
 4414              		@ sp needed
 4415 000e 5DF8047B 		ldr	r7, [sp], #4
 4416              	.LCFI228:
 4417              		.cfi_restore 7
 4418              		.cfi_def_cfa_offset 0
 4419 0012 7047     		bx	lr
 4420              		.cfi_endproc
 4421              	.LFE166:
 4423              		.section	.text.HAL_TIM_OnePulse_MspDeInit,"ax",%progbits
 4424              		.align	1
 4425              		.weak	HAL_TIM_OnePulse_MspDeInit
 4426              		.syntax unified
 4427              		.thumb
 4428              		.thumb_func
 4429              		.fpu fpv4-sp-d16
 4431              	HAL_TIM_OnePulse_MspDeInit:
 4432              	.LFB167:
2079:Drivers/STM32F4xx_HAL_Driver/Src/stm32f4xx_hal_tim.c **** 
2080:Drivers/STM32F4xx_HAL_Driver/Src/stm32f4xx_hal_tim.c **** /**
2081:Drivers/STM32F4xx_HAL_Driver/Src/stm32f4xx_hal_tim.c ****   * @brief  DeInitializes TIM One Pulse MSP.
2082:Drivers/STM32F4xx_HAL_Driver/Src/stm32f4xx_hal_tim.c ****   * @param  htim pointer to a TIM_HandleTypeDef structure that contains
2083:Drivers/STM32F4xx_HAL_Driver/Src/stm32f4xx_hal_tim.c ****   *                the configuration information for TIM module.
2084:Drivers/STM32F4xx_HAL_Driver/Src/stm32f4xx_hal_tim.c ****   * @retval None
2085:Drivers/STM32F4xx_HAL_Driver/Src/stm32f4xx_hal_tim.c ****   */
2086:Drivers/STM32F4xx_HAL_Driver/Src/stm32f4xx_hal_tim.c **** __weak void HAL_TIM_OnePulse_MspDeInit(TIM_HandleTypeDef *htim)
2087:Drivers/STM32F4xx_HAL_Driver/Src/stm32f4xx_hal_tim.c **** {
 4433              		.loc 1 2087 0
 4434              		.cfi_startproc
 4435              		@ args = 0, pretend = 0, frame = 8
 4436              		@ frame_needed = 1, uses_anonymous_args = 0
 4437              		@ link register save eliminated.
 4438 0000 80B4     		push	{r7}
 4439              	.LCFI229:
 4440              		.cfi_def_cfa_offset 4
 4441              		.cfi_offset 7, -4
ARM GAS  /tmp/cc4tSQEQ.s 			page 114


 4442 0002 83B0     		sub	sp, sp, #12
 4443              	.LCFI230:
 4444              		.cfi_def_cfa_offset 16
 4445 0004 00AF     		add	r7, sp, #0
 4446              	.LCFI231:
 4447              		.cfi_def_cfa_register 7
 4448 0006 7860     		str	r0, [r7, #4]
2088:Drivers/STM32F4xx_HAL_Driver/Src/stm32f4xx_hal_tim.c ****   /* Prevent unused argument(s) compilation warning */
2089:Drivers/STM32F4xx_HAL_Driver/Src/stm32f4xx_hal_tim.c ****   UNUSED(htim);
2090:Drivers/STM32F4xx_HAL_Driver/Src/stm32f4xx_hal_tim.c ****   /* NOTE : This function Should not be modified, when the callback is needed,
2091:Drivers/STM32F4xx_HAL_Driver/Src/stm32f4xx_hal_tim.c ****             the HAL_TIM_OnePulse_MspDeInit could be implemented in the user file
2092:Drivers/STM32F4xx_HAL_Driver/Src/stm32f4xx_hal_tim.c ****    */
2093:Drivers/STM32F4xx_HAL_Driver/Src/stm32f4xx_hal_tim.c **** }
 4449              		.loc 1 2093 0
 4450 0008 00BF     		nop
 4451 000a 0C37     		adds	r7, r7, #12
 4452              	.LCFI232:
 4453              		.cfi_def_cfa_offset 4
 4454 000c BD46     		mov	sp, r7
 4455              	.LCFI233:
 4456              		.cfi_def_cfa_register 13
 4457              		@ sp needed
 4458 000e 5DF8047B 		ldr	r7, [sp], #4
 4459              	.LCFI234:
 4460              		.cfi_restore 7
 4461              		.cfi_def_cfa_offset 0
 4462 0012 7047     		bx	lr
 4463              		.cfi_endproc
 4464              	.LFE167:
 4466              		.section	.text.HAL_TIM_OnePulse_Start,"ax",%progbits
 4467              		.align	1
 4468              		.global	HAL_TIM_OnePulse_Start
 4469              		.syntax unified
 4470              		.thumb
 4471              		.thumb_func
 4472              		.fpu fpv4-sp-d16
 4474              	HAL_TIM_OnePulse_Start:
 4475              	.LFB168:
2094:Drivers/STM32F4xx_HAL_Driver/Src/stm32f4xx_hal_tim.c **** 
2095:Drivers/STM32F4xx_HAL_Driver/Src/stm32f4xx_hal_tim.c **** /**
2096:Drivers/STM32F4xx_HAL_Driver/Src/stm32f4xx_hal_tim.c ****   * @brief  Starts the TIM One Pulse signal generation.
2097:Drivers/STM32F4xx_HAL_Driver/Src/stm32f4xx_hal_tim.c ****   * @param  htim pointer to a TIM_HandleTypeDef structure that contains
2098:Drivers/STM32F4xx_HAL_Driver/Src/stm32f4xx_hal_tim.c ****   *                the configuration information for TIM module.
2099:Drivers/STM32F4xx_HAL_Driver/Src/stm32f4xx_hal_tim.c ****   * @param  OutputChannel  TIM Channels to be enabled.
2100:Drivers/STM32F4xx_HAL_Driver/Src/stm32f4xx_hal_tim.c ****   *          This parameter can be one of the following values:
2101:Drivers/STM32F4xx_HAL_Driver/Src/stm32f4xx_hal_tim.c ****   *            @arg TIM_CHANNEL_1: TIM Channel 1 selected
2102:Drivers/STM32F4xx_HAL_Driver/Src/stm32f4xx_hal_tim.c ****   *            @arg TIM_CHANNEL_2: TIM Channel 2 selected
2103:Drivers/STM32F4xx_HAL_Driver/Src/stm32f4xx_hal_tim.c ****   * @retval HAL status
2104:Drivers/STM32F4xx_HAL_Driver/Src/stm32f4xx_hal_tim.c ****   */
2105:Drivers/STM32F4xx_HAL_Driver/Src/stm32f4xx_hal_tim.c **** HAL_StatusTypeDef HAL_TIM_OnePulse_Start(TIM_HandleTypeDef *htim, uint32_t OutputChannel)
2106:Drivers/STM32F4xx_HAL_Driver/Src/stm32f4xx_hal_tim.c **** {
 4476              		.loc 1 2106 0
 4477              		.cfi_startproc
 4478              		@ args = 0, pretend = 0, frame = 8
 4479              		@ frame_needed = 1, uses_anonymous_args = 0
 4480 0000 80B5     		push	{r7, lr}
 4481              	.LCFI235:
ARM GAS  /tmp/cc4tSQEQ.s 			page 115


 4482              		.cfi_def_cfa_offset 8
 4483              		.cfi_offset 7, -8
 4484              		.cfi_offset 14, -4
 4485 0002 82B0     		sub	sp, sp, #8
 4486              	.LCFI236:
 4487              		.cfi_def_cfa_offset 16
 4488 0004 00AF     		add	r7, sp, #0
 4489              	.LCFI237:
 4490              		.cfi_def_cfa_register 7
 4491 0006 7860     		str	r0, [r7, #4]
 4492 0008 3960     		str	r1, [r7]
2107:Drivers/STM32F4xx_HAL_Driver/Src/stm32f4xx_hal_tim.c ****   /* Prevent unused argument(s) compilation warning */
2108:Drivers/STM32F4xx_HAL_Driver/Src/stm32f4xx_hal_tim.c ****   UNUSED(OutputChannel);
2109:Drivers/STM32F4xx_HAL_Driver/Src/stm32f4xx_hal_tim.c **** 
2110:Drivers/STM32F4xx_HAL_Driver/Src/stm32f4xx_hal_tim.c ****   /* Enable the Capture compare and the Input Capture channels 
2111:Drivers/STM32F4xx_HAL_Driver/Src/stm32f4xx_hal_tim.c ****     (in the OPM Mode the two possible channels that can be used are TIM_CHANNEL_1 and TIM_CHANNEL_2
2112:Drivers/STM32F4xx_HAL_Driver/Src/stm32f4xx_hal_tim.c ****     if TIM_CHANNEL_1 is used as output, the TIM_CHANNEL_2 will be used as input and
2113:Drivers/STM32F4xx_HAL_Driver/Src/stm32f4xx_hal_tim.c ****     if TIM_CHANNEL_1 is used as input, the TIM_CHANNEL_2 will be used as output 
2114:Drivers/STM32F4xx_HAL_Driver/Src/stm32f4xx_hal_tim.c ****     in all combinations, the TIM_CHANNEL_1 and TIM_CHANNEL_2 should be enabled together 
2115:Drivers/STM32F4xx_HAL_Driver/Src/stm32f4xx_hal_tim.c ****     
2116:Drivers/STM32F4xx_HAL_Driver/Src/stm32f4xx_hal_tim.c ****     No need to enable the counter, it's enabled automatically by hardware 
2117:Drivers/STM32F4xx_HAL_Driver/Src/stm32f4xx_hal_tim.c ****     (the counter starts in response to a stimulus and generate a pulse */
2118:Drivers/STM32F4xx_HAL_Driver/Src/stm32f4xx_hal_tim.c ****   
2119:Drivers/STM32F4xx_HAL_Driver/Src/stm32f4xx_hal_tim.c ****   TIM_CCxChannelCmd(htim->Instance, TIM_CHANNEL_1, TIM_CCx_ENABLE); 
 4493              		.loc 1 2119 0
 4494 000a 7B68     		ldr	r3, [r7, #4]
 4495 000c 1B68     		ldr	r3, [r3]
 4496 000e 0122     		movs	r2, #1
 4497 0010 0021     		movs	r1, #0
 4498 0012 1846     		mov	r0, r3
 4499 0014 FFF7FEFF 		bl	TIM_CCxChannelCmd
2120:Drivers/STM32F4xx_HAL_Driver/Src/stm32f4xx_hal_tim.c ****   TIM_CCxChannelCmd(htim->Instance, TIM_CHANNEL_2, TIM_CCx_ENABLE); 
 4500              		.loc 1 2120 0
 4501 0018 7B68     		ldr	r3, [r7, #4]
 4502 001a 1B68     		ldr	r3, [r3]
 4503 001c 0122     		movs	r2, #1
 4504 001e 0421     		movs	r1, #4
 4505 0020 1846     		mov	r0, r3
 4506 0022 FFF7FEFF 		bl	TIM_CCxChannelCmd
2121:Drivers/STM32F4xx_HAL_Driver/Src/stm32f4xx_hal_tim.c ****   
2122:Drivers/STM32F4xx_HAL_Driver/Src/stm32f4xx_hal_tim.c ****   if(IS_TIM_ADVANCED_INSTANCE(htim->Instance) != RESET)  
 4507              		.loc 1 2122 0
 4508 0026 7B68     		ldr	r3, [r7, #4]
 4509 0028 1B68     		ldr	r3, [r3]
 4510 002a 084A     		ldr	r2, .L257
 4511 002c 9342     		cmp	r3, r2
 4512 002e 07D1     		bne	.L255
2123:Drivers/STM32F4xx_HAL_Driver/Src/stm32f4xx_hal_tim.c ****   {
2124:Drivers/STM32F4xx_HAL_Driver/Src/stm32f4xx_hal_tim.c ****     /* Enable the main output */
2125:Drivers/STM32F4xx_HAL_Driver/Src/stm32f4xx_hal_tim.c ****     __HAL_TIM_MOE_ENABLE(htim);
 4513              		.loc 1 2125 0
 4514 0030 7B68     		ldr	r3, [r7, #4]
 4515 0032 1B68     		ldr	r3, [r3]
 4516 0034 7A68     		ldr	r2, [r7, #4]
 4517 0036 1268     		ldr	r2, [r2]
 4518 0038 526C     		ldr	r2, [r2, #68]
 4519 003a 42F40042 		orr	r2, r2, #32768
ARM GAS  /tmp/cc4tSQEQ.s 			page 116


 4520 003e 5A64     		str	r2, [r3, #68]
 4521              	.L255:
2126:Drivers/STM32F4xx_HAL_Driver/Src/stm32f4xx_hal_tim.c ****   }
2127:Drivers/STM32F4xx_HAL_Driver/Src/stm32f4xx_hal_tim.c ****   
2128:Drivers/STM32F4xx_HAL_Driver/Src/stm32f4xx_hal_tim.c ****   /* Return function status */
2129:Drivers/STM32F4xx_HAL_Driver/Src/stm32f4xx_hal_tim.c ****   return HAL_OK;
 4522              		.loc 1 2129 0
 4523 0040 0023     		movs	r3, #0
2130:Drivers/STM32F4xx_HAL_Driver/Src/stm32f4xx_hal_tim.c **** }
 4524              		.loc 1 2130 0
 4525 0042 1846     		mov	r0, r3
 4526 0044 0837     		adds	r7, r7, #8
 4527              	.LCFI238:
 4528              		.cfi_def_cfa_offset 8
 4529 0046 BD46     		mov	sp, r7
 4530              	.LCFI239:
 4531              		.cfi_def_cfa_register 13
 4532              		@ sp needed
 4533 0048 80BD     		pop	{r7, pc}
 4534              	.L258:
 4535 004a 00BF     		.align	2
 4536              	.L257:
 4537 004c 00000140 		.word	1073807360
 4538              		.cfi_endproc
 4539              	.LFE168:
 4541              		.section	.text.HAL_TIM_OnePulse_Stop,"ax",%progbits
 4542              		.align	1
 4543              		.global	HAL_TIM_OnePulse_Stop
 4544              		.syntax unified
 4545              		.thumb
 4546              		.thumb_func
 4547              		.fpu fpv4-sp-d16
 4549              	HAL_TIM_OnePulse_Stop:
 4550              	.LFB169:
2131:Drivers/STM32F4xx_HAL_Driver/Src/stm32f4xx_hal_tim.c **** 
2132:Drivers/STM32F4xx_HAL_Driver/Src/stm32f4xx_hal_tim.c **** /**
2133:Drivers/STM32F4xx_HAL_Driver/Src/stm32f4xx_hal_tim.c ****   * @brief  Stops the TIM One Pulse signal generation.
2134:Drivers/STM32F4xx_HAL_Driver/Src/stm32f4xx_hal_tim.c ****   * @param  htim pointer to a TIM_HandleTypeDef structure that contains
2135:Drivers/STM32F4xx_HAL_Driver/Src/stm32f4xx_hal_tim.c ****   *                the configuration information for TIM module.
2136:Drivers/STM32F4xx_HAL_Driver/Src/stm32f4xx_hal_tim.c ****   * @param  OutputChannel  TIM Channels to be disable.
2137:Drivers/STM32F4xx_HAL_Driver/Src/stm32f4xx_hal_tim.c ****   *          This parameter can be one of the following values:
2138:Drivers/STM32F4xx_HAL_Driver/Src/stm32f4xx_hal_tim.c ****   *            @arg TIM_CHANNEL_1: TIM Channel 1 selected
2139:Drivers/STM32F4xx_HAL_Driver/Src/stm32f4xx_hal_tim.c ****   *            @arg TIM_CHANNEL_2: TIM Channel 2 selected
2140:Drivers/STM32F4xx_HAL_Driver/Src/stm32f4xx_hal_tim.c ****   * @retval HAL status
2141:Drivers/STM32F4xx_HAL_Driver/Src/stm32f4xx_hal_tim.c ****   */
2142:Drivers/STM32F4xx_HAL_Driver/Src/stm32f4xx_hal_tim.c **** HAL_StatusTypeDef HAL_TIM_OnePulse_Stop(TIM_HandleTypeDef *htim, uint32_t OutputChannel)
2143:Drivers/STM32F4xx_HAL_Driver/Src/stm32f4xx_hal_tim.c **** {
 4551              		.loc 1 2143 0
 4552              		.cfi_startproc
 4553              		@ args = 0, pretend = 0, frame = 8
 4554              		@ frame_needed = 1, uses_anonymous_args = 0
 4555 0000 80B5     		push	{r7, lr}
 4556              	.LCFI240:
 4557              		.cfi_def_cfa_offset 8
 4558              		.cfi_offset 7, -8
 4559              		.cfi_offset 14, -4
 4560 0002 82B0     		sub	sp, sp, #8
ARM GAS  /tmp/cc4tSQEQ.s 			page 117


 4561              	.LCFI241:
 4562              		.cfi_def_cfa_offset 16
 4563 0004 00AF     		add	r7, sp, #0
 4564              	.LCFI242:
 4565              		.cfi_def_cfa_register 7
 4566 0006 7860     		str	r0, [r7, #4]
 4567 0008 3960     		str	r1, [r7]
2144:Drivers/STM32F4xx_HAL_Driver/Src/stm32f4xx_hal_tim.c ****   /* Prevent unused argument(s) compilation warning */
2145:Drivers/STM32F4xx_HAL_Driver/Src/stm32f4xx_hal_tim.c ****   UNUSED(OutputChannel);
2146:Drivers/STM32F4xx_HAL_Driver/Src/stm32f4xx_hal_tim.c **** 
2147:Drivers/STM32F4xx_HAL_Driver/Src/stm32f4xx_hal_tim.c ****   /* Disable the Capture compare and the Input Capture channels 
2148:Drivers/STM32F4xx_HAL_Driver/Src/stm32f4xx_hal_tim.c ****   (in the OPM Mode the two possible channels that can be used are TIM_CHANNEL_1 and TIM_CHANNEL_2)
2149:Drivers/STM32F4xx_HAL_Driver/Src/stm32f4xx_hal_tim.c ****   if TIM_CHANNEL_1 is used as output, the TIM_CHANNEL_2 will be used as input and
2150:Drivers/STM32F4xx_HAL_Driver/Src/stm32f4xx_hal_tim.c ****   if TIM_CHANNEL_1 is used as input, the TIM_CHANNEL_2 will be used as output 
2151:Drivers/STM32F4xx_HAL_Driver/Src/stm32f4xx_hal_tim.c ****   in all combinations, the TIM_CHANNEL_1 and TIM_CHANNEL_2 should be disabled together */
2152:Drivers/STM32F4xx_HAL_Driver/Src/stm32f4xx_hal_tim.c ****   
2153:Drivers/STM32F4xx_HAL_Driver/Src/stm32f4xx_hal_tim.c ****   TIM_CCxChannelCmd(htim->Instance, TIM_CHANNEL_1, TIM_CCx_DISABLE); 
 4568              		.loc 1 2153 0
 4569 000a 7B68     		ldr	r3, [r7, #4]
 4570 000c 1B68     		ldr	r3, [r3]
 4571 000e 0022     		movs	r2, #0
 4572 0010 0021     		movs	r1, #0
 4573 0012 1846     		mov	r0, r3
 4574 0014 FFF7FEFF 		bl	TIM_CCxChannelCmd
2154:Drivers/STM32F4xx_HAL_Driver/Src/stm32f4xx_hal_tim.c ****   TIM_CCxChannelCmd(htim->Instance, TIM_CHANNEL_2, TIM_CCx_DISABLE); 
 4575              		.loc 1 2154 0
 4576 0018 7B68     		ldr	r3, [r7, #4]
 4577 001a 1B68     		ldr	r3, [r3]
 4578 001c 0022     		movs	r2, #0
 4579 001e 0421     		movs	r1, #4
 4580 0020 1846     		mov	r0, r3
 4581 0022 FFF7FEFF 		bl	TIM_CCxChannelCmd
2155:Drivers/STM32F4xx_HAL_Driver/Src/stm32f4xx_hal_tim.c ****     
2156:Drivers/STM32F4xx_HAL_Driver/Src/stm32f4xx_hal_tim.c ****   if(IS_TIM_ADVANCED_INSTANCE(htim->Instance) != RESET)  
 4582              		.loc 1 2156 0
 4583 0026 7B68     		ldr	r3, [r7, #4]
 4584 0028 1B68     		ldr	r3, [r3]
 4585 002a 1C4A     		ldr	r2, .L263
 4586 002c 9342     		cmp	r3, r2
 4587 002e 17D1     		bne	.L260
2157:Drivers/STM32F4xx_HAL_Driver/Src/stm32f4xx_hal_tim.c ****   {
2158:Drivers/STM32F4xx_HAL_Driver/Src/stm32f4xx_hal_tim.c ****     /* Disable the Main Output */
2159:Drivers/STM32F4xx_HAL_Driver/Src/stm32f4xx_hal_tim.c ****     __HAL_TIM_MOE_DISABLE(htim);
 4588              		.loc 1 2159 0
 4589 0030 7B68     		ldr	r3, [r7, #4]
 4590 0032 1B68     		ldr	r3, [r3]
 4591 0034 1A6A     		ldr	r2, [r3, #32]
 4592 0036 41F21113 		movw	r3, #4369
 4593 003a 1340     		ands	r3, r3, r2
 4594 003c 002B     		cmp	r3, #0
 4595 003e 0FD1     		bne	.L260
 4596              		.loc 1 2159 0 is_stmt 0 discriminator 1
 4597 0040 7B68     		ldr	r3, [r7, #4]
 4598 0042 1B68     		ldr	r3, [r3]
 4599 0044 1A6A     		ldr	r2, [r3, #32]
 4600 0046 40F24443 		movw	r3, #1092
 4601 004a 1340     		ands	r3, r3, r2
ARM GAS  /tmp/cc4tSQEQ.s 			page 118


 4602 004c 002B     		cmp	r3, #0
 4603 004e 07D1     		bne	.L260
 4604              		.loc 1 2159 0 discriminator 2
 4605 0050 7B68     		ldr	r3, [r7, #4]
 4606 0052 1B68     		ldr	r3, [r3]
 4607 0054 7A68     		ldr	r2, [r7, #4]
 4608 0056 1268     		ldr	r2, [r2]
 4609 0058 526C     		ldr	r2, [r2, #68]
 4610 005a 22F40042 		bic	r2, r2, #32768
 4611 005e 5A64     		str	r2, [r3, #68]
 4612              	.L260:
2160:Drivers/STM32F4xx_HAL_Driver/Src/stm32f4xx_hal_tim.c ****   }
2161:Drivers/STM32F4xx_HAL_Driver/Src/stm32f4xx_hal_tim.c ****     
2162:Drivers/STM32F4xx_HAL_Driver/Src/stm32f4xx_hal_tim.c ****   /* Disable the Peripheral */
2163:Drivers/STM32F4xx_HAL_Driver/Src/stm32f4xx_hal_tim.c ****   __HAL_TIM_DISABLE(htim); 
 4613              		.loc 1 2163 0 is_stmt 1
 4614 0060 7B68     		ldr	r3, [r7, #4]
 4615 0062 1B68     		ldr	r3, [r3]
 4616 0064 1A6A     		ldr	r2, [r3, #32]
 4617 0066 41F21113 		movw	r3, #4369
 4618 006a 1340     		ands	r3, r3, r2
 4619 006c 002B     		cmp	r3, #0
 4620 006e 0FD1     		bne	.L261
 4621              		.loc 1 2163 0 is_stmt 0 discriminator 1
 4622 0070 7B68     		ldr	r3, [r7, #4]
 4623 0072 1B68     		ldr	r3, [r3]
 4624 0074 1A6A     		ldr	r2, [r3, #32]
 4625 0076 40F24443 		movw	r3, #1092
 4626 007a 1340     		ands	r3, r3, r2
 4627 007c 002B     		cmp	r3, #0
 4628 007e 07D1     		bne	.L261
 4629              		.loc 1 2163 0 discriminator 2
 4630 0080 7B68     		ldr	r3, [r7, #4]
 4631 0082 1B68     		ldr	r3, [r3]
 4632 0084 7A68     		ldr	r2, [r7, #4]
 4633 0086 1268     		ldr	r2, [r2]
 4634 0088 1268     		ldr	r2, [r2]
 4635 008a 22F00102 		bic	r2, r2, #1
 4636 008e 1A60     		str	r2, [r3]
 4637              	.L261:
2164:Drivers/STM32F4xx_HAL_Driver/Src/stm32f4xx_hal_tim.c ****   
2165:Drivers/STM32F4xx_HAL_Driver/Src/stm32f4xx_hal_tim.c ****   /* Return function status */
2166:Drivers/STM32F4xx_HAL_Driver/Src/stm32f4xx_hal_tim.c ****   return HAL_OK;
 4638              		.loc 1 2166 0 is_stmt 1
 4639 0090 0023     		movs	r3, #0
2167:Drivers/STM32F4xx_HAL_Driver/Src/stm32f4xx_hal_tim.c **** }
 4640              		.loc 1 2167 0
 4641 0092 1846     		mov	r0, r3
 4642 0094 0837     		adds	r7, r7, #8
 4643              	.LCFI243:
 4644              		.cfi_def_cfa_offset 8
 4645 0096 BD46     		mov	sp, r7
 4646              	.LCFI244:
 4647              		.cfi_def_cfa_register 13
 4648              		@ sp needed
 4649 0098 80BD     		pop	{r7, pc}
 4650              	.L264:
ARM GAS  /tmp/cc4tSQEQ.s 			page 119


 4651 009a 00BF     		.align	2
 4652              	.L263:
 4653 009c 00000140 		.word	1073807360
 4654              		.cfi_endproc
 4655              	.LFE169:
 4657              		.section	.text.HAL_TIM_OnePulse_Start_IT,"ax",%progbits
 4658              		.align	1
 4659              		.global	HAL_TIM_OnePulse_Start_IT
 4660              		.syntax unified
 4661              		.thumb
 4662              		.thumb_func
 4663              		.fpu fpv4-sp-d16
 4665              	HAL_TIM_OnePulse_Start_IT:
 4666              	.LFB170:
2168:Drivers/STM32F4xx_HAL_Driver/Src/stm32f4xx_hal_tim.c **** 
2169:Drivers/STM32F4xx_HAL_Driver/Src/stm32f4xx_hal_tim.c **** /**
2170:Drivers/STM32F4xx_HAL_Driver/Src/stm32f4xx_hal_tim.c ****   * @brief  Starts the TIM One Pulse signal generation in interrupt mode.
2171:Drivers/STM32F4xx_HAL_Driver/Src/stm32f4xx_hal_tim.c ****   * @param  htim pointer to a TIM_HandleTypeDef structure that contains
2172:Drivers/STM32F4xx_HAL_Driver/Src/stm32f4xx_hal_tim.c ****   *                the configuration information for TIM module.
2173:Drivers/STM32F4xx_HAL_Driver/Src/stm32f4xx_hal_tim.c ****   * @param  OutputChannel  TIM Channels to be enabled.
2174:Drivers/STM32F4xx_HAL_Driver/Src/stm32f4xx_hal_tim.c ****   *          This parameter can be one of the following values:
2175:Drivers/STM32F4xx_HAL_Driver/Src/stm32f4xx_hal_tim.c ****   *            @arg TIM_CHANNEL_1: TIM Channel 1 selected
2176:Drivers/STM32F4xx_HAL_Driver/Src/stm32f4xx_hal_tim.c ****   *            @arg TIM_CHANNEL_2: TIM Channel 2 selected
2177:Drivers/STM32F4xx_HAL_Driver/Src/stm32f4xx_hal_tim.c ****   * @retval HAL status
2178:Drivers/STM32F4xx_HAL_Driver/Src/stm32f4xx_hal_tim.c ****   */
2179:Drivers/STM32F4xx_HAL_Driver/Src/stm32f4xx_hal_tim.c **** HAL_StatusTypeDef HAL_TIM_OnePulse_Start_IT(TIM_HandleTypeDef *htim, uint32_t OutputChannel)
2180:Drivers/STM32F4xx_HAL_Driver/Src/stm32f4xx_hal_tim.c **** {
 4667              		.loc 1 2180 0
 4668              		.cfi_startproc
 4669              		@ args = 0, pretend = 0, frame = 8
 4670              		@ frame_needed = 1, uses_anonymous_args = 0
 4671 0000 80B5     		push	{r7, lr}
 4672              	.LCFI245:
 4673              		.cfi_def_cfa_offset 8
 4674              		.cfi_offset 7, -8
 4675              		.cfi_offset 14, -4
 4676 0002 82B0     		sub	sp, sp, #8
 4677              	.LCFI246:
 4678              		.cfi_def_cfa_offset 16
 4679 0004 00AF     		add	r7, sp, #0
 4680              	.LCFI247:
 4681              		.cfi_def_cfa_register 7
 4682 0006 7860     		str	r0, [r7, #4]
 4683 0008 3960     		str	r1, [r7]
2181:Drivers/STM32F4xx_HAL_Driver/Src/stm32f4xx_hal_tim.c ****   /* Enable the Capture compare and the Input Capture channels 
2182:Drivers/STM32F4xx_HAL_Driver/Src/stm32f4xx_hal_tim.c ****     (in the OPM Mode the two possible channels that can be used are TIM_CHANNEL_1 and TIM_CHANNEL_2
2183:Drivers/STM32F4xx_HAL_Driver/Src/stm32f4xx_hal_tim.c ****     if TIM_CHANNEL_1 is used as output, the TIM_CHANNEL_2 will be used as input and
2184:Drivers/STM32F4xx_HAL_Driver/Src/stm32f4xx_hal_tim.c ****     if TIM_CHANNEL_1 is used as input, the TIM_CHANNEL_2 will be used as output 
2185:Drivers/STM32F4xx_HAL_Driver/Src/stm32f4xx_hal_tim.c ****     in all combinations, the TIM_CHANNEL_1 and TIM_CHANNEL_2 should be enabled together 
2186:Drivers/STM32F4xx_HAL_Driver/Src/stm32f4xx_hal_tim.c ****     
2187:Drivers/STM32F4xx_HAL_Driver/Src/stm32f4xx_hal_tim.c ****     No need to enable the counter, it's enabled automatically by hardware 
2188:Drivers/STM32F4xx_HAL_Driver/Src/stm32f4xx_hal_tim.c ****     (the counter starts in response to a stimulus and generate a pulse */
2189:Drivers/STM32F4xx_HAL_Driver/Src/stm32f4xx_hal_tim.c **** 
2190:Drivers/STM32F4xx_HAL_Driver/Src/stm32f4xx_hal_tim.c ****   /* Prevent unused argument(s) compilation warning */
2191:Drivers/STM32F4xx_HAL_Driver/Src/stm32f4xx_hal_tim.c ****   UNUSED(OutputChannel);
2192:Drivers/STM32F4xx_HAL_Driver/Src/stm32f4xx_hal_tim.c **** 
2193:Drivers/STM32F4xx_HAL_Driver/Src/stm32f4xx_hal_tim.c ****   /* Enable the TIM Capture/Compare 1 interrupt */
ARM GAS  /tmp/cc4tSQEQ.s 			page 120


2194:Drivers/STM32F4xx_HAL_Driver/Src/stm32f4xx_hal_tim.c ****   __HAL_TIM_ENABLE_IT(htim, TIM_IT_CC1);
 4684              		.loc 1 2194 0
 4685 000a 7B68     		ldr	r3, [r7, #4]
 4686 000c 1B68     		ldr	r3, [r3]
 4687 000e 7A68     		ldr	r2, [r7, #4]
 4688 0010 1268     		ldr	r2, [r2]
 4689 0012 D268     		ldr	r2, [r2, #12]
 4690 0014 42F00202 		orr	r2, r2, #2
 4691 0018 DA60     		str	r2, [r3, #12]
2195:Drivers/STM32F4xx_HAL_Driver/Src/stm32f4xx_hal_tim.c ****   
2196:Drivers/STM32F4xx_HAL_Driver/Src/stm32f4xx_hal_tim.c ****   /* Enable the TIM Capture/Compare 2 interrupt */
2197:Drivers/STM32F4xx_HAL_Driver/Src/stm32f4xx_hal_tim.c ****   __HAL_TIM_ENABLE_IT(htim, TIM_IT_CC2);
 4692              		.loc 1 2197 0
 4693 001a 7B68     		ldr	r3, [r7, #4]
 4694 001c 1B68     		ldr	r3, [r3]
 4695 001e 7A68     		ldr	r2, [r7, #4]
 4696 0020 1268     		ldr	r2, [r2]
 4697 0022 D268     		ldr	r2, [r2, #12]
 4698 0024 42F00402 		orr	r2, r2, #4
 4699 0028 DA60     		str	r2, [r3, #12]
2198:Drivers/STM32F4xx_HAL_Driver/Src/stm32f4xx_hal_tim.c ****   
2199:Drivers/STM32F4xx_HAL_Driver/Src/stm32f4xx_hal_tim.c ****   TIM_CCxChannelCmd(htim->Instance, TIM_CHANNEL_1, TIM_CCx_ENABLE); 
 4700              		.loc 1 2199 0
 4701 002a 7B68     		ldr	r3, [r7, #4]
 4702 002c 1B68     		ldr	r3, [r3]
 4703 002e 0122     		movs	r2, #1
 4704 0030 0021     		movs	r1, #0
 4705 0032 1846     		mov	r0, r3
 4706 0034 FFF7FEFF 		bl	TIM_CCxChannelCmd
2200:Drivers/STM32F4xx_HAL_Driver/Src/stm32f4xx_hal_tim.c ****   TIM_CCxChannelCmd(htim->Instance, TIM_CHANNEL_2, TIM_CCx_ENABLE); 
 4707              		.loc 1 2200 0
 4708 0038 7B68     		ldr	r3, [r7, #4]
 4709 003a 1B68     		ldr	r3, [r3]
 4710 003c 0122     		movs	r2, #1
 4711 003e 0421     		movs	r1, #4
 4712 0040 1846     		mov	r0, r3
 4713 0042 FFF7FEFF 		bl	TIM_CCxChannelCmd
2201:Drivers/STM32F4xx_HAL_Driver/Src/stm32f4xx_hal_tim.c ****   
2202:Drivers/STM32F4xx_HAL_Driver/Src/stm32f4xx_hal_tim.c ****   if(IS_TIM_ADVANCED_INSTANCE(htim->Instance) != RESET)  
 4714              		.loc 1 2202 0
 4715 0046 7B68     		ldr	r3, [r7, #4]
 4716 0048 1B68     		ldr	r3, [r3]
 4717 004a 084A     		ldr	r2, .L268
 4718 004c 9342     		cmp	r3, r2
 4719 004e 07D1     		bne	.L266
2203:Drivers/STM32F4xx_HAL_Driver/Src/stm32f4xx_hal_tim.c ****   {
2204:Drivers/STM32F4xx_HAL_Driver/Src/stm32f4xx_hal_tim.c ****     /* Enable the main output */
2205:Drivers/STM32F4xx_HAL_Driver/Src/stm32f4xx_hal_tim.c ****     __HAL_TIM_MOE_ENABLE(htim);
 4720              		.loc 1 2205 0
 4721 0050 7B68     		ldr	r3, [r7, #4]
 4722 0052 1B68     		ldr	r3, [r3]
 4723 0054 7A68     		ldr	r2, [r7, #4]
 4724 0056 1268     		ldr	r2, [r2]
 4725 0058 526C     		ldr	r2, [r2, #68]
 4726 005a 42F40042 		orr	r2, r2, #32768
 4727 005e 5A64     		str	r2, [r3, #68]
 4728              	.L266:
ARM GAS  /tmp/cc4tSQEQ.s 			page 121


2206:Drivers/STM32F4xx_HAL_Driver/Src/stm32f4xx_hal_tim.c ****   }
2207:Drivers/STM32F4xx_HAL_Driver/Src/stm32f4xx_hal_tim.c ****   
2208:Drivers/STM32F4xx_HAL_Driver/Src/stm32f4xx_hal_tim.c ****   /* Return function status */
2209:Drivers/STM32F4xx_HAL_Driver/Src/stm32f4xx_hal_tim.c ****   return HAL_OK;
 4729              		.loc 1 2209 0
 4730 0060 0023     		movs	r3, #0
2210:Drivers/STM32F4xx_HAL_Driver/Src/stm32f4xx_hal_tim.c **** }
 4731              		.loc 1 2210 0
 4732 0062 1846     		mov	r0, r3
 4733 0064 0837     		adds	r7, r7, #8
 4734              	.LCFI248:
 4735              		.cfi_def_cfa_offset 8
 4736 0066 BD46     		mov	sp, r7
 4737              	.LCFI249:
 4738              		.cfi_def_cfa_register 13
 4739              		@ sp needed
 4740 0068 80BD     		pop	{r7, pc}
 4741              	.L269:
 4742 006a 00BF     		.align	2
 4743              	.L268:
 4744 006c 00000140 		.word	1073807360
 4745              		.cfi_endproc
 4746              	.LFE170:
 4748              		.section	.text.HAL_TIM_OnePulse_Stop_IT,"ax",%progbits
 4749              		.align	1
 4750              		.global	HAL_TIM_OnePulse_Stop_IT
 4751              		.syntax unified
 4752              		.thumb
 4753              		.thumb_func
 4754              		.fpu fpv4-sp-d16
 4756              	HAL_TIM_OnePulse_Stop_IT:
 4757              	.LFB171:
2211:Drivers/STM32F4xx_HAL_Driver/Src/stm32f4xx_hal_tim.c **** 
2212:Drivers/STM32F4xx_HAL_Driver/Src/stm32f4xx_hal_tim.c **** /**
2213:Drivers/STM32F4xx_HAL_Driver/Src/stm32f4xx_hal_tim.c ****   * @brief  Stops the TIM One Pulse signal generation in interrupt mode.
2214:Drivers/STM32F4xx_HAL_Driver/Src/stm32f4xx_hal_tim.c ****   * @param  htim pointer to a TIM_HandleTypeDef structure that contains
2215:Drivers/STM32F4xx_HAL_Driver/Src/stm32f4xx_hal_tim.c ****   *                the configuration information for TIM module.
2216:Drivers/STM32F4xx_HAL_Driver/Src/stm32f4xx_hal_tim.c ****   * @param  OutputChannel  TIM Channels to be enabled.
2217:Drivers/STM32F4xx_HAL_Driver/Src/stm32f4xx_hal_tim.c ****   *          This parameter can be one of the following values:
2218:Drivers/STM32F4xx_HAL_Driver/Src/stm32f4xx_hal_tim.c ****   *            @arg TIM_CHANNEL_1: TIM Channel 1 selected
2219:Drivers/STM32F4xx_HAL_Driver/Src/stm32f4xx_hal_tim.c ****   *            @arg TIM_CHANNEL_2: TIM Channel 2 selected
2220:Drivers/STM32F4xx_HAL_Driver/Src/stm32f4xx_hal_tim.c ****   * @retval HAL status
2221:Drivers/STM32F4xx_HAL_Driver/Src/stm32f4xx_hal_tim.c ****   */
2222:Drivers/STM32F4xx_HAL_Driver/Src/stm32f4xx_hal_tim.c **** HAL_StatusTypeDef HAL_TIM_OnePulse_Stop_IT(TIM_HandleTypeDef *htim, uint32_t OutputChannel)
2223:Drivers/STM32F4xx_HAL_Driver/Src/stm32f4xx_hal_tim.c **** {
 4758              		.loc 1 2223 0
 4759              		.cfi_startproc
 4760              		@ args = 0, pretend = 0, frame = 8
 4761              		@ frame_needed = 1, uses_anonymous_args = 0
 4762 0000 80B5     		push	{r7, lr}
 4763              	.LCFI250:
 4764              		.cfi_def_cfa_offset 8
 4765              		.cfi_offset 7, -8
 4766              		.cfi_offset 14, -4
 4767 0002 82B0     		sub	sp, sp, #8
 4768              	.LCFI251:
 4769              		.cfi_def_cfa_offset 16
ARM GAS  /tmp/cc4tSQEQ.s 			page 122


 4770 0004 00AF     		add	r7, sp, #0
 4771              	.LCFI252:
 4772              		.cfi_def_cfa_register 7
 4773 0006 7860     		str	r0, [r7, #4]
 4774 0008 3960     		str	r1, [r7]
2224:Drivers/STM32F4xx_HAL_Driver/Src/stm32f4xx_hal_tim.c ****   /* Prevent unused argument(s) compilation warning */
2225:Drivers/STM32F4xx_HAL_Driver/Src/stm32f4xx_hal_tim.c ****   UNUSED(OutputChannel);
2226:Drivers/STM32F4xx_HAL_Driver/Src/stm32f4xx_hal_tim.c **** 
2227:Drivers/STM32F4xx_HAL_Driver/Src/stm32f4xx_hal_tim.c ****   /* Disable the TIM Capture/Compare 1 interrupt */
2228:Drivers/STM32F4xx_HAL_Driver/Src/stm32f4xx_hal_tim.c ****   __HAL_TIM_DISABLE_IT(htim, TIM_IT_CC1);  
 4775              		.loc 1 2228 0
 4776 000a 7B68     		ldr	r3, [r7, #4]
 4777 000c 1B68     		ldr	r3, [r3]
 4778 000e 7A68     		ldr	r2, [r7, #4]
 4779 0010 1268     		ldr	r2, [r2]
 4780 0012 D268     		ldr	r2, [r2, #12]
 4781 0014 22F00202 		bic	r2, r2, #2
 4782 0018 DA60     		str	r2, [r3, #12]
2229:Drivers/STM32F4xx_HAL_Driver/Src/stm32f4xx_hal_tim.c ****   
2230:Drivers/STM32F4xx_HAL_Driver/Src/stm32f4xx_hal_tim.c ****   /* Disable the TIM Capture/Compare 2 interrupt */
2231:Drivers/STM32F4xx_HAL_Driver/Src/stm32f4xx_hal_tim.c ****   __HAL_TIM_DISABLE_IT(htim, TIM_IT_CC2);
 4783              		.loc 1 2231 0
 4784 001a 7B68     		ldr	r3, [r7, #4]
 4785 001c 1B68     		ldr	r3, [r3]
 4786 001e 7A68     		ldr	r2, [r7, #4]
 4787 0020 1268     		ldr	r2, [r2]
 4788 0022 D268     		ldr	r2, [r2, #12]
 4789 0024 22F00402 		bic	r2, r2, #4
 4790 0028 DA60     		str	r2, [r3, #12]
2232:Drivers/STM32F4xx_HAL_Driver/Src/stm32f4xx_hal_tim.c ****   
2233:Drivers/STM32F4xx_HAL_Driver/Src/stm32f4xx_hal_tim.c ****   /* Disable the Capture compare and the Input Capture channels 
2234:Drivers/STM32F4xx_HAL_Driver/Src/stm32f4xx_hal_tim.c ****   (in the OPM Mode the two possible channels that can be used are TIM_CHANNEL_1 and TIM_CHANNEL_2)
2235:Drivers/STM32F4xx_HAL_Driver/Src/stm32f4xx_hal_tim.c ****   if TIM_CHANNEL_1 is used as output, the TIM_CHANNEL_2 will be used as input and
2236:Drivers/STM32F4xx_HAL_Driver/Src/stm32f4xx_hal_tim.c ****   if TIM_CHANNEL_1 is used as input, the TIM_CHANNEL_2 will be used as output 
2237:Drivers/STM32F4xx_HAL_Driver/Src/stm32f4xx_hal_tim.c ****   in all combinations, the TIM_CHANNEL_1 and TIM_CHANNEL_2 should be disabled together */  
2238:Drivers/STM32F4xx_HAL_Driver/Src/stm32f4xx_hal_tim.c ****   TIM_CCxChannelCmd(htim->Instance, TIM_CHANNEL_1, TIM_CCx_DISABLE); 
 4791              		.loc 1 2238 0
 4792 002a 7B68     		ldr	r3, [r7, #4]
 4793 002c 1B68     		ldr	r3, [r3]
 4794 002e 0022     		movs	r2, #0
 4795 0030 0021     		movs	r1, #0
 4796 0032 1846     		mov	r0, r3
 4797 0034 FFF7FEFF 		bl	TIM_CCxChannelCmd
2239:Drivers/STM32F4xx_HAL_Driver/Src/stm32f4xx_hal_tim.c ****   TIM_CCxChannelCmd(htim->Instance, TIM_CHANNEL_2, TIM_CCx_DISABLE); 
 4798              		.loc 1 2239 0
 4799 0038 7B68     		ldr	r3, [r7, #4]
 4800 003a 1B68     		ldr	r3, [r3]
 4801 003c 0022     		movs	r2, #0
 4802 003e 0421     		movs	r1, #4
 4803 0040 1846     		mov	r0, r3
 4804 0042 FFF7FEFF 		bl	TIM_CCxChannelCmd
2240:Drivers/STM32F4xx_HAL_Driver/Src/stm32f4xx_hal_tim.c ****     
2241:Drivers/STM32F4xx_HAL_Driver/Src/stm32f4xx_hal_tim.c ****   if(IS_TIM_ADVANCED_INSTANCE(htim->Instance) != RESET)  
 4805              		.loc 1 2241 0
 4806 0046 7B68     		ldr	r3, [r7, #4]
 4807 0048 1B68     		ldr	r3, [r3]
 4808 004a 1C4A     		ldr	r2, .L274
ARM GAS  /tmp/cc4tSQEQ.s 			page 123


 4809 004c 9342     		cmp	r3, r2
 4810 004e 17D1     		bne	.L271
2242:Drivers/STM32F4xx_HAL_Driver/Src/stm32f4xx_hal_tim.c ****   {
2243:Drivers/STM32F4xx_HAL_Driver/Src/stm32f4xx_hal_tim.c ****     /* Disable the Main Output */
2244:Drivers/STM32F4xx_HAL_Driver/Src/stm32f4xx_hal_tim.c ****     __HAL_TIM_MOE_DISABLE(htim);
 4811              		.loc 1 2244 0
 4812 0050 7B68     		ldr	r3, [r7, #4]
 4813 0052 1B68     		ldr	r3, [r3]
 4814 0054 1A6A     		ldr	r2, [r3, #32]
 4815 0056 41F21113 		movw	r3, #4369
 4816 005a 1340     		ands	r3, r3, r2
 4817 005c 002B     		cmp	r3, #0
 4818 005e 0FD1     		bne	.L271
 4819              		.loc 1 2244 0 is_stmt 0 discriminator 1
 4820 0060 7B68     		ldr	r3, [r7, #4]
 4821 0062 1B68     		ldr	r3, [r3]
 4822 0064 1A6A     		ldr	r2, [r3, #32]
 4823 0066 40F24443 		movw	r3, #1092
 4824 006a 1340     		ands	r3, r3, r2
 4825 006c 002B     		cmp	r3, #0
 4826 006e 07D1     		bne	.L271
 4827              		.loc 1 2244 0 discriminator 2
 4828 0070 7B68     		ldr	r3, [r7, #4]
 4829 0072 1B68     		ldr	r3, [r3]
 4830 0074 7A68     		ldr	r2, [r7, #4]
 4831 0076 1268     		ldr	r2, [r2]
 4832 0078 526C     		ldr	r2, [r2, #68]
 4833 007a 22F40042 		bic	r2, r2, #32768
 4834 007e 5A64     		str	r2, [r3, #68]
 4835              	.L271:
2245:Drivers/STM32F4xx_HAL_Driver/Src/stm32f4xx_hal_tim.c ****   }
2246:Drivers/STM32F4xx_HAL_Driver/Src/stm32f4xx_hal_tim.c ****     
2247:Drivers/STM32F4xx_HAL_Driver/Src/stm32f4xx_hal_tim.c ****   /* Disable the Peripheral */
2248:Drivers/STM32F4xx_HAL_Driver/Src/stm32f4xx_hal_tim.c ****    __HAL_TIM_DISABLE(htim);  
 4836              		.loc 1 2248 0 is_stmt 1
 4837 0080 7B68     		ldr	r3, [r7, #4]
 4838 0082 1B68     		ldr	r3, [r3]
 4839 0084 1A6A     		ldr	r2, [r3, #32]
 4840 0086 41F21113 		movw	r3, #4369
 4841 008a 1340     		ands	r3, r3, r2
 4842 008c 002B     		cmp	r3, #0
 4843 008e 0FD1     		bne	.L272
 4844              		.loc 1 2248 0 is_stmt 0 discriminator 1
 4845 0090 7B68     		ldr	r3, [r7, #4]
 4846 0092 1B68     		ldr	r3, [r3]
 4847 0094 1A6A     		ldr	r2, [r3, #32]
 4848 0096 40F24443 		movw	r3, #1092
 4849 009a 1340     		ands	r3, r3, r2
 4850 009c 002B     		cmp	r3, #0
 4851 009e 07D1     		bne	.L272
 4852              		.loc 1 2248 0 discriminator 2
 4853 00a0 7B68     		ldr	r3, [r7, #4]
 4854 00a2 1B68     		ldr	r3, [r3]
 4855 00a4 7A68     		ldr	r2, [r7, #4]
 4856 00a6 1268     		ldr	r2, [r2]
 4857 00a8 1268     		ldr	r2, [r2]
 4858 00aa 22F00102 		bic	r2, r2, #1
ARM GAS  /tmp/cc4tSQEQ.s 			page 124


 4859 00ae 1A60     		str	r2, [r3]
 4860              	.L272:
2249:Drivers/STM32F4xx_HAL_Driver/Src/stm32f4xx_hal_tim.c ****   
2250:Drivers/STM32F4xx_HAL_Driver/Src/stm32f4xx_hal_tim.c ****   /* Return function status */
2251:Drivers/STM32F4xx_HAL_Driver/Src/stm32f4xx_hal_tim.c ****   return HAL_OK;
 4861              		.loc 1 2251 0 is_stmt 1
 4862 00b0 0023     		movs	r3, #0
2252:Drivers/STM32F4xx_HAL_Driver/Src/stm32f4xx_hal_tim.c **** }
 4863              		.loc 1 2252 0
 4864 00b2 1846     		mov	r0, r3
 4865 00b4 0837     		adds	r7, r7, #8
 4866              	.LCFI253:
 4867              		.cfi_def_cfa_offset 8
 4868 00b6 BD46     		mov	sp, r7
 4869              	.LCFI254:
 4870              		.cfi_def_cfa_register 13
 4871              		@ sp needed
 4872 00b8 80BD     		pop	{r7, pc}
 4873              	.L275:
 4874 00ba 00BF     		.align	2
 4875              	.L274:
 4876 00bc 00000140 		.word	1073807360
 4877              		.cfi_endproc
 4878              	.LFE171:
 4880              		.section	.text.HAL_TIM_Encoder_Init,"ax",%progbits
 4881              		.align	1
 4882              		.global	HAL_TIM_Encoder_Init
 4883              		.syntax unified
 4884              		.thumb
 4885              		.thumb_func
 4886              		.fpu fpv4-sp-d16
 4888              	HAL_TIM_Encoder_Init:
 4889              	.LFB172:
2253:Drivers/STM32F4xx_HAL_Driver/Src/stm32f4xx_hal_tim.c **** /**
2254:Drivers/STM32F4xx_HAL_Driver/Src/stm32f4xx_hal_tim.c ****   * @}
2255:Drivers/STM32F4xx_HAL_Driver/Src/stm32f4xx_hal_tim.c ****   */
2256:Drivers/STM32F4xx_HAL_Driver/Src/stm32f4xx_hal_tim.c **** 
2257:Drivers/STM32F4xx_HAL_Driver/Src/stm32f4xx_hal_tim.c **** /** @defgroup TIM_Exported_Functions_Group6 Time Encoder functions 
2258:Drivers/STM32F4xx_HAL_Driver/Src/stm32f4xx_hal_tim.c ****  *  @brief    Time Encoder functions 
2259:Drivers/STM32F4xx_HAL_Driver/Src/stm32f4xx_hal_tim.c ****  *
2260:Drivers/STM32F4xx_HAL_Driver/Src/stm32f4xx_hal_tim.c **** @verbatim    
2261:Drivers/STM32F4xx_HAL_Driver/Src/stm32f4xx_hal_tim.c ****   ==============================================================================
2262:Drivers/STM32F4xx_HAL_Driver/Src/stm32f4xx_hal_tim.c ****                           ##### Time Encoder functions #####
2263:Drivers/STM32F4xx_HAL_Driver/Src/stm32f4xx_hal_tim.c ****   ==============================================================================
2264:Drivers/STM32F4xx_HAL_Driver/Src/stm32f4xx_hal_tim.c ****   [..]
2265:Drivers/STM32F4xx_HAL_Driver/Src/stm32f4xx_hal_tim.c ****     This section provides functions allowing to:
2266:Drivers/STM32F4xx_HAL_Driver/Src/stm32f4xx_hal_tim.c ****     (+) Initialize and configure the TIM Encoder. 
2267:Drivers/STM32F4xx_HAL_Driver/Src/stm32f4xx_hal_tim.c ****     (+) De-initialize the TIM Encoder.
2268:Drivers/STM32F4xx_HAL_Driver/Src/stm32f4xx_hal_tim.c ****     (+) Start the Time Encoder.
2269:Drivers/STM32F4xx_HAL_Driver/Src/stm32f4xx_hal_tim.c ****     (+) Stop the Time Encoder.
2270:Drivers/STM32F4xx_HAL_Driver/Src/stm32f4xx_hal_tim.c ****     (+) Start the Time Encoder and enable interrupt.
2271:Drivers/STM32F4xx_HAL_Driver/Src/stm32f4xx_hal_tim.c ****     (+) Stop the Time Encoder and disable interrupt.
2272:Drivers/STM32F4xx_HAL_Driver/Src/stm32f4xx_hal_tim.c ****     (+) Start the Time Encoder and enable DMA transfer.
2273:Drivers/STM32F4xx_HAL_Driver/Src/stm32f4xx_hal_tim.c ****     (+) Stop the Time Encoder and disable DMA transfer.
2274:Drivers/STM32F4xx_HAL_Driver/Src/stm32f4xx_hal_tim.c ****  
2275:Drivers/STM32F4xx_HAL_Driver/Src/stm32f4xx_hal_tim.c **** @endverbatim
2276:Drivers/STM32F4xx_HAL_Driver/Src/stm32f4xx_hal_tim.c ****   * @{
ARM GAS  /tmp/cc4tSQEQ.s 			page 125


2277:Drivers/STM32F4xx_HAL_Driver/Src/stm32f4xx_hal_tim.c ****   */
2278:Drivers/STM32F4xx_HAL_Driver/Src/stm32f4xx_hal_tim.c **** /**
2279:Drivers/STM32F4xx_HAL_Driver/Src/stm32f4xx_hal_tim.c ****   * @brief  Initializes the TIM Encoder Interface and create the associated handle.
2280:Drivers/STM32F4xx_HAL_Driver/Src/stm32f4xx_hal_tim.c ****   * @param  htim pointer to a TIM_HandleTypeDef structure that contains
2281:Drivers/STM32F4xx_HAL_Driver/Src/stm32f4xx_hal_tim.c ****   *                the configuration information for TIM module.
2282:Drivers/STM32F4xx_HAL_Driver/Src/stm32f4xx_hal_tim.c ****   * @param  sConfig TIM Encoder Interface configuration structure
2283:Drivers/STM32F4xx_HAL_Driver/Src/stm32f4xx_hal_tim.c ****   * @retval HAL status
2284:Drivers/STM32F4xx_HAL_Driver/Src/stm32f4xx_hal_tim.c ****   */
2285:Drivers/STM32F4xx_HAL_Driver/Src/stm32f4xx_hal_tim.c **** HAL_StatusTypeDef HAL_TIM_Encoder_Init(TIM_HandleTypeDef *htim,  TIM_Encoder_InitTypeDef* sConfig)
2286:Drivers/STM32F4xx_HAL_Driver/Src/stm32f4xx_hal_tim.c **** {
 4890              		.loc 1 2286 0
 4891              		.cfi_startproc
 4892              		@ args = 0, pretend = 0, frame = 24
 4893              		@ frame_needed = 1, uses_anonymous_args = 0
 4894 0000 80B5     		push	{r7, lr}
 4895              	.LCFI255:
 4896              		.cfi_def_cfa_offset 8
 4897              		.cfi_offset 7, -8
 4898              		.cfi_offset 14, -4
 4899 0002 86B0     		sub	sp, sp, #24
 4900              	.LCFI256:
 4901              		.cfi_def_cfa_offset 32
 4902 0004 00AF     		add	r7, sp, #0
 4903              	.LCFI257:
 4904              		.cfi_def_cfa_register 7
 4905 0006 7860     		str	r0, [r7, #4]
 4906 0008 3960     		str	r1, [r7]
2287:Drivers/STM32F4xx_HAL_Driver/Src/stm32f4xx_hal_tim.c ****   uint32_t tmpsmcr = 0U;
 4907              		.loc 1 2287 0
 4908 000a 0023     		movs	r3, #0
 4909 000c 7B61     		str	r3, [r7, #20]
2288:Drivers/STM32F4xx_HAL_Driver/Src/stm32f4xx_hal_tim.c ****   uint32_t tmpccmr1 = 0U;
 4910              		.loc 1 2288 0
 4911 000e 0023     		movs	r3, #0
 4912 0010 3B61     		str	r3, [r7, #16]
2289:Drivers/STM32F4xx_HAL_Driver/Src/stm32f4xx_hal_tim.c ****   uint32_t tmpccer = 0U;
 4913              		.loc 1 2289 0
 4914 0012 0023     		movs	r3, #0
 4915 0014 FB60     		str	r3, [r7, #12]
2290:Drivers/STM32F4xx_HAL_Driver/Src/stm32f4xx_hal_tim.c ****   
2291:Drivers/STM32F4xx_HAL_Driver/Src/stm32f4xx_hal_tim.c ****   /* Check the TIM handle allocation */
2292:Drivers/STM32F4xx_HAL_Driver/Src/stm32f4xx_hal_tim.c ****   if(htim == NULL)
 4916              		.loc 1 2292 0
 4917 0016 7B68     		ldr	r3, [r7, #4]
 4918 0018 002B     		cmp	r3, #0
 4919 001a 01D1     		bne	.L277
2293:Drivers/STM32F4xx_HAL_Driver/Src/stm32f4xx_hal_tim.c ****   {
2294:Drivers/STM32F4xx_HAL_Driver/Src/stm32f4xx_hal_tim.c ****     return HAL_ERROR;
 4920              		.loc 1 2294 0
 4921 001c 0123     		movs	r3, #1
 4922 001e 81E0     		b	.L278
 4923              	.L277:
2295:Drivers/STM32F4xx_HAL_Driver/Src/stm32f4xx_hal_tim.c ****   }
2296:Drivers/STM32F4xx_HAL_Driver/Src/stm32f4xx_hal_tim.c ****    
2297:Drivers/STM32F4xx_HAL_Driver/Src/stm32f4xx_hal_tim.c ****   /* Check the parameters */
2298:Drivers/STM32F4xx_HAL_Driver/Src/stm32f4xx_hal_tim.c ****   assert_param(IS_TIM_CC2_INSTANCE(htim->Instance));
2299:Drivers/STM32F4xx_HAL_Driver/Src/stm32f4xx_hal_tim.c ****   assert_param(IS_TIM_ENCODER_MODE(sConfig->EncoderMode));
ARM GAS  /tmp/cc4tSQEQ.s 			page 126


2300:Drivers/STM32F4xx_HAL_Driver/Src/stm32f4xx_hal_tim.c ****   assert_param(IS_TIM_IC_SELECTION(sConfig->IC1Selection));
2301:Drivers/STM32F4xx_HAL_Driver/Src/stm32f4xx_hal_tim.c ****   assert_param(IS_TIM_IC_SELECTION(sConfig->IC2Selection));
2302:Drivers/STM32F4xx_HAL_Driver/Src/stm32f4xx_hal_tim.c ****   assert_param(IS_TIM_IC_POLARITY(sConfig->IC1Polarity));
2303:Drivers/STM32F4xx_HAL_Driver/Src/stm32f4xx_hal_tim.c ****   assert_param(IS_TIM_IC_POLARITY(sConfig->IC2Polarity));
2304:Drivers/STM32F4xx_HAL_Driver/Src/stm32f4xx_hal_tim.c ****   assert_param(IS_TIM_IC_PRESCALER(sConfig->IC1Prescaler));
2305:Drivers/STM32F4xx_HAL_Driver/Src/stm32f4xx_hal_tim.c ****   assert_param(IS_TIM_IC_PRESCALER(sConfig->IC2Prescaler));
2306:Drivers/STM32F4xx_HAL_Driver/Src/stm32f4xx_hal_tim.c ****   assert_param(IS_TIM_IC_FILTER(sConfig->IC1Filter));
2307:Drivers/STM32F4xx_HAL_Driver/Src/stm32f4xx_hal_tim.c ****   assert_param(IS_TIM_IC_FILTER(sConfig->IC2Filter));
2308:Drivers/STM32F4xx_HAL_Driver/Src/stm32f4xx_hal_tim.c **** 
2309:Drivers/STM32F4xx_HAL_Driver/Src/stm32f4xx_hal_tim.c ****   if(htim->State == HAL_TIM_STATE_RESET)
 4924              		.loc 1 2309 0
 4925 0020 7B68     		ldr	r3, [r7, #4]
 4926 0022 93F83930 		ldrb	r3, [r3, #57]
 4927 0026 DBB2     		uxtb	r3, r3
 4928 0028 002B     		cmp	r3, #0
 4929 002a 06D1     		bne	.L279
2310:Drivers/STM32F4xx_HAL_Driver/Src/stm32f4xx_hal_tim.c ****   { 
2311:Drivers/STM32F4xx_HAL_Driver/Src/stm32f4xx_hal_tim.c ****     /* Allocate lock resource and initialize it */
2312:Drivers/STM32F4xx_HAL_Driver/Src/stm32f4xx_hal_tim.c ****     htim->Lock = HAL_UNLOCKED;
 4930              		.loc 1 2312 0
 4931 002c 7B68     		ldr	r3, [r7, #4]
 4932 002e 0022     		movs	r2, #0
 4933 0030 83F83820 		strb	r2, [r3, #56]
2313:Drivers/STM32F4xx_HAL_Driver/Src/stm32f4xx_hal_tim.c ****     /* Init the low level hardware : GPIO, CLOCK, NVIC and DMA */
2314:Drivers/STM32F4xx_HAL_Driver/Src/stm32f4xx_hal_tim.c ****     HAL_TIM_Encoder_MspInit(htim);
 4934              		.loc 1 2314 0
 4935 0034 7868     		ldr	r0, [r7, #4]
 4936 0036 FFF7FEFF 		bl	HAL_TIM_Encoder_MspInit
 4937              	.L279:
2315:Drivers/STM32F4xx_HAL_Driver/Src/stm32f4xx_hal_tim.c ****   }
2316:Drivers/STM32F4xx_HAL_Driver/Src/stm32f4xx_hal_tim.c ****   
2317:Drivers/STM32F4xx_HAL_Driver/Src/stm32f4xx_hal_tim.c ****   /* Set the TIM state */
2318:Drivers/STM32F4xx_HAL_Driver/Src/stm32f4xx_hal_tim.c ****   htim->State= HAL_TIM_STATE_BUSY;   
 4938              		.loc 1 2318 0
 4939 003a 7B68     		ldr	r3, [r7, #4]
 4940 003c 0222     		movs	r2, #2
 4941 003e 83F83920 		strb	r2, [r3, #57]
2319:Drivers/STM32F4xx_HAL_Driver/Src/stm32f4xx_hal_tim.c ****     
2320:Drivers/STM32F4xx_HAL_Driver/Src/stm32f4xx_hal_tim.c ****   /* Reset the SMS bits */
2321:Drivers/STM32F4xx_HAL_Driver/Src/stm32f4xx_hal_tim.c ****   htim->Instance->SMCR &= ~TIM_SMCR_SMS;
 4942              		.loc 1 2321 0
 4943 0042 7B68     		ldr	r3, [r7, #4]
 4944 0044 1B68     		ldr	r3, [r3]
 4945 0046 7A68     		ldr	r2, [r7, #4]
 4946 0048 1268     		ldr	r2, [r2]
 4947 004a 9268     		ldr	r2, [r2, #8]
 4948 004c 22F00702 		bic	r2, r2, #7
 4949 0050 9A60     		str	r2, [r3, #8]
2322:Drivers/STM32F4xx_HAL_Driver/Src/stm32f4xx_hal_tim.c ****   
2323:Drivers/STM32F4xx_HAL_Driver/Src/stm32f4xx_hal_tim.c ****   /* Configure the Time base in the Encoder Mode */
2324:Drivers/STM32F4xx_HAL_Driver/Src/stm32f4xx_hal_tim.c ****   TIM_Base_SetConfig(htim->Instance, &htim->Init);  
 4950              		.loc 1 2324 0
 4951 0052 7B68     		ldr	r3, [r7, #4]
 4952 0054 1A68     		ldr	r2, [r3]
 4953 0056 7B68     		ldr	r3, [r7, #4]
 4954 0058 0433     		adds	r3, r3, #4
 4955 005a 1946     		mov	r1, r3
ARM GAS  /tmp/cc4tSQEQ.s 			page 127


 4956 005c 1046     		mov	r0, r2
 4957 005e FFF7FEFF 		bl	TIM_Base_SetConfig
2325:Drivers/STM32F4xx_HAL_Driver/Src/stm32f4xx_hal_tim.c ****   
2326:Drivers/STM32F4xx_HAL_Driver/Src/stm32f4xx_hal_tim.c ****   /* Get the TIMx SMCR register value */
2327:Drivers/STM32F4xx_HAL_Driver/Src/stm32f4xx_hal_tim.c ****   tmpsmcr = htim->Instance->SMCR;
 4958              		.loc 1 2327 0
 4959 0062 7B68     		ldr	r3, [r7, #4]
 4960 0064 1B68     		ldr	r3, [r3]
 4961 0066 9B68     		ldr	r3, [r3, #8]
 4962 0068 7B61     		str	r3, [r7, #20]
2328:Drivers/STM32F4xx_HAL_Driver/Src/stm32f4xx_hal_tim.c **** 
2329:Drivers/STM32F4xx_HAL_Driver/Src/stm32f4xx_hal_tim.c ****   /* Get the TIMx CCMR1 register value */
2330:Drivers/STM32F4xx_HAL_Driver/Src/stm32f4xx_hal_tim.c ****   tmpccmr1 = htim->Instance->CCMR1;
 4963              		.loc 1 2330 0
 4964 006a 7B68     		ldr	r3, [r7, #4]
 4965 006c 1B68     		ldr	r3, [r3]
 4966 006e 9B69     		ldr	r3, [r3, #24]
 4967 0070 3B61     		str	r3, [r7, #16]
2331:Drivers/STM32F4xx_HAL_Driver/Src/stm32f4xx_hal_tim.c **** 
2332:Drivers/STM32F4xx_HAL_Driver/Src/stm32f4xx_hal_tim.c ****   /* Get the TIMx CCER register value */
2333:Drivers/STM32F4xx_HAL_Driver/Src/stm32f4xx_hal_tim.c ****   tmpccer = htim->Instance->CCER;
 4968              		.loc 1 2333 0
 4969 0072 7B68     		ldr	r3, [r7, #4]
 4970 0074 1B68     		ldr	r3, [r3]
 4971 0076 1B6A     		ldr	r3, [r3, #32]
 4972 0078 FB60     		str	r3, [r7, #12]
2334:Drivers/STM32F4xx_HAL_Driver/Src/stm32f4xx_hal_tim.c **** 
2335:Drivers/STM32F4xx_HAL_Driver/Src/stm32f4xx_hal_tim.c ****   /* Set the encoder Mode */
2336:Drivers/STM32F4xx_HAL_Driver/Src/stm32f4xx_hal_tim.c ****   tmpsmcr |= sConfig->EncoderMode;
 4973              		.loc 1 2336 0
 4974 007a 3B68     		ldr	r3, [r7]
 4975 007c 1B68     		ldr	r3, [r3]
 4976 007e 7A69     		ldr	r2, [r7, #20]
 4977 0080 1343     		orrs	r3, r3, r2
 4978 0082 7B61     		str	r3, [r7, #20]
2337:Drivers/STM32F4xx_HAL_Driver/Src/stm32f4xx_hal_tim.c **** 
2338:Drivers/STM32F4xx_HAL_Driver/Src/stm32f4xx_hal_tim.c ****   /* Select the Capture Compare 1 and the Capture Compare 2 as input */
2339:Drivers/STM32F4xx_HAL_Driver/Src/stm32f4xx_hal_tim.c ****   tmpccmr1 &= ~(TIM_CCMR1_CC1S | TIM_CCMR1_CC2S);
 4979              		.loc 1 2339 0
 4980 0084 3B69     		ldr	r3, [r7, #16]
 4981 0086 23F44073 		bic	r3, r3, #768
 4982 008a 23F00303 		bic	r3, r3, #3
 4983 008e 3B61     		str	r3, [r7, #16]
2340:Drivers/STM32F4xx_HAL_Driver/Src/stm32f4xx_hal_tim.c ****   tmpccmr1 |= (sConfig->IC1Selection | (sConfig->IC2Selection << 8U));
 4984              		.loc 1 2340 0
 4985 0090 3B68     		ldr	r3, [r7]
 4986 0092 9A68     		ldr	r2, [r3, #8]
 4987 0094 3B68     		ldr	r3, [r7]
 4988 0096 9B69     		ldr	r3, [r3, #24]
 4989 0098 1B02     		lsls	r3, r3, #8
 4990 009a 1343     		orrs	r3, r3, r2
 4991 009c 3A69     		ldr	r2, [r7, #16]
 4992 009e 1343     		orrs	r3, r3, r2
 4993 00a0 3B61     		str	r3, [r7, #16]
2341:Drivers/STM32F4xx_HAL_Driver/Src/stm32f4xx_hal_tim.c ****   
2342:Drivers/STM32F4xx_HAL_Driver/Src/stm32f4xx_hal_tim.c ****   /* Set the Capture Compare 1 and the Capture Compare 2 prescalers and filters */
2343:Drivers/STM32F4xx_HAL_Driver/Src/stm32f4xx_hal_tim.c ****   tmpccmr1 &= ~(TIM_CCMR1_IC1PSC | TIM_CCMR1_IC2PSC);
ARM GAS  /tmp/cc4tSQEQ.s 			page 128


 4994              		.loc 1 2343 0
 4995 00a2 3B69     		ldr	r3, [r7, #16]
 4996 00a4 23F44063 		bic	r3, r3, #3072
 4997 00a8 23F00C03 		bic	r3, r3, #12
 4998 00ac 3B61     		str	r3, [r7, #16]
2344:Drivers/STM32F4xx_HAL_Driver/Src/stm32f4xx_hal_tim.c ****   tmpccmr1 &= ~(TIM_CCMR1_IC1F | TIM_CCMR1_IC2F);
 4999              		.loc 1 2344 0
 5000 00ae 3B69     		ldr	r3, [r7, #16]
 5001 00b0 23F47043 		bic	r3, r3, #61440
 5002 00b4 23F0F003 		bic	r3, r3, #240
 5003 00b8 3B61     		str	r3, [r7, #16]
2345:Drivers/STM32F4xx_HAL_Driver/Src/stm32f4xx_hal_tim.c ****   tmpccmr1 |= sConfig->IC1Prescaler | (sConfig->IC2Prescaler << 8U);
 5004              		.loc 1 2345 0
 5005 00ba 3B68     		ldr	r3, [r7]
 5006 00bc DA68     		ldr	r2, [r3, #12]
 5007 00be 3B68     		ldr	r3, [r7]
 5008 00c0 DB69     		ldr	r3, [r3, #28]
 5009 00c2 1B02     		lsls	r3, r3, #8
 5010 00c4 1343     		orrs	r3, r3, r2
 5011 00c6 3A69     		ldr	r2, [r7, #16]
 5012 00c8 1343     		orrs	r3, r3, r2
 5013 00ca 3B61     		str	r3, [r7, #16]
2346:Drivers/STM32F4xx_HAL_Driver/Src/stm32f4xx_hal_tim.c ****   tmpccmr1 |= (sConfig->IC1Filter << 4U) | (sConfig->IC2Filter << 12U);
 5014              		.loc 1 2346 0
 5015 00cc 3B68     		ldr	r3, [r7]
 5016 00ce 1B69     		ldr	r3, [r3, #16]
 5017 00d0 1A01     		lsls	r2, r3, #4
 5018 00d2 3B68     		ldr	r3, [r7]
 5019 00d4 1B6A     		ldr	r3, [r3, #32]
 5020 00d6 1B03     		lsls	r3, r3, #12
 5021 00d8 1343     		orrs	r3, r3, r2
 5022 00da 3A69     		ldr	r2, [r7, #16]
 5023 00dc 1343     		orrs	r3, r3, r2
 5024 00de 3B61     		str	r3, [r7, #16]
2347:Drivers/STM32F4xx_HAL_Driver/Src/stm32f4xx_hal_tim.c **** 
2348:Drivers/STM32F4xx_HAL_Driver/Src/stm32f4xx_hal_tim.c ****   /* Set the TI1 and the TI2 Polarities */
2349:Drivers/STM32F4xx_HAL_Driver/Src/stm32f4xx_hal_tim.c ****   tmpccer &= ~(TIM_CCER_CC1P | TIM_CCER_CC2P);
 5025              		.loc 1 2349 0
 5026 00e0 FB68     		ldr	r3, [r7, #12]
 5027 00e2 23F02203 		bic	r3, r3, #34
 5028 00e6 FB60     		str	r3, [r7, #12]
2350:Drivers/STM32F4xx_HAL_Driver/Src/stm32f4xx_hal_tim.c ****   tmpccer &= ~(TIM_CCER_CC1NP | TIM_CCER_CC2NP);
 5029              		.loc 1 2350 0
 5030 00e8 FB68     		ldr	r3, [r7, #12]
 5031 00ea 23F08803 		bic	r3, r3, #136
 5032 00ee FB60     		str	r3, [r7, #12]
2351:Drivers/STM32F4xx_HAL_Driver/Src/stm32f4xx_hal_tim.c ****   tmpccer |= sConfig->IC1Polarity | (sConfig->IC2Polarity << 4U);
 5033              		.loc 1 2351 0
 5034 00f0 3B68     		ldr	r3, [r7]
 5035 00f2 5A68     		ldr	r2, [r3, #4]
 5036 00f4 3B68     		ldr	r3, [r7]
 5037 00f6 5B69     		ldr	r3, [r3, #20]
 5038 00f8 1B01     		lsls	r3, r3, #4
 5039 00fa 1343     		orrs	r3, r3, r2
 5040 00fc FA68     		ldr	r2, [r7, #12]
 5041 00fe 1343     		orrs	r3, r3, r2
 5042 0100 FB60     		str	r3, [r7, #12]
ARM GAS  /tmp/cc4tSQEQ.s 			page 129


2352:Drivers/STM32F4xx_HAL_Driver/Src/stm32f4xx_hal_tim.c ****   
2353:Drivers/STM32F4xx_HAL_Driver/Src/stm32f4xx_hal_tim.c ****   /* Write to TIMx SMCR */
2354:Drivers/STM32F4xx_HAL_Driver/Src/stm32f4xx_hal_tim.c ****   htim->Instance->SMCR = tmpsmcr;
 5043              		.loc 1 2354 0
 5044 0102 7B68     		ldr	r3, [r7, #4]
 5045 0104 1B68     		ldr	r3, [r3]
 5046 0106 7A69     		ldr	r2, [r7, #20]
 5047 0108 9A60     		str	r2, [r3, #8]
2355:Drivers/STM32F4xx_HAL_Driver/Src/stm32f4xx_hal_tim.c **** 
2356:Drivers/STM32F4xx_HAL_Driver/Src/stm32f4xx_hal_tim.c ****   /* Write to TIMx CCMR1 */
2357:Drivers/STM32F4xx_HAL_Driver/Src/stm32f4xx_hal_tim.c ****   htim->Instance->CCMR1 = tmpccmr1;
 5048              		.loc 1 2357 0
 5049 010a 7B68     		ldr	r3, [r7, #4]
 5050 010c 1B68     		ldr	r3, [r3]
 5051 010e 3A69     		ldr	r2, [r7, #16]
 5052 0110 9A61     		str	r2, [r3, #24]
2358:Drivers/STM32F4xx_HAL_Driver/Src/stm32f4xx_hal_tim.c **** 
2359:Drivers/STM32F4xx_HAL_Driver/Src/stm32f4xx_hal_tim.c ****   /* Write to TIMx CCER */
2360:Drivers/STM32F4xx_HAL_Driver/Src/stm32f4xx_hal_tim.c ****   htim->Instance->CCER = tmpccer;
 5053              		.loc 1 2360 0
 5054 0112 7B68     		ldr	r3, [r7, #4]
 5055 0114 1B68     		ldr	r3, [r3]
 5056 0116 FA68     		ldr	r2, [r7, #12]
 5057 0118 1A62     		str	r2, [r3, #32]
2361:Drivers/STM32F4xx_HAL_Driver/Src/stm32f4xx_hal_tim.c ****   
2362:Drivers/STM32F4xx_HAL_Driver/Src/stm32f4xx_hal_tim.c ****   /* Initialize the TIM state*/
2363:Drivers/STM32F4xx_HAL_Driver/Src/stm32f4xx_hal_tim.c ****   htim->State= HAL_TIM_STATE_READY;
 5058              		.loc 1 2363 0
 5059 011a 7B68     		ldr	r3, [r7, #4]
 5060 011c 0122     		movs	r2, #1
 5061 011e 83F83920 		strb	r2, [r3, #57]
2364:Drivers/STM32F4xx_HAL_Driver/Src/stm32f4xx_hal_tim.c ****   
2365:Drivers/STM32F4xx_HAL_Driver/Src/stm32f4xx_hal_tim.c ****   return HAL_OK;
 5062              		.loc 1 2365 0
 5063 0122 0023     		movs	r3, #0
 5064              	.L278:
2366:Drivers/STM32F4xx_HAL_Driver/Src/stm32f4xx_hal_tim.c **** }
 5065              		.loc 1 2366 0
 5066 0124 1846     		mov	r0, r3
 5067 0126 1837     		adds	r7, r7, #24
 5068              	.LCFI258:
 5069              		.cfi_def_cfa_offset 8
 5070 0128 BD46     		mov	sp, r7
 5071              	.LCFI259:
 5072              		.cfi_def_cfa_register 13
 5073              		@ sp needed
 5074 012a 80BD     		pop	{r7, pc}
 5075              		.cfi_endproc
 5076              	.LFE172:
 5078              		.section	.text.HAL_TIM_Encoder_DeInit,"ax",%progbits
 5079              		.align	1
 5080              		.global	HAL_TIM_Encoder_DeInit
 5081              		.syntax unified
 5082              		.thumb
 5083              		.thumb_func
 5084              		.fpu fpv4-sp-d16
 5086              	HAL_TIM_Encoder_DeInit:
ARM GAS  /tmp/cc4tSQEQ.s 			page 130


 5087              	.LFB173:
2367:Drivers/STM32F4xx_HAL_Driver/Src/stm32f4xx_hal_tim.c **** 
2368:Drivers/STM32F4xx_HAL_Driver/Src/stm32f4xx_hal_tim.c **** /**
2369:Drivers/STM32F4xx_HAL_Driver/Src/stm32f4xx_hal_tim.c ****   * @brief  DeInitializes the TIM Encoder interface  
2370:Drivers/STM32F4xx_HAL_Driver/Src/stm32f4xx_hal_tim.c ****   * @param  htim pointer to a TIM_HandleTypeDef structure that contains
2371:Drivers/STM32F4xx_HAL_Driver/Src/stm32f4xx_hal_tim.c ****   *                the configuration information for TIM module.
2372:Drivers/STM32F4xx_HAL_Driver/Src/stm32f4xx_hal_tim.c ****   * @retval HAL status
2373:Drivers/STM32F4xx_HAL_Driver/Src/stm32f4xx_hal_tim.c ****   */
2374:Drivers/STM32F4xx_HAL_Driver/Src/stm32f4xx_hal_tim.c **** HAL_StatusTypeDef HAL_TIM_Encoder_DeInit(TIM_HandleTypeDef *htim)
2375:Drivers/STM32F4xx_HAL_Driver/Src/stm32f4xx_hal_tim.c **** {
 5088              		.loc 1 2375 0
 5089              		.cfi_startproc
 5090              		@ args = 0, pretend = 0, frame = 8
 5091              		@ frame_needed = 1, uses_anonymous_args = 0
 5092 0000 80B5     		push	{r7, lr}
 5093              	.LCFI260:
 5094              		.cfi_def_cfa_offset 8
 5095              		.cfi_offset 7, -8
 5096              		.cfi_offset 14, -4
 5097 0002 82B0     		sub	sp, sp, #8
 5098              	.LCFI261:
 5099              		.cfi_def_cfa_offset 16
 5100 0004 00AF     		add	r7, sp, #0
 5101              	.LCFI262:
 5102              		.cfi_def_cfa_register 7
 5103 0006 7860     		str	r0, [r7, #4]
2376:Drivers/STM32F4xx_HAL_Driver/Src/stm32f4xx_hal_tim.c ****   /* Check the parameters */
2377:Drivers/STM32F4xx_HAL_Driver/Src/stm32f4xx_hal_tim.c ****   assert_param(IS_TIM_INSTANCE(htim->Instance));
2378:Drivers/STM32F4xx_HAL_Driver/Src/stm32f4xx_hal_tim.c ****   
2379:Drivers/STM32F4xx_HAL_Driver/Src/stm32f4xx_hal_tim.c ****   htim->State = HAL_TIM_STATE_BUSY;
 5104              		.loc 1 2379 0
 5105 0008 7B68     		ldr	r3, [r7, #4]
 5106 000a 0222     		movs	r2, #2
 5107 000c 83F83920 		strb	r2, [r3, #57]
2380:Drivers/STM32F4xx_HAL_Driver/Src/stm32f4xx_hal_tim.c ****   
2381:Drivers/STM32F4xx_HAL_Driver/Src/stm32f4xx_hal_tim.c ****   /* Disable the TIM Peripheral Clock */
2382:Drivers/STM32F4xx_HAL_Driver/Src/stm32f4xx_hal_tim.c ****   __HAL_TIM_DISABLE(htim);
 5108              		.loc 1 2382 0
 5109 0010 7B68     		ldr	r3, [r7, #4]
 5110 0012 1B68     		ldr	r3, [r3]
 5111 0014 1A6A     		ldr	r2, [r3, #32]
 5112 0016 41F21113 		movw	r3, #4369
 5113 001a 1340     		ands	r3, r3, r2
 5114 001c 002B     		cmp	r3, #0
 5115 001e 0FD1     		bne	.L281
 5116              		.loc 1 2382 0 is_stmt 0 discriminator 1
 5117 0020 7B68     		ldr	r3, [r7, #4]
 5118 0022 1B68     		ldr	r3, [r3]
 5119 0024 1A6A     		ldr	r2, [r3, #32]
 5120 0026 40F24443 		movw	r3, #1092
 5121 002a 1340     		ands	r3, r3, r2
 5122 002c 002B     		cmp	r3, #0
 5123 002e 07D1     		bne	.L281
 5124              		.loc 1 2382 0 discriminator 2
 5125 0030 7B68     		ldr	r3, [r7, #4]
 5126 0032 1B68     		ldr	r3, [r3]
 5127 0034 7A68     		ldr	r2, [r7, #4]
ARM GAS  /tmp/cc4tSQEQ.s 			page 131


 5128 0036 1268     		ldr	r2, [r2]
 5129 0038 1268     		ldr	r2, [r2]
 5130 003a 22F00102 		bic	r2, r2, #1
 5131 003e 1A60     		str	r2, [r3]
 5132              	.L281:
2383:Drivers/STM32F4xx_HAL_Driver/Src/stm32f4xx_hal_tim.c ****   
2384:Drivers/STM32F4xx_HAL_Driver/Src/stm32f4xx_hal_tim.c ****   /* DeInit the low level hardware: GPIO, CLOCK, NVIC */
2385:Drivers/STM32F4xx_HAL_Driver/Src/stm32f4xx_hal_tim.c ****   HAL_TIM_Encoder_MspDeInit(htim);
 5133              		.loc 1 2385 0 is_stmt 1
 5134 0040 7868     		ldr	r0, [r7, #4]
 5135 0042 FFF7FEFF 		bl	HAL_TIM_Encoder_MspDeInit
2386:Drivers/STM32F4xx_HAL_Driver/Src/stm32f4xx_hal_tim.c ****     
2387:Drivers/STM32F4xx_HAL_Driver/Src/stm32f4xx_hal_tim.c ****   /* Change TIM state */  
2388:Drivers/STM32F4xx_HAL_Driver/Src/stm32f4xx_hal_tim.c ****   htim->State = HAL_TIM_STATE_RESET;
 5136              		.loc 1 2388 0
 5137 0046 7B68     		ldr	r3, [r7, #4]
 5138 0048 0022     		movs	r2, #0
 5139 004a 83F83920 		strb	r2, [r3, #57]
2389:Drivers/STM32F4xx_HAL_Driver/Src/stm32f4xx_hal_tim.c ****  
2390:Drivers/STM32F4xx_HAL_Driver/Src/stm32f4xx_hal_tim.c ****   /* Release Lock */
2391:Drivers/STM32F4xx_HAL_Driver/Src/stm32f4xx_hal_tim.c ****   __HAL_UNLOCK(htim);
 5140              		.loc 1 2391 0
 5141 004e 7B68     		ldr	r3, [r7, #4]
 5142 0050 0022     		movs	r2, #0
 5143 0052 83F83820 		strb	r2, [r3, #56]
2392:Drivers/STM32F4xx_HAL_Driver/Src/stm32f4xx_hal_tim.c **** 
2393:Drivers/STM32F4xx_HAL_Driver/Src/stm32f4xx_hal_tim.c ****   return HAL_OK;
 5144              		.loc 1 2393 0
 5145 0056 0023     		movs	r3, #0
2394:Drivers/STM32F4xx_HAL_Driver/Src/stm32f4xx_hal_tim.c **** }
 5146              		.loc 1 2394 0
 5147 0058 1846     		mov	r0, r3
 5148 005a 0837     		adds	r7, r7, #8
 5149              	.LCFI263:
 5150              		.cfi_def_cfa_offset 8
 5151 005c BD46     		mov	sp, r7
 5152              	.LCFI264:
 5153              		.cfi_def_cfa_register 13
 5154              		@ sp needed
 5155 005e 80BD     		pop	{r7, pc}
 5156              		.cfi_endproc
 5157              	.LFE173:
 5159              		.section	.text.HAL_TIM_Encoder_MspInit,"ax",%progbits
 5160              		.align	1
 5161              		.weak	HAL_TIM_Encoder_MspInit
 5162              		.syntax unified
 5163              		.thumb
 5164              		.thumb_func
 5165              		.fpu fpv4-sp-d16
 5167              	HAL_TIM_Encoder_MspInit:
 5168              	.LFB174:
2395:Drivers/STM32F4xx_HAL_Driver/Src/stm32f4xx_hal_tim.c **** 
2396:Drivers/STM32F4xx_HAL_Driver/Src/stm32f4xx_hal_tim.c **** /**
2397:Drivers/STM32F4xx_HAL_Driver/Src/stm32f4xx_hal_tim.c ****   * @brief  Initializes the TIM Encoder Interface MSP.
2398:Drivers/STM32F4xx_HAL_Driver/Src/stm32f4xx_hal_tim.c ****   * @param  htim pointer to a TIM_HandleTypeDef structure that contains
2399:Drivers/STM32F4xx_HAL_Driver/Src/stm32f4xx_hal_tim.c ****   *                the configuration information for TIM module.
2400:Drivers/STM32F4xx_HAL_Driver/Src/stm32f4xx_hal_tim.c ****   * @retval None
ARM GAS  /tmp/cc4tSQEQ.s 			page 132


2401:Drivers/STM32F4xx_HAL_Driver/Src/stm32f4xx_hal_tim.c ****   */
2402:Drivers/STM32F4xx_HAL_Driver/Src/stm32f4xx_hal_tim.c **** __weak void HAL_TIM_Encoder_MspInit(TIM_HandleTypeDef *htim)
2403:Drivers/STM32F4xx_HAL_Driver/Src/stm32f4xx_hal_tim.c **** {
 5169              		.loc 1 2403 0
 5170              		.cfi_startproc
 5171              		@ args = 0, pretend = 0, frame = 8
 5172              		@ frame_needed = 1, uses_anonymous_args = 0
 5173              		@ link register save eliminated.
 5174 0000 80B4     		push	{r7}
 5175              	.LCFI265:
 5176              		.cfi_def_cfa_offset 4
 5177              		.cfi_offset 7, -4
 5178 0002 83B0     		sub	sp, sp, #12
 5179              	.LCFI266:
 5180              		.cfi_def_cfa_offset 16
 5181 0004 00AF     		add	r7, sp, #0
 5182              	.LCFI267:
 5183              		.cfi_def_cfa_register 7
 5184 0006 7860     		str	r0, [r7, #4]
2404:Drivers/STM32F4xx_HAL_Driver/Src/stm32f4xx_hal_tim.c ****   /* Prevent unused argument(s) compilation warning */
2405:Drivers/STM32F4xx_HAL_Driver/Src/stm32f4xx_hal_tim.c ****   UNUSED(htim);
2406:Drivers/STM32F4xx_HAL_Driver/Src/stm32f4xx_hal_tim.c ****   /* NOTE : This function Should not be modified, when the callback is needed,
2407:Drivers/STM32F4xx_HAL_Driver/Src/stm32f4xx_hal_tim.c ****             the HAL_TIM_Encoder_MspInit could be implemented in the user file
2408:Drivers/STM32F4xx_HAL_Driver/Src/stm32f4xx_hal_tim.c ****    */
2409:Drivers/STM32F4xx_HAL_Driver/Src/stm32f4xx_hal_tim.c **** }
 5185              		.loc 1 2409 0
 5186 0008 00BF     		nop
 5187 000a 0C37     		adds	r7, r7, #12
 5188              	.LCFI268:
 5189              		.cfi_def_cfa_offset 4
 5190 000c BD46     		mov	sp, r7
 5191              	.LCFI269:
 5192              		.cfi_def_cfa_register 13
 5193              		@ sp needed
 5194 000e 5DF8047B 		ldr	r7, [sp], #4
 5195              	.LCFI270:
 5196              		.cfi_restore 7
 5197              		.cfi_def_cfa_offset 0
 5198 0012 7047     		bx	lr
 5199              		.cfi_endproc
 5200              	.LFE174:
 5202              		.section	.text.HAL_TIM_Encoder_MspDeInit,"ax",%progbits
 5203              		.align	1
 5204              		.weak	HAL_TIM_Encoder_MspDeInit
 5205              		.syntax unified
 5206              		.thumb
 5207              		.thumb_func
 5208              		.fpu fpv4-sp-d16
 5210              	HAL_TIM_Encoder_MspDeInit:
 5211              	.LFB175:
2410:Drivers/STM32F4xx_HAL_Driver/Src/stm32f4xx_hal_tim.c **** 
2411:Drivers/STM32F4xx_HAL_Driver/Src/stm32f4xx_hal_tim.c **** /**
2412:Drivers/STM32F4xx_HAL_Driver/Src/stm32f4xx_hal_tim.c ****   * @brief  DeInitializes TIM Encoder Interface MSP.
2413:Drivers/STM32F4xx_HAL_Driver/Src/stm32f4xx_hal_tim.c ****   * @param  htim pointer to a TIM_HandleTypeDef structure that contains
2414:Drivers/STM32F4xx_HAL_Driver/Src/stm32f4xx_hal_tim.c ****   *                the configuration information for TIM module.
2415:Drivers/STM32F4xx_HAL_Driver/Src/stm32f4xx_hal_tim.c ****   * @retval None
2416:Drivers/STM32F4xx_HAL_Driver/Src/stm32f4xx_hal_tim.c ****   */
ARM GAS  /tmp/cc4tSQEQ.s 			page 133


2417:Drivers/STM32F4xx_HAL_Driver/Src/stm32f4xx_hal_tim.c **** __weak void HAL_TIM_Encoder_MspDeInit(TIM_HandleTypeDef *htim)
2418:Drivers/STM32F4xx_HAL_Driver/Src/stm32f4xx_hal_tim.c **** {
 5212              		.loc 1 2418 0
 5213              		.cfi_startproc
 5214              		@ args = 0, pretend = 0, frame = 8
 5215              		@ frame_needed = 1, uses_anonymous_args = 0
 5216              		@ link register save eliminated.
 5217 0000 80B4     		push	{r7}
 5218              	.LCFI271:
 5219              		.cfi_def_cfa_offset 4
 5220              		.cfi_offset 7, -4
 5221 0002 83B0     		sub	sp, sp, #12
 5222              	.LCFI272:
 5223              		.cfi_def_cfa_offset 16
 5224 0004 00AF     		add	r7, sp, #0
 5225              	.LCFI273:
 5226              		.cfi_def_cfa_register 7
 5227 0006 7860     		str	r0, [r7, #4]
2419:Drivers/STM32F4xx_HAL_Driver/Src/stm32f4xx_hal_tim.c ****   /* Prevent unused argument(s) compilation warning */
2420:Drivers/STM32F4xx_HAL_Driver/Src/stm32f4xx_hal_tim.c ****   UNUSED(htim);
2421:Drivers/STM32F4xx_HAL_Driver/Src/stm32f4xx_hal_tim.c ****   /* NOTE : This function Should not be modified, when the callback is needed,
2422:Drivers/STM32F4xx_HAL_Driver/Src/stm32f4xx_hal_tim.c ****             the HAL_TIM_Encoder_MspDeInit could be implemented in the user file
2423:Drivers/STM32F4xx_HAL_Driver/Src/stm32f4xx_hal_tim.c ****    */
2424:Drivers/STM32F4xx_HAL_Driver/Src/stm32f4xx_hal_tim.c **** }
 5228              		.loc 1 2424 0
 5229 0008 00BF     		nop
 5230 000a 0C37     		adds	r7, r7, #12
 5231              	.LCFI274:
 5232              		.cfi_def_cfa_offset 4
 5233 000c BD46     		mov	sp, r7
 5234              	.LCFI275:
 5235              		.cfi_def_cfa_register 13
 5236              		@ sp needed
 5237 000e 5DF8047B 		ldr	r7, [sp], #4
 5238              	.LCFI276:
 5239              		.cfi_restore 7
 5240              		.cfi_def_cfa_offset 0
 5241 0012 7047     		bx	lr
 5242              		.cfi_endproc
 5243              	.LFE175:
 5245              		.section	.text.HAL_TIM_Encoder_Start,"ax",%progbits
 5246              		.align	1
 5247              		.global	HAL_TIM_Encoder_Start
 5248              		.syntax unified
 5249              		.thumb
 5250              		.thumb_func
 5251              		.fpu fpv4-sp-d16
 5253              	HAL_TIM_Encoder_Start:
 5254              	.LFB176:
2425:Drivers/STM32F4xx_HAL_Driver/Src/stm32f4xx_hal_tim.c **** 
2426:Drivers/STM32F4xx_HAL_Driver/Src/stm32f4xx_hal_tim.c **** /**
2427:Drivers/STM32F4xx_HAL_Driver/Src/stm32f4xx_hal_tim.c ****   * @brief  Starts the TIM Encoder Interface.
2428:Drivers/STM32F4xx_HAL_Driver/Src/stm32f4xx_hal_tim.c ****   * @param  htim pointer to a TIM_HandleTypeDef structure that contains
2429:Drivers/STM32F4xx_HAL_Driver/Src/stm32f4xx_hal_tim.c ****   *                the configuration information for TIM module.
2430:Drivers/STM32F4xx_HAL_Driver/Src/stm32f4xx_hal_tim.c ****   * @param  Channel TIM Channels to be enabled.
2431:Drivers/STM32F4xx_HAL_Driver/Src/stm32f4xx_hal_tim.c ****   *          This parameter can be one of the following values:
2432:Drivers/STM32F4xx_HAL_Driver/Src/stm32f4xx_hal_tim.c ****   *            @arg TIM_CHANNEL_1: TIM Channel 1 selected
ARM GAS  /tmp/cc4tSQEQ.s 			page 134


2433:Drivers/STM32F4xx_HAL_Driver/Src/stm32f4xx_hal_tim.c ****   *            @arg TIM_CHANNEL_2: TIM Channel 2 selected
2434:Drivers/STM32F4xx_HAL_Driver/Src/stm32f4xx_hal_tim.c ****   *            @arg TIM_CHANNEL_ALL: TIM Channel 1 and TIM Channel 2 are selected
2435:Drivers/STM32F4xx_HAL_Driver/Src/stm32f4xx_hal_tim.c ****   * @retval HAL status
2436:Drivers/STM32F4xx_HAL_Driver/Src/stm32f4xx_hal_tim.c ****   */
2437:Drivers/STM32F4xx_HAL_Driver/Src/stm32f4xx_hal_tim.c **** HAL_StatusTypeDef HAL_TIM_Encoder_Start(TIM_HandleTypeDef *htim, uint32_t Channel)
2438:Drivers/STM32F4xx_HAL_Driver/Src/stm32f4xx_hal_tim.c **** {
 5255              		.loc 1 2438 0
 5256              		.cfi_startproc
 5257              		@ args = 0, pretend = 0, frame = 8
 5258              		@ frame_needed = 1, uses_anonymous_args = 0
 5259 0000 80B5     		push	{r7, lr}
 5260              	.LCFI277:
 5261              		.cfi_def_cfa_offset 8
 5262              		.cfi_offset 7, -8
 5263              		.cfi_offset 14, -4
 5264 0002 82B0     		sub	sp, sp, #8
 5265              	.LCFI278:
 5266              		.cfi_def_cfa_offset 16
 5267 0004 00AF     		add	r7, sp, #0
 5268              	.LCFI279:
 5269              		.cfi_def_cfa_register 7
 5270 0006 7860     		str	r0, [r7, #4]
 5271 0008 3960     		str	r1, [r7]
2439:Drivers/STM32F4xx_HAL_Driver/Src/stm32f4xx_hal_tim.c ****   /* Check the parameters */
2440:Drivers/STM32F4xx_HAL_Driver/Src/stm32f4xx_hal_tim.c ****   assert_param(IS_TIM_CC2_INSTANCE(htim->Instance));
2441:Drivers/STM32F4xx_HAL_Driver/Src/stm32f4xx_hal_tim.c ****   
2442:Drivers/STM32F4xx_HAL_Driver/Src/stm32f4xx_hal_tim.c ****   /* Enable the encoder interface channels */
2443:Drivers/STM32F4xx_HAL_Driver/Src/stm32f4xx_hal_tim.c ****   switch (Channel)
 5272              		.loc 1 2443 0
 5273 000a 3B68     		ldr	r3, [r7]
 5274 000c 002B     		cmp	r3, #0
 5275 000e 02D0     		beq	.L287
 5276 0010 042B     		cmp	r3, #4
 5277 0012 08D0     		beq	.L288
 5278 0014 0FE0     		b	.L291
 5279              	.L287:
2444:Drivers/STM32F4xx_HAL_Driver/Src/stm32f4xx_hal_tim.c ****   {
2445:Drivers/STM32F4xx_HAL_Driver/Src/stm32f4xx_hal_tim.c ****     case TIM_CHANNEL_1:
2446:Drivers/STM32F4xx_HAL_Driver/Src/stm32f4xx_hal_tim.c ****     {
2447:Drivers/STM32F4xx_HAL_Driver/Src/stm32f4xx_hal_tim.c ****       TIM_CCxChannelCmd(htim->Instance, TIM_CHANNEL_1, TIM_CCx_ENABLE);
 5280              		.loc 1 2447 0
 5281 0016 7B68     		ldr	r3, [r7, #4]
 5282 0018 1B68     		ldr	r3, [r3]
 5283 001a 0122     		movs	r2, #1
 5284 001c 0021     		movs	r1, #0
 5285 001e 1846     		mov	r0, r3
 5286 0020 FFF7FEFF 		bl	TIM_CCxChannelCmd
2448:Drivers/STM32F4xx_HAL_Driver/Src/stm32f4xx_hal_tim.c ****       break; 
 5287              		.loc 1 2448 0
 5288 0024 16E0     		b	.L289
 5289              	.L288:
2449:Drivers/STM32F4xx_HAL_Driver/Src/stm32f4xx_hal_tim.c ****     }
2450:Drivers/STM32F4xx_HAL_Driver/Src/stm32f4xx_hal_tim.c ****     case TIM_CHANNEL_2:
2451:Drivers/STM32F4xx_HAL_Driver/Src/stm32f4xx_hal_tim.c ****     { 
2452:Drivers/STM32F4xx_HAL_Driver/Src/stm32f4xx_hal_tim.c ****       TIM_CCxChannelCmd(htim->Instance, TIM_CHANNEL_2, TIM_CCx_ENABLE); 
 5290              		.loc 1 2452 0
 5291 0026 7B68     		ldr	r3, [r7, #4]
ARM GAS  /tmp/cc4tSQEQ.s 			page 135


 5292 0028 1B68     		ldr	r3, [r3]
 5293 002a 0122     		movs	r2, #1
 5294 002c 0421     		movs	r1, #4
 5295 002e 1846     		mov	r0, r3
 5296 0030 FFF7FEFF 		bl	TIM_CCxChannelCmd
2453:Drivers/STM32F4xx_HAL_Driver/Src/stm32f4xx_hal_tim.c ****       break;
 5297              		.loc 1 2453 0
 5298 0034 0EE0     		b	.L289
 5299              	.L291:
2454:Drivers/STM32F4xx_HAL_Driver/Src/stm32f4xx_hal_tim.c ****     }  
2455:Drivers/STM32F4xx_HAL_Driver/Src/stm32f4xx_hal_tim.c ****     default :
2456:Drivers/STM32F4xx_HAL_Driver/Src/stm32f4xx_hal_tim.c ****     {
2457:Drivers/STM32F4xx_HAL_Driver/Src/stm32f4xx_hal_tim.c ****      TIM_CCxChannelCmd(htim->Instance, TIM_CHANNEL_1, TIM_CCx_ENABLE);
 5300              		.loc 1 2457 0
 5301 0036 7B68     		ldr	r3, [r7, #4]
 5302 0038 1B68     		ldr	r3, [r3]
 5303 003a 0122     		movs	r2, #1
 5304 003c 0021     		movs	r1, #0
 5305 003e 1846     		mov	r0, r3
 5306 0040 FFF7FEFF 		bl	TIM_CCxChannelCmd
2458:Drivers/STM32F4xx_HAL_Driver/Src/stm32f4xx_hal_tim.c ****      TIM_CCxChannelCmd(htim->Instance, TIM_CHANNEL_2, TIM_CCx_ENABLE);
 5307              		.loc 1 2458 0
 5308 0044 7B68     		ldr	r3, [r7, #4]
 5309 0046 1B68     		ldr	r3, [r3]
 5310 0048 0122     		movs	r2, #1
 5311 004a 0421     		movs	r1, #4
 5312 004c 1846     		mov	r0, r3
 5313 004e FFF7FEFF 		bl	TIM_CCxChannelCmd
2459:Drivers/STM32F4xx_HAL_Driver/Src/stm32f4xx_hal_tim.c ****      break; 
 5314              		.loc 1 2459 0
 5315 0052 00BF     		nop
 5316              	.L289:
2460:Drivers/STM32F4xx_HAL_Driver/Src/stm32f4xx_hal_tim.c ****     }
2461:Drivers/STM32F4xx_HAL_Driver/Src/stm32f4xx_hal_tim.c ****   }  
2462:Drivers/STM32F4xx_HAL_Driver/Src/stm32f4xx_hal_tim.c ****   /* Enable the Peripheral */
2463:Drivers/STM32F4xx_HAL_Driver/Src/stm32f4xx_hal_tim.c ****   __HAL_TIM_ENABLE(htim);
 5317              		.loc 1 2463 0
 5318 0054 7B68     		ldr	r3, [r7, #4]
 5319 0056 1B68     		ldr	r3, [r3]
 5320 0058 7A68     		ldr	r2, [r7, #4]
 5321 005a 1268     		ldr	r2, [r2]
 5322 005c 1268     		ldr	r2, [r2]
 5323 005e 42F00102 		orr	r2, r2, #1
 5324 0062 1A60     		str	r2, [r3]
2464:Drivers/STM32F4xx_HAL_Driver/Src/stm32f4xx_hal_tim.c ****   
2465:Drivers/STM32F4xx_HAL_Driver/Src/stm32f4xx_hal_tim.c ****   /* Return function status */
2466:Drivers/STM32F4xx_HAL_Driver/Src/stm32f4xx_hal_tim.c ****   return HAL_OK;
 5325              		.loc 1 2466 0
 5326 0064 0023     		movs	r3, #0
2467:Drivers/STM32F4xx_HAL_Driver/Src/stm32f4xx_hal_tim.c **** }
 5327              		.loc 1 2467 0
 5328 0066 1846     		mov	r0, r3
 5329 0068 0837     		adds	r7, r7, #8
 5330              	.LCFI280:
 5331              		.cfi_def_cfa_offset 8
 5332 006a BD46     		mov	sp, r7
 5333              	.LCFI281:
ARM GAS  /tmp/cc4tSQEQ.s 			page 136


 5334              		.cfi_def_cfa_register 13
 5335              		@ sp needed
 5336 006c 80BD     		pop	{r7, pc}
 5337              		.cfi_endproc
 5338              	.LFE176:
 5340              		.section	.text.HAL_TIM_Encoder_Stop,"ax",%progbits
 5341              		.align	1
 5342              		.global	HAL_TIM_Encoder_Stop
 5343              		.syntax unified
 5344              		.thumb
 5345              		.thumb_func
 5346              		.fpu fpv4-sp-d16
 5348              	HAL_TIM_Encoder_Stop:
 5349              	.LFB177:
2468:Drivers/STM32F4xx_HAL_Driver/Src/stm32f4xx_hal_tim.c **** 
2469:Drivers/STM32F4xx_HAL_Driver/Src/stm32f4xx_hal_tim.c **** /**
2470:Drivers/STM32F4xx_HAL_Driver/Src/stm32f4xx_hal_tim.c ****   * @brief  Stops the TIM Encoder Interface.
2471:Drivers/STM32F4xx_HAL_Driver/Src/stm32f4xx_hal_tim.c ****   * @param  htim pointer to a TIM_HandleTypeDef structure that contains
2472:Drivers/STM32F4xx_HAL_Driver/Src/stm32f4xx_hal_tim.c ****   *                the configuration information for TIM module.
2473:Drivers/STM32F4xx_HAL_Driver/Src/stm32f4xx_hal_tim.c ****   * @param  Channel TIM Channels to be disabled.
2474:Drivers/STM32F4xx_HAL_Driver/Src/stm32f4xx_hal_tim.c ****   *          This parameter can be one of the following values:
2475:Drivers/STM32F4xx_HAL_Driver/Src/stm32f4xx_hal_tim.c ****   *            @arg TIM_CHANNEL_1: TIM Channel 1 selected
2476:Drivers/STM32F4xx_HAL_Driver/Src/stm32f4xx_hal_tim.c ****   *            @arg TIM_CHANNEL_2: TIM Channel 2 selected
2477:Drivers/STM32F4xx_HAL_Driver/Src/stm32f4xx_hal_tim.c ****   *            @arg TIM_CHANNEL_ALL: TIM Channel 1 and TIM Channel 2 are selected
2478:Drivers/STM32F4xx_HAL_Driver/Src/stm32f4xx_hal_tim.c ****   * @retval HAL status
2479:Drivers/STM32F4xx_HAL_Driver/Src/stm32f4xx_hal_tim.c ****   */
2480:Drivers/STM32F4xx_HAL_Driver/Src/stm32f4xx_hal_tim.c **** HAL_StatusTypeDef HAL_TIM_Encoder_Stop(TIM_HandleTypeDef *htim, uint32_t Channel)
2481:Drivers/STM32F4xx_HAL_Driver/Src/stm32f4xx_hal_tim.c **** {
 5350              		.loc 1 2481 0
 5351              		.cfi_startproc
 5352              		@ args = 0, pretend = 0, frame = 8
 5353              		@ frame_needed = 1, uses_anonymous_args = 0
 5354 0000 80B5     		push	{r7, lr}
 5355              	.LCFI282:
 5356              		.cfi_def_cfa_offset 8
 5357              		.cfi_offset 7, -8
 5358              		.cfi_offset 14, -4
 5359 0002 82B0     		sub	sp, sp, #8
 5360              	.LCFI283:
 5361              		.cfi_def_cfa_offset 16
 5362 0004 00AF     		add	r7, sp, #0
 5363              	.LCFI284:
 5364              		.cfi_def_cfa_register 7
 5365 0006 7860     		str	r0, [r7, #4]
 5366 0008 3960     		str	r1, [r7]
2482:Drivers/STM32F4xx_HAL_Driver/Src/stm32f4xx_hal_tim.c ****   /* Check the parameters */
2483:Drivers/STM32F4xx_HAL_Driver/Src/stm32f4xx_hal_tim.c ****     assert_param(IS_TIM_CC2_INSTANCE(htim->Instance));
2484:Drivers/STM32F4xx_HAL_Driver/Src/stm32f4xx_hal_tim.c ****     
2485:Drivers/STM32F4xx_HAL_Driver/Src/stm32f4xx_hal_tim.c ****    /* Disable the Input Capture channels 1 and 2
2486:Drivers/STM32F4xx_HAL_Driver/Src/stm32f4xx_hal_tim.c ****     (in the EncoderInterface the two possible channels that can be used are TIM_CHANNEL_1 and TIM_C
2487:Drivers/STM32F4xx_HAL_Driver/Src/stm32f4xx_hal_tim.c ****   switch (Channel)
 5367              		.loc 1 2487 0
 5368 000a 3B68     		ldr	r3, [r7]
 5369 000c 002B     		cmp	r3, #0
 5370 000e 02D0     		beq	.L294
 5371 0010 042B     		cmp	r3, #4
 5372 0012 08D0     		beq	.L295
ARM GAS  /tmp/cc4tSQEQ.s 			page 137


 5373 0014 0FE0     		b	.L299
 5374              	.L294:
2488:Drivers/STM32F4xx_HAL_Driver/Src/stm32f4xx_hal_tim.c ****   {
2489:Drivers/STM32F4xx_HAL_Driver/Src/stm32f4xx_hal_tim.c ****     case TIM_CHANNEL_1:
2490:Drivers/STM32F4xx_HAL_Driver/Src/stm32f4xx_hal_tim.c ****     {
2491:Drivers/STM32F4xx_HAL_Driver/Src/stm32f4xx_hal_tim.c ****       TIM_CCxChannelCmd(htim->Instance, TIM_CHANNEL_1, TIM_CCx_DISABLE);
 5375              		.loc 1 2491 0
 5376 0016 7B68     		ldr	r3, [r7, #4]
 5377 0018 1B68     		ldr	r3, [r3]
 5378 001a 0022     		movs	r2, #0
 5379 001c 0021     		movs	r1, #0
 5380 001e 1846     		mov	r0, r3
 5381 0020 FFF7FEFF 		bl	TIM_CCxChannelCmd
2492:Drivers/STM32F4xx_HAL_Driver/Src/stm32f4xx_hal_tim.c ****       break; 
 5382              		.loc 1 2492 0
 5383 0024 16E0     		b	.L296
 5384              	.L295:
2493:Drivers/STM32F4xx_HAL_Driver/Src/stm32f4xx_hal_tim.c ****     }
2494:Drivers/STM32F4xx_HAL_Driver/Src/stm32f4xx_hal_tim.c ****     case TIM_CHANNEL_2:
2495:Drivers/STM32F4xx_HAL_Driver/Src/stm32f4xx_hal_tim.c ****     { 
2496:Drivers/STM32F4xx_HAL_Driver/Src/stm32f4xx_hal_tim.c ****       TIM_CCxChannelCmd(htim->Instance, TIM_CHANNEL_2, TIM_CCx_DISABLE); 
 5385              		.loc 1 2496 0
 5386 0026 7B68     		ldr	r3, [r7, #4]
 5387 0028 1B68     		ldr	r3, [r3]
 5388 002a 0022     		movs	r2, #0
 5389 002c 0421     		movs	r1, #4
 5390 002e 1846     		mov	r0, r3
 5391 0030 FFF7FEFF 		bl	TIM_CCxChannelCmd
2497:Drivers/STM32F4xx_HAL_Driver/Src/stm32f4xx_hal_tim.c ****       break;
 5392              		.loc 1 2497 0
 5393 0034 0EE0     		b	.L296
 5394              	.L299:
2498:Drivers/STM32F4xx_HAL_Driver/Src/stm32f4xx_hal_tim.c ****     }  
2499:Drivers/STM32F4xx_HAL_Driver/Src/stm32f4xx_hal_tim.c ****     default :
2500:Drivers/STM32F4xx_HAL_Driver/Src/stm32f4xx_hal_tim.c ****     {
2501:Drivers/STM32F4xx_HAL_Driver/Src/stm32f4xx_hal_tim.c ****      TIM_CCxChannelCmd(htim->Instance, TIM_CHANNEL_1, TIM_CCx_DISABLE);
 5395              		.loc 1 2501 0
 5396 0036 7B68     		ldr	r3, [r7, #4]
 5397 0038 1B68     		ldr	r3, [r3]
 5398 003a 0022     		movs	r2, #0
 5399 003c 0021     		movs	r1, #0
 5400 003e 1846     		mov	r0, r3
 5401 0040 FFF7FEFF 		bl	TIM_CCxChannelCmd
2502:Drivers/STM32F4xx_HAL_Driver/Src/stm32f4xx_hal_tim.c ****      TIM_CCxChannelCmd(htim->Instance, TIM_CHANNEL_2, TIM_CCx_DISABLE);
 5402              		.loc 1 2502 0
 5403 0044 7B68     		ldr	r3, [r7, #4]
 5404 0046 1B68     		ldr	r3, [r3]
 5405 0048 0022     		movs	r2, #0
 5406 004a 0421     		movs	r1, #4
 5407 004c 1846     		mov	r0, r3
 5408 004e FFF7FEFF 		bl	TIM_CCxChannelCmd
2503:Drivers/STM32F4xx_HAL_Driver/Src/stm32f4xx_hal_tim.c ****      break; 
 5409              		.loc 1 2503 0
 5410 0052 00BF     		nop
 5411              	.L296:
2504:Drivers/STM32F4xx_HAL_Driver/Src/stm32f4xx_hal_tim.c ****     }
2505:Drivers/STM32F4xx_HAL_Driver/Src/stm32f4xx_hal_tim.c ****   }  
ARM GAS  /tmp/cc4tSQEQ.s 			page 138


2506:Drivers/STM32F4xx_HAL_Driver/Src/stm32f4xx_hal_tim.c ****   /* Disable the Peripheral */
2507:Drivers/STM32F4xx_HAL_Driver/Src/stm32f4xx_hal_tim.c ****   __HAL_TIM_DISABLE(htim);
 5412              		.loc 1 2507 0
 5413 0054 7B68     		ldr	r3, [r7, #4]
 5414 0056 1B68     		ldr	r3, [r3]
 5415 0058 1A6A     		ldr	r2, [r3, #32]
 5416 005a 41F21113 		movw	r3, #4369
 5417 005e 1340     		ands	r3, r3, r2
 5418 0060 002B     		cmp	r3, #0
 5419 0062 0FD1     		bne	.L297
 5420              		.loc 1 2507 0 is_stmt 0 discriminator 1
 5421 0064 7B68     		ldr	r3, [r7, #4]
 5422 0066 1B68     		ldr	r3, [r3]
 5423 0068 1A6A     		ldr	r2, [r3, #32]
 5424 006a 40F24443 		movw	r3, #1092
 5425 006e 1340     		ands	r3, r3, r2
 5426 0070 002B     		cmp	r3, #0
 5427 0072 07D1     		bne	.L297
 5428              		.loc 1 2507 0 discriminator 2
 5429 0074 7B68     		ldr	r3, [r7, #4]
 5430 0076 1B68     		ldr	r3, [r3]
 5431 0078 7A68     		ldr	r2, [r7, #4]
 5432 007a 1268     		ldr	r2, [r2]
 5433 007c 1268     		ldr	r2, [r2]
 5434 007e 22F00102 		bic	r2, r2, #1
 5435 0082 1A60     		str	r2, [r3]
 5436              	.L297:
2508:Drivers/STM32F4xx_HAL_Driver/Src/stm32f4xx_hal_tim.c ****   
2509:Drivers/STM32F4xx_HAL_Driver/Src/stm32f4xx_hal_tim.c ****   /* Return function status */
2510:Drivers/STM32F4xx_HAL_Driver/Src/stm32f4xx_hal_tim.c ****   return HAL_OK;
 5437              		.loc 1 2510 0 is_stmt 1
 5438 0084 0023     		movs	r3, #0
2511:Drivers/STM32F4xx_HAL_Driver/Src/stm32f4xx_hal_tim.c **** }
 5439              		.loc 1 2511 0
 5440 0086 1846     		mov	r0, r3
 5441 0088 0837     		adds	r7, r7, #8
 5442              	.LCFI285:
 5443              		.cfi_def_cfa_offset 8
 5444 008a BD46     		mov	sp, r7
 5445              	.LCFI286:
 5446              		.cfi_def_cfa_register 13
 5447              		@ sp needed
 5448 008c 80BD     		pop	{r7, pc}
 5449              		.cfi_endproc
 5450              	.LFE177:
 5452              		.section	.text.HAL_TIM_Encoder_Start_IT,"ax",%progbits
 5453              		.align	1
 5454              		.global	HAL_TIM_Encoder_Start_IT
 5455              		.syntax unified
 5456              		.thumb
 5457              		.thumb_func
 5458              		.fpu fpv4-sp-d16
 5460              	HAL_TIM_Encoder_Start_IT:
 5461              	.LFB178:
2512:Drivers/STM32F4xx_HAL_Driver/Src/stm32f4xx_hal_tim.c **** 
2513:Drivers/STM32F4xx_HAL_Driver/Src/stm32f4xx_hal_tim.c **** /**
2514:Drivers/STM32F4xx_HAL_Driver/Src/stm32f4xx_hal_tim.c ****   * @brief  Starts the TIM Encoder Interface in interrupt mode.
ARM GAS  /tmp/cc4tSQEQ.s 			page 139


2515:Drivers/STM32F4xx_HAL_Driver/Src/stm32f4xx_hal_tim.c ****   * @param  htim pointer to a TIM_HandleTypeDef structure that contains
2516:Drivers/STM32F4xx_HAL_Driver/Src/stm32f4xx_hal_tim.c ****   *                the configuration information for TIM module.
2517:Drivers/STM32F4xx_HAL_Driver/Src/stm32f4xx_hal_tim.c ****   * @param  Channel TIM Channels to be enabled.
2518:Drivers/STM32F4xx_HAL_Driver/Src/stm32f4xx_hal_tim.c ****   *          This parameter can be one of the following values:
2519:Drivers/STM32F4xx_HAL_Driver/Src/stm32f4xx_hal_tim.c ****   *            @arg TIM_CHANNEL_1: TIM Channel 1 selected
2520:Drivers/STM32F4xx_HAL_Driver/Src/stm32f4xx_hal_tim.c ****   *            @arg TIM_CHANNEL_2: TIM Channel 2 selected
2521:Drivers/STM32F4xx_HAL_Driver/Src/stm32f4xx_hal_tim.c ****   *            @arg TIM_CHANNEL_ALL: TIM Channel 1 and TIM Channel 2 are selected
2522:Drivers/STM32F4xx_HAL_Driver/Src/stm32f4xx_hal_tim.c ****   * @retval HAL status
2523:Drivers/STM32F4xx_HAL_Driver/Src/stm32f4xx_hal_tim.c ****   */
2524:Drivers/STM32F4xx_HAL_Driver/Src/stm32f4xx_hal_tim.c **** HAL_StatusTypeDef HAL_TIM_Encoder_Start_IT(TIM_HandleTypeDef *htim, uint32_t Channel)
2525:Drivers/STM32F4xx_HAL_Driver/Src/stm32f4xx_hal_tim.c **** {
 5462              		.loc 1 2525 0
 5463              		.cfi_startproc
 5464              		@ args = 0, pretend = 0, frame = 8
 5465              		@ frame_needed = 1, uses_anonymous_args = 0
 5466 0000 80B5     		push	{r7, lr}
 5467              	.LCFI287:
 5468              		.cfi_def_cfa_offset 8
 5469              		.cfi_offset 7, -8
 5470              		.cfi_offset 14, -4
 5471 0002 82B0     		sub	sp, sp, #8
 5472              	.LCFI288:
 5473              		.cfi_def_cfa_offset 16
 5474 0004 00AF     		add	r7, sp, #0
 5475              	.LCFI289:
 5476              		.cfi_def_cfa_register 7
 5477 0006 7860     		str	r0, [r7, #4]
 5478 0008 3960     		str	r1, [r7]
2526:Drivers/STM32F4xx_HAL_Driver/Src/stm32f4xx_hal_tim.c ****   /* Check the parameters */
2527:Drivers/STM32F4xx_HAL_Driver/Src/stm32f4xx_hal_tim.c ****   assert_param(IS_TIM_CC2_INSTANCE(htim->Instance));
2528:Drivers/STM32F4xx_HAL_Driver/Src/stm32f4xx_hal_tim.c ****   
2529:Drivers/STM32F4xx_HAL_Driver/Src/stm32f4xx_hal_tim.c ****   /* Enable the encoder interface channels */
2530:Drivers/STM32F4xx_HAL_Driver/Src/stm32f4xx_hal_tim.c ****   /* Enable the capture compare Interrupts 1 and/or 2 */
2531:Drivers/STM32F4xx_HAL_Driver/Src/stm32f4xx_hal_tim.c ****   switch (Channel)
 5479              		.loc 1 2531 0
 5480 000a 3B68     		ldr	r3, [r7]
 5481 000c 002B     		cmp	r3, #0
 5482 000e 02D0     		beq	.L302
 5483 0010 042B     		cmp	r3, #4
 5484 0012 10D0     		beq	.L303
 5485 0014 1FE0     		b	.L306
 5486              	.L302:
2532:Drivers/STM32F4xx_HAL_Driver/Src/stm32f4xx_hal_tim.c ****   {
2533:Drivers/STM32F4xx_HAL_Driver/Src/stm32f4xx_hal_tim.c ****     case TIM_CHANNEL_1:
2534:Drivers/STM32F4xx_HAL_Driver/Src/stm32f4xx_hal_tim.c ****     {
2535:Drivers/STM32F4xx_HAL_Driver/Src/stm32f4xx_hal_tim.c ****       TIM_CCxChannelCmd(htim->Instance, TIM_CHANNEL_1, TIM_CCx_ENABLE);
 5487              		.loc 1 2535 0
 5488 0016 7B68     		ldr	r3, [r7, #4]
 5489 0018 1B68     		ldr	r3, [r3]
 5490 001a 0122     		movs	r2, #1
 5491 001c 0021     		movs	r1, #0
 5492 001e 1846     		mov	r0, r3
 5493 0020 FFF7FEFF 		bl	TIM_CCxChannelCmd
2536:Drivers/STM32F4xx_HAL_Driver/Src/stm32f4xx_hal_tim.c ****       __HAL_TIM_ENABLE_IT(htim, TIM_IT_CC1);
 5494              		.loc 1 2536 0
 5495 0024 7B68     		ldr	r3, [r7, #4]
 5496 0026 1B68     		ldr	r3, [r3]
ARM GAS  /tmp/cc4tSQEQ.s 			page 140


 5497 0028 7A68     		ldr	r2, [r7, #4]
 5498 002a 1268     		ldr	r2, [r2]
 5499 002c D268     		ldr	r2, [r2, #12]
 5500 002e 42F00202 		orr	r2, r2, #2
 5501 0032 DA60     		str	r2, [r3, #12]
2537:Drivers/STM32F4xx_HAL_Driver/Src/stm32f4xx_hal_tim.c ****       break; 
 5502              		.loc 1 2537 0
 5503 0034 2EE0     		b	.L304
 5504              	.L303:
2538:Drivers/STM32F4xx_HAL_Driver/Src/stm32f4xx_hal_tim.c ****     }
2539:Drivers/STM32F4xx_HAL_Driver/Src/stm32f4xx_hal_tim.c ****     case TIM_CHANNEL_2:
2540:Drivers/STM32F4xx_HAL_Driver/Src/stm32f4xx_hal_tim.c ****     { 
2541:Drivers/STM32F4xx_HAL_Driver/Src/stm32f4xx_hal_tim.c ****       TIM_CCxChannelCmd(htim->Instance, TIM_CHANNEL_2, TIM_CCx_ENABLE);
 5505              		.loc 1 2541 0
 5506 0036 7B68     		ldr	r3, [r7, #4]
 5507 0038 1B68     		ldr	r3, [r3]
 5508 003a 0122     		movs	r2, #1
 5509 003c 0421     		movs	r1, #4
 5510 003e 1846     		mov	r0, r3
 5511 0040 FFF7FEFF 		bl	TIM_CCxChannelCmd
2542:Drivers/STM32F4xx_HAL_Driver/Src/stm32f4xx_hal_tim.c ****       __HAL_TIM_ENABLE_IT(htim, TIM_IT_CC2); 
 5512              		.loc 1 2542 0
 5513 0044 7B68     		ldr	r3, [r7, #4]
 5514 0046 1B68     		ldr	r3, [r3]
 5515 0048 7A68     		ldr	r2, [r7, #4]
 5516 004a 1268     		ldr	r2, [r2]
 5517 004c D268     		ldr	r2, [r2, #12]
 5518 004e 42F00402 		orr	r2, r2, #4
 5519 0052 DA60     		str	r2, [r3, #12]
2543:Drivers/STM32F4xx_HAL_Driver/Src/stm32f4xx_hal_tim.c ****       break;
 5520              		.loc 1 2543 0
 5521 0054 1EE0     		b	.L304
 5522              	.L306:
2544:Drivers/STM32F4xx_HAL_Driver/Src/stm32f4xx_hal_tim.c ****     }  
2545:Drivers/STM32F4xx_HAL_Driver/Src/stm32f4xx_hal_tim.c ****     default :
2546:Drivers/STM32F4xx_HAL_Driver/Src/stm32f4xx_hal_tim.c ****     {
2547:Drivers/STM32F4xx_HAL_Driver/Src/stm32f4xx_hal_tim.c ****      TIM_CCxChannelCmd(htim->Instance, TIM_CHANNEL_1, TIM_CCx_ENABLE);
 5523              		.loc 1 2547 0
 5524 0056 7B68     		ldr	r3, [r7, #4]
 5525 0058 1B68     		ldr	r3, [r3]
 5526 005a 0122     		movs	r2, #1
 5527 005c 0021     		movs	r1, #0
 5528 005e 1846     		mov	r0, r3
 5529 0060 FFF7FEFF 		bl	TIM_CCxChannelCmd
2548:Drivers/STM32F4xx_HAL_Driver/Src/stm32f4xx_hal_tim.c ****      TIM_CCxChannelCmd(htim->Instance, TIM_CHANNEL_2, TIM_CCx_ENABLE);
 5530              		.loc 1 2548 0
 5531 0064 7B68     		ldr	r3, [r7, #4]
 5532 0066 1B68     		ldr	r3, [r3]
 5533 0068 0122     		movs	r2, #1
 5534 006a 0421     		movs	r1, #4
 5535 006c 1846     		mov	r0, r3
 5536 006e FFF7FEFF 		bl	TIM_CCxChannelCmd
2549:Drivers/STM32F4xx_HAL_Driver/Src/stm32f4xx_hal_tim.c ****      __HAL_TIM_ENABLE_IT(htim, TIM_IT_CC1);
 5537              		.loc 1 2549 0
 5538 0072 7B68     		ldr	r3, [r7, #4]
 5539 0074 1B68     		ldr	r3, [r3]
 5540 0076 7A68     		ldr	r2, [r7, #4]
ARM GAS  /tmp/cc4tSQEQ.s 			page 141


 5541 0078 1268     		ldr	r2, [r2]
 5542 007a D268     		ldr	r2, [r2, #12]
 5543 007c 42F00202 		orr	r2, r2, #2
 5544 0080 DA60     		str	r2, [r3, #12]
2550:Drivers/STM32F4xx_HAL_Driver/Src/stm32f4xx_hal_tim.c ****      __HAL_TIM_ENABLE_IT(htim, TIM_IT_CC2);
 5545              		.loc 1 2550 0
 5546 0082 7B68     		ldr	r3, [r7, #4]
 5547 0084 1B68     		ldr	r3, [r3]
 5548 0086 7A68     		ldr	r2, [r7, #4]
 5549 0088 1268     		ldr	r2, [r2]
 5550 008a D268     		ldr	r2, [r2, #12]
 5551 008c 42F00402 		orr	r2, r2, #4
 5552 0090 DA60     		str	r2, [r3, #12]
2551:Drivers/STM32F4xx_HAL_Driver/Src/stm32f4xx_hal_tim.c ****      break; 
 5553              		.loc 1 2551 0
 5554 0092 00BF     		nop
 5555              	.L304:
2552:Drivers/STM32F4xx_HAL_Driver/Src/stm32f4xx_hal_tim.c ****     }
2553:Drivers/STM32F4xx_HAL_Driver/Src/stm32f4xx_hal_tim.c ****   }
2554:Drivers/STM32F4xx_HAL_Driver/Src/stm32f4xx_hal_tim.c ****   
2555:Drivers/STM32F4xx_HAL_Driver/Src/stm32f4xx_hal_tim.c ****   /* Enable the Peripheral */
2556:Drivers/STM32F4xx_HAL_Driver/Src/stm32f4xx_hal_tim.c ****   __HAL_TIM_ENABLE(htim);
 5556              		.loc 1 2556 0
 5557 0094 7B68     		ldr	r3, [r7, #4]
 5558 0096 1B68     		ldr	r3, [r3]
 5559 0098 7A68     		ldr	r2, [r7, #4]
 5560 009a 1268     		ldr	r2, [r2]
 5561 009c 1268     		ldr	r2, [r2]
 5562 009e 42F00102 		orr	r2, r2, #1
 5563 00a2 1A60     		str	r2, [r3]
2557:Drivers/STM32F4xx_HAL_Driver/Src/stm32f4xx_hal_tim.c ****   
2558:Drivers/STM32F4xx_HAL_Driver/Src/stm32f4xx_hal_tim.c ****   /* Return function status */
2559:Drivers/STM32F4xx_HAL_Driver/Src/stm32f4xx_hal_tim.c ****   return HAL_OK;
 5564              		.loc 1 2559 0
 5565 00a4 0023     		movs	r3, #0
2560:Drivers/STM32F4xx_HAL_Driver/Src/stm32f4xx_hal_tim.c **** }
 5566              		.loc 1 2560 0
 5567 00a6 1846     		mov	r0, r3
 5568 00a8 0837     		adds	r7, r7, #8
 5569              	.LCFI290:
 5570              		.cfi_def_cfa_offset 8
 5571 00aa BD46     		mov	sp, r7
 5572              	.LCFI291:
 5573              		.cfi_def_cfa_register 13
 5574              		@ sp needed
 5575 00ac 80BD     		pop	{r7, pc}
 5576              		.cfi_endproc
 5577              	.LFE178:
 5579              		.section	.text.HAL_TIM_Encoder_Stop_IT,"ax",%progbits
 5580              		.align	1
 5581              		.global	HAL_TIM_Encoder_Stop_IT
 5582              		.syntax unified
 5583              		.thumb
 5584              		.thumb_func
 5585              		.fpu fpv4-sp-d16
 5587              	HAL_TIM_Encoder_Stop_IT:
 5588              	.LFB179:
ARM GAS  /tmp/cc4tSQEQ.s 			page 142


2561:Drivers/STM32F4xx_HAL_Driver/Src/stm32f4xx_hal_tim.c **** 
2562:Drivers/STM32F4xx_HAL_Driver/Src/stm32f4xx_hal_tim.c **** /**
2563:Drivers/STM32F4xx_HAL_Driver/Src/stm32f4xx_hal_tim.c ****   * @brief  Stops the TIM Encoder Interface in interrupt mode.
2564:Drivers/STM32F4xx_HAL_Driver/Src/stm32f4xx_hal_tim.c ****   * @param  htim pointer to a TIM_HandleTypeDef structure that contains
2565:Drivers/STM32F4xx_HAL_Driver/Src/stm32f4xx_hal_tim.c ****   *                the configuration information for TIM module.
2566:Drivers/STM32F4xx_HAL_Driver/Src/stm32f4xx_hal_tim.c ****   * @param  Channel TIM Channels to be disabled.
2567:Drivers/STM32F4xx_HAL_Driver/Src/stm32f4xx_hal_tim.c ****   *          This parameter can be one of the following values:
2568:Drivers/STM32F4xx_HAL_Driver/Src/stm32f4xx_hal_tim.c ****   *            @arg TIM_CHANNEL_1: TIM Channel 1 selected
2569:Drivers/STM32F4xx_HAL_Driver/Src/stm32f4xx_hal_tim.c ****   *            @arg TIM_CHANNEL_2: TIM Channel 2 selected
2570:Drivers/STM32F4xx_HAL_Driver/Src/stm32f4xx_hal_tim.c ****   *            @arg TIM_CHANNEL_ALL: TIM Channel 1 and TIM Channel 2 are selected
2571:Drivers/STM32F4xx_HAL_Driver/Src/stm32f4xx_hal_tim.c ****   * @retval HAL status
2572:Drivers/STM32F4xx_HAL_Driver/Src/stm32f4xx_hal_tim.c ****   */
2573:Drivers/STM32F4xx_HAL_Driver/Src/stm32f4xx_hal_tim.c **** HAL_StatusTypeDef HAL_TIM_Encoder_Stop_IT(TIM_HandleTypeDef *htim, uint32_t Channel)
2574:Drivers/STM32F4xx_HAL_Driver/Src/stm32f4xx_hal_tim.c **** {
 5589              		.loc 1 2574 0
 5590              		.cfi_startproc
 5591              		@ args = 0, pretend = 0, frame = 8
 5592              		@ frame_needed = 1, uses_anonymous_args = 0
 5593 0000 80B5     		push	{r7, lr}
 5594              	.LCFI292:
 5595              		.cfi_def_cfa_offset 8
 5596              		.cfi_offset 7, -8
 5597              		.cfi_offset 14, -4
 5598 0002 82B0     		sub	sp, sp, #8
 5599              	.LCFI293:
 5600              		.cfi_def_cfa_offset 16
 5601 0004 00AF     		add	r7, sp, #0
 5602              	.LCFI294:
 5603              		.cfi_def_cfa_register 7
 5604 0006 7860     		str	r0, [r7, #4]
 5605 0008 3960     		str	r1, [r7]
2575:Drivers/STM32F4xx_HAL_Driver/Src/stm32f4xx_hal_tim.c ****   /* Check the parameters */
2576:Drivers/STM32F4xx_HAL_Driver/Src/stm32f4xx_hal_tim.c ****   assert_param(IS_TIM_CC2_INSTANCE(htim->Instance));
2577:Drivers/STM32F4xx_HAL_Driver/Src/stm32f4xx_hal_tim.c ****     
2578:Drivers/STM32F4xx_HAL_Driver/Src/stm32f4xx_hal_tim.c ****   /* Disable the Input Capture channels 1 and 2
2579:Drivers/STM32F4xx_HAL_Driver/Src/stm32f4xx_hal_tim.c ****     (in the EncoderInterface the two possible channels that can be used are TIM_CHANNEL_1 and TIM_C
2580:Drivers/STM32F4xx_HAL_Driver/Src/stm32f4xx_hal_tim.c ****   if(Channel == TIM_CHANNEL_1)
 5606              		.loc 1 2580 0
 5607 000a 3B68     		ldr	r3, [r7]
 5608 000c 002B     		cmp	r3, #0
 5609 000e 0FD1     		bne	.L308
2581:Drivers/STM32F4xx_HAL_Driver/Src/stm32f4xx_hal_tim.c ****   {
2582:Drivers/STM32F4xx_HAL_Driver/Src/stm32f4xx_hal_tim.c ****     TIM_CCxChannelCmd(htim->Instance, TIM_CHANNEL_1, TIM_CCx_DISABLE); 
 5610              		.loc 1 2582 0
 5611 0010 7B68     		ldr	r3, [r7, #4]
 5612 0012 1B68     		ldr	r3, [r3]
 5613 0014 0022     		movs	r2, #0
 5614 0016 0021     		movs	r1, #0
 5615 0018 1846     		mov	r0, r3
 5616 001a FFF7FEFF 		bl	TIM_CCxChannelCmd
2583:Drivers/STM32F4xx_HAL_Driver/Src/stm32f4xx_hal_tim.c ****     
2584:Drivers/STM32F4xx_HAL_Driver/Src/stm32f4xx_hal_tim.c ****     /* Disable the capture compare Interrupts 1 */
2585:Drivers/STM32F4xx_HAL_Driver/Src/stm32f4xx_hal_tim.c ****   __HAL_TIM_DISABLE_IT(htim, TIM_IT_CC1);
 5617              		.loc 1 2585 0
 5618 001e 7B68     		ldr	r3, [r7, #4]
 5619 0020 1B68     		ldr	r3, [r3]
 5620 0022 7A68     		ldr	r2, [r7, #4]
ARM GAS  /tmp/cc4tSQEQ.s 			page 143


 5621 0024 1268     		ldr	r2, [r2]
 5622 0026 D268     		ldr	r2, [r2, #12]
 5623 0028 22F00202 		bic	r2, r2, #2
 5624 002c DA60     		str	r2, [r3, #12]
 5625 002e 30E0     		b	.L309
 5626              	.L308:
2586:Drivers/STM32F4xx_HAL_Driver/Src/stm32f4xx_hal_tim.c ****   }  
2587:Drivers/STM32F4xx_HAL_Driver/Src/stm32f4xx_hal_tim.c ****   else if(Channel == TIM_CHANNEL_2)
 5627              		.loc 1 2587 0
 5628 0030 3B68     		ldr	r3, [r7]
 5629 0032 042B     		cmp	r3, #4
 5630 0034 0FD1     		bne	.L310
2588:Drivers/STM32F4xx_HAL_Driver/Src/stm32f4xx_hal_tim.c ****   {  
2589:Drivers/STM32F4xx_HAL_Driver/Src/stm32f4xx_hal_tim.c ****     TIM_CCxChannelCmd(htim->Instance, TIM_CHANNEL_2, TIM_CCx_DISABLE); 
 5631              		.loc 1 2589 0
 5632 0036 7B68     		ldr	r3, [r7, #4]
 5633 0038 1B68     		ldr	r3, [r3]
 5634 003a 0022     		movs	r2, #0
 5635 003c 0421     		movs	r1, #4
 5636 003e 1846     		mov	r0, r3
 5637 0040 FFF7FEFF 		bl	TIM_CCxChannelCmd
2590:Drivers/STM32F4xx_HAL_Driver/Src/stm32f4xx_hal_tim.c ****     
2591:Drivers/STM32F4xx_HAL_Driver/Src/stm32f4xx_hal_tim.c ****     /* Disable the capture compare Interrupts 2 */
2592:Drivers/STM32F4xx_HAL_Driver/Src/stm32f4xx_hal_tim.c ****   __HAL_TIM_DISABLE_IT(htim, TIM_IT_CC2);
 5638              		.loc 1 2592 0
 5639 0044 7B68     		ldr	r3, [r7, #4]
 5640 0046 1B68     		ldr	r3, [r3]
 5641 0048 7A68     		ldr	r2, [r7, #4]
 5642 004a 1268     		ldr	r2, [r2]
 5643 004c D268     		ldr	r2, [r2, #12]
 5644 004e 22F00402 		bic	r2, r2, #4
 5645 0052 DA60     		str	r2, [r3, #12]
 5646 0054 1DE0     		b	.L309
 5647              	.L310:
2593:Drivers/STM32F4xx_HAL_Driver/Src/stm32f4xx_hal_tim.c ****   }  
2594:Drivers/STM32F4xx_HAL_Driver/Src/stm32f4xx_hal_tim.c ****   else
2595:Drivers/STM32F4xx_HAL_Driver/Src/stm32f4xx_hal_tim.c ****   {
2596:Drivers/STM32F4xx_HAL_Driver/Src/stm32f4xx_hal_tim.c ****     TIM_CCxChannelCmd(htim->Instance, TIM_CHANNEL_1, TIM_CCx_DISABLE); 
 5648              		.loc 1 2596 0
 5649 0056 7B68     		ldr	r3, [r7, #4]
 5650 0058 1B68     		ldr	r3, [r3]
 5651 005a 0022     		movs	r2, #0
 5652 005c 0021     		movs	r1, #0
 5653 005e 1846     		mov	r0, r3
 5654 0060 FFF7FEFF 		bl	TIM_CCxChannelCmd
2597:Drivers/STM32F4xx_HAL_Driver/Src/stm32f4xx_hal_tim.c ****     TIM_CCxChannelCmd(htim->Instance, TIM_CHANNEL_2, TIM_CCx_DISABLE); 
 5655              		.loc 1 2597 0
 5656 0064 7B68     		ldr	r3, [r7, #4]
 5657 0066 1B68     		ldr	r3, [r3]
 5658 0068 0022     		movs	r2, #0
 5659 006a 0421     		movs	r1, #4
 5660 006c 1846     		mov	r0, r3
 5661 006e FFF7FEFF 		bl	TIM_CCxChannelCmd
2598:Drivers/STM32F4xx_HAL_Driver/Src/stm32f4xx_hal_tim.c ****     
2599:Drivers/STM32F4xx_HAL_Driver/Src/stm32f4xx_hal_tim.c ****     /* Disable the capture compare Interrupts 1 and 2 */
2600:Drivers/STM32F4xx_HAL_Driver/Src/stm32f4xx_hal_tim.c ****     __HAL_TIM_DISABLE_IT(htim, TIM_IT_CC1);
 5662              		.loc 1 2600 0
ARM GAS  /tmp/cc4tSQEQ.s 			page 144


 5663 0072 7B68     		ldr	r3, [r7, #4]
 5664 0074 1B68     		ldr	r3, [r3]
 5665 0076 7A68     		ldr	r2, [r7, #4]
 5666 0078 1268     		ldr	r2, [r2]
 5667 007a D268     		ldr	r2, [r2, #12]
 5668 007c 22F00202 		bic	r2, r2, #2
 5669 0080 DA60     		str	r2, [r3, #12]
2601:Drivers/STM32F4xx_HAL_Driver/Src/stm32f4xx_hal_tim.c ****     __HAL_TIM_DISABLE_IT(htim, TIM_IT_CC2);
 5670              		.loc 1 2601 0
 5671 0082 7B68     		ldr	r3, [r7, #4]
 5672 0084 1B68     		ldr	r3, [r3]
 5673 0086 7A68     		ldr	r2, [r7, #4]
 5674 0088 1268     		ldr	r2, [r2]
 5675 008a D268     		ldr	r2, [r2, #12]
 5676 008c 22F00402 		bic	r2, r2, #4
 5677 0090 DA60     		str	r2, [r3, #12]
 5678              	.L309:
2602:Drivers/STM32F4xx_HAL_Driver/Src/stm32f4xx_hal_tim.c ****   }
2603:Drivers/STM32F4xx_HAL_Driver/Src/stm32f4xx_hal_tim.c ****     
2604:Drivers/STM32F4xx_HAL_Driver/Src/stm32f4xx_hal_tim.c ****   /* Disable the Peripheral */
2605:Drivers/STM32F4xx_HAL_Driver/Src/stm32f4xx_hal_tim.c ****   __HAL_TIM_DISABLE(htim);
 5679              		.loc 1 2605 0
 5680 0092 7B68     		ldr	r3, [r7, #4]
 5681 0094 1B68     		ldr	r3, [r3]
 5682 0096 1A6A     		ldr	r2, [r3, #32]
 5683 0098 41F21113 		movw	r3, #4369
 5684 009c 1340     		ands	r3, r3, r2
 5685 009e 002B     		cmp	r3, #0
 5686 00a0 0FD1     		bne	.L311
 5687              		.loc 1 2605 0 is_stmt 0 discriminator 1
 5688 00a2 7B68     		ldr	r3, [r7, #4]
 5689 00a4 1B68     		ldr	r3, [r3]
 5690 00a6 1A6A     		ldr	r2, [r3, #32]
 5691 00a8 40F24443 		movw	r3, #1092
 5692 00ac 1340     		ands	r3, r3, r2
 5693 00ae 002B     		cmp	r3, #0
 5694 00b0 07D1     		bne	.L311
 5695              		.loc 1 2605 0 discriminator 2
 5696 00b2 7B68     		ldr	r3, [r7, #4]
 5697 00b4 1B68     		ldr	r3, [r3]
 5698 00b6 7A68     		ldr	r2, [r7, #4]
 5699 00b8 1268     		ldr	r2, [r2]
 5700 00ba 1268     		ldr	r2, [r2]
 5701 00bc 22F00102 		bic	r2, r2, #1
 5702 00c0 1A60     		str	r2, [r3]
 5703              	.L311:
2606:Drivers/STM32F4xx_HAL_Driver/Src/stm32f4xx_hal_tim.c ****   
2607:Drivers/STM32F4xx_HAL_Driver/Src/stm32f4xx_hal_tim.c ****   /* Change the htim state */
2608:Drivers/STM32F4xx_HAL_Driver/Src/stm32f4xx_hal_tim.c ****   htim->State = HAL_TIM_STATE_READY;
 5704              		.loc 1 2608 0 is_stmt 1
 5705 00c2 7B68     		ldr	r3, [r7, #4]
 5706 00c4 0122     		movs	r2, #1
 5707 00c6 83F83920 		strb	r2, [r3, #57]
2609:Drivers/STM32F4xx_HAL_Driver/Src/stm32f4xx_hal_tim.c ****   
2610:Drivers/STM32F4xx_HAL_Driver/Src/stm32f4xx_hal_tim.c ****   /* Return function status */
2611:Drivers/STM32F4xx_HAL_Driver/Src/stm32f4xx_hal_tim.c ****   return HAL_OK;
 5708              		.loc 1 2611 0
ARM GAS  /tmp/cc4tSQEQ.s 			page 145


 5709 00ca 0023     		movs	r3, #0
2612:Drivers/STM32F4xx_HAL_Driver/Src/stm32f4xx_hal_tim.c **** }
 5710              		.loc 1 2612 0
 5711 00cc 1846     		mov	r0, r3
 5712 00ce 0837     		adds	r7, r7, #8
 5713              	.LCFI295:
 5714              		.cfi_def_cfa_offset 8
 5715 00d0 BD46     		mov	sp, r7
 5716              	.LCFI296:
 5717              		.cfi_def_cfa_register 13
 5718              		@ sp needed
 5719 00d2 80BD     		pop	{r7, pc}
 5720              		.cfi_endproc
 5721              	.LFE179:
 5723              		.section	.text.HAL_TIM_Encoder_Start_DMA,"ax",%progbits
 5724              		.align	1
 5725              		.global	HAL_TIM_Encoder_Start_DMA
 5726              		.syntax unified
 5727              		.thumb
 5728              		.thumb_func
 5729              		.fpu fpv4-sp-d16
 5731              	HAL_TIM_Encoder_Start_DMA:
 5732              	.LFB180:
2613:Drivers/STM32F4xx_HAL_Driver/Src/stm32f4xx_hal_tim.c **** 
2614:Drivers/STM32F4xx_HAL_Driver/Src/stm32f4xx_hal_tim.c **** /**
2615:Drivers/STM32F4xx_HAL_Driver/Src/stm32f4xx_hal_tim.c ****   * @brief  Starts the TIM Encoder Interface in DMA mode.
2616:Drivers/STM32F4xx_HAL_Driver/Src/stm32f4xx_hal_tim.c ****   * @param  htim pointer to a TIM_HandleTypeDef structure that contains
2617:Drivers/STM32F4xx_HAL_Driver/Src/stm32f4xx_hal_tim.c ****   *                the configuration information for TIM module.
2618:Drivers/STM32F4xx_HAL_Driver/Src/stm32f4xx_hal_tim.c ****   * @param  Channel TIM Channels to be enabled.
2619:Drivers/STM32F4xx_HAL_Driver/Src/stm32f4xx_hal_tim.c ****   *          This parameter can be one of the following values:
2620:Drivers/STM32F4xx_HAL_Driver/Src/stm32f4xx_hal_tim.c ****   *            @arg TIM_CHANNEL_1: TIM Channel 1 selected
2621:Drivers/STM32F4xx_HAL_Driver/Src/stm32f4xx_hal_tim.c ****   *            @arg TIM_CHANNEL_2: TIM Channel 2 selected
2622:Drivers/STM32F4xx_HAL_Driver/Src/stm32f4xx_hal_tim.c ****   *            @arg TIM_CHANNEL_ALL: TIM Channel 1 and TIM Channel 2 are selected
2623:Drivers/STM32F4xx_HAL_Driver/Src/stm32f4xx_hal_tim.c ****   * @param  pData1 The destination Buffer address for IC1.
2624:Drivers/STM32F4xx_HAL_Driver/Src/stm32f4xx_hal_tim.c ****   * @param  pData2 The destination Buffer address for IC2.
2625:Drivers/STM32F4xx_HAL_Driver/Src/stm32f4xx_hal_tim.c ****   * @param  Length The length of data to be transferred from TIM peripheral to memory.
2626:Drivers/STM32F4xx_HAL_Driver/Src/stm32f4xx_hal_tim.c ****   * @retval HAL status
2627:Drivers/STM32F4xx_HAL_Driver/Src/stm32f4xx_hal_tim.c ****   */
2628:Drivers/STM32F4xx_HAL_Driver/Src/stm32f4xx_hal_tim.c **** HAL_StatusTypeDef HAL_TIM_Encoder_Start_DMA(TIM_HandleTypeDef *htim, uint32_t Channel, uint32_t *pD
2629:Drivers/STM32F4xx_HAL_Driver/Src/stm32f4xx_hal_tim.c **** {
 5733              		.loc 1 2629 0
 5734              		.cfi_startproc
 5735              		@ args = 4, pretend = 0, frame = 16
 5736              		@ frame_needed = 1, uses_anonymous_args = 0
 5737 0000 80B5     		push	{r7, lr}
 5738              	.LCFI297:
 5739              		.cfi_def_cfa_offset 8
 5740              		.cfi_offset 7, -8
 5741              		.cfi_offset 14, -4
 5742 0002 84B0     		sub	sp, sp, #16
 5743              	.LCFI298:
 5744              		.cfi_def_cfa_offset 24
 5745 0004 00AF     		add	r7, sp, #0
 5746              	.LCFI299:
 5747              		.cfi_def_cfa_register 7
 5748 0006 F860     		str	r0, [r7, #12]
 5749 0008 B960     		str	r1, [r7, #8]
ARM GAS  /tmp/cc4tSQEQ.s 			page 146


 5750 000a 7A60     		str	r2, [r7, #4]
 5751 000c 3B60     		str	r3, [r7]
2630:Drivers/STM32F4xx_HAL_Driver/Src/stm32f4xx_hal_tim.c ****   /* Check the parameters */
2631:Drivers/STM32F4xx_HAL_Driver/Src/stm32f4xx_hal_tim.c ****   assert_param(IS_TIM_DMA_CC_INSTANCE(htim->Instance));
2632:Drivers/STM32F4xx_HAL_Driver/Src/stm32f4xx_hal_tim.c ****   
2633:Drivers/STM32F4xx_HAL_Driver/Src/stm32f4xx_hal_tim.c ****   if((htim->State == HAL_TIM_STATE_BUSY))
 5752              		.loc 1 2633 0
 5753 000e FB68     		ldr	r3, [r7, #12]
 5754 0010 93F83930 		ldrb	r3, [r3, #57]
 5755 0014 DBB2     		uxtb	r3, r3
 5756 0016 022B     		cmp	r3, #2
 5757 0018 01D1     		bne	.L314
2634:Drivers/STM32F4xx_HAL_Driver/Src/stm32f4xx_hal_tim.c ****   {
2635:Drivers/STM32F4xx_HAL_Driver/Src/stm32f4xx_hal_tim.c ****      return HAL_BUSY;
 5758              		.loc 1 2635 0
 5759 001a 0223     		movs	r3, #2
 5760 001c BCE0     		b	.L315
 5761              	.L314:
2636:Drivers/STM32F4xx_HAL_Driver/Src/stm32f4xx_hal_tim.c ****   }
2637:Drivers/STM32F4xx_HAL_Driver/Src/stm32f4xx_hal_tim.c ****   else if((htim->State == HAL_TIM_STATE_READY))
 5762              		.loc 1 2637 0
 5763 001e FB68     		ldr	r3, [r7, #12]
 5764 0020 93F83930 		ldrb	r3, [r3, #57]
 5765 0024 DBB2     		uxtb	r3, r3
 5766 0026 012B     		cmp	r3, #1
 5767 0028 0ED1     		bne	.L316
2638:Drivers/STM32F4xx_HAL_Driver/Src/stm32f4xx_hal_tim.c ****   {
2639:Drivers/STM32F4xx_HAL_Driver/Src/stm32f4xx_hal_tim.c ****     if((((pData1 == 0U) || (pData2 == 0U) )) && (Length > 0)) 
 5768              		.loc 1 2639 0
 5769 002a 7B68     		ldr	r3, [r7, #4]
 5770 002c 002B     		cmp	r3, #0
 5771 002e 02D0     		beq	.L317
 5772              		.loc 1 2639 0 is_stmt 0 discriminator 2
 5773 0030 3B68     		ldr	r3, [r7]
 5774 0032 002B     		cmp	r3, #0
 5775 0034 04D1     		bne	.L318
 5776              	.L317:
 5777              		.loc 1 2639 0 discriminator 3
 5778 0036 3B8B     		ldrh	r3, [r7, #24]
 5779 0038 002B     		cmp	r3, #0
 5780 003a 01D0     		beq	.L318
2640:Drivers/STM32F4xx_HAL_Driver/Src/stm32f4xx_hal_tim.c ****     {
2641:Drivers/STM32F4xx_HAL_Driver/Src/stm32f4xx_hal_tim.c ****       return HAL_ERROR;                                    
 5781              		.loc 1 2641 0 is_stmt 1
 5782 003c 0123     		movs	r3, #1
 5783 003e ABE0     		b	.L315
 5784              	.L318:
2642:Drivers/STM32F4xx_HAL_Driver/Src/stm32f4xx_hal_tim.c ****     }
2643:Drivers/STM32F4xx_HAL_Driver/Src/stm32f4xx_hal_tim.c ****     else
2644:Drivers/STM32F4xx_HAL_Driver/Src/stm32f4xx_hal_tim.c ****     {
2645:Drivers/STM32F4xx_HAL_Driver/Src/stm32f4xx_hal_tim.c ****       htim->State = HAL_TIM_STATE_BUSY;
 5785              		.loc 1 2645 0
 5786 0040 FB68     		ldr	r3, [r7, #12]
 5787 0042 0222     		movs	r2, #2
 5788 0044 83F83920 		strb	r2, [r3, #57]
 5789              	.L316:
2646:Drivers/STM32F4xx_HAL_Driver/Src/stm32f4xx_hal_tim.c ****     }
ARM GAS  /tmp/cc4tSQEQ.s 			page 147


2647:Drivers/STM32F4xx_HAL_Driver/Src/stm32f4xx_hal_tim.c ****   }  
2648:Drivers/STM32F4xx_HAL_Driver/Src/stm32f4xx_hal_tim.c ****    
2649:Drivers/STM32F4xx_HAL_Driver/Src/stm32f4xx_hal_tim.c ****   switch (Channel)
 5790              		.loc 1 2649 0
 5791 0048 BB68     		ldr	r3, [r7, #8]
 5792 004a 042B     		cmp	r3, #4
 5793 004c 2ED0     		beq	.L320
 5794 004e 182B     		cmp	r3, #24
 5795 0050 56D0     		beq	.L321
 5796 0052 002B     		cmp	r3, #0
 5797 0054 00D0     		beq	.L322
2650:Drivers/STM32F4xx_HAL_Driver/Src/stm32f4xx_hal_tim.c ****   {
2651:Drivers/STM32F4xx_HAL_Driver/Src/stm32f4xx_hal_tim.c ****     case TIM_CHANNEL_1:
2652:Drivers/STM32F4xx_HAL_Driver/Src/stm32f4xx_hal_tim.c ****     {
2653:Drivers/STM32F4xx_HAL_Driver/Src/stm32f4xx_hal_tim.c ****       /* Set the DMA Period elapsed callback */
2654:Drivers/STM32F4xx_HAL_Driver/Src/stm32f4xx_hal_tim.c ****       htim->hdma[TIM_DMA_ID_CC1]->XferCpltCallback = TIM_DMACaptureCplt;
2655:Drivers/STM32F4xx_HAL_Driver/Src/stm32f4xx_hal_tim.c ****      
2656:Drivers/STM32F4xx_HAL_Driver/Src/stm32f4xx_hal_tim.c ****       /* Set the DMA error callback */
2657:Drivers/STM32F4xx_HAL_Driver/Src/stm32f4xx_hal_tim.c ****       htim->hdma[TIM_DMA_ID_CC1]->XferErrorCallback = TIM_DMAError ;
2658:Drivers/STM32F4xx_HAL_Driver/Src/stm32f4xx_hal_tim.c ****       
2659:Drivers/STM32F4xx_HAL_Driver/Src/stm32f4xx_hal_tim.c ****       /* Enable the DMA Stream */
2660:Drivers/STM32F4xx_HAL_Driver/Src/stm32f4xx_hal_tim.c ****       HAL_DMA_Start_IT(htim->hdma[TIM_DMA_ID_CC1], (uint32_t)&htim->Instance->CCR1, (uint32_t )pDat
2661:Drivers/STM32F4xx_HAL_Driver/Src/stm32f4xx_hal_tim.c ****       
2662:Drivers/STM32F4xx_HAL_Driver/Src/stm32f4xx_hal_tim.c ****       /* Enable the TIM Input Capture DMA request */      
2663:Drivers/STM32F4xx_HAL_Driver/Src/stm32f4xx_hal_tim.c ****       __HAL_TIM_ENABLE_DMA(htim, TIM_DMA_CC1);
2664:Drivers/STM32F4xx_HAL_Driver/Src/stm32f4xx_hal_tim.c ****             
2665:Drivers/STM32F4xx_HAL_Driver/Src/stm32f4xx_hal_tim.c ****       /* Enable the Peripheral */
2666:Drivers/STM32F4xx_HAL_Driver/Src/stm32f4xx_hal_tim.c ****       __HAL_TIM_ENABLE(htim);
2667:Drivers/STM32F4xx_HAL_Driver/Src/stm32f4xx_hal_tim.c ****       
2668:Drivers/STM32F4xx_HAL_Driver/Src/stm32f4xx_hal_tim.c ****       /* Enable the Capture compare channel */
2669:Drivers/STM32F4xx_HAL_Driver/Src/stm32f4xx_hal_tim.c ****       TIM_CCxChannelCmd(htim->Instance, TIM_CHANNEL_1, TIM_CCx_ENABLE);
2670:Drivers/STM32F4xx_HAL_Driver/Src/stm32f4xx_hal_tim.c ****     }
2671:Drivers/STM32F4xx_HAL_Driver/Src/stm32f4xx_hal_tim.c ****     break;
2672:Drivers/STM32F4xx_HAL_Driver/Src/stm32f4xx_hal_tim.c ****     
2673:Drivers/STM32F4xx_HAL_Driver/Src/stm32f4xx_hal_tim.c ****     case TIM_CHANNEL_2:
2674:Drivers/STM32F4xx_HAL_Driver/Src/stm32f4xx_hal_tim.c ****     {
2675:Drivers/STM32F4xx_HAL_Driver/Src/stm32f4xx_hal_tim.c ****       /* Set the DMA Period elapsed callback */
2676:Drivers/STM32F4xx_HAL_Driver/Src/stm32f4xx_hal_tim.c ****       htim->hdma[TIM_DMA_ID_CC2]->XferCpltCallback = TIM_DMACaptureCplt;
2677:Drivers/STM32F4xx_HAL_Driver/Src/stm32f4xx_hal_tim.c ****      
2678:Drivers/STM32F4xx_HAL_Driver/Src/stm32f4xx_hal_tim.c ****       /* Set the DMA error callback */
2679:Drivers/STM32F4xx_HAL_Driver/Src/stm32f4xx_hal_tim.c ****       htim->hdma[TIM_DMA_ID_CC2]->XferErrorCallback = TIM_DMAError;
2680:Drivers/STM32F4xx_HAL_Driver/Src/stm32f4xx_hal_tim.c ****       /* Enable the DMA Stream */
2681:Drivers/STM32F4xx_HAL_Driver/Src/stm32f4xx_hal_tim.c ****       HAL_DMA_Start_IT(htim->hdma[TIM_DMA_ID_CC2], (uint32_t)&htim->Instance->CCR2, (uint32_t)pData
2682:Drivers/STM32F4xx_HAL_Driver/Src/stm32f4xx_hal_tim.c ****       
2683:Drivers/STM32F4xx_HAL_Driver/Src/stm32f4xx_hal_tim.c ****       /* Enable the TIM Input Capture  DMA request */
2684:Drivers/STM32F4xx_HAL_Driver/Src/stm32f4xx_hal_tim.c ****       __HAL_TIM_ENABLE_DMA(htim, TIM_DMA_CC2);
2685:Drivers/STM32F4xx_HAL_Driver/Src/stm32f4xx_hal_tim.c ****      
2686:Drivers/STM32F4xx_HAL_Driver/Src/stm32f4xx_hal_tim.c ****       /* Enable the Peripheral */
2687:Drivers/STM32F4xx_HAL_Driver/Src/stm32f4xx_hal_tim.c ****       __HAL_TIM_ENABLE(htim);
2688:Drivers/STM32F4xx_HAL_Driver/Src/stm32f4xx_hal_tim.c ****       
2689:Drivers/STM32F4xx_HAL_Driver/Src/stm32f4xx_hal_tim.c ****       /* Enable the Capture compare channel */
2690:Drivers/STM32F4xx_HAL_Driver/Src/stm32f4xx_hal_tim.c ****       TIM_CCxChannelCmd(htim->Instance, TIM_CHANNEL_2, TIM_CCx_ENABLE);
2691:Drivers/STM32F4xx_HAL_Driver/Src/stm32f4xx_hal_tim.c ****     }
2692:Drivers/STM32F4xx_HAL_Driver/Src/stm32f4xx_hal_tim.c ****     break;
2693:Drivers/STM32F4xx_HAL_Driver/Src/stm32f4xx_hal_tim.c ****     
2694:Drivers/STM32F4xx_HAL_Driver/Src/stm32f4xx_hal_tim.c ****     case TIM_CHANNEL_ALL:
2695:Drivers/STM32F4xx_HAL_Driver/Src/stm32f4xx_hal_tim.c ****     {
ARM GAS  /tmp/cc4tSQEQ.s 			page 148


2696:Drivers/STM32F4xx_HAL_Driver/Src/stm32f4xx_hal_tim.c ****       /* Set the DMA Period elapsed callback */
2697:Drivers/STM32F4xx_HAL_Driver/Src/stm32f4xx_hal_tim.c ****       htim->hdma[TIM_DMA_ID_CC1]->XferCpltCallback = TIM_DMACaptureCplt;
2698:Drivers/STM32F4xx_HAL_Driver/Src/stm32f4xx_hal_tim.c ****      
2699:Drivers/STM32F4xx_HAL_Driver/Src/stm32f4xx_hal_tim.c ****       /* Set the DMA error callback */
2700:Drivers/STM32F4xx_HAL_Driver/Src/stm32f4xx_hal_tim.c ****       htim->hdma[TIM_DMA_ID_CC1]->XferErrorCallback = TIM_DMAError ;
2701:Drivers/STM32F4xx_HAL_Driver/Src/stm32f4xx_hal_tim.c ****       
2702:Drivers/STM32F4xx_HAL_Driver/Src/stm32f4xx_hal_tim.c ****       /* Enable the DMA Stream */
2703:Drivers/STM32F4xx_HAL_Driver/Src/stm32f4xx_hal_tim.c ****       HAL_DMA_Start_IT(htim->hdma[TIM_DMA_ID_CC1], (uint32_t)&htim->Instance->CCR1, (uint32_t)pData
2704:Drivers/STM32F4xx_HAL_Driver/Src/stm32f4xx_hal_tim.c ****       
2705:Drivers/STM32F4xx_HAL_Driver/Src/stm32f4xx_hal_tim.c ****       /* Set the DMA Period elapsed callback */
2706:Drivers/STM32F4xx_HAL_Driver/Src/stm32f4xx_hal_tim.c ****       htim->hdma[TIM_DMA_ID_CC2]->XferCpltCallback = TIM_DMACaptureCplt;
2707:Drivers/STM32F4xx_HAL_Driver/Src/stm32f4xx_hal_tim.c ****      
2708:Drivers/STM32F4xx_HAL_Driver/Src/stm32f4xx_hal_tim.c ****       /* Set the DMA error callback */
2709:Drivers/STM32F4xx_HAL_Driver/Src/stm32f4xx_hal_tim.c ****       htim->hdma[TIM_DMA_ID_CC2]->XferErrorCallback = TIM_DMAError ;
2710:Drivers/STM32F4xx_HAL_Driver/Src/stm32f4xx_hal_tim.c ****       
2711:Drivers/STM32F4xx_HAL_Driver/Src/stm32f4xx_hal_tim.c ****       /* Enable the DMA Stream */
2712:Drivers/STM32F4xx_HAL_Driver/Src/stm32f4xx_hal_tim.c ****       HAL_DMA_Start_IT(htim->hdma[TIM_DMA_ID_CC2], (uint32_t)&htim->Instance->CCR2, (uint32_t)pData
2713:Drivers/STM32F4xx_HAL_Driver/Src/stm32f4xx_hal_tim.c ****           
2714:Drivers/STM32F4xx_HAL_Driver/Src/stm32f4xx_hal_tim.c ****      /* Enable the Peripheral */
2715:Drivers/STM32F4xx_HAL_Driver/Src/stm32f4xx_hal_tim.c ****       __HAL_TIM_ENABLE(htim);
2716:Drivers/STM32F4xx_HAL_Driver/Src/stm32f4xx_hal_tim.c ****       
2717:Drivers/STM32F4xx_HAL_Driver/Src/stm32f4xx_hal_tim.c ****       /* Enable the Capture compare channel */
2718:Drivers/STM32F4xx_HAL_Driver/Src/stm32f4xx_hal_tim.c ****       TIM_CCxChannelCmd(htim->Instance, TIM_CHANNEL_1, TIM_CCx_ENABLE);
2719:Drivers/STM32F4xx_HAL_Driver/Src/stm32f4xx_hal_tim.c ****       TIM_CCxChannelCmd(htim->Instance, TIM_CHANNEL_2, TIM_CCx_ENABLE);
2720:Drivers/STM32F4xx_HAL_Driver/Src/stm32f4xx_hal_tim.c ****       
2721:Drivers/STM32F4xx_HAL_Driver/Src/stm32f4xx_hal_tim.c ****       /* Enable the TIM Input Capture  DMA request */
2722:Drivers/STM32F4xx_HAL_Driver/Src/stm32f4xx_hal_tim.c ****       __HAL_TIM_ENABLE_DMA(htim, TIM_DMA_CC1);
2723:Drivers/STM32F4xx_HAL_Driver/Src/stm32f4xx_hal_tim.c ****       /* Enable the TIM Input Capture  DMA request */
2724:Drivers/STM32F4xx_HAL_Driver/Src/stm32f4xx_hal_tim.c ****       __HAL_TIM_ENABLE_DMA(htim, TIM_DMA_CC2);
2725:Drivers/STM32F4xx_HAL_Driver/Src/stm32f4xx_hal_tim.c ****     }
2726:Drivers/STM32F4xx_HAL_Driver/Src/stm32f4xx_hal_tim.c ****     break;
2727:Drivers/STM32F4xx_HAL_Driver/Src/stm32f4xx_hal_tim.c ****     
2728:Drivers/STM32F4xx_HAL_Driver/Src/stm32f4xx_hal_tim.c ****     default:
2729:Drivers/STM32F4xx_HAL_Driver/Src/stm32f4xx_hal_tim.c ****     break;
 5798              		.loc 1 2729 0
 5799 0056 9EE0     		b	.L323
 5800              	.L322:
2654:Drivers/STM32F4xx_HAL_Driver/Src/stm32f4xx_hal_tim.c ****      
 5801              		.loc 1 2654 0
 5802 0058 FB68     		ldr	r3, [r7, #12]
 5803 005a 1B6A     		ldr	r3, [r3, #32]
 5804 005c 504A     		ldr	r2, .L324
 5805 005e DA63     		str	r2, [r3, #60]
2657:Drivers/STM32F4xx_HAL_Driver/Src/stm32f4xx_hal_tim.c ****       
 5806              		.loc 1 2657 0
 5807 0060 FB68     		ldr	r3, [r7, #12]
 5808 0062 1B6A     		ldr	r3, [r3, #32]
 5809 0064 4F4A     		ldr	r2, .L324+4
 5810 0066 DA64     		str	r2, [r3, #76]
2660:Drivers/STM32F4xx_HAL_Driver/Src/stm32f4xx_hal_tim.c ****       
 5811              		.loc 1 2660 0
 5812 0068 FB68     		ldr	r3, [r7, #12]
 5813 006a 186A     		ldr	r0, [r3, #32]
 5814 006c FB68     		ldr	r3, [r7, #12]
 5815 006e 1B68     		ldr	r3, [r3]
 5816 0070 3433     		adds	r3, r3, #52
 5817 0072 1946     		mov	r1, r3
ARM GAS  /tmp/cc4tSQEQ.s 			page 149


 5818 0074 7A68     		ldr	r2, [r7, #4]
 5819 0076 3B8B     		ldrh	r3, [r7, #24]
 5820 0078 FFF7FEFF 		bl	HAL_DMA_Start_IT
2663:Drivers/STM32F4xx_HAL_Driver/Src/stm32f4xx_hal_tim.c ****             
 5821              		.loc 1 2663 0
 5822 007c FB68     		ldr	r3, [r7, #12]
 5823 007e 1B68     		ldr	r3, [r3]
 5824 0080 FA68     		ldr	r2, [r7, #12]
 5825 0082 1268     		ldr	r2, [r2]
 5826 0084 D268     		ldr	r2, [r2, #12]
 5827 0086 42F40072 		orr	r2, r2, #512
 5828 008a DA60     		str	r2, [r3, #12]
2666:Drivers/STM32F4xx_HAL_Driver/Src/stm32f4xx_hal_tim.c ****       
 5829              		.loc 1 2666 0
 5830 008c FB68     		ldr	r3, [r7, #12]
 5831 008e 1B68     		ldr	r3, [r3]
 5832 0090 FA68     		ldr	r2, [r7, #12]
 5833 0092 1268     		ldr	r2, [r2]
 5834 0094 1268     		ldr	r2, [r2]
 5835 0096 42F00102 		orr	r2, r2, #1
 5836 009a 1A60     		str	r2, [r3]
2669:Drivers/STM32F4xx_HAL_Driver/Src/stm32f4xx_hal_tim.c ****     }
 5837              		.loc 1 2669 0
 5838 009c FB68     		ldr	r3, [r7, #12]
 5839 009e 1B68     		ldr	r3, [r3]
 5840 00a0 0122     		movs	r2, #1
 5841 00a2 0021     		movs	r1, #0
 5842 00a4 1846     		mov	r0, r3
 5843 00a6 FFF7FEFF 		bl	TIM_CCxChannelCmd
2671:Drivers/STM32F4xx_HAL_Driver/Src/stm32f4xx_hal_tim.c ****     
 5844              		.loc 1 2671 0
 5845 00aa 74E0     		b	.L323
 5846              	.L320:
2676:Drivers/STM32F4xx_HAL_Driver/Src/stm32f4xx_hal_tim.c ****      
 5847              		.loc 1 2676 0
 5848 00ac FB68     		ldr	r3, [r7, #12]
 5849 00ae 5B6A     		ldr	r3, [r3, #36]
 5850 00b0 3B4A     		ldr	r2, .L324
 5851 00b2 DA63     		str	r2, [r3, #60]
2679:Drivers/STM32F4xx_HAL_Driver/Src/stm32f4xx_hal_tim.c ****       /* Enable the DMA Stream */
 5852              		.loc 1 2679 0
 5853 00b4 FB68     		ldr	r3, [r7, #12]
 5854 00b6 5B6A     		ldr	r3, [r3, #36]
 5855 00b8 3A4A     		ldr	r2, .L324+4
 5856 00ba DA64     		str	r2, [r3, #76]
2681:Drivers/STM32F4xx_HAL_Driver/Src/stm32f4xx_hal_tim.c ****       
 5857              		.loc 1 2681 0
 5858 00bc FB68     		ldr	r3, [r7, #12]
 5859 00be 586A     		ldr	r0, [r3, #36]
 5860 00c0 FB68     		ldr	r3, [r7, #12]
 5861 00c2 1B68     		ldr	r3, [r3]
 5862 00c4 3833     		adds	r3, r3, #56
 5863 00c6 1946     		mov	r1, r3
 5864 00c8 3A68     		ldr	r2, [r7]
 5865 00ca 3B8B     		ldrh	r3, [r7, #24]
 5866 00cc FFF7FEFF 		bl	HAL_DMA_Start_IT
2684:Drivers/STM32F4xx_HAL_Driver/Src/stm32f4xx_hal_tim.c ****      
ARM GAS  /tmp/cc4tSQEQ.s 			page 150


 5867              		.loc 1 2684 0
 5868 00d0 FB68     		ldr	r3, [r7, #12]
 5869 00d2 1B68     		ldr	r3, [r3]
 5870 00d4 FA68     		ldr	r2, [r7, #12]
 5871 00d6 1268     		ldr	r2, [r2]
 5872 00d8 D268     		ldr	r2, [r2, #12]
 5873 00da 42F48062 		orr	r2, r2, #1024
 5874 00de DA60     		str	r2, [r3, #12]
2687:Drivers/STM32F4xx_HAL_Driver/Src/stm32f4xx_hal_tim.c ****       
 5875              		.loc 1 2687 0
 5876 00e0 FB68     		ldr	r3, [r7, #12]
 5877 00e2 1B68     		ldr	r3, [r3]
 5878 00e4 FA68     		ldr	r2, [r7, #12]
 5879 00e6 1268     		ldr	r2, [r2]
 5880 00e8 1268     		ldr	r2, [r2]
 5881 00ea 42F00102 		orr	r2, r2, #1
 5882 00ee 1A60     		str	r2, [r3]
2690:Drivers/STM32F4xx_HAL_Driver/Src/stm32f4xx_hal_tim.c ****     }
 5883              		.loc 1 2690 0
 5884 00f0 FB68     		ldr	r3, [r7, #12]
 5885 00f2 1B68     		ldr	r3, [r3]
 5886 00f4 0122     		movs	r2, #1
 5887 00f6 0421     		movs	r1, #4
 5888 00f8 1846     		mov	r0, r3
 5889 00fa FFF7FEFF 		bl	TIM_CCxChannelCmd
2692:Drivers/STM32F4xx_HAL_Driver/Src/stm32f4xx_hal_tim.c ****     
 5890              		.loc 1 2692 0
 5891 00fe 4AE0     		b	.L323
 5892              	.L321:
2697:Drivers/STM32F4xx_HAL_Driver/Src/stm32f4xx_hal_tim.c ****      
 5893              		.loc 1 2697 0
 5894 0100 FB68     		ldr	r3, [r7, #12]
 5895 0102 1B6A     		ldr	r3, [r3, #32]
 5896 0104 264A     		ldr	r2, .L324
 5897 0106 DA63     		str	r2, [r3, #60]
2700:Drivers/STM32F4xx_HAL_Driver/Src/stm32f4xx_hal_tim.c ****       
 5898              		.loc 1 2700 0
 5899 0108 FB68     		ldr	r3, [r7, #12]
 5900 010a 1B6A     		ldr	r3, [r3, #32]
 5901 010c 254A     		ldr	r2, .L324+4
 5902 010e DA64     		str	r2, [r3, #76]
2703:Drivers/STM32F4xx_HAL_Driver/Src/stm32f4xx_hal_tim.c ****       
 5903              		.loc 1 2703 0
 5904 0110 FB68     		ldr	r3, [r7, #12]
 5905 0112 186A     		ldr	r0, [r3, #32]
 5906 0114 FB68     		ldr	r3, [r7, #12]
 5907 0116 1B68     		ldr	r3, [r3]
 5908 0118 3433     		adds	r3, r3, #52
 5909 011a 1946     		mov	r1, r3
 5910 011c 7A68     		ldr	r2, [r7, #4]
 5911 011e 3B8B     		ldrh	r3, [r7, #24]
 5912 0120 FFF7FEFF 		bl	HAL_DMA_Start_IT
2706:Drivers/STM32F4xx_HAL_Driver/Src/stm32f4xx_hal_tim.c ****      
 5913              		.loc 1 2706 0
 5914 0124 FB68     		ldr	r3, [r7, #12]
 5915 0126 5B6A     		ldr	r3, [r3, #36]
 5916 0128 1D4A     		ldr	r2, .L324
ARM GAS  /tmp/cc4tSQEQ.s 			page 151


 5917 012a DA63     		str	r2, [r3, #60]
2709:Drivers/STM32F4xx_HAL_Driver/Src/stm32f4xx_hal_tim.c ****       
 5918              		.loc 1 2709 0
 5919 012c FB68     		ldr	r3, [r7, #12]
 5920 012e 5B6A     		ldr	r3, [r3, #36]
 5921 0130 1C4A     		ldr	r2, .L324+4
 5922 0132 DA64     		str	r2, [r3, #76]
2712:Drivers/STM32F4xx_HAL_Driver/Src/stm32f4xx_hal_tim.c ****           
 5923              		.loc 1 2712 0
 5924 0134 FB68     		ldr	r3, [r7, #12]
 5925 0136 586A     		ldr	r0, [r3, #36]
 5926 0138 FB68     		ldr	r3, [r7, #12]
 5927 013a 1B68     		ldr	r3, [r3]
 5928 013c 3833     		adds	r3, r3, #56
 5929 013e 1946     		mov	r1, r3
 5930 0140 3A68     		ldr	r2, [r7]
 5931 0142 3B8B     		ldrh	r3, [r7, #24]
 5932 0144 FFF7FEFF 		bl	HAL_DMA_Start_IT
2715:Drivers/STM32F4xx_HAL_Driver/Src/stm32f4xx_hal_tim.c ****       
 5933              		.loc 1 2715 0
 5934 0148 FB68     		ldr	r3, [r7, #12]
 5935 014a 1B68     		ldr	r3, [r3]
 5936 014c FA68     		ldr	r2, [r7, #12]
 5937 014e 1268     		ldr	r2, [r2]
 5938 0150 1268     		ldr	r2, [r2]
 5939 0152 42F00102 		orr	r2, r2, #1
 5940 0156 1A60     		str	r2, [r3]
2718:Drivers/STM32F4xx_HAL_Driver/Src/stm32f4xx_hal_tim.c ****       TIM_CCxChannelCmd(htim->Instance, TIM_CHANNEL_2, TIM_CCx_ENABLE);
 5941              		.loc 1 2718 0
 5942 0158 FB68     		ldr	r3, [r7, #12]
 5943 015a 1B68     		ldr	r3, [r3]
 5944 015c 0122     		movs	r2, #1
 5945 015e 0021     		movs	r1, #0
 5946 0160 1846     		mov	r0, r3
 5947 0162 FFF7FEFF 		bl	TIM_CCxChannelCmd
2719:Drivers/STM32F4xx_HAL_Driver/Src/stm32f4xx_hal_tim.c ****       
 5948              		.loc 1 2719 0
 5949 0166 FB68     		ldr	r3, [r7, #12]
 5950 0168 1B68     		ldr	r3, [r3]
 5951 016a 0122     		movs	r2, #1
 5952 016c 0421     		movs	r1, #4
 5953 016e 1846     		mov	r0, r3
 5954 0170 FFF7FEFF 		bl	TIM_CCxChannelCmd
2722:Drivers/STM32F4xx_HAL_Driver/Src/stm32f4xx_hal_tim.c ****       /* Enable the TIM Input Capture  DMA request */
 5955              		.loc 1 2722 0
 5956 0174 FB68     		ldr	r3, [r7, #12]
 5957 0176 1B68     		ldr	r3, [r3]
 5958 0178 FA68     		ldr	r2, [r7, #12]
 5959 017a 1268     		ldr	r2, [r2]
 5960 017c D268     		ldr	r2, [r2, #12]
 5961 017e 42F40072 		orr	r2, r2, #512
 5962 0182 DA60     		str	r2, [r3, #12]
2724:Drivers/STM32F4xx_HAL_Driver/Src/stm32f4xx_hal_tim.c ****     }
 5963              		.loc 1 2724 0
 5964 0184 FB68     		ldr	r3, [r7, #12]
 5965 0186 1B68     		ldr	r3, [r3]
 5966 0188 FA68     		ldr	r2, [r7, #12]
ARM GAS  /tmp/cc4tSQEQ.s 			page 152


 5967 018a 1268     		ldr	r2, [r2]
 5968 018c D268     		ldr	r2, [r2, #12]
 5969 018e 42F48062 		orr	r2, r2, #1024
 5970 0192 DA60     		str	r2, [r3, #12]
2726:Drivers/STM32F4xx_HAL_Driver/Src/stm32f4xx_hal_tim.c ****     
 5971              		.loc 1 2726 0
 5972 0194 00BF     		nop
 5973              	.L323:
2730:Drivers/STM32F4xx_HAL_Driver/Src/stm32f4xx_hal_tim.c ****   }  
2731:Drivers/STM32F4xx_HAL_Driver/Src/stm32f4xx_hal_tim.c ****   /* Return function status */
2732:Drivers/STM32F4xx_HAL_Driver/Src/stm32f4xx_hal_tim.c ****   return HAL_OK;
 5974              		.loc 1 2732 0
 5975 0196 0023     		movs	r3, #0
 5976              	.L315:
2733:Drivers/STM32F4xx_HAL_Driver/Src/stm32f4xx_hal_tim.c **** }
 5977              		.loc 1 2733 0
 5978 0198 1846     		mov	r0, r3
 5979 019a 1037     		adds	r7, r7, #16
 5980              	.LCFI300:
 5981              		.cfi_def_cfa_offset 8
 5982 019c BD46     		mov	sp, r7
 5983              	.LCFI301:
 5984              		.cfi_def_cfa_register 13
 5985              		@ sp needed
 5986 019e 80BD     		pop	{r7, pc}
 5987              	.L325:
 5988              		.align	2
 5989              	.L324:
 5990 01a0 00000000 		.word	TIM_DMACaptureCplt
 5991 01a4 00000000 		.word	TIM_DMAError
 5992              		.cfi_endproc
 5993              	.LFE180:
 5995              		.section	.text.HAL_TIM_Encoder_Stop_DMA,"ax",%progbits
 5996              		.align	1
 5997              		.global	HAL_TIM_Encoder_Stop_DMA
 5998              		.syntax unified
 5999              		.thumb
 6000              		.thumb_func
 6001              		.fpu fpv4-sp-d16
 6003              	HAL_TIM_Encoder_Stop_DMA:
 6004              	.LFB181:
2734:Drivers/STM32F4xx_HAL_Driver/Src/stm32f4xx_hal_tim.c **** 
2735:Drivers/STM32F4xx_HAL_Driver/Src/stm32f4xx_hal_tim.c **** /**
2736:Drivers/STM32F4xx_HAL_Driver/Src/stm32f4xx_hal_tim.c ****   * @brief  Stops the TIM Encoder Interface in DMA mode.
2737:Drivers/STM32F4xx_HAL_Driver/Src/stm32f4xx_hal_tim.c ****   * @param  htim pointer to a TIM_HandleTypeDef structure that contains
2738:Drivers/STM32F4xx_HAL_Driver/Src/stm32f4xx_hal_tim.c ****   *                the configuration information for TIM module.
2739:Drivers/STM32F4xx_HAL_Driver/Src/stm32f4xx_hal_tim.c ****   * @param  Channel TIM Channels to be enabled.
2740:Drivers/STM32F4xx_HAL_Driver/Src/stm32f4xx_hal_tim.c ****   *          This parameter can be one of the following values:
2741:Drivers/STM32F4xx_HAL_Driver/Src/stm32f4xx_hal_tim.c ****   *            @arg TIM_CHANNEL_1: TIM Channel 1 selected
2742:Drivers/STM32F4xx_HAL_Driver/Src/stm32f4xx_hal_tim.c ****   *            @arg TIM_CHANNEL_2: TIM Channel 2 selected
2743:Drivers/STM32F4xx_HAL_Driver/Src/stm32f4xx_hal_tim.c ****   *            @arg TIM_CHANNEL_ALL: TIM Channel 1 and TIM Channel 2 are selected
2744:Drivers/STM32F4xx_HAL_Driver/Src/stm32f4xx_hal_tim.c ****   * @retval HAL status
2745:Drivers/STM32F4xx_HAL_Driver/Src/stm32f4xx_hal_tim.c ****   */
2746:Drivers/STM32F4xx_HAL_Driver/Src/stm32f4xx_hal_tim.c **** HAL_StatusTypeDef HAL_TIM_Encoder_Stop_DMA(TIM_HandleTypeDef *htim, uint32_t Channel)
2747:Drivers/STM32F4xx_HAL_Driver/Src/stm32f4xx_hal_tim.c **** {
 6005              		.loc 1 2747 0
 6006              		.cfi_startproc
ARM GAS  /tmp/cc4tSQEQ.s 			page 153


 6007              		@ args = 0, pretend = 0, frame = 8
 6008              		@ frame_needed = 1, uses_anonymous_args = 0
 6009 0000 80B5     		push	{r7, lr}
 6010              	.LCFI302:
 6011              		.cfi_def_cfa_offset 8
 6012              		.cfi_offset 7, -8
 6013              		.cfi_offset 14, -4
 6014 0002 82B0     		sub	sp, sp, #8
 6015              	.LCFI303:
 6016              		.cfi_def_cfa_offset 16
 6017 0004 00AF     		add	r7, sp, #0
 6018              	.LCFI304:
 6019              		.cfi_def_cfa_register 7
 6020 0006 7860     		str	r0, [r7, #4]
 6021 0008 3960     		str	r1, [r7]
2748:Drivers/STM32F4xx_HAL_Driver/Src/stm32f4xx_hal_tim.c ****   /* Check the parameters */
2749:Drivers/STM32F4xx_HAL_Driver/Src/stm32f4xx_hal_tim.c ****   assert_param(IS_TIM_DMA_CC_INSTANCE(htim->Instance));
2750:Drivers/STM32F4xx_HAL_Driver/Src/stm32f4xx_hal_tim.c ****   
2751:Drivers/STM32F4xx_HAL_Driver/Src/stm32f4xx_hal_tim.c ****   /* Disable the Input Capture channels 1 and 2
2752:Drivers/STM32F4xx_HAL_Driver/Src/stm32f4xx_hal_tim.c ****     (in the EncoderInterface the two possible channels that can be used are TIM_CHANNEL_1 and TIM_C
2753:Drivers/STM32F4xx_HAL_Driver/Src/stm32f4xx_hal_tim.c ****   if(Channel == TIM_CHANNEL_1)
 6022              		.loc 1 2753 0
 6023 000a 3B68     		ldr	r3, [r7]
 6024 000c 002B     		cmp	r3, #0
 6025 000e 0FD1     		bne	.L327
2754:Drivers/STM32F4xx_HAL_Driver/Src/stm32f4xx_hal_tim.c ****   {
2755:Drivers/STM32F4xx_HAL_Driver/Src/stm32f4xx_hal_tim.c ****     TIM_CCxChannelCmd(htim->Instance, TIM_CHANNEL_1, TIM_CCx_DISABLE); 
 6026              		.loc 1 2755 0
 6027 0010 7B68     		ldr	r3, [r7, #4]
 6028 0012 1B68     		ldr	r3, [r3]
 6029 0014 0022     		movs	r2, #0
 6030 0016 0021     		movs	r1, #0
 6031 0018 1846     		mov	r0, r3
 6032 001a FFF7FEFF 		bl	TIM_CCxChannelCmd
2756:Drivers/STM32F4xx_HAL_Driver/Src/stm32f4xx_hal_tim.c ****     
2757:Drivers/STM32F4xx_HAL_Driver/Src/stm32f4xx_hal_tim.c ****     /* Disable the capture compare DMA Request 1 */
2758:Drivers/STM32F4xx_HAL_Driver/Src/stm32f4xx_hal_tim.c ****     __HAL_TIM_DISABLE_DMA(htim, TIM_DMA_CC1);
 6033              		.loc 1 2758 0
 6034 001e 7B68     		ldr	r3, [r7, #4]
 6035 0020 1B68     		ldr	r3, [r3]
 6036 0022 7A68     		ldr	r2, [r7, #4]
 6037 0024 1268     		ldr	r2, [r2]
 6038 0026 D268     		ldr	r2, [r2, #12]
 6039 0028 22F40072 		bic	r2, r2, #512
 6040 002c DA60     		str	r2, [r3, #12]
 6041 002e 30E0     		b	.L328
 6042              	.L327:
2759:Drivers/STM32F4xx_HAL_Driver/Src/stm32f4xx_hal_tim.c ****   }  
2760:Drivers/STM32F4xx_HAL_Driver/Src/stm32f4xx_hal_tim.c ****   else if(Channel == TIM_CHANNEL_2)
 6043              		.loc 1 2760 0
 6044 0030 3B68     		ldr	r3, [r7]
 6045 0032 042B     		cmp	r3, #4
 6046 0034 0FD1     		bne	.L329
2761:Drivers/STM32F4xx_HAL_Driver/Src/stm32f4xx_hal_tim.c ****   {  
2762:Drivers/STM32F4xx_HAL_Driver/Src/stm32f4xx_hal_tim.c ****     TIM_CCxChannelCmd(htim->Instance, TIM_CHANNEL_2, TIM_CCx_DISABLE); 
 6047              		.loc 1 2762 0
 6048 0036 7B68     		ldr	r3, [r7, #4]
ARM GAS  /tmp/cc4tSQEQ.s 			page 154


 6049 0038 1B68     		ldr	r3, [r3]
 6050 003a 0022     		movs	r2, #0
 6051 003c 0421     		movs	r1, #4
 6052 003e 1846     		mov	r0, r3
 6053 0040 FFF7FEFF 		bl	TIM_CCxChannelCmd
2763:Drivers/STM32F4xx_HAL_Driver/Src/stm32f4xx_hal_tim.c ****     
2764:Drivers/STM32F4xx_HAL_Driver/Src/stm32f4xx_hal_tim.c ****     /* Disable the capture compare DMA Request 2 */
2765:Drivers/STM32F4xx_HAL_Driver/Src/stm32f4xx_hal_tim.c ****     __HAL_TIM_DISABLE_DMA(htim, TIM_DMA_CC2);
 6054              		.loc 1 2765 0
 6055 0044 7B68     		ldr	r3, [r7, #4]
 6056 0046 1B68     		ldr	r3, [r3]
 6057 0048 7A68     		ldr	r2, [r7, #4]
 6058 004a 1268     		ldr	r2, [r2]
 6059 004c D268     		ldr	r2, [r2, #12]
 6060 004e 22F48062 		bic	r2, r2, #1024
 6061 0052 DA60     		str	r2, [r3, #12]
 6062 0054 1DE0     		b	.L328
 6063              	.L329:
2766:Drivers/STM32F4xx_HAL_Driver/Src/stm32f4xx_hal_tim.c ****   }  
2767:Drivers/STM32F4xx_HAL_Driver/Src/stm32f4xx_hal_tim.c ****   else
2768:Drivers/STM32F4xx_HAL_Driver/Src/stm32f4xx_hal_tim.c ****   {
2769:Drivers/STM32F4xx_HAL_Driver/Src/stm32f4xx_hal_tim.c ****     TIM_CCxChannelCmd(htim->Instance, TIM_CHANNEL_1, TIM_CCx_DISABLE); 
 6064              		.loc 1 2769 0
 6065 0056 7B68     		ldr	r3, [r7, #4]
 6066 0058 1B68     		ldr	r3, [r3]
 6067 005a 0022     		movs	r2, #0
 6068 005c 0021     		movs	r1, #0
 6069 005e 1846     		mov	r0, r3
 6070 0060 FFF7FEFF 		bl	TIM_CCxChannelCmd
2770:Drivers/STM32F4xx_HAL_Driver/Src/stm32f4xx_hal_tim.c ****     TIM_CCxChannelCmd(htim->Instance, TIM_CHANNEL_2, TIM_CCx_DISABLE); 
 6071              		.loc 1 2770 0
 6072 0064 7B68     		ldr	r3, [r7, #4]
 6073 0066 1B68     		ldr	r3, [r3]
 6074 0068 0022     		movs	r2, #0
 6075 006a 0421     		movs	r1, #4
 6076 006c 1846     		mov	r0, r3
 6077 006e FFF7FEFF 		bl	TIM_CCxChannelCmd
2771:Drivers/STM32F4xx_HAL_Driver/Src/stm32f4xx_hal_tim.c ****     
2772:Drivers/STM32F4xx_HAL_Driver/Src/stm32f4xx_hal_tim.c ****     /* Disable the capture compare DMA Request 1 and 2 */
2773:Drivers/STM32F4xx_HAL_Driver/Src/stm32f4xx_hal_tim.c ****     __HAL_TIM_DISABLE_DMA(htim, TIM_DMA_CC1);
 6078              		.loc 1 2773 0
 6079 0072 7B68     		ldr	r3, [r7, #4]
 6080 0074 1B68     		ldr	r3, [r3]
 6081 0076 7A68     		ldr	r2, [r7, #4]
 6082 0078 1268     		ldr	r2, [r2]
 6083 007a D268     		ldr	r2, [r2, #12]
 6084 007c 22F40072 		bic	r2, r2, #512
 6085 0080 DA60     		str	r2, [r3, #12]
2774:Drivers/STM32F4xx_HAL_Driver/Src/stm32f4xx_hal_tim.c ****     __HAL_TIM_DISABLE_DMA(htim, TIM_DMA_CC2);
 6086              		.loc 1 2774 0
 6087 0082 7B68     		ldr	r3, [r7, #4]
 6088 0084 1B68     		ldr	r3, [r3]
 6089 0086 7A68     		ldr	r2, [r7, #4]
 6090 0088 1268     		ldr	r2, [r2]
 6091 008a D268     		ldr	r2, [r2, #12]
 6092 008c 22F48062 		bic	r2, r2, #1024
 6093 0090 DA60     		str	r2, [r3, #12]
ARM GAS  /tmp/cc4tSQEQ.s 			page 155


 6094              	.L328:
2775:Drivers/STM32F4xx_HAL_Driver/Src/stm32f4xx_hal_tim.c ****   }
2776:Drivers/STM32F4xx_HAL_Driver/Src/stm32f4xx_hal_tim.c ****   
2777:Drivers/STM32F4xx_HAL_Driver/Src/stm32f4xx_hal_tim.c ****   /* Disable the Peripheral */
2778:Drivers/STM32F4xx_HAL_Driver/Src/stm32f4xx_hal_tim.c ****   __HAL_TIM_DISABLE(htim);
 6095              		.loc 1 2778 0
 6096 0092 7B68     		ldr	r3, [r7, #4]
 6097 0094 1B68     		ldr	r3, [r3]
 6098 0096 1A6A     		ldr	r2, [r3, #32]
 6099 0098 41F21113 		movw	r3, #4369
 6100 009c 1340     		ands	r3, r3, r2
 6101 009e 002B     		cmp	r3, #0
 6102 00a0 0FD1     		bne	.L330
 6103              		.loc 1 2778 0 is_stmt 0 discriminator 1
 6104 00a2 7B68     		ldr	r3, [r7, #4]
 6105 00a4 1B68     		ldr	r3, [r3]
 6106 00a6 1A6A     		ldr	r2, [r3, #32]
 6107 00a8 40F24443 		movw	r3, #1092
 6108 00ac 1340     		ands	r3, r3, r2
 6109 00ae 002B     		cmp	r3, #0
 6110 00b0 07D1     		bne	.L330
 6111              		.loc 1 2778 0 discriminator 2
 6112 00b2 7B68     		ldr	r3, [r7, #4]
 6113 00b4 1B68     		ldr	r3, [r3]
 6114 00b6 7A68     		ldr	r2, [r7, #4]
 6115 00b8 1268     		ldr	r2, [r2]
 6116 00ba 1268     		ldr	r2, [r2]
 6117 00bc 22F00102 		bic	r2, r2, #1
 6118 00c0 1A60     		str	r2, [r3]
 6119              	.L330:
2779:Drivers/STM32F4xx_HAL_Driver/Src/stm32f4xx_hal_tim.c ****   
2780:Drivers/STM32F4xx_HAL_Driver/Src/stm32f4xx_hal_tim.c ****   /* Change the htim state */
2781:Drivers/STM32F4xx_HAL_Driver/Src/stm32f4xx_hal_tim.c ****   htim->State = HAL_TIM_STATE_READY;
 6120              		.loc 1 2781 0 is_stmt 1
 6121 00c2 7B68     		ldr	r3, [r7, #4]
 6122 00c4 0122     		movs	r2, #1
 6123 00c6 83F83920 		strb	r2, [r3, #57]
2782:Drivers/STM32F4xx_HAL_Driver/Src/stm32f4xx_hal_tim.c ****   
2783:Drivers/STM32F4xx_HAL_Driver/Src/stm32f4xx_hal_tim.c ****   /* Return function status */
2784:Drivers/STM32F4xx_HAL_Driver/Src/stm32f4xx_hal_tim.c ****   return HAL_OK;
 6124              		.loc 1 2784 0
 6125 00ca 0023     		movs	r3, #0
2785:Drivers/STM32F4xx_HAL_Driver/Src/stm32f4xx_hal_tim.c **** }
 6126              		.loc 1 2785 0
 6127 00cc 1846     		mov	r0, r3
 6128 00ce 0837     		adds	r7, r7, #8
 6129              	.LCFI305:
 6130              		.cfi_def_cfa_offset 8
 6131 00d0 BD46     		mov	sp, r7
 6132              	.LCFI306:
 6133              		.cfi_def_cfa_register 13
 6134              		@ sp needed
 6135 00d2 80BD     		pop	{r7, pc}
 6136              		.cfi_endproc
 6137              	.LFE181:
 6139              		.section	.text.HAL_TIM_IRQHandler,"ax",%progbits
 6140              		.align	1
ARM GAS  /tmp/cc4tSQEQ.s 			page 156


 6141              		.global	HAL_TIM_IRQHandler
 6142              		.syntax unified
 6143              		.thumb
 6144              		.thumb_func
 6145              		.fpu fpv4-sp-d16
 6147              	HAL_TIM_IRQHandler:
 6148              	.LFB182:
2786:Drivers/STM32F4xx_HAL_Driver/Src/stm32f4xx_hal_tim.c **** /**
2787:Drivers/STM32F4xx_HAL_Driver/Src/stm32f4xx_hal_tim.c ****   * @}
2788:Drivers/STM32F4xx_HAL_Driver/Src/stm32f4xx_hal_tim.c ****   */
2789:Drivers/STM32F4xx_HAL_Driver/Src/stm32f4xx_hal_tim.c ****   
2790:Drivers/STM32F4xx_HAL_Driver/Src/stm32f4xx_hal_tim.c **** /** @defgroup TIM_Exported_Functions_Group7 TIM IRQ handler management 
2791:Drivers/STM32F4xx_HAL_Driver/Src/stm32f4xx_hal_tim.c ****  *  @brief    IRQ handler management 
2792:Drivers/STM32F4xx_HAL_Driver/Src/stm32f4xx_hal_tim.c ****  *
2793:Drivers/STM32F4xx_HAL_Driver/Src/stm32f4xx_hal_tim.c **** @verbatim   
2794:Drivers/STM32F4xx_HAL_Driver/Src/stm32f4xx_hal_tim.c ****   ==============================================================================
2795:Drivers/STM32F4xx_HAL_Driver/Src/stm32f4xx_hal_tim.c ****                         ##### IRQ handler management #####
2796:Drivers/STM32F4xx_HAL_Driver/Src/stm32f4xx_hal_tim.c ****   ==============================================================================  
2797:Drivers/STM32F4xx_HAL_Driver/Src/stm32f4xx_hal_tim.c ****   [..]  
2798:Drivers/STM32F4xx_HAL_Driver/Src/stm32f4xx_hal_tim.c ****     This section provides Timer IRQ handler function.
2799:Drivers/STM32F4xx_HAL_Driver/Src/stm32f4xx_hal_tim.c ****                
2800:Drivers/STM32F4xx_HAL_Driver/Src/stm32f4xx_hal_tim.c **** @endverbatim
2801:Drivers/STM32F4xx_HAL_Driver/Src/stm32f4xx_hal_tim.c ****   * @{
2802:Drivers/STM32F4xx_HAL_Driver/Src/stm32f4xx_hal_tim.c ****   */
2803:Drivers/STM32F4xx_HAL_Driver/Src/stm32f4xx_hal_tim.c **** /**
2804:Drivers/STM32F4xx_HAL_Driver/Src/stm32f4xx_hal_tim.c ****   * @brief  This function handles TIM interrupts requests.
2805:Drivers/STM32F4xx_HAL_Driver/Src/stm32f4xx_hal_tim.c ****   * @param  htim pointer to a TIM_HandleTypeDef structure that contains
2806:Drivers/STM32F4xx_HAL_Driver/Src/stm32f4xx_hal_tim.c ****   *                the configuration information for TIM module.
2807:Drivers/STM32F4xx_HAL_Driver/Src/stm32f4xx_hal_tim.c ****   * @retval None
2808:Drivers/STM32F4xx_HAL_Driver/Src/stm32f4xx_hal_tim.c ****   */
2809:Drivers/STM32F4xx_HAL_Driver/Src/stm32f4xx_hal_tim.c **** void HAL_TIM_IRQHandler(TIM_HandleTypeDef *htim)
2810:Drivers/STM32F4xx_HAL_Driver/Src/stm32f4xx_hal_tim.c **** {
 6149              		.loc 1 2810 0
 6150              		.cfi_startproc
 6151              		@ args = 0, pretend = 0, frame = 8
 6152              		@ frame_needed = 1, uses_anonymous_args = 0
 6153 0000 80B5     		push	{r7, lr}
 6154              	.LCFI307:
 6155              		.cfi_def_cfa_offset 8
 6156              		.cfi_offset 7, -8
 6157              		.cfi_offset 14, -4
 6158 0002 82B0     		sub	sp, sp, #8
 6159              	.LCFI308:
 6160              		.cfi_def_cfa_offset 16
 6161 0004 00AF     		add	r7, sp, #0
 6162              	.LCFI309:
 6163              		.cfi_def_cfa_register 7
 6164 0006 7860     		str	r0, [r7, #4]
2811:Drivers/STM32F4xx_HAL_Driver/Src/stm32f4xx_hal_tim.c ****   /* Capture compare 1 event */
2812:Drivers/STM32F4xx_HAL_Driver/Src/stm32f4xx_hal_tim.c ****   if(__HAL_TIM_GET_FLAG(htim, TIM_FLAG_CC1) != RESET)
 6165              		.loc 1 2812 0
 6166 0008 7B68     		ldr	r3, [r7, #4]
 6167 000a 1B68     		ldr	r3, [r3]
 6168 000c 1B69     		ldr	r3, [r3, #16]
 6169 000e 03F00203 		and	r3, r3, #2
 6170 0012 022B     		cmp	r3, #2
 6171 0014 22D1     		bne	.L333
ARM GAS  /tmp/cc4tSQEQ.s 			page 157


2813:Drivers/STM32F4xx_HAL_Driver/Src/stm32f4xx_hal_tim.c ****   {
2814:Drivers/STM32F4xx_HAL_Driver/Src/stm32f4xx_hal_tim.c ****     if(__HAL_TIM_GET_IT_SOURCE(htim, TIM_IT_CC1) !=RESET)
 6172              		.loc 1 2814 0
 6173 0016 7B68     		ldr	r3, [r7, #4]
 6174 0018 1B68     		ldr	r3, [r3]
 6175 001a DB68     		ldr	r3, [r3, #12]
 6176 001c 03F00203 		and	r3, r3, #2
 6177 0020 022B     		cmp	r3, #2
 6178 0022 1BD1     		bne	.L333
2815:Drivers/STM32F4xx_HAL_Driver/Src/stm32f4xx_hal_tim.c ****     {
2816:Drivers/STM32F4xx_HAL_Driver/Src/stm32f4xx_hal_tim.c ****       {
2817:Drivers/STM32F4xx_HAL_Driver/Src/stm32f4xx_hal_tim.c ****         __HAL_TIM_CLEAR_IT(htim, TIM_IT_CC1);
 6179              		.loc 1 2817 0
 6180 0024 7B68     		ldr	r3, [r7, #4]
 6181 0026 1B68     		ldr	r3, [r3]
 6182 0028 6FF00202 		mvn	r2, #2
 6183 002c 1A61     		str	r2, [r3, #16]
2818:Drivers/STM32F4xx_HAL_Driver/Src/stm32f4xx_hal_tim.c ****         htim->Channel = HAL_TIM_ACTIVE_CHANNEL_1;
 6184              		.loc 1 2818 0
 6185 002e 7B68     		ldr	r3, [r7, #4]
 6186 0030 0122     		movs	r2, #1
 6187 0032 1A76     		strb	r2, [r3, #24]
2819:Drivers/STM32F4xx_HAL_Driver/Src/stm32f4xx_hal_tim.c ****         
2820:Drivers/STM32F4xx_HAL_Driver/Src/stm32f4xx_hal_tim.c ****         /* Input capture event */
2821:Drivers/STM32F4xx_HAL_Driver/Src/stm32f4xx_hal_tim.c ****         if((htim->Instance->CCMR1 & TIM_CCMR1_CC1S) != 0x00U)
 6188              		.loc 1 2821 0
 6189 0034 7B68     		ldr	r3, [r7, #4]
 6190 0036 1B68     		ldr	r3, [r3]
 6191 0038 9B69     		ldr	r3, [r3, #24]
 6192 003a 03F00303 		and	r3, r3, #3
 6193 003e 002B     		cmp	r3, #0
 6194 0040 03D0     		beq	.L334
2822:Drivers/STM32F4xx_HAL_Driver/Src/stm32f4xx_hal_tim.c ****         {
2823:Drivers/STM32F4xx_HAL_Driver/Src/stm32f4xx_hal_tim.c ****           HAL_TIM_IC_CaptureCallback(htim);
 6195              		.loc 1 2823 0
 6196 0042 7868     		ldr	r0, [r7, #4]
 6197 0044 FFF7FEFF 		bl	HAL_TIM_IC_CaptureCallback
 6198 0048 05E0     		b	.L335
 6199              	.L334:
2824:Drivers/STM32F4xx_HAL_Driver/Src/stm32f4xx_hal_tim.c ****         }
2825:Drivers/STM32F4xx_HAL_Driver/Src/stm32f4xx_hal_tim.c ****         /* Output compare event */
2826:Drivers/STM32F4xx_HAL_Driver/Src/stm32f4xx_hal_tim.c ****         else
2827:Drivers/STM32F4xx_HAL_Driver/Src/stm32f4xx_hal_tim.c ****         {
2828:Drivers/STM32F4xx_HAL_Driver/Src/stm32f4xx_hal_tim.c ****           HAL_TIM_OC_DelayElapsedCallback(htim);
 6200              		.loc 1 2828 0
 6201 004a 7868     		ldr	r0, [r7, #4]
 6202 004c FFF7FEFF 		bl	HAL_TIM_OC_DelayElapsedCallback
2829:Drivers/STM32F4xx_HAL_Driver/Src/stm32f4xx_hal_tim.c ****           HAL_TIM_PWM_PulseFinishedCallback(htim);
 6203              		.loc 1 2829 0
 6204 0050 7868     		ldr	r0, [r7, #4]
 6205 0052 FFF7FEFF 		bl	HAL_TIM_PWM_PulseFinishedCallback
 6206              	.L335:
2830:Drivers/STM32F4xx_HAL_Driver/Src/stm32f4xx_hal_tim.c ****         }
2831:Drivers/STM32F4xx_HAL_Driver/Src/stm32f4xx_hal_tim.c ****         htim->Channel = HAL_TIM_ACTIVE_CHANNEL_CLEARED;
 6207              		.loc 1 2831 0
 6208 0056 7B68     		ldr	r3, [r7, #4]
 6209 0058 0022     		movs	r2, #0
ARM GAS  /tmp/cc4tSQEQ.s 			page 158


 6210 005a 1A76     		strb	r2, [r3, #24]
 6211              	.L333:
2832:Drivers/STM32F4xx_HAL_Driver/Src/stm32f4xx_hal_tim.c ****       }
2833:Drivers/STM32F4xx_HAL_Driver/Src/stm32f4xx_hal_tim.c ****     }
2834:Drivers/STM32F4xx_HAL_Driver/Src/stm32f4xx_hal_tim.c ****   }
2835:Drivers/STM32F4xx_HAL_Driver/Src/stm32f4xx_hal_tim.c ****   /* Capture compare 2 event */
2836:Drivers/STM32F4xx_HAL_Driver/Src/stm32f4xx_hal_tim.c ****   if(__HAL_TIM_GET_FLAG(htim, TIM_FLAG_CC2) != RESET)
 6212              		.loc 1 2836 0
 6213 005c 7B68     		ldr	r3, [r7, #4]
 6214 005e 1B68     		ldr	r3, [r3]
 6215 0060 1B69     		ldr	r3, [r3, #16]
 6216 0062 03F00403 		and	r3, r3, #4
 6217 0066 042B     		cmp	r3, #4
 6218 0068 22D1     		bne	.L336
2837:Drivers/STM32F4xx_HAL_Driver/Src/stm32f4xx_hal_tim.c ****   {
2838:Drivers/STM32F4xx_HAL_Driver/Src/stm32f4xx_hal_tim.c ****     if(__HAL_TIM_GET_IT_SOURCE(htim, TIM_IT_CC2) !=RESET)
 6219              		.loc 1 2838 0
 6220 006a 7B68     		ldr	r3, [r7, #4]
 6221 006c 1B68     		ldr	r3, [r3]
 6222 006e DB68     		ldr	r3, [r3, #12]
 6223 0070 03F00403 		and	r3, r3, #4
 6224 0074 042B     		cmp	r3, #4
 6225 0076 1BD1     		bne	.L336
2839:Drivers/STM32F4xx_HAL_Driver/Src/stm32f4xx_hal_tim.c ****     {
2840:Drivers/STM32F4xx_HAL_Driver/Src/stm32f4xx_hal_tim.c ****       __HAL_TIM_CLEAR_IT(htim, TIM_IT_CC2);
 6226              		.loc 1 2840 0
 6227 0078 7B68     		ldr	r3, [r7, #4]
 6228 007a 1B68     		ldr	r3, [r3]
 6229 007c 6FF00402 		mvn	r2, #4
 6230 0080 1A61     		str	r2, [r3, #16]
2841:Drivers/STM32F4xx_HAL_Driver/Src/stm32f4xx_hal_tim.c ****       htim->Channel = HAL_TIM_ACTIVE_CHANNEL_2;
 6231              		.loc 1 2841 0
 6232 0082 7B68     		ldr	r3, [r7, #4]
 6233 0084 0222     		movs	r2, #2
 6234 0086 1A76     		strb	r2, [r3, #24]
2842:Drivers/STM32F4xx_HAL_Driver/Src/stm32f4xx_hal_tim.c ****       /* Input capture event */
2843:Drivers/STM32F4xx_HAL_Driver/Src/stm32f4xx_hal_tim.c ****       if((htim->Instance->CCMR1 & TIM_CCMR1_CC2S) != 0x00U)
 6235              		.loc 1 2843 0
 6236 0088 7B68     		ldr	r3, [r7, #4]
 6237 008a 1B68     		ldr	r3, [r3]
 6238 008c 9B69     		ldr	r3, [r3, #24]
 6239 008e 03F44073 		and	r3, r3, #768
 6240 0092 002B     		cmp	r3, #0
 6241 0094 03D0     		beq	.L337
2844:Drivers/STM32F4xx_HAL_Driver/Src/stm32f4xx_hal_tim.c ****       {          
2845:Drivers/STM32F4xx_HAL_Driver/Src/stm32f4xx_hal_tim.c ****         HAL_TIM_IC_CaptureCallback(htim);
 6242              		.loc 1 2845 0
 6243 0096 7868     		ldr	r0, [r7, #4]
 6244 0098 FFF7FEFF 		bl	HAL_TIM_IC_CaptureCallback
 6245 009c 05E0     		b	.L338
 6246              	.L337:
2846:Drivers/STM32F4xx_HAL_Driver/Src/stm32f4xx_hal_tim.c ****       }
2847:Drivers/STM32F4xx_HAL_Driver/Src/stm32f4xx_hal_tim.c ****       /* Output compare event */
2848:Drivers/STM32F4xx_HAL_Driver/Src/stm32f4xx_hal_tim.c ****       else
2849:Drivers/STM32F4xx_HAL_Driver/Src/stm32f4xx_hal_tim.c ****       {
2850:Drivers/STM32F4xx_HAL_Driver/Src/stm32f4xx_hal_tim.c ****         HAL_TIM_OC_DelayElapsedCallback(htim);
 6247              		.loc 1 2850 0
ARM GAS  /tmp/cc4tSQEQ.s 			page 159


 6248 009e 7868     		ldr	r0, [r7, #4]
 6249 00a0 FFF7FEFF 		bl	HAL_TIM_OC_DelayElapsedCallback
2851:Drivers/STM32F4xx_HAL_Driver/Src/stm32f4xx_hal_tim.c ****         HAL_TIM_PWM_PulseFinishedCallback(htim);
 6250              		.loc 1 2851 0
 6251 00a4 7868     		ldr	r0, [r7, #4]
 6252 00a6 FFF7FEFF 		bl	HAL_TIM_PWM_PulseFinishedCallback
 6253              	.L338:
2852:Drivers/STM32F4xx_HAL_Driver/Src/stm32f4xx_hal_tim.c ****       }
2853:Drivers/STM32F4xx_HAL_Driver/Src/stm32f4xx_hal_tim.c ****       htim->Channel = HAL_TIM_ACTIVE_CHANNEL_CLEARED;
 6254              		.loc 1 2853 0
 6255 00aa 7B68     		ldr	r3, [r7, #4]
 6256 00ac 0022     		movs	r2, #0
 6257 00ae 1A76     		strb	r2, [r3, #24]
 6258              	.L336:
2854:Drivers/STM32F4xx_HAL_Driver/Src/stm32f4xx_hal_tim.c ****     }
2855:Drivers/STM32F4xx_HAL_Driver/Src/stm32f4xx_hal_tim.c ****   }
2856:Drivers/STM32F4xx_HAL_Driver/Src/stm32f4xx_hal_tim.c ****   /* Capture compare 3 event */
2857:Drivers/STM32F4xx_HAL_Driver/Src/stm32f4xx_hal_tim.c ****   if(__HAL_TIM_GET_FLAG(htim, TIM_FLAG_CC3) != RESET)
 6259              		.loc 1 2857 0
 6260 00b0 7B68     		ldr	r3, [r7, #4]
 6261 00b2 1B68     		ldr	r3, [r3]
 6262 00b4 1B69     		ldr	r3, [r3, #16]
 6263 00b6 03F00803 		and	r3, r3, #8
 6264 00ba 082B     		cmp	r3, #8
 6265 00bc 22D1     		bne	.L339
2858:Drivers/STM32F4xx_HAL_Driver/Src/stm32f4xx_hal_tim.c ****   {
2859:Drivers/STM32F4xx_HAL_Driver/Src/stm32f4xx_hal_tim.c ****     if(__HAL_TIM_GET_IT_SOURCE(htim, TIM_IT_CC3) !=RESET)
 6266              		.loc 1 2859 0
 6267 00be 7B68     		ldr	r3, [r7, #4]
 6268 00c0 1B68     		ldr	r3, [r3]
 6269 00c2 DB68     		ldr	r3, [r3, #12]
 6270 00c4 03F00803 		and	r3, r3, #8
 6271 00c8 082B     		cmp	r3, #8
 6272 00ca 1BD1     		bne	.L339
2860:Drivers/STM32F4xx_HAL_Driver/Src/stm32f4xx_hal_tim.c ****     {
2861:Drivers/STM32F4xx_HAL_Driver/Src/stm32f4xx_hal_tim.c ****       __HAL_TIM_CLEAR_IT(htim, TIM_IT_CC3);
 6273              		.loc 1 2861 0
 6274 00cc 7B68     		ldr	r3, [r7, #4]
 6275 00ce 1B68     		ldr	r3, [r3]
 6276 00d0 6FF00802 		mvn	r2, #8
 6277 00d4 1A61     		str	r2, [r3, #16]
2862:Drivers/STM32F4xx_HAL_Driver/Src/stm32f4xx_hal_tim.c ****       htim->Channel = HAL_TIM_ACTIVE_CHANNEL_3;
 6278              		.loc 1 2862 0
 6279 00d6 7B68     		ldr	r3, [r7, #4]
 6280 00d8 0422     		movs	r2, #4
 6281 00da 1A76     		strb	r2, [r3, #24]
2863:Drivers/STM32F4xx_HAL_Driver/Src/stm32f4xx_hal_tim.c ****       /* Input capture event */
2864:Drivers/STM32F4xx_HAL_Driver/Src/stm32f4xx_hal_tim.c ****       if((htim->Instance->CCMR2 & TIM_CCMR2_CC3S) != 0x00U)
 6282              		.loc 1 2864 0
 6283 00dc 7B68     		ldr	r3, [r7, #4]
 6284 00de 1B68     		ldr	r3, [r3]
 6285 00e0 DB69     		ldr	r3, [r3, #28]
 6286 00e2 03F00303 		and	r3, r3, #3
 6287 00e6 002B     		cmp	r3, #0
 6288 00e8 03D0     		beq	.L340
2865:Drivers/STM32F4xx_HAL_Driver/Src/stm32f4xx_hal_tim.c ****       {          
2866:Drivers/STM32F4xx_HAL_Driver/Src/stm32f4xx_hal_tim.c ****         HAL_TIM_IC_CaptureCallback(htim);
ARM GAS  /tmp/cc4tSQEQ.s 			page 160


 6289              		.loc 1 2866 0
 6290 00ea 7868     		ldr	r0, [r7, #4]
 6291 00ec FFF7FEFF 		bl	HAL_TIM_IC_CaptureCallback
 6292 00f0 05E0     		b	.L341
 6293              	.L340:
2867:Drivers/STM32F4xx_HAL_Driver/Src/stm32f4xx_hal_tim.c ****       }
2868:Drivers/STM32F4xx_HAL_Driver/Src/stm32f4xx_hal_tim.c ****       /* Output compare event */
2869:Drivers/STM32F4xx_HAL_Driver/Src/stm32f4xx_hal_tim.c ****       else
2870:Drivers/STM32F4xx_HAL_Driver/Src/stm32f4xx_hal_tim.c ****       {
2871:Drivers/STM32F4xx_HAL_Driver/Src/stm32f4xx_hal_tim.c ****         HAL_TIM_OC_DelayElapsedCallback(htim);
 6294              		.loc 1 2871 0
 6295 00f2 7868     		ldr	r0, [r7, #4]
 6296 00f4 FFF7FEFF 		bl	HAL_TIM_OC_DelayElapsedCallback
2872:Drivers/STM32F4xx_HAL_Driver/Src/stm32f4xx_hal_tim.c ****         HAL_TIM_PWM_PulseFinishedCallback(htim); 
 6297              		.loc 1 2872 0
 6298 00f8 7868     		ldr	r0, [r7, #4]
 6299 00fa FFF7FEFF 		bl	HAL_TIM_PWM_PulseFinishedCallback
 6300              	.L341:
2873:Drivers/STM32F4xx_HAL_Driver/Src/stm32f4xx_hal_tim.c ****       }
2874:Drivers/STM32F4xx_HAL_Driver/Src/stm32f4xx_hal_tim.c ****       htim->Channel = HAL_TIM_ACTIVE_CHANNEL_CLEARED;
 6301              		.loc 1 2874 0
 6302 00fe 7B68     		ldr	r3, [r7, #4]
 6303 0100 0022     		movs	r2, #0
 6304 0102 1A76     		strb	r2, [r3, #24]
 6305              	.L339:
2875:Drivers/STM32F4xx_HAL_Driver/Src/stm32f4xx_hal_tim.c ****     }
2876:Drivers/STM32F4xx_HAL_Driver/Src/stm32f4xx_hal_tim.c ****   }
2877:Drivers/STM32F4xx_HAL_Driver/Src/stm32f4xx_hal_tim.c ****   /* Capture compare 4 event */
2878:Drivers/STM32F4xx_HAL_Driver/Src/stm32f4xx_hal_tim.c ****   if(__HAL_TIM_GET_FLAG(htim, TIM_FLAG_CC4) != RESET)
 6306              		.loc 1 2878 0
 6307 0104 7B68     		ldr	r3, [r7, #4]
 6308 0106 1B68     		ldr	r3, [r3]
 6309 0108 1B69     		ldr	r3, [r3, #16]
 6310 010a 03F01003 		and	r3, r3, #16
 6311 010e 102B     		cmp	r3, #16
 6312 0110 22D1     		bne	.L342
2879:Drivers/STM32F4xx_HAL_Driver/Src/stm32f4xx_hal_tim.c ****   {
2880:Drivers/STM32F4xx_HAL_Driver/Src/stm32f4xx_hal_tim.c ****     if(__HAL_TIM_GET_IT_SOURCE(htim, TIM_IT_CC4) !=RESET)
 6313              		.loc 1 2880 0
 6314 0112 7B68     		ldr	r3, [r7, #4]
 6315 0114 1B68     		ldr	r3, [r3]
 6316 0116 DB68     		ldr	r3, [r3, #12]
 6317 0118 03F01003 		and	r3, r3, #16
 6318 011c 102B     		cmp	r3, #16
 6319 011e 1BD1     		bne	.L342
2881:Drivers/STM32F4xx_HAL_Driver/Src/stm32f4xx_hal_tim.c ****     {
2882:Drivers/STM32F4xx_HAL_Driver/Src/stm32f4xx_hal_tim.c ****       __HAL_TIM_CLEAR_IT(htim, TIM_IT_CC4);
 6320              		.loc 1 2882 0
 6321 0120 7B68     		ldr	r3, [r7, #4]
 6322 0122 1B68     		ldr	r3, [r3]
 6323 0124 6FF01002 		mvn	r2, #16
 6324 0128 1A61     		str	r2, [r3, #16]
2883:Drivers/STM32F4xx_HAL_Driver/Src/stm32f4xx_hal_tim.c ****       htim->Channel = HAL_TIM_ACTIVE_CHANNEL_4;
 6325              		.loc 1 2883 0
 6326 012a 7B68     		ldr	r3, [r7, #4]
 6327 012c 0822     		movs	r2, #8
 6328 012e 1A76     		strb	r2, [r3, #24]
ARM GAS  /tmp/cc4tSQEQ.s 			page 161


2884:Drivers/STM32F4xx_HAL_Driver/Src/stm32f4xx_hal_tim.c ****       /* Input capture event */
2885:Drivers/STM32F4xx_HAL_Driver/Src/stm32f4xx_hal_tim.c ****       if((htim->Instance->CCMR2 & TIM_CCMR2_CC4S) != 0x00U)
 6329              		.loc 1 2885 0
 6330 0130 7B68     		ldr	r3, [r7, #4]
 6331 0132 1B68     		ldr	r3, [r3]
 6332 0134 DB69     		ldr	r3, [r3, #28]
 6333 0136 03F44073 		and	r3, r3, #768
 6334 013a 002B     		cmp	r3, #0
 6335 013c 03D0     		beq	.L343
2886:Drivers/STM32F4xx_HAL_Driver/Src/stm32f4xx_hal_tim.c ****       {          
2887:Drivers/STM32F4xx_HAL_Driver/Src/stm32f4xx_hal_tim.c ****         HAL_TIM_IC_CaptureCallback(htim);
 6336              		.loc 1 2887 0
 6337 013e 7868     		ldr	r0, [r7, #4]
 6338 0140 FFF7FEFF 		bl	HAL_TIM_IC_CaptureCallback
 6339 0144 05E0     		b	.L344
 6340              	.L343:
2888:Drivers/STM32F4xx_HAL_Driver/Src/stm32f4xx_hal_tim.c ****       }
2889:Drivers/STM32F4xx_HAL_Driver/Src/stm32f4xx_hal_tim.c ****       /* Output compare event */
2890:Drivers/STM32F4xx_HAL_Driver/Src/stm32f4xx_hal_tim.c ****       else
2891:Drivers/STM32F4xx_HAL_Driver/Src/stm32f4xx_hal_tim.c ****       {
2892:Drivers/STM32F4xx_HAL_Driver/Src/stm32f4xx_hal_tim.c ****         HAL_TIM_OC_DelayElapsedCallback(htim);
 6341              		.loc 1 2892 0
 6342 0146 7868     		ldr	r0, [r7, #4]
 6343 0148 FFF7FEFF 		bl	HAL_TIM_OC_DelayElapsedCallback
2893:Drivers/STM32F4xx_HAL_Driver/Src/stm32f4xx_hal_tim.c ****         HAL_TIM_PWM_PulseFinishedCallback(htim);
 6344              		.loc 1 2893 0
 6345 014c 7868     		ldr	r0, [r7, #4]
 6346 014e FFF7FEFF 		bl	HAL_TIM_PWM_PulseFinishedCallback
 6347              	.L344:
2894:Drivers/STM32F4xx_HAL_Driver/Src/stm32f4xx_hal_tim.c ****       }
2895:Drivers/STM32F4xx_HAL_Driver/Src/stm32f4xx_hal_tim.c ****       htim->Channel = HAL_TIM_ACTIVE_CHANNEL_CLEARED;
 6348              		.loc 1 2895 0
 6349 0152 7B68     		ldr	r3, [r7, #4]
 6350 0154 0022     		movs	r2, #0
 6351 0156 1A76     		strb	r2, [r3, #24]
 6352              	.L342:
2896:Drivers/STM32F4xx_HAL_Driver/Src/stm32f4xx_hal_tim.c ****     }
2897:Drivers/STM32F4xx_HAL_Driver/Src/stm32f4xx_hal_tim.c ****   }
2898:Drivers/STM32F4xx_HAL_Driver/Src/stm32f4xx_hal_tim.c ****   /* TIM Update event */
2899:Drivers/STM32F4xx_HAL_Driver/Src/stm32f4xx_hal_tim.c ****   if(__HAL_TIM_GET_FLAG(htim, TIM_FLAG_UPDATE) != RESET)
 6353              		.loc 1 2899 0
 6354 0158 7B68     		ldr	r3, [r7, #4]
 6355 015a 1B68     		ldr	r3, [r3]
 6356 015c 1B69     		ldr	r3, [r3, #16]
 6357 015e 03F00103 		and	r3, r3, #1
 6358 0162 012B     		cmp	r3, #1
 6359 0164 0ED1     		bne	.L345
2900:Drivers/STM32F4xx_HAL_Driver/Src/stm32f4xx_hal_tim.c ****   {
2901:Drivers/STM32F4xx_HAL_Driver/Src/stm32f4xx_hal_tim.c ****     if(__HAL_TIM_GET_IT_SOURCE(htim, TIM_IT_UPDATE) !=RESET)
 6360              		.loc 1 2901 0
 6361 0166 7B68     		ldr	r3, [r7, #4]
 6362 0168 1B68     		ldr	r3, [r3]
 6363 016a DB68     		ldr	r3, [r3, #12]
 6364 016c 03F00103 		and	r3, r3, #1
 6365 0170 012B     		cmp	r3, #1
 6366 0172 07D1     		bne	.L345
2902:Drivers/STM32F4xx_HAL_Driver/Src/stm32f4xx_hal_tim.c ****     {
ARM GAS  /tmp/cc4tSQEQ.s 			page 162


2903:Drivers/STM32F4xx_HAL_Driver/Src/stm32f4xx_hal_tim.c ****       __HAL_TIM_CLEAR_IT(htim, TIM_IT_UPDATE);
 6367              		.loc 1 2903 0
 6368 0174 7B68     		ldr	r3, [r7, #4]
 6369 0176 1B68     		ldr	r3, [r3]
 6370 0178 6FF00102 		mvn	r2, #1
 6371 017c 1A61     		str	r2, [r3, #16]
2904:Drivers/STM32F4xx_HAL_Driver/Src/stm32f4xx_hal_tim.c ****       HAL_TIM_PeriodElapsedCallback(htim);
 6372              		.loc 1 2904 0
 6373 017e 7868     		ldr	r0, [r7, #4]
 6374 0180 FFF7FEFF 		bl	HAL_TIM_PeriodElapsedCallback
 6375              	.L345:
2905:Drivers/STM32F4xx_HAL_Driver/Src/stm32f4xx_hal_tim.c ****     }
2906:Drivers/STM32F4xx_HAL_Driver/Src/stm32f4xx_hal_tim.c ****   }
2907:Drivers/STM32F4xx_HAL_Driver/Src/stm32f4xx_hal_tim.c ****   /* TIM Break input event */
2908:Drivers/STM32F4xx_HAL_Driver/Src/stm32f4xx_hal_tim.c ****   if(__HAL_TIM_GET_FLAG(htim, TIM_FLAG_BREAK) != RESET)
 6376              		.loc 1 2908 0
 6377 0184 7B68     		ldr	r3, [r7, #4]
 6378 0186 1B68     		ldr	r3, [r3]
 6379 0188 1B69     		ldr	r3, [r3, #16]
 6380 018a 03F08003 		and	r3, r3, #128
 6381 018e 802B     		cmp	r3, #128
 6382 0190 0ED1     		bne	.L346
2909:Drivers/STM32F4xx_HAL_Driver/Src/stm32f4xx_hal_tim.c ****   {
2910:Drivers/STM32F4xx_HAL_Driver/Src/stm32f4xx_hal_tim.c ****     if(__HAL_TIM_GET_IT_SOURCE(htim, TIM_IT_BREAK) !=RESET)
 6383              		.loc 1 2910 0
 6384 0192 7B68     		ldr	r3, [r7, #4]
 6385 0194 1B68     		ldr	r3, [r3]
 6386 0196 DB68     		ldr	r3, [r3, #12]
 6387 0198 03F08003 		and	r3, r3, #128
 6388 019c 802B     		cmp	r3, #128
 6389 019e 07D1     		bne	.L346
2911:Drivers/STM32F4xx_HAL_Driver/Src/stm32f4xx_hal_tim.c ****     {
2912:Drivers/STM32F4xx_HAL_Driver/Src/stm32f4xx_hal_tim.c ****       __HAL_TIM_CLEAR_IT(htim, TIM_IT_BREAK);
 6390              		.loc 1 2912 0
 6391 01a0 7B68     		ldr	r3, [r7, #4]
 6392 01a2 1B68     		ldr	r3, [r3]
 6393 01a4 6FF08002 		mvn	r2, #128
 6394 01a8 1A61     		str	r2, [r3, #16]
2913:Drivers/STM32F4xx_HAL_Driver/Src/stm32f4xx_hal_tim.c ****       HAL_TIMEx_BreakCallback(htim);
 6395              		.loc 1 2913 0
 6396 01aa 7868     		ldr	r0, [r7, #4]
 6397 01ac FFF7FEFF 		bl	HAL_TIMEx_BreakCallback
 6398              	.L346:
2914:Drivers/STM32F4xx_HAL_Driver/Src/stm32f4xx_hal_tim.c ****     }
2915:Drivers/STM32F4xx_HAL_Driver/Src/stm32f4xx_hal_tim.c ****   }
2916:Drivers/STM32F4xx_HAL_Driver/Src/stm32f4xx_hal_tim.c ****   /* TIM Trigger detection event */
2917:Drivers/STM32F4xx_HAL_Driver/Src/stm32f4xx_hal_tim.c ****   if(__HAL_TIM_GET_FLAG(htim, TIM_FLAG_TRIGGER) != RESET)
 6399              		.loc 1 2917 0
 6400 01b0 7B68     		ldr	r3, [r7, #4]
 6401 01b2 1B68     		ldr	r3, [r3]
 6402 01b4 1B69     		ldr	r3, [r3, #16]
 6403 01b6 03F04003 		and	r3, r3, #64
 6404 01ba 402B     		cmp	r3, #64
 6405 01bc 0ED1     		bne	.L347
2918:Drivers/STM32F4xx_HAL_Driver/Src/stm32f4xx_hal_tim.c ****   {
2919:Drivers/STM32F4xx_HAL_Driver/Src/stm32f4xx_hal_tim.c ****     if(__HAL_TIM_GET_IT_SOURCE(htim, TIM_IT_TRIGGER) !=RESET)
 6406              		.loc 1 2919 0
ARM GAS  /tmp/cc4tSQEQ.s 			page 163


 6407 01be 7B68     		ldr	r3, [r7, #4]
 6408 01c0 1B68     		ldr	r3, [r3]
 6409 01c2 DB68     		ldr	r3, [r3, #12]
 6410 01c4 03F04003 		and	r3, r3, #64
 6411 01c8 402B     		cmp	r3, #64
 6412 01ca 07D1     		bne	.L347
2920:Drivers/STM32F4xx_HAL_Driver/Src/stm32f4xx_hal_tim.c ****     {
2921:Drivers/STM32F4xx_HAL_Driver/Src/stm32f4xx_hal_tim.c ****       __HAL_TIM_CLEAR_IT(htim, TIM_IT_TRIGGER);
 6413              		.loc 1 2921 0
 6414 01cc 7B68     		ldr	r3, [r7, #4]
 6415 01ce 1B68     		ldr	r3, [r3]
 6416 01d0 6FF04002 		mvn	r2, #64
 6417 01d4 1A61     		str	r2, [r3, #16]
2922:Drivers/STM32F4xx_HAL_Driver/Src/stm32f4xx_hal_tim.c ****       HAL_TIM_TriggerCallback(htim);
 6418              		.loc 1 2922 0
 6419 01d6 7868     		ldr	r0, [r7, #4]
 6420 01d8 FFF7FEFF 		bl	HAL_TIM_TriggerCallback
 6421              	.L347:
2923:Drivers/STM32F4xx_HAL_Driver/Src/stm32f4xx_hal_tim.c ****     }
2924:Drivers/STM32F4xx_HAL_Driver/Src/stm32f4xx_hal_tim.c ****   }
2925:Drivers/STM32F4xx_HAL_Driver/Src/stm32f4xx_hal_tim.c ****   /* TIM commutation event */
2926:Drivers/STM32F4xx_HAL_Driver/Src/stm32f4xx_hal_tim.c ****   if(__HAL_TIM_GET_FLAG(htim, TIM_FLAG_COM) != RESET)
 6422              		.loc 1 2926 0
 6423 01dc 7B68     		ldr	r3, [r7, #4]
 6424 01de 1B68     		ldr	r3, [r3]
 6425 01e0 1B69     		ldr	r3, [r3, #16]
 6426 01e2 03F02003 		and	r3, r3, #32
 6427 01e6 202B     		cmp	r3, #32
 6428 01e8 0ED1     		bne	.L349
2927:Drivers/STM32F4xx_HAL_Driver/Src/stm32f4xx_hal_tim.c ****   {
2928:Drivers/STM32F4xx_HAL_Driver/Src/stm32f4xx_hal_tim.c ****     if(__HAL_TIM_GET_IT_SOURCE(htim, TIM_IT_COM) !=RESET)
 6429              		.loc 1 2928 0
 6430 01ea 7B68     		ldr	r3, [r7, #4]
 6431 01ec 1B68     		ldr	r3, [r3]
 6432 01ee DB68     		ldr	r3, [r3, #12]
 6433 01f0 03F02003 		and	r3, r3, #32
 6434 01f4 202B     		cmp	r3, #32
 6435 01f6 07D1     		bne	.L349
2929:Drivers/STM32F4xx_HAL_Driver/Src/stm32f4xx_hal_tim.c ****     {
2930:Drivers/STM32F4xx_HAL_Driver/Src/stm32f4xx_hal_tim.c ****       __HAL_TIM_CLEAR_IT(htim, TIM_FLAG_COM);
 6436              		.loc 1 2930 0
 6437 01f8 7B68     		ldr	r3, [r7, #4]
 6438 01fa 1B68     		ldr	r3, [r3]
 6439 01fc 6FF02002 		mvn	r2, #32
 6440 0200 1A61     		str	r2, [r3, #16]
2931:Drivers/STM32F4xx_HAL_Driver/Src/stm32f4xx_hal_tim.c ****       HAL_TIMEx_CommutationCallback(htim);
 6441              		.loc 1 2931 0
 6442 0202 7868     		ldr	r0, [r7, #4]
 6443 0204 FFF7FEFF 		bl	HAL_TIMEx_CommutationCallback
 6444              	.L349:
2932:Drivers/STM32F4xx_HAL_Driver/Src/stm32f4xx_hal_tim.c ****     }
2933:Drivers/STM32F4xx_HAL_Driver/Src/stm32f4xx_hal_tim.c ****   }
2934:Drivers/STM32F4xx_HAL_Driver/Src/stm32f4xx_hal_tim.c **** }
 6445              		.loc 1 2934 0
 6446 0208 00BF     		nop
 6447 020a 0837     		adds	r7, r7, #8
 6448              	.LCFI310:
ARM GAS  /tmp/cc4tSQEQ.s 			page 164


 6449              		.cfi_def_cfa_offset 8
 6450 020c BD46     		mov	sp, r7
 6451              	.LCFI311:
 6452              		.cfi_def_cfa_register 13
 6453              		@ sp needed
 6454 020e 80BD     		pop	{r7, pc}
 6455              		.cfi_endproc
 6456              	.LFE182:
 6458              		.section	.text.HAL_TIM_OC_ConfigChannel,"ax",%progbits
 6459              		.align	1
 6460              		.global	HAL_TIM_OC_ConfigChannel
 6461              		.syntax unified
 6462              		.thumb
 6463              		.thumb_func
 6464              		.fpu fpv4-sp-d16
 6466              	HAL_TIM_OC_ConfigChannel:
 6467              	.LFB183:
2935:Drivers/STM32F4xx_HAL_Driver/Src/stm32f4xx_hal_tim.c **** /**
2936:Drivers/STM32F4xx_HAL_Driver/Src/stm32f4xx_hal_tim.c ****   * @}
2937:Drivers/STM32F4xx_HAL_Driver/Src/stm32f4xx_hal_tim.c ****   */
2938:Drivers/STM32F4xx_HAL_Driver/Src/stm32f4xx_hal_tim.c ****   
2939:Drivers/STM32F4xx_HAL_Driver/Src/stm32f4xx_hal_tim.c **** /** @defgroup TIM_Exported_Functions_Group8 Peripheral Control functions
2940:Drivers/STM32F4xx_HAL_Driver/Src/stm32f4xx_hal_tim.c ****  *  @brief   	Peripheral Control functions 
2941:Drivers/STM32F4xx_HAL_Driver/Src/stm32f4xx_hal_tim.c ****  *
2942:Drivers/STM32F4xx_HAL_Driver/Src/stm32f4xx_hal_tim.c **** @verbatim   
2943:Drivers/STM32F4xx_HAL_Driver/Src/stm32f4xx_hal_tim.c ****   ==============================================================================
2944:Drivers/STM32F4xx_HAL_Driver/Src/stm32f4xx_hal_tim.c ****                    ##### Peripheral Control functions #####
2945:Drivers/STM32F4xx_HAL_Driver/Src/stm32f4xx_hal_tim.c ****   ==============================================================================  
2946:Drivers/STM32F4xx_HAL_Driver/Src/stm32f4xx_hal_tim.c ****  [..] 
2947:Drivers/STM32F4xx_HAL_Driver/Src/stm32f4xx_hal_tim.c ****    This section provides functions allowing to:
2948:Drivers/STM32F4xx_HAL_Driver/Src/stm32f4xx_hal_tim.c ****    (+) Configure The Input Output channels for OC, PWM, IC or One Pulse mode. 
2949:Drivers/STM32F4xx_HAL_Driver/Src/stm32f4xx_hal_tim.c ****    (+) Configure External Clock source.
2950:Drivers/STM32F4xx_HAL_Driver/Src/stm32f4xx_hal_tim.c ****    (+) Configure Complementary channels, break features and dead time.
2951:Drivers/STM32F4xx_HAL_Driver/Src/stm32f4xx_hal_tim.c ****    (+) Configure Master and the Slave synchronization.
2952:Drivers/STM32F4xx_HAL_Driver/Src/stm32f4xx_hal_tim.c ****    (+) Configure the DMA Burst Mode.
2953:Drivers/STM32F4xx_HAL_Driver/Src/stm32f4xx_hal_tim.c ****       
2954:Drivers/STM32F4xx_HAL_Driver/Src/stm32f4xx_hal_tim.c **** @endverbatim
2955:Drivers/STM32F4xx_HAL_Driver/Src/stm32f4xx_hal_tim.c ****   * @{
2956:Drivers/STM32F4xx_HAL_Driver/Src/stm32f4xx_hal_tim.c ****   */
2957:Drivers/STM32F4xx_HAL_Driver/Src/stm32f4xx_hal_tim.c ****   
2958:Drivers/STM32F4xx_HAL_Driver/Src/stm32f4xx_hal_tim.c **** /**
2959:Drivers/STM32F4xx_HAL_Driver/Src/stm32f4xx_hal_tim.c ****   * @brief  Initializes the TIM Output Compare Channels according to the specified
2960:Drivers/STM32F4xx_HAL_Driver/Src/stm32f4xx_hal_tim.c ****   *         parameters in the TIM_OC_InitTypeDef.
2961:Drivers/STM32F4xx_HAL_Driver/Src/stm32f4xx_hal_tim.c ****   * @param  htim pointer to a TIM_HandleTypeDef structure that contains
2962:Drivers/STM32F4xx_HAL_Driver/Src/stm32f4xx_hal_tim.c ****   *                the configuration information for TIM module.
2963:Drivers/STM32F4xx_HAL_Driver/Src/stm32f4xx_hal_tim.c ****   * @param  sConfig TIM Output Compare configuration structure
2964:Drivers/STM32F4xx_HAL_Driver/Src/stm32f4xx_hal_tim.c ****   * @param  Channel TIM Channels to be enabled.
2965:Drivers/STM32F4xx_HAL_Driver/Src/stm32f4xx_hal_tim.c ****   *          This parameter can be one of the following values:
2966:Drivers/STM32F4xx_HAL_Driver/Src/stm32f4xx_hal_tim.c ****   *            @arg TIM_CHANNEL_1: TIM Channel 1 selected
2967:Drivers/STM32F4xx_HAL_Driver/Src/stm32f4xx_hal_tim.c ****   *            @arg TIM_CHANNEL_2: TIM Channel 2 selected
2968:Drivers/STM32F4xx_HAL_Driver/Src/stm32f4xx_hal_tim.c ****   *            @arg TIM_CHANNEL_3: TIM Channel 3 selected
2969:Drivers/STM32F4xx_HAL_Driver/Src/stm32f4xx_hal_tim.c ****   *            @arg TIM_CHANNEL_4: TIM Channel 4 selected 
2970:Drivers/STM32F4xx_HAL_Driver/Src/stm32f4xx_hal_tim.c ****   * @retval HAL status
2971:Drivers/STM32F4xx_HAL_Driver/Src/stm32f4xx_hal_tim.c ****   */
2972:Drivers/STM32F4xx_HAL_Driver/Src/stm32f4xx_hal_tim.c **** HAL_StatusTypeDef HAL_TIM_OC_ConfigChannel(TIM_HandleTypeDef *htim, TIM_OC_InitTypeDef* sConfig, ui
2973:Drivers/STM32F4xx_HAL_Driver/Src/stm32f4xx_hal_tim.c **** {
 6468              		.loc 1 2973 0
ARM GAS  /tmp/cc4tSQEQ.s 			page 165


 6469              		.cfi_startproc
 6470              		@ args = 0, pretend = 0, frame = 16
 6471              		@ frame_needed = 1, uses_anonymous_args = 0
 6472 0000 80B5     		push	{r7, lr}
 6473              	.LCFI312:
 6474              		.cfi_def_cfa_offset 8
 6475              		.cfi_offset 7, -8
 6476              		.cfi_offset 14, -4
 6477 0002 84B0     		sub	sp, sp, #16
 6478              	.LCFI313:
 6479              		.cfi_def_cfa_offset 24
 6480 0004 00AF     		add	r7, sp, #0
 6481              	.LCFI314:
 6482              		.cfi_def_cfa_register 7
 6483 0006 F860     		str	r0, [r7, #12]
 6484 0008 B960     		str	r1, [r7, #8]
 6485 000a 7A60     		str	r2, [r7, #4]
2974:Drivers/STM32F4xx_HAL_Driver/Src/stm32f4xx_hal_tim.c ****   /* Check the parameters */ 
2975:Drivers/STM32F4xx_HAL_Driver/Src/stm32f4xx_hal_tim.c ****   assert_param(IS_TIM_CHANNELS(Channel)); 
2976:Drivers/STM32F4xx_HAL_Driver/Src/stm32f4xx_hal_tim.c ****   assert_param(IS_TIM_OC_MODE(sConfig->OCMode));
2977:Drivers/STM32F4xx_HAL_Driver/Src/stm32f4xx_hal_tim.c ****   assert_param(IS_TIM_OC_POLARITY(sConfig->OCPolarity));
2978:Drivers/STM32F4xx_HAL_Driver/Src/stm32f4xx_hal_tim.c ****   
2979:Drivers/STM32F4xx_HAL_Driver/Src/stm32f4xx_hal_tim.c ****   /* Check input state */
2980:Drivers/STM32F4xx_HAL_Driver/Src/stm32f4xx_hal_tim.c ****   __HAL_LOCK(htim); 
 6486              		.loc 1 2980 0
 6487 000c FB68     		ldr	r3, [r7, #12]
 6488 000e 93F83830 		ldrb	r3, [r3, #56]	@ zero_extendqisi2
 6489 0012 012B     		cmp	r3, #1
 6490 0014 01D1     		bne	.L351
 6491              		.loc 1 2980 0 is_stmt 0 discriminator 1
 6492 0016 0223     		movs	r3, #2
 6493 0018 4EE0     		b	.L352
 6494              	.L351:
 6495              		.loc 1 2980 0 discriminator 2
 6496 001a FB68     		ldr	r3, [r7, #12]
 6497 001c 0122     		movs	r2, #1
 6498 001e 83F83820 		strb	r2, [r3, #56]
2981:Drivers/STM32F4xx_HAL_Driver/Src/stm32f4xx_hal_tim.c ****   
2982:Drivers/STM32F4xx_HAL_Driver/Src/stm32f4xx_hal_tim.c ****   htim->State = HAL_TIM_STATE_BUSY;
 6499              		.loc 1 2982 0 is_stmt 1 discriminator 2
 6500 0022 FB68     		ldr	r3, [r7, #12]
 6501 0024 0222     		movs	r2, #2
 6502 0026 83F83920 		strb	r2, [r3, #57]
2983:Drivers/STM32F4xx_HAL_Driver/Src/stm32f4xx_hal_tim.c ****   
2984:Drivers/STM32F4xx_HAL_Driver/Src/stm32f4xx_hal_tim.c ****   switch (Channel)
 6503              		.loc 1 2984 0 discriminator 2
 6504 002a 7B68     		ldr	r3, [r7, #4]
 6505 002c 0C2B     		cmp	r3, #12
 6506 002e 39D8     		bhi	.L360
 6507 0030 01A2     		adr	r2, .L355
 6508 0032 52F823F0 		ldr	pc, [r2, r3, lsl #2]
 6509 0036 00BF     		.p2align 2
 6510              	.L355:
 6511 0038 6D000000 		.word	.L354+1
 6512 003c A5000000 		.word	.L360+1
 6513 0040 A5000000 		.word	.L360+1
 6514 0044 A5000000 		.word	.L360+1
ARM GAS  /tmp/cc4tSQEQ.s 			page 166


 6515 0048 7B000000 		.word	.L356+1
 6516 004c A5000000 		.word	.L360+1
 6517 0050 A5000000 		.word	.L360+1
 6518 0054 A5000000 		.word	.L360+1
 6519 0058 89000000 		.word	.L357+1
 6520 005c A5000000 		.word	.L360+1
 6521 0060 A5000000 		.word	.L360+1
 6522 0064 A5000000 		.word	.L360+1
 6523 0068 97000000 		.word	.L358+1
 6524              		.p2align 1
 6525              	.L354:
2985:Drivers/STM32F4xx_HAL_Driver/Src/stm32f4xx_hal_tim.c ****   {
2986:Drivers/STM32F4xx_HAL_Driver/Src/stm32f4xx_hal_tim.c ****     case TIM_CHANNEL_1:
2987:Drivers/STM32F4xx_HAL_Driver/Src/stm32f4xx_hal_tim.c ****     {
2988:Drivers/STM32F4xx_HAL_Driver/Src/stm32f4xx_hal_tim.c ****       assert_param(IS_TIM_CC1_INSTANCE(htim->Instance));
2989:Drivers/STM32F4xx_HAL_Driver/Src/stm32f4xx_hal_tim.c ****       /* Configure the TIM Channel 1 in Output Compare */
2990:Drivers/STM32F4xx_HAL_Driver/Src/stm32f4xx_hal_tim.c ****       TIM_OC1_SetConfig(htim->Instance, sConfig);
 6526              		.loc 1 2990 0
 6527 006c FB68     		ldr	r3, [r7, #12]
 6528 006e 1B68     		ldr	r3, [r3]
 6529 0070 B968     		ldr	r1, [r7, #8]
 6530 0072 1846     		mov	r0, r3
 6531 0074 FFF7FEFF 		bl	TIM_OC1_SetConfig
2991:Drivers/STM32F4xx_HAL_Driver/Src/stm32f4xx_hal_tim.c ****     }
2992:Drivers/STM32F4xx_HAL_Driver/Src/stm32f4xx_hal_tim.c ****     break;
 6532              		.loc 1 2992 0
 6533 0078 15E0     		b	.L359
 6534              	.L356:
2993:Drivers/STM32F4xx_HAL_Driver/Src/stm32f4xx_hal_tim.c ****     
2994:Drivers/STM32F4xx_HAL_Driver/Src/stm32f4xx_hal_tim.c ****     case TIM_CHANNEL_2:
2995:Drivers/STM32F4xx_HAL_Driver/Src/stm32f4xx_hal_tim.c ****     {
2996:Drivers/STM32F4xx_HAL_Driver/Src/stm32f4xx_hal_tim.c ****       assert_param(IS_TIM_CC2_INSTANCE(htim->Instance));
2997:Drivers/STM32F4xx_HAL_Driver/Src/stm32f4xx_hal_tim.c ****       /* Configure the TIM Channel 2 in Output Compare */
2998:Drivers/STM32F4xx_HAL_Driver/Src/stm32f4xx_hal_tim.c ****       TIM_OC2_SetConfig(htim->Instance, sConfig);
 6535              		.loc 1 2998 0
 6536 007a FB68     		ldr	r3, [r7, #12]
 6537 007c 1B68     		ldr	r3, [r3]
 6538 007e B968     		ldr	r1, [r7, #8]
 6539 0080 1846     		mov	r0, r3
 6540 0082 FFF7FEFF 		bl	TIM_OC2_SetConfig
2999:Drivers/STM32F4xx_HAL_Driver/Src/stm32f4xx_hal_tim.c ****     }
3000:Drivers/STM32F4xx_HAL_Driver/Src/stm32f4xx_hal_tim.c ****     break;
 6541              		.loc 1 3000 0
 6542 0086 0EE0     		b	.L359
 6543              	.L357:
3001:Drivers/STM32F4xx_HAL_Driver/Src/stm32f4xx_hal_tim.c ****     
3002:Drivers/STM32F4xx_HAL_Driver/Src/stm32f4xx_hal_tim.c ****     case TIM_CHANNEL_3:
3003:Drivers/STM32F4xx_HAL_Driver/Src/stm32f4xx_hal_tim.c ****     {
3004:Drivers/STM32F4xx_HAL_Driver/Src/stm32f4xx_hal_tim.c ****        assert_param(IS_TIM_CC3_INSTANCE(htim->Instance));
3005:Drivers/STM32F4xx_HAL_Driver/Src/stm32f4xx_hal_tim.c ****       /* Configure the TIM Channel 3 in Output Compare */
3006:Drivers/STM32F4xx_HAL_Driver/Src/stm32f4xx_hal_tim.c ****       TIM_OC3_SetConfig(htim->Instance, sConfig);
 6544              		.loc 1 3006 0
 6545 0088 FB68     		ldr	r3, [r7, #12]
 6546 008a 1B68     		ldr	r3, [r3]
 6547 008c B968     		ldr	r1, [r7, #8]
 6548 008e 1846     		mov	r0, r3
 6549 0090 FFF7FEFF 		bl	TIM_OC3_SetConfig
ARM GAS  /tmp/cc4tSQEQ.s 			page 167


3007:Drivers/STM32F4xx_HAL_Driver/Src/stm32f4xx_hal_tim.c ****     }
3008:Drivers/STM32F4xx_HAL_Driver/Src/stm32f4xx_hal_tim.c ****     break;
 6550              		.loc 1 3008 0
 6551 0094 07E0     		b	.L359
 6552              	.L358:
3009:Drivers/STM32F4xx_HAL_Driver/Src/stm32f4xx_hal_tim.c ****     
3010:Drivers/STM32F4xx_HAL_Driver/Src/stm32f4xx_hal_tim.c ****     case TIM_CHANNEL_4:
3011:Drivers/STM32F4xx_HAL_Driver/Src/stm32f4xx_hal_tim.c ****     {
3012:Drivers/STM32F4xx_HAL_Driver/Src/stm32f4xx_hal_tim.c ****       assert_param(IS_TIM_CC4_INSTANCE(htim->Instance));
3013:Drivers/STM32F4xx_HAL_Driver/Src/stm32f4xx_hal_tim.c ****       /* Configure the TIM Channel 4 in Output Compare */
3014:Drivers/STM32F4xx_HAL_Driver/Src/stm32f4xx_hal_tim.c ****       TIM_OC4_SetConfig(htim->Instance, sConfig);
 6553              		.loc 1 3014 0
 6554 0096 FB68     		ldr	r3, [r7, #12]
 6555 0098 1B68     		ldr	r3, [r3]
 6556 009a B968     		ldr	r1, [r7, #8]
 6557 009c 1846     		mov	r0, r3
 6558 009e FFF7FEFF 		bl	TIM_OC4_SetConfig
3015:Drivers/STM32F4xx_HAL_Driver/Src/stm32f4xx_hal_tim.c ****     }
3016:Drivers/STM32F4xx_HAL_Driver/Src/stm32f4xx_hal_tim.c ****     break;
 6559              		.loc 1 3016 0
 6560 00a2 00E0     		b	.L359
 6561              	.L360:
3017:Drivers/STM32F4xx_HAL_Driver/Src/stm32f4xx_hal_tim.c ****     
3018:Drivers/STM32F4xx_HAL_Driver/Src/stm32f4xx_hal_tim.c ****     default:
3019:Drivers/STM32F4xx_HAL_Driver/Src/stm32f4xx_hal_tim.c ****     break;    
 6562              		.loc 1 3019 0
 6563 00a4 00BF     		nop
 6564              	.L359:
3020:Drivers/STM32F4xx_HAL_Driver/Src/stm32f4xx_hal_tim.c ****   }
3021:Drivers/STM32F4xx_HAL_Driver/Src/stm32f4xx_hal_tim.c ****   htim->State = HAL_TIM_STATE_READY;
 6565              		.loc 1 3021 0
 6566 00a6 FB68     		ldr	r3, [r7, #12]
 6567 00a8 0122     		movs	r2, #1
 6568 00aa 83F83920 		strb	r2, [r3, #57]
3022:Drivers/STM32F4xx_HAL_Driver/Src/stm32f4xx_hal_tim.c ****   
3023:Drivers/STM32F4xx_HAL_Driver/Src/stm32f4xx_hal_tim.c ****   __HAL_UNLOCK(htim); 
 6569              		.loc 1 3023 0
 6570 00ae FB68     		ldr	r3, [r7, #12]
 6571 00b0 0022     		movs	r2, #0
 6572 00b2 83F83820 		strb	r2, [r3, #56]
3024:Drivers/STM32F4xx_HAL_Driver/Src/stm32f4xx_hal_tim.c ****   
3025:Drivers/STM32F4xx_HAL_Driver/Src/stm32f4xx_hal_tim.c ****   return HAL_OK;
 6573              		.loc 1 3025 0
 6574 00b6 0023     		movs	r3, #0
 6575              	.L352:
3026:Drivers/STM32F4xx_HAL_Driver/Src/stm32f4xx_hal_tim.c **** }
 6576              		.loc 1 3026 0
 6577 00b8 1846     		mov	r0, r3
 6578 00ba 1037     		adds	r7, r7, #16
 6579              	.LCFI315:
 6580              		.cfi_def_cfa_offset 8
 6581 00bc BD46     		mov	sp, r7
 6582              	.LCFI316:
 6583              		.cfi_def_cfa_register 13
 6584              		@ sp needed
 6585 00be 80BD     		pop	{r7, pc}
 6586              		.cfi_endproc
ARM GAS  /tmp/cc4tSQEQ.s 			page 168


 6587              	.LFE183:
 6589              		.section	.text.HAL_TIM_IC_ConfigChannel,"ax",%progbits
 6590              		.align	1
 6591              		.global	HAL_TIM_IC_ConfigChannel
 6592              		.syntax unified
 6593              		.thumb
 6594              		.thumb_func
 6595              		.fpu fpv4-sp-d16
 6597              	HAL_TIM_IC_ConfigChannel:
 6598              	.LFB184:
3027:Drivers/STM32F4xx_HAL_Driver/Src/stm32f4xx_hal_tim.c **** 
3028:Drivers/STM32F4xx_HAL_Driver/Src/stm32f4xx_hal_tim.c **** /**
3029:Drivers/STM32F4xx_HAL_Driver/Src/stm32f4xx_hal_tim.c ****   * @brief  Initializes the TIM Input Capture Channels according to the specified
3030:Drivers/STM32F4xx_HAL_Driver/Src/stm32f4xx_hal_tim.c ****   *         parameters in the TIM_IC_InitTypeDef.
3031:Drivers/STM32F4xx_HAL_Driver/Src/stm32f4xx_hal_tim.c ****   * @param  htim pointer to a TIM_HandleTypeDef structure that contains
3032:Drivers/STM32F4xx_HAL_Driver/Src/stm32f4xx_hal_tim.c ****   *                the configuration information for TIM module.
3033:Drivers/STM32F4xx_HAL_Driver/Src/stm32f4xx_hal_tim.c ****   * @param  sConfig TIM Input Capture configuration structure
3034:Drivers/STM32F4xx_HAL_Driver/Src/stm32f4xx_hal_tim.c ****   * @param  Channel TIM Channels to be enabled.
3035:Drivers/STM32F4xx_HAL_Driver/Src/stm32f4xx_hal_tim.c ****   *          This parameter can be one of the following values:
3036:Drivers/STM32F4xx_HAL_Driver/Src/stm32f4xx_hal_tim.c ****   *            @arg TIM_CHANNEL_1: TIM Channel 1 selected
3037:Drivers/STM32F4xx_HAL_Driver/Src/stm32f4xx_hal_tim.c ****   *            @arg TIM_CHANNEL_2: TIM Channel 2 selected
3038:Drivers/STM32F4xx_HAL_Driver/Src/stm32f4xx_hal_tim.c ****   *            @arg TIM_CHANNEL_3: TIM Channel 3 selected
3039:Drivers/STM32F4xx_HAL_Driver/Src/stm32f4xx_hal_tim.c ****   *            @arg TIM_CHANNEL_4: TIM Channel 4 selected 
3040:Drivers/STM32F4xx_HAL_Driver/Src/stm32f4xx_hal_tim.c ****   * @retval HAL status
3041:Drivers/STM32F4xx_HAL_Driver/Src/stm32f4xx_hal_tim.c ****   */
3042:Drivers/STM32F4xx_HAL_Driver/Src/stm32f4xx_hal_tim.c **** HAL_StatusTypeDef HAL_TIM_IC_ConfigChannel(TIM_HandleTypeDef *htim, TIM_IC_InitTypeDef* sConfig, ui
3043:Drivers/STM32F4xx_HAL_Driver/Src/stm32f4xx_hal_tim.c **** {
 6599              		.loc 1 3043 0
 6600              		.cfi_startproc
 6601              		@ args = 0, pretend = 0, frame = 16
 6602              		@ frame_needed = 1, uses_anonymous_args = 0
 6603 0000 80B5     		push	{r7, lr}
 6604              	.LCFI317:
 6605              		.cfi_def_cfa_offset 8
 6606              		.cfi_offset 7, -8
 6607              		.cfi_offset 14, -4
 6608 0002 84B0     		sub	sp, sp, #16
 6609              	.LCFI318:
 6610              		.cfi_def_cfa_offset 24
 6611 0004 00AF     		add	r7, sp, #0
 6612              	.LCFI319:
 6613              		.cfi_def_cfa_register 7
 6614 0006 F860     		str	r0, [r7, #12]
 6615 0008 B960     		str	r1, [r7, #8]
 6616 000a 7A60     		str	r2, [r7, #4]
3044:Drivers/STM32F4xx_HAL_Driver/Src/stm32f4xx_hal_tim.c ****   /* Check the parameters */
3045:Drivers/STM32F4xx_HAL_Driver/Src/stm32f4xx_hal_tim.c ****   assert_param(IS_TIM_CC1_INSTANCE(htim->Instance));
3046:Drivers/STM32F4xx_HAL_Driver/Src/stm32f4xx_hal_tim.c ****   assert_param(IS_TIM_IC_POLARITY(sConfig->ICPolarity));
3047:Drivers/STM32F4xx_HAL_Driver/Src/stm32f4xx_hal_tim.c ****   assert_param(IS_TIM_IC_SELECTION(sConfig->ICSelection));
3048:Drivers/STM32F4xx_HAL_Driver/Src/stm32f4xx_hal_tim.c ****   assert_param(IS_TIM_IC_PRESCALER(sConfig->ICPrescaler));
3049:Drivers/STM32F4xx_HAL_Driver/Src/stm32f4xx_hal_tim.c ****   assert_param(IS_TIM_IC_FILTER(sConfig->ICFilter));
3050:Drivers/STM32F4xx_HAL_Driver/Src/stm32f4xx_hal_tim.c ****   
3051:Drivers/STM32F4xx_HAL_Driver/Src/stm32f4xx_hal_tim.c ****   __HAL_LOCK(htim);
 6617              		.loc 1 3051 0
 6618 000c FB68     		ldr	r3, [r7, #12]
 6619 000e 93F83830 		ldrb	r3, [r3, #56]	@ zero_extendqisi2
 6620 0012 012B     		cmp	r3, #1
ARM GAS  /tmp/cc4tSQEQ.s 			page 169


 6621 0014 01D1     		bne	.L362
 6622              		.loc 1 3051 0 is_stmt 0 discriminator 1
 6623 0016 0223     		movs	r3, #2
 6624 0018 8AE0     		b	.L363
 6625              	.L362:
 6626              		.loc 1 3051 0 discriminator 2
 6627 001a FB68     		ldr	r3, [r7, #12]
 6628 001c 0122     		movs	r2, #1
 6629 001e 83F83820 		strb	r2, [r3, #56]
3052:Drivers/STM32F4xx_HAL_Driver/Src/stm32f4xx_hal_tim.c ****   
3053:Drivers/STM32F4xx_HAL_Driver/Src/stm32f4xx_hal_tim.c ****   htim->State = HAL_TIM_STATE_BUSY;
 6630              		.loc 1 3053 0 is_stmt 1 discriminator 2
 6631 0022 FB68     		ldr	r3, [r7, #12]
 6632 0024 0222     		movs	r2, #2
 6633 0026 83F83920 		strb	r2, [r3, #57]
3054:Drivers/STM32F4xx_HAL_Driver/Src/stm32f4xx_hal_tim.c ****   
3055:Drivers/STM32F4xx_HAL_Driver/Src/stm32f4xx_hal_tim.c ****   if (Channel == TIM_CHANNEL_1)
 6634              		.loc 1 3055 0 discriminator 2
 6635 002a 7B68     		ldr	r3, [r7, #4]
 6636 002c 002B     		cmp	r3, #0
 6637 002e 1BD1     		bne	.L364
3056:Drivers/STM32F4xx_HAL_Driver/Src/stm32f4xx_hal_tim.c ****   {
3057:Drivers/STM32F4xx_HAL_Driver/Src/stm32f4xx_hal_tim.c ****     /* TI1 Configuration */
3058:Drivers/STM32F4xx_HAL_Driver/Src/stm32f4xx_hal_tim.c ****     TIM_TI1_SetConfig(htim->Instance,
 6638              		.loc 1 3058 0
 6639 0030 FB68     		ldr	r3, [r7, #12]
 6640 0032 1868     		ldr	r0, [r3]
 6641 0034 BB68     		ldr	r3, [r7, #8]
 6642 0036 1968     		ldr	r1, [r3]
 6643 0038 BB68     		ldr	r3, [r7, #8]
 6644 003a 5A68     		ldr	r2, [r3, #4]
 6645 003c BB68     		ldr	r3, [r7, #8]
 6646 003e DB68     		ldr	r3, [r3, #12]
 6647 0040 FFF7FEFF 		bl	TIM_TI1_SetConfig
3059:Drivers/STM32F4xx_HAL_Driver/Src/stm32f4xx_hal_tim.c ****                sConfig->ICPolarity,
3060:Drivers/STM32F4xx_HAL_Driver/Src/stm32f4xx_hal_tim.c ****                sConfig->ICSelection,
3061:Drivers/STM32F4xx_HAL_Driver/Src/stm32f4xx_hal_tim.c ****                sConfig->ICFilter);
3062:Drivers/STM32F4xx_HAL_Driver/Src/stm32f4xx_hal_tim.c ****                
3063:Drivers/STM32F4xx_HAL_Driver/Src/stm32f4xx_hal_tim.c ****     /* Reset the IC1PSC Bits */
3064:Drivers/STM32F4xx_HAL_Driver/Src/stm32f4xx_hal_tim.c ****     htim->Instance->CCMR1 &= ~TIM_CCMR1_IC1PSC;
 6648              		.loc 1 3064 0
 6649 0044 FB68     		ldr	r3, [r7, #12]
 6650 0046 1B68     		ldr	r3, [r3]
 6651 0048 FA68     		ldr	r2, [r7, #12]
 6652 004a 1268     		ldr	r2, [r2]
 6653 004c 9269     		ldr	r2, [r2, #24]
 6654 004e 22F00C02 		bic	r2, r2, #12
 6655 0052 9A61     		str	r2, [r3, #24]
3065:Drivers/STM32F4xx_HAL_Driver/Src/stm32f4xx_hal_tim.c **** 
3066:Drivers/STM32F4xx_HAL_Driver/Src/stm32f4xx_hal_tim.c ****     /* Set the IC1PSC value */
3067:Drivers/STM32F4xx_HAL_Driver/Src/stm32f4xx_hal_tim.c ****     htim->Instance->CCMR1 |= sConfig->ICPrescaler;
 6656              		.loc 1 3067 0
 6657 0054 FB68     		ldr	r3, [r7, #12]
 6658 0056 1B68     		ldr	r3, [r3]
 6659 0058 FA68     		ldr	r2, [r7, #12]
 6660 005a 1268     		ldr	r2, [r2]
 6661 005c 9169     		ldr	r1, [r2, #24]
ARM GAS  /tmp/cc4tSQEQ.s 			page 170


 6662 005e BA68     		ldr	r2, [r7, #8]
 6663 0060 9268     		ldr	r2, [r2, #8]
 6664 0062 0A43     		orrs	r2, r2, r1
 6665 0064 9A61     		str	r2, [r3, #24]
 6666 0066 5AE0     		b	.L365
 6667              	.L364:
3068:Drivers/STM32F4xx_HAL_Driver/Src/stm32f4xx_hal_tim.c ****   }
3069:Drivers/STM32F4xx_HAL_Driver/Src/stm32f4xx_hal_tim.c ****   else if (Channel == TIM_CHANNEL_2)
 6668              		.loc 1 3069 0
 6669 0068 7B68     		ldr	r3, [r7, #4]
 6670 006a 042B     		cmp	r3, #4
 6671 006c 1CD1     		bne	.L366
3070:Drivers/STM32F4xx_HAL_Driver/Src/stm32f4xx_hal_tim.c ****   {
3071:Drivers/STM32F4xx_HAL_Driver/Src/stm32f4xx_hal_tim.c ****     /* TI2 Configuration */
3072:Drivers/STM32F4xx_HAL_Driver/Src/stm32f4xx_hal_tim.c ****     assert_param(IS_TIM_CC2_INSTANCE(htim->Instance));
3073:Drivers/STM32F4xx_HAL_Driver/Src/stm32f4xx_hal_tim.c ****     
3074:Drivers/STM32F4xx_HAL_Driver/Src/stm32f4xx_hal_tim.c ****     TIM_TI2_SetConfig(htim->Instance, 
 6672              		.loc 1 3074 0
 6673 006e FB68     		ldr	r3, [r7, #12]
 6674 0070 1868     		ldr	r0, [r3]
 6675 0072 BB68     		ldr	r3, [r7, #8]
 6676 0074 1968     		ldr	r1, [r3]
 6677 0076 BB68     		ldr	r3, [r7, #8]
 6678 0078 5A68     		ldr	r2, [r3, #4]
 6679 007a BB68     		ldr	r3, [r7, #8]
 6680 007c DB68     		ldr	r3, [r3, #12]
 6681 007e FFF7FEFF 		bl	TIM_TI2_SetConfig
3075:Drivers/STM32F4xx_HAL_Driver/Src/stm32f4xx_hal_tim.c ****                       sConfig->ICPolarity,
3076:Drivers/STM32F4xx_HAL_Driver/Src/stm32f4xx_hal_tim.c ****                       sConfig->ICSelection,
3077:Drivers/STM32F4xx_HAL_Driver/Src/stm32f4xx_hal_tim.c ****                       sConfig->ICFilter);
3078:Drivers/STM32F4xx_HAL_Driver/Src/stm32f4xx_hal_tim.c ****                
3079:Drivers/STM32F4xx_HAL_Driver/Src/stm32f4xx_hal_tim.c ****     /* Reset the IC2PSC Bits */
3080:Drivers/STM32F4xx_HAL_Driver/Src/stm32f4xx_hal_tim.c ****     htim->Instance->CCMR1 &= ~TIM_CCMR1_IC2PSC;
 6682              		.loc 1 3080 0
 6683 0082 FB68     		ldr	r3, [r7, #12]
 6684 0084 1B68     		ldr	r3, [r3]
 6685 0086 FA68     		ldr	r2, [r7, #12]
 6686 0088 1268     		ldr	r2, [r2]
 6687 008a 9269     		ldr	r2, [r2, #24]
 6688 008c 22F44062 		bic	r2, r2, #3072
 6689 0090 9A61     		str	r2, [r3, #24]
3081:Drivers/STM32F4xx_HAL_Driver/Src/stm32f4xx_hal_tim.c **** 
3082:Drivers/STM32F4xx_HAL_Driver/Src/stm32f4xx_hal_tim.c ****     /* Set the IC2PSC value */
3083:Drivers/STM32F4xx_HAL_Driver/Src/stm32f4xx_hal_tim.c ****     htim->Instance->CCMR1 |= (sConfig->ICPrescaler << 8U);
 6690              		.loc 1 3083 0
 6691 0092 FB68     		ldr	r3, [r7, #12]
 6692 0094 1B68     		ldr	r3, [r3]
 6693 0096 FA68     		ldr	r2, [r7, #12]
 6694 0098 1268     		ldr	r2, [r2]
 6695 009a 9169     		ldr	r1, [r2, #24]
 6696 009c BA68     		ldr	r2, [r7, #8]
 6697 009e 9268     		ldr	r2, [r2, #8]
 6698 00a0 1202     		lsls	r2, r2, #8
 6699 00a2 0A43     		orrs	r2, r2, r1
 6700 00a4 9A61     		str	r2, [r3, #24]
 6701 00a6 3AE0     		b	.L365
 6702              	.L366:
ARM GAS  /tmp/cc4tSQEQ.s 			page 171


3084:Drivers/STM32F4xx_HAL_Driver/Src/stm32f4xx_hal_tim.c ****   }
3085:Drivers/STM32F4xx_HAL_Driver/Src/stm32f4xx_hal_tim.c ****   else if (Channel == TIM_CHANNEL_3)
 6703              		.loc 1 3085 0
 6704 00a8 7B68     		ldr	r3, [r7, #4]
 6705 00aa 082B     		cmp	r3, #8
 6706 00ac 1BD1     		bne	.L367
3086:Drivers/STM32F4xx_HAL_Driver/Src/stm32f4xx_hal_tim.c ****   {
3087:Drivers/STM32F4xx_HAL_Driver/Src/stm32f4xx_hal_tim.c ****     /* TI3 Configuration */
3088:Drivers/STM32F4xx_HAL_Driver/Src/stm32f4xx_hal_tim.c ****     assert_param(IS_TIM_CC3_INSTANCE(htim->Instance));
3089:Drivers/STM32F4xx_HAL_Driver/Src/stm32f4xx_hal_tim.c ****     
3090:Drivers/STM32F4xx_HAL_Driver/Src/stm32f4xx_hal_tim.c ****     TIM_TI3_SetConfig(htim->Instance,  
 6707              		.loc 1 3090 0
 6708 00ae FB68     		ldr	r3, [r7, #12]
 6709 00b0 1868     		ldr	r0, [r3]
 6710 00b2 BB68     		ldr	r3, [r7, #8]
 6711 00b4 1968     		ldr	r1, [r3]
 6712 00b6 BB68     		ldr	r3, [r7, #8]
 6713 00b8 5A68     		ldr	r2, [r3, #4]
 6714 00ba BB68     		ldr	r3, [r7, #8]
 6715 00bc DB68     		ldr	r3, [r3, #12]
 6716 00be FFF7FEFF 		bl	TIM_TI3_SetConfig
3091:Drivers/STM32F4xx_HAL_Driver/Src/stm32f4xx_hal_tim.c ****                sConfig->ICPolarity,
3092:Drivers/STM32F4xx_HAL_Driver/Src/stm32f4xx_hal_tim.c ****                sConfig->ICSelection,
3093:Drivers/STM32F4xx_HAL_Driver/Src/stm32f4xx_hal_tim.c ****                sConfig->ICFilter);
3094:Drivers/STM32F4xx_HAL_Driver/Src/stm32f4xx_hal_tim.c ****                
3095:Drivers/STM32F4xx_HAL_Driver/Src/stm32f4xx_hal_tim.c ****     /* Reset the IC3PSC Bits */
3096:Drivers/STM32F4xx_HAL_Driver/Src/stm32f4xx_hal_tim.c ****     htim->Instance->CCMR2 &= ~TIM_CCMR2_IC3PSC;
 6717              		.loc 1 3096 0
 6718 00c2 FB68     		ldr	r3, [r7, #12]
 6719 00c4 1B68     		ldr	r3, [r3]
 6720 00c6 FA68     		ldr	r2, [r7, #12]
 6721 00c8 1268     		ldr	r2, [r2]
 6722 00ca D269     		ldr	r2, [r2, #28]
 6723 00cc 22F00C02 		bic	r2, r2, #12
 6724 00d0 DA61     		str	r2, [r3, #28]
3097:Drivers/STM32F4xx_HAL_Driver/Src/stm32f4xx_hal_tim.c **** 
3098:Drivers/STM32F4xx_HAL_Driver/Src/stm32f4xx_hal_tim.c ****     /* Set the IC3PSC value */
3099:Drivers/STM32F4xx_HAL_Driver/Src/stm32f4xx_hal_tim.c ****     htim->Instance->CCMR2 |= sConfig->ICPrescaler;
 6725              		.loc 1 3099 0
 6726 00d2 FB68     		ldr	r3, [r7, #12]
 6727 00d4 1B68     		ldr	r3, [r3]
 6728 00d6 FA68     		ldr	r2, [r7, #12]
 6729 00d8 1268     		ldr	r2, [r2]
 6730 00da D169     		ldr	r1, [r2, #28]
 6731 00dc BA68     		ldr	r2, [r7, #8]
 6732 00de 9268     		ldr	r2, [r2, #8]
 6733 00e0 0A43     		orrs	r2, r2, r1
 6734 00e2 DA61     		str	r2, [r3, #28]
 6735 00e4 1BE0     		b	.L365
 6736              	.L367:
3100:Drivers/STM32F4xx_HAL_Driver/Src/stm32f4xx_hal_tim.c ****   }
3101:Drivers/STM32F4xx_HAL_Driver/Src/stm32f4xx_hal_tim.c ****   else
3102:Drivers/STM32F4xx_HAL_Driver/Src/stm32f4xx_hal_tim.c ****   {
3103:Drivers/STM32F4xx_HAL_Driver/Src/stm32f4xx_hal_tim.c ****     /* TI4 Configuration */
3104:Drivers/STM32F4xx_HAL_Driver/Src/stm32f4xx_hal_tim.c ****     assert_param(IS_TIM_CC4_INSTANCE(htim->Instance));
3105:Drivers/STM32F4xx_HAL_Driver/Src/stm32f4xx_hal_tim.c ****     
3106:Drivers/STM32F4xx_HAL_Driver/Src/stm32f4xx_hal_tim.c ****     TIM_TI4_SetConfig(htim->Instance, 
ARM GAS  /tmp/cc4tSQEQ.s 			page 172


 6737              		.loc 1 3106 0
 6738 00e6 FB68     		ldr	r3, [r7, #12]
 6739 00e8 1868     		ldr	r0, [r3]
 6740 00ea BB68     		ldr	r3, [r7, #8]
 6741 00ec 1968     		ldr	r1, [r3]
 6742 00ee BB68     		ldr	r3, [r7, #8]
 6743 00f0 5A68     		ldr	r2, [r3, #4]
 6744 00f2 BB68     		ldr	r3, [r7, #8]
 6745 00f4 DB68     		ldr	r3, [r3, #12]
 6746 00f6 FFF7FEFF 		bl	TIM_TI4_SetConfig
3107:Drivers/STM32F4xx_HAL_Driver/Src/stm32f4xx_hal_tim.c ****                sConfig->ICPolarity,
3108:Drivers/STM32F4xx_HAL_Driver/Src/stm32f4xx_hal_tim.c ****                sConfig->ICSelection,
3109:Drivers/STM32F4xx_HAL_Driver/Src/stm32f4xx_hal_tim.c ****                sConfig->ICFilter);
3110:Drivers/STM32F4xx_HAL_Driver/Src/stm32f4xx_hal_tim.c ****                
3111:Drivers/STM32F4xx_HAL_Driver/Src/stm32f4xx_hal_tim.c ****     /* Reset the IC4PSC Bits */
3112:Drivers/STM32F4xx_HAL_Driver/Src/stm32f4xx_hal_tim.c ****     htim->Instance->CCMR2 &= ~TIM_CCMR2_IC4PSC;
 6747              		.loc 1 3112 0
 6748 00fa FB68     		ldr	r3, [r7, #12]
 6749 00fc 1B68     		ldr	r3, [r3]
 6750 00fe FA68     		ldr	r2, [r7, #12]
 6751 0100 1268     		ldr	r2, [r2]
 6752 0102 D269     		ldr	r2, [r2, #28]
 6753 0104 22F44062 		bic	r2, r2, #3072
 6754 0108 DA61     		str	r2, [r3, #28]
3113:Drivers/STM32F4xx_HAL_Driver/Src/stm32f4xx_hal_tim.c **** 
3114:Drivers/STM32F4xx_HAL_Driver/Src/stm32f4xx_hal_tim.c ****     /* Set the IC4PSC value */
3115:Drivers/STM32F4xx_HAL_Driver/Src/stm32f4xx_hal_tim.c ****     htim->Instance->CCMR2 |= (sConfig->ICPrescaler << 8U);
 6755              		.loc 1 3115 0
 6756 010a FB68     		ldr	r3, [r7, #12]
 6757 010c 1B68     		ldr	r3, [r3]
 6758 010e FA68     		ldr	r2, [r7, #12]
 6759 0110 1268     		ldr	r2, [r2]
 6760 0112 D169     		ldr	r1, [r2, #28]
 6761 0114 BA68     		ldr	r2, [r7, #8]
 6762 0116 9268     		ldr	r2, [r2, #8]
 6763 0118 1202     		lsls	r2, r2, #8
 6764 011a 0A43     		orrs	r2, r2, r1
 6765 011c DA61     		str	r2, [r3, #28]
 6766              	.L365:
3116:Drivers/STM32F4xx_HAL_Driver/Src/stm32f4xx_hal_tim.c ****   }
3117:Drivers/STM32F4xx_HAL_Driver/Src/stm32f4xx_hal_tim.c ****   
3118:Drivers/STM32F4xx_HAL_Driver/Src/stm32f4xx_hal_tim.c ****   htim->State = HAL_TIM_STATE_READY;
 6767              		.loc 1 3118 0
 6768 011e FB68     		ldr	r3, [r7, #12]
 6769 0120 0122     		movs	r2, #1
 6770 0122 83F83920 		strb	r2, [r3, #57]
3119:Drivers/STM32F4xx_HAL_Driver/Src/stm32f4xx_hal_tim.c ****     
3120:Drivers/STM32F4xx_HAL_Driver/Src/stm32f4xx_hal_tim.c ****   __HAL_UNLOCK(htim);
 6771              		.loc 1 3120 0
 6772 0126 FB68     		ldr	r3, [r7, #12]
 6773 0128 0022     		movs	r2, #0
 6774 012a 83F83820 		strb	r2, [r3, #56]
3121:Drivers/STM32F4xx_HAL_Driver/Src/stm32f4xx_hal_tim.c ****   
3122:Drivers/STM32F4xx_HAL_Driver/Src/stm32f4xx_hal_tim.c ****   return HAL_OK; 
 6775              		.loc 1 3122 0
 6776 012e 0023     		movs	r3, #0
 6777              	.L363:
ARM GAS  /tmp/cc4tSQEQ.s 			page 173


3123:Drivers/STM32F4xx_HAL_Driver/Src/stm32f4xx_hal_tim.c **** }
 6778              		.loc 1 3123 0
 6779 0130 1846     		mov	r0, r3
 6780 0132 1037     		adds	r7, r7, #16
 6781              	.LCFI320:
 6782              		.cfi_def_cfa_offset 8
 6783 0134 BD46     		mov	sp, r7
 6784              	.LCFI321:
 6785              		.cfi_def_cfa_register 13
 6786              		@ sp needed
 6787 0136 80BD     		pop	{r7, pc}
 6788              		.cfi_endproc
 6789              	.LFE184:
 6791              		.section	.text.HAL_TIM_PWM_ConfigChannel,"ax",%progbits
 6792              		.align	1
 6793              		.global	HAL_TIM_PWM_ConfigChannel
 6794              		.syntax unified
 6795              		.thumb
 6796              		.thumb_func
 6797              		.fpu fpv4-sp-d16
 6799              	HAL_TIM_PWM_ConfigChannel:
 6800              	.LFB185:
3124:Drivers/STM32F4xx_HAL_Driver/Src/stm32f4xx_hal_tim.c **** 
3125:Drivers/STM32F4xx_HAL_Driver/Src/stm32f4xx_hal_tim.c **** /**
3126:Drivers/STM32F4xx_HAL_Driver/Src/stm32f4xx_hal_tim.c ****   * @brief  Initializes the TIM PWM  channels according to the specified
3127:Drivers/STM32F4xx_HAL_Driver/Src/stm32f4xx_hal_tim.c ****   *         parameters in the TIM_OC_InitTypeDef.
3128:Drivers/STM32F4xx_HAL_Driver/Src/stm32f4xx_hal_tim.c ****   * @param  htim pointer to a TIM_HandleTypeDef structure that contains
3129:Drivers/STM32F4xx_HAL_Driver/Src/stm32f4xx_hal_tim.c ****   *                the configuration information for TIM module.
3130:Drivers/STM32F4xx_HAL_Driver/Src/stm32f4xx_hal_tim.c ****   * @param  sConfig TIM PWM configuration structure
3131:Drivers/STM32F4xx_HAL_Driver/Src/stm32f4xx_hal_tim.c ****   * @param  Channel TIM Channels to be enabled.
3132:Drivers/STM32F4xx_HAL_Driver/Src/stm32f4xx_hal_tim.c ****   *          This parameter can be one of the following values:
3133:Drivers/STM32F4xx_HAL_Driver/Src/stm32f4xx_hal_tim.c ****   *            @arg TIM_CHANNEL_1: TIM Channel 1 selected
3134:Drivers/STM32F4xx_HAL_Driver/Src/stm32f4xx_hal_tim.c ****   *            @arg TIM_CHANNEL_2: TIM Channel 2 selected
3135:Drivers/STM32F4xx_HAL_Driver/Src/stm32f4xx_hal_tim.c ****   *            @arg TIM_CHANNEL_3: TIM Channel 3 selected
3136:Drivers/STM32F4xx_HAL_Driver/Src/stm32f4xx_hal_tim.c ****   *            @arg TIM_CHANNEL_4: TIM Channel 4 selected
3137:Drivers/STM32F4xx_HAL_Driver/Src/stm32f4xx_hal_tim.c ****   * @retval HAL status
3138:Drivers/STM32F4xx_HAL_Driver/Src/stm32f4xx_hal_tim.c ****   */
3139:Drivers/STM32F4xx_HAL_Driver/Src/stm32f4xx_hal_tim.c **** HAL_StatusTypeDef HAL_TIM_PWM_ConfigChannel(TIM_HandleTypeDef *htim, TIM_OC_InitTypeDef* sConfig, u
3140:Drivers/STM32F4xx_HAL_Driver/Src/stm32f4xx_hal_tim.c **** {
 6801              		.loc 1 3140 0
 6802              		.cfi_startproc
 6803              		@ args = 0, pretend = 0, frame = 16
 6804              		@ frame_needed = 1, uses_anonymous_args = 0
 6805 0000 80B5     		push	{r7, lr}
 6806              	.LCFI322:
 6807              		.cfi_def_cfa_offset 8
 6808              		.cfi_offset 7, -8
 6809              		.cfi_offset 14, -4
 6810 0002 84B0     		sub	sp, sp, #16
 6811              	.LCFI323:
 6812              		.cfi_def_cfa_offset 24
 6813 0004 00AF     		add	r7, sp, #0
 6814              	.LCFI324:
 6815              		.cfi_def_cfa_register 7
 6816 0006 F860     		str	r0, [r7, #12]
 6817 0008 B960     		str	r1, [r7, #8]
 6818 000a 7A60     		str	r2, [r7, #4]
ARM GAS  /tmp/cc4tSQEQ.s 			page 174


3141:Drivers/STM32F4xx_HAL_Driver/Src/stm32f4xx_hal_tim.c ****   __HAL_LOCK(htim);
 6819              		.loc 1 3141 0
 6820 000c FB68     		ldr	r3, [r7, #12]
 6821 000e 93F83830 		ldrb	r3, [r3, #56]	@ zero_extendqisi2
 6822 0012 012B     		cmp	r3, #1
 6823 0014 01D1     		bne	.L369
 6824              		.loc 1 3141 0 is_stmt 0 discriminator 1
 6825 0016 0223     		movs	r3, #2
 6826 0018 B4E0     		b	.L370
 6827              	.L369:
 6828              		.loc 1 3141 0 discriminator 2
 6829 001a FB68     		ldr	r3, [r7, #12]
 6830 001c 0122     		movs	r2, #1
 6831 001e 83F83820 		strb	r2, [r3, #56]
3142:Drivers/STM32F4xx_HAL_Driver/Src/stm32f4xx_hal_tim.c ****   
3143:Drivers/STM32F4xx_HAL_Driver/Src/stm32f4xx_hal_tim.c ****   /* Check the parameters */ 
3144:Drivers/STM32F4xx_HAL_Driver/Src/stm32f4xx_hal_tim.c ****   assert_param(IS_TIM_CHANNELS(Channel)); 
3145:Drivers/STM32F4xx_HAL_Driver/Src/stm32f4xx_hal_tim.c ****   assert_param(IS_TIM_PWM_MODE(sConfig->OCMode));
3146:Drivers/STM32F4xx_HAL_Driver/Src/stm32f4xx_hal_tim.c ****   assert_param(IS_TIM_OC_POLARITY(sConfig->OCPolarity));
3147:Drivers/STM32F4xx_HAL_Driver/Src/stm32f4xx_hal_tim.c ****   assert_param(IS_TIM_FAST_STATE(sConfig->OCFastMode));
3148:Drivers/STM32F4xx_HAL_Driver/Src/stm32f4xx_hal_tim.c **** 
3149:Drivers/STM32F4xx_HAL_Driver/Src/stm32f4xx_hal_tim.c ****   htim->State = HAL_TIM_STATE_BUSY;
 6832              		.loc 1 3149 0 is_stmt 1 discriminator 2
 6833 0022 FB68     		ldr	r3, [r7, #12]
 6834 0024 0222     		movs	r2, #2
 6835 0026 83F83920 		strb	r2, [r3, #57]
3150:Drivers/STM32F4xx_HAL_Driver/Src/stm32f4xx_hal_tim.c ****     
3151:Drivers/STM32F4xx_HAL_Driver/Src/stm32f4xx_hal_tim.c ****   switch (Channel)
 6836              		.loc 1 3151 0 discriminator 2
 6837 002a 7B68     		ldr	r3, [r7, #4]
 6838 002c 0C2B     		cmp	r3, #12
 6839 002e 00F29F80 		bhi	.L378
 6840 0032 01A2     		adr	r2, .L373
 6841 0034 52F823F0 		ldr	pc, [r2, r3, lsl #2]
 6842              		.p2align 2
 6843              	.L373:
 6844 0038 6D000000 		.word	.L372+1
 6845 003c 71010000 		.word	.L378+1
 6846 0040 71010000 		.word	.L378+1
 6847 0044 71010000 		.word	.L378+1
 6848 0048 AD000000 		.word	.L374+1
 6849 004c 71010000 		.word	.L378+1
 6850 0050 71010000 		.word	.L378+1
 6851 0054 71010000 		.word	.L378+1
 6852 0058 EF000000 		.word	.L375+1
 6853 005c 71010000 		.word	.L378+1
 6854 0060 71010000 		.word	.L378+1
 6855 0064 71010000 		.word	.L378+1
 6856 0068 2F010000 		.word	.L376+1
 6857              		.p2align 1
 6858              	.L372:
3152:Drivers/STM32F4xx_HAL_Driver/Src/stm32f4xx_hal_tim.c ****   {
3153:Drivers/STM32F4xx_HAL_Driver/Src/stm32f4xx_hal_tim.c ****     case TIM_CHANNEL_1:
3154:Drivers/STM32F4xx_HAL_Driver/Src/stm32f4xx_hal_tim.c ****     {
3155:Drivers/STM32F4xx_HAL_Driver/Src/stm32f4xx_hal_tim.c ****       assert_param(IS_TIM_CC1_INSTANCE(htim->Instance));
3156:Drivers/STM32F4xx_HAL_Driver/Src/stm32f4xx_hal_tim.c ****       /* Configure the Channel 1 in PWM mode */
3157:Drivers/STM32F4xx_HAL_Driver/Src/stm32f4xx_hal_tim.c ****       TIM_OC1_SetConfig(htim->Instance, sConfig);
ARM GAS  /tmp/cc4tSQEQ.s 			page 175


 6859              		.loc 1 3157 0
 6860 006c FB68     		ldr	r3, [r7, #12]
 6861 006e 1B68     		ldr	r3, [r3]
 6862 0070 B968     		ldr	r1, [r7, #8]
 6863 0072 1846     		mov	r0, r3
 6864 0074 FFF7FEFF 		bl	TIM_OC1_SetConfig
3158:Drivers/STM32F4xx_HAL_Driver/Src/stm32f4xx_hal_tim.c ****       
3159:Drivers/STM32F4xx_HAL_Driver/Src/stm32f4xx_hal_tim.c ****       /* Set the Preload enable bit for channel1 */
3160:Drivers/STM32F4xx_HAL_Driver/Src/stm32f4xx_hal_tim.c ****       htim->Instance->CCMR1 |= TIM_CCMR1_OC1PE;
 6865              		.loc 1 3160 0
 6866 0078 FB68     		ldr	r3, [r7, #12]
 6867 007a 1B68     		ldr	r3, [r3]
 6868 007c FA68     		ldr	r2, [r7, #12]
 6869 007e 1268     		ldr	r2, [r2]
 6870 0080 9269     		ldr	r2, [r2, #24]
 6871 0082 42F00802 		orr	r2, r2, #8
 6872 0086 9A61     		str	r2, [r3, #24]
3161:Drivers/STM32F4xx_HAL_Driver/Src/stm32f4xx_hal_tim.c ****       
3162:Drivers/STM32F4xx_HAL_Driver/Src/stm32f4xx_hal_tim.c ****       /* Configure the Output Fast mode */
3163:Drivers/STM32F4xx_HAL_Driver/Src/stm32f4xx_hal_tim.c ****       htim->Instance->CCMR1 &= ~TIM_CCMR1_OC1FE;
 6873              		.loc 1 3163 0
 6874 0088 FB68     		ldr	r3, [r7, #12]
 6875 008a 1B68     		ldr	r3, [r3]
 6876 008c FA68     		ldr	r2, [r7, #12]
 6877 008e 1268     		ldr	r2, [r2]
 6878 0090 9269     		ldr	r2, [r2, #24]
 6879 0092 22F00402 		bic	r2, r2, #4
 6880 0096 9A61     		str	r2, [r3, #24]
3164:Drivers/STM32F4xx_HAL_Driver/Src/stm32f4xx_hal_tim.c ****       htim->Instance->CCMR1 |= sConfig->OCFastMode;
 6881              		.loc 1 3164 0
 6882 0098 FB68     		ldr	r3, [r7, #12]
 6883 009a 1B68     		ldr	r3, [r3]
 6884 009c FA68     		ldr	r2, [r7, #12]
 6885 009e 1268     		ldr	r2, [r2]
 6886 00a0 9169     		ldr	r1, [r2, #24]
 6887 00a2 BA68     		ldr	r2, [r7, #8]
 6888 00a4 1269     		ldr	r2, [r2, #16]
 6889 00a6 0A43     		orrs	r2, r2, r1
 6890 00a8 9A61     		str	r2, [r3, #24]
3165:Drivers/STM32F4xx_HAL_Driver/Src/stm32f4xx_hal_tim.c ****     }
3166:Drivers/STM32F4xx_HAL_Driver/Src/stm32f4xx_hal_tim.c ****     break;
 6891              		.loc 1 3166 0
 6892 00aa 62E0     		b	.L377
 6893              	.L374:
3167:Drivers/STM32F4xx_HAL_Driver/Src/stm32f4xx_hal_tim.c ****     
3168:Drivers/STM32F4xx_HAL_Driver/Src/stm32f4xx_hal_tim.c ****     case TIM_CHANNEL_2:
3169:Drivers/STM32F4xx_HAL_Driver/Src/stm32f4xx_hal_tim.c ****     {
3170:Drivers/STM32F4xx_HAL_Driver/Src/stm32f4xx_hal_tim.c ****       assert_param(IS_TIM_CC2_INSTANCE(htim->Instance));
3171:Drivers/STM32F4xx_HAL_Driver/Src/stm32f4xx_hal_tim.c ****       /* Configure the Channel 2 in PWM mode */
3172:Drivers/STM32F4xx_HAL_Driver/Src/stm32f4xx_hal_tim.c ****       TIM_OC2_SetConfig(htim->Instance, sConfig);
 6894              		.loc 1 3172 0
 6895 00ac FB68     		ldr	r3, [r7, #12]
 6896 00ae 1B68     		ldr	r3, [r3]
 6897 00b0 B968     		ldr	r1, [r7, #8]
 6898 00b2 1846     		mov	r0, r3
 6899 00b4 FFF7FEFF 		bl	TIM_OC2_SetConfig
3173:Drivers/STM32F4xx_HAL_Driver/Src/stm32f4xx_hal_tim.c ****       
ARM GAS  /tmp/cc4tSQEQ.s 			page 176


3174:Drivers/STM32F4xx_HAL_Driver/Src/stm32f4xx_hal_tim.c ****       /* Set the Preload enable bit for channel2 */
3175:Drivers/STM32F4xx_HAL_Driver/Src/stm32f4xx_hal_tim.c ****       htim->Instance->CCMR1 |= TIM_CCMR1_OC2PE;
 6900              		.loc 1 3175 0
 6901 00b8 FB68     		ldr	r3, [r7, #12]
 6902 00ba 1B68     		ldr	r3, [r3]
 6903 00bc FA68     		ldr	r2, [r7, #12]
 6904 00be 1268     		ldr	r2, [r2]
 6905 00c0 9269     		ldr	r2, [r2, #24]
 6906 00c2 42F40062 		orr	r2, r2, #2048
 6907 00c6 9A61     		str	r2, [r3, #24]
3176:Drivers/STM32F4xx_HAL_Driver/Src/stm32f4xx_hal_tim.c ****       
3177:Drivers/STM32F4xx_HAL_Driver/Src/stm32f4xx_hal_tim.c ****       /* Configure the Output Fast mode */
3178:Drivers/STM32F4xx_HAL_Driver/Src/stm32f4xx_hal_tim.c ****       htim->Instance->CCMR1 &= ~TIM_CCMR1_OC2FE;
 6908              		.loc 1 3178 0
 6909 00c8 FB68     		ldr	r3, [r7, #12]
 6910 00ca 1B68     		ldr	r3, [r3]
 6911 00cc FA68     		ldr	r2, [r7, #12]
 6912 00ce 1268     		ldr	r2, [r2]
 6913 00d0 9269     		ldr	r2, [r2, #24]
 6914 00d2 22F48062 		bic	r2, r2, #1024
 6915 00d6 9A61     		str	r2, [r3, #24]
3179:Drivers/STM32F4xx_HAL_Driver/Src/stm32f4xx_hal_tim.c ****       htim->Instance->CCMR1 |= sConfig->OCFastMode << 8U;
 6916              		.loc 1 3179 0
 6917 00d8 FB68     		ldr	r3, [r7, #12]
 6918 00da 1B68     		ldr	r3, [r3]
 6919 00dc FA68     		ldr	r2, [r7, #12]
 6920 00de 1268     		ldr	r2, [r2]
 6921 00e0 9169     		ldr	r1, [r2, #24]
 6922 00e2 BA68     		ldr	r2, [r7, #8]
 6923 00e4 1269     		ldr	r2, [r2, #16]
 6924 00e6 1202     		lsls	r2, r2, #8
 6925 00e8 0A43     		orrs	r2, r2, r1
 6926 00ea 9A61     		str	r2, [r3, #24]
3180:Drivers/STM32F4xx_HAL_Driver/Src/stm32f4xx_hal_tim.c ****     }
3181:Drivers/STM32F4xx_HAL_Driver/Src/stm32f4xx_hal_tim.c ****     break;
 6927              		.loc 1 3181 0
 6928 00ec 41E0     		b	.L377
 6929              	.L375:
3182:Drivers/STM32F4xx_HAL_Driver/Src/stm32f4xx_hal_tim.c ****     
3183:Drivers/STM32F4xx_HAL_Driver/Src/stm32f4xx_hal_tim.c ****     case TIM_CHANNEL_3:
3184:Drivers/STM32F4xx_HAL_Driver/Src/stm32f4xx_hal_tim.c ****     {
3185:Drivers/STM32F4xx_HAL_Driver/Src/stm32f4xx_hal_tim.c ****       assert_param(IS_TIM_CC3_INSTANCE(htim->Instance));
3186:Drivers/STM32F4xx_HAL_Driver/Src/stm32f4xx_hal_tim.c ****       /* Configure the Channel 3 in PWM mode */
3187:Drivers/STM32F4xx_HAL_Driver/Src/stm32f4xx_hal_tim.c ****       TIM_OC3_SetConfig(htim->Instance, sConfig);
 6930              		.loc 1 3187 0
 6931 00ee FB68     		ldr	r3, [r7, #12]
 6932 00f0 1B68     		ldr	r3, [r3]
 6933 00f2 B968     		ldr	r1, [r7, #8]
 6934 00f4 1846     		mov	r0, r3
 6935 00f6 FFF7FEFF 		bl	TIM_OC3_SetConfig
3188:Drivers/STM32F4xx_HAL_Driver/Src/stm32f4xx_hal_tim.c ****       
3189:Drivers/STM32F4xx_HAL_Driver/Src/stm32f4xx_hal_tim.c ****       /* Set the Preload enable bit for channel3 */
3190:Drivers/STM32F4xx_HAL_Driver/Src/stm32f4xx_hal_tim.c ****       htim->Instance->CCMR2 |= TIM_CCMR2_OC3PE;
 6936              		.loc 1 3190 0
 6937 00fa FB68     		ldr	r3, [r7, #12]
 6938 00fc 1B68     		ldr	r3, [r3]
 6939 00fe FA68     		ldr	r2, [r7, #12]
ARM GAS  /tmp/cc4tSQEQ.s 			page 177


 6940 0100 1268     		ldr	r2, [r2]
 6941 0102 D269     		ldr	r2, [r2, #28]
 6942 0104 42F00802 		orr	r2, r2, #8
 6943 0108 DA61     		str	r2, [r3, #28]
3191:Drivers/STM32F4xx_HAL_Driver/Src/stm32f4xx_hal_tim.c ****       
3192:Drivers/STM32F4xx_HAL_Driver/Src/stm32f4xx_hal_tim.c ****      /* Configure the Output Fast mode */
3193:Drivers/STM32F4xx_HAL_Driver/Src/stm32f4xx_hal_tim.c ****       htim->Instance->CCMR2 &= ~TIM_CCMR2_OC3FE;
 6944              		.loc 1 3193 0
 6945 010a FB68     		ldr	r3, [r7, #12]
 6946 010c 1B68     		ldr	r3, [r3]
 6947 010e FA68     		ldr	r2, [r7, #12]
 6948 0110 1268     		ldr	r2, [r2]
 6949 0112 D269     		ldr	r2, [r2, #28]
 6950 0114 22F00402 		bic	r2, r2, #4
 6951 0118 DA61     		str	r2, [r3, #28]
3194:Drivers/STM32F4xx_HAL_Driver/Src/stm32f4xx_hal_tim.c ****       htim->Instance->CCMR2 |= sConfig->OCFastMode;  
 6952              		.loc 1 3194 0
 6953 011a FB68     		ldr	r3, [r7, #12]
 6954 011c 1B68     		ldr	r3, [r3]
 6955 011e FA68     		ldr	r2, [r7, #12]
 6956 0120 1268     		ldr	r2, [r2]
 6957 0122 D169     		ldr	r1, [r2, #28]
 6958 0124 BA68     		ldr	r2, [r7, #8]
 6959 0126 1269     		ldr	r2, [r2, #16]
 6960 0128 0A43     		orrs	r2, r2, r1
 6961 012a DA61     		str	r2, [r3, #28]
3195:Drivers/STM32F4xx_HAL_Driver/Src/stm32f4xx_hal_tim.c ****     }
3196:Drivers/STM32F4xx_HAL_Driver/Src/stm32f4xx_hal_tim.c ****     break;
 6962              		.loc 1 3196 0
 6963 012c 21E0     		b	.L377
 6964              	.L376:
3197:Drivers/STM32F4xx_HAL_Driver/Src/stm32f4xx_hal_tim.c ****     
3198:Drivers/STM32F4xx_HAL_Driver/Src/stm32f4xx_hal_tim.c ****     case TIM_CHANNEL_4:
3199:Drivers/STM32F4xx_HAL_Driver/Src/stm32f4xx_hal_tim.c ****     {
3200:Drivers/STM32F4xx_HAL_Driver/Src/stm32f4xx_hal_tim.c ****       assert_param(IS_TIM_CC4_INSTANCE(htim->Instance));
3201:Drivers/STM32F4xx_HAL_Driver/Src/stm32f4xx_hal_tim.c ****       /* Configure the Channel 4 in PWM mode */
3202:Drivers/STM32F4xx_HAL_Driver/Src/stm32f4xx_hal_tim.c ****       TIM_OC4_SetConfig(htim->Instance, sConfig);
 6965              		.loc 1 3202 0
 6966 012e FB68     		ldr	r3, [r7, #12]
 6967 0130 1B68     		ldr	r3, [r3]
 6968 0132 B968     		ldr	r1, [r7, #8]
 6969 0134 1846     		mov	r0, r3
 6970 0136 FFF7FEFF 		bl	TIM_OC4_SetConfig
3203:Drivers/STM32F4xx_HAL_Driver/Src/stm32f4xx_hal_tim.c ****       
3204:Drivers/STM32F4xx_HAL_Driver/Src/stm32f4xx_hal_tim.c ****       /* Set the Preload enable bit for channel4 */
3205:Drivers/STM32F4xx_HAL_Driver/Src/stm32f4xx_hal_tim.c ****       htim->Instance->CCMR2 |= TIM_CCMR2_OC4PE;
 6971              		.loc 1 3205 0
 6972 013a FB68     		ldr	r3, [r7, #12]
 6973 013c 1B68     		ldr	r3, [r3]
 6974 013e FA68     		ldr	r2, [r7, #12]
 6975 0140 1268     		ldr	r2, [r2]
 6976 0142 D269     		ldr	r2, [r2, #28]
 6977 0144 42F40062 		orr	r2, r2, #2048
 6978 0148 DA61     		str	r2, [r3, #28]
3206:Drivers/STM32F4xx_HAL_Driver/Src/stm32f4xx_hal_tim.c ****       
3207:Drivers/STM32F4xx_HAL_Driver/Src/stm32f4xx_hal_tim.c ****      /* Configure the Output Fast mode */
3208:Drivers/STM32F4xx_HAL_Driver/Src/stm32f4xx_hal_tim.c ****       htim->Instance->CCMR2 &= ~TIM_CCMR2_OC4FE;
ARM GAS  /tmp/cc4tSQEQ.s 			page 178


 6979              		.loc 1 3208 0
 6980 014a FB68     		ldr	r3, [r7, #12]
 6981 014c 1B68     		ldr	r3, [r3]
 6982 014e FA68     		ldr	r2, [r7, #12]
 6983 0150 1268     		ldr	r2, [r2]
 6984 0152 D269     		ldr	r2, [r2, #28]
 6985 0154 22F48062 		bic	r2, r2, #1024
 6986 0158 DA61     		str	r2, [r3, #28]
3209:Drivers/STM32F4xx_HAL_Driver/Src/stm32f4xx_hal_tim.c ****       htim->Instance->CCMR2 |= sConfig->OCFastMode << 8U;  
 6987              		.loc 1 3209 0
 6988 015a FB68     		ldr	r3, [r7, #12]
 6989 015c 1B68     		ldr	r3, [r3]
 6990 015e FA68     		ldr	r2, [r7, #12]
 6991 0160 1268     		ldr	r2, [r2]
 6992 0162 D169     		ldr	r1, [r2, #28]
 6993 0164 BA68     		ldr	r2, [r7, #8]
 6994 0166 1269     		ldr	r2, [r2, #16]
 6995 0168 1202     		lsls	r2, r2, #8
 6996 016a 0A43     		orrs	r2, r2, r1
 6997 016c DA61     		str	r2, [r3, #28]
3210:Drivers/STM32F4xx_HAL_Driver/Src/stm32f4xx_hal_tim.c ****     }
3211:Drivers/STM32F4xx_HAL_Driver/Src/stm32f4xx_hal_tim.c ****     break;
 6998              		.loc 1 3211 0
 6999 016e 00E0     		b	.L377
 7000              	.L378:
3212:Drivers/STM32F4xx_HAL_Driver/Src/stm32f4xx_hal_tim.c ****     
3213:Drivers/STM32F4xx_HAL_Driver/Src/stm32f4xx_hal_tim.c ****     default:
3214:Drivers/STM32F4xx_HAL_Driver/Src/stm32f4xx_hal_tim.c ****     break;    
 7001              		.loc 1 3214 0
 7002 0170 00BF     		nop
 7003              	.L377:
3215:Drivers/STM32F4xx_HAL_Driver/Src/stm32f4xx_hal_tim.c ****   }
3216:Drivers/STM32F4xx_HAL_Driver/Src/stm32f4xx_hal_tim.c ****   
3217:Drivers/STM32F4xx_HAL_Driver/Src/stm32f4xx_hal_tim.c ****   htim->State = HAL_TIM_STATE_READY;
 7004              		.loc 1 3217 0
 7005 0172 FB68     		ldr	r3, [r7, #12]
 7006 0174 0122     		movs	r2, #1
 7007 0176 83F83920 		strb	r2, [r3, #57]
3218:Drivers/STM32F4xx_HAL_Driver/Src/stm32f4xx_hal_tim.c ****     
3219:Drivers/STM32F4xx_HAL_Driver/Src/stm32f4xx_hal_tim.c ****   __HAL_UNLOCK(htim);
 7008              		.loc 1 3219 0
 7009 017a FB68     		ldr	r3, [r7, #12]
 7010 017c 0022     		movs	r2, #0
 7011 017e 83F83820 		strb	r2, [r3, #56]
3220:Drivers/STM32F4xx_HAL_Driver/Src/stm32f4xx_hal_tim.c ****   
3221:Drivers/STM32F4xx_HAL_Driver/Src/stm32f4xx_hal_tim.c ****   return HAL_OK;
 7012              		.loc 1 3221 0
 7013 0182 0023     		movs	r3, #0
 7014              	.L370:
3222:Drivers/STM32F4xx_HAL_Driver/Src/stm32f4xx_hal_tim.c **** }
 7015              		.loc 1 3222 0
 7016 0184 1846     		mov	r0, r3
 7017 0186 1037     		adds	r7, r7, #16
 7018              	.LCFI325:
 7019              		.cfi_def_cfa_offset 8
 7020 0188 BD46     		mov	sp, r7
 7021              	.LCFI326:
ARM GAS  /tmp/cc4tSQEQ.s 			page 179


 7022              		.cfi_def_cfa_register 13
 7023              		@ sp needed
 7024 018a 80BD     		pop	{r7, pc}
 7025              		.cfi_endproc
 7026              	.LFE185:
 7028              		.section	.text.HAL_TIM_OnePulse_ConfigChannel,"ax",%progbits
 7029              		.align	1
 7030              		.global	HAL_TIM_OnePulse_ConfigChannel
 7031              		.syntax unified
 7032              		.thumb
 7033              		.thumb_func
 7034              		.fpu fpv4-sp-d16
 7036              	HAL_TIM_OnePulse_ConfigChannel:
 7037              	.LFB186:
3223:Drivers/STM32F4xx_HAL_Driver/Src/stm32f4xx_hal_tim.c **** 
3224:Drivers/STM32F4xx_HAL_Driver/Src/stm32f4xx_hal_tim.c **** /**
3225:Drivers/STM32F4xx_HAL_Driver/Src/stm32f4xx_hal_tim.c ****   * @brief  Initializes the TIM One Pulse Channels according to the specified
3226:Drivers/STM32F4xx_HAL_Driver/Src/stm32f4xx_hal_tim.c ****   *         parameters in the TIM_OnePulse_InitTypeDef.
3227:Drivers/STM32F4xx_HAL_Driver/Src/stm32f4xx_hal_tim.c ****   * @param  htim pointer to a TIM_HandleTypeDef structure that contains
3228:Drivers/STM32F4xx_HAL_Driver/Src/stm32f4xx_hal_tim.c ****   *                the configuration information for TIM module.
3229:Drivers/STM32F4xx_HAL_Driver/Src/stm32f4xx_hal_tim.c ****   * @param  sConfig TIM One Pulse configuration structure
3230:Drivers/STM32F4xx_HAL_Driver/Src/stm32f4xx_hal_tim.c ****   * @param  OutputChannel TIM Channels to be enabled.
3231:Drivers/STM32F4xx_HAL_Driver/Src/stm32f4xx_hal_tim.c ****   *          This parameter can be one of the following values:
3232:Drivers/STM32F4xx_HAL_Driver/Src/stm32f4xx_hal_tim.c ****   *            @arg TIM_CHANNEL_1: TIM Channel 1 selected
3233:Drivers/STM32F4xx_HAL_Driver/Src/stm32f4xx_hal_tim.c ****   *            @arg TIM_CHANNEL_2: TIM Channel 2 selected
3234:Drivers/STM32F4xx_HAL_Driver/Src/stm32f4xx_hal_tim.c ****   * @param  InputChannel TIM Channels to be enabled.
3235:Drivers/STM32F4xx_HAL_Driver/Src/stm32f4xx_hal_tim.c ****   *          This parameter can be one of the following values:
3236:Drivers/STM32F4xx_HAL_Driver/Src/stm32f4xx_hal_tim.c ****   *            @arg TIM_CHANNEL_1: TIM Channel 1 selected
3237:Drivers/STM32F4xx_HAL_Driver/Src/stm32f4xx_hal_tim.c ****   *            @arg TIM_CHANNEL_2: TIM Channel 2 selected
3238:Drivers/STM32F4xx_HAL_Driver/Src/stm32f4xx_hal_tim.c ****   * @retval HAL status
3239:Drivers/STM32F4xx_HAL_Driver/Src/stm32f4xx_hal_tim.c ****   */
3240:Drivers/STM32F4xx_HAL_Driver/Src/stm32f4xx_hal_tim.c **** HAL_StatusTypeDef HAL_TIM_OnePulse_ConfigChannel(TIM_HandleTypeDef *htim,  TIM_OnePulse_InitTypeDef
3241:Drivers/STM32F4xx_HAL_Driver/Src/stm32f4xx_hal_tim.c **** {
 7038              		.loc 1 3241 0
 7039              		.cfi_startproc
 7040              		@ args = 0, pretend = 0, frame = 48
 7041              		@ frame_needed = 1, uses_anonymous_args = 0
 7042 0000 80B5     		push	{r7, lr}
 7043              	.LCFI327:
 7044              		.cfi_def_cfa_offset 8
 7045              		.cfi_offset 7, -8
 7046              		.cfi_offset 14, -4
 7047 0002 8CB0     		sub	sp, sp, #48
 7048              	.LCFI328:
 7049              		.cfi_def_cfa_offset 56
 7050 0004 00AF     		add	r7, sp, #0
 7051              	.LCFI329:
 7052              		.cfi_def_cfa_register 7
 7053 0006 F860     		str	r0, [r7, #12]
 7054 0008 B960     		str	r1, [r7, #8]
 7055 000a 7A60     		str	r2, [r7, #4]
 7056 000c 3B60     		str	r3, [r7]
3242:Drivers/STM32F4xx_HAL_Driver/Src/stm32f4xx_hal_tim.c ****   TIM_OC_InitTypeDef temp1;
3243:Drivers/STM32F4xx_HAL_Driver/Src/stm32f4xx_hal_tim.c ****   
3244:Drivers/STM32F4xx_HAL_Driver/Src/stm32f4xx_hal_tim.c ****   /* Check the parameters */
3245:Drivers/STM32F4xx_HAL_Driver/Src/stm32f4xx_hal_tim.c ****   assert_param(IS_TIM_OPM_CHANNELS(OutputChannel));
3246:Drivers/STM32F4xx_HAL_Driver/Src/stm32f4xx_hal_tim.c ****   assert_param(IS_TIM_OPM_CHANNELS(InputChannel));
ARM GAS  /tmp/cc4tSQEQ.s 			page 180


3247:Drivers/STM32F4xx_HAL_Driver/Src/stm32f4xx_hal_tim.c **** 
3248:Drivers/STM32F4xx_HAL_Driver/Src/stm32f4xx_hal_tim.c ****   if(OutputChannel != InputChannel)  
 7057              		.loc 1 3248 0
 7058 000e 7A68     		ldr	r2, [r7, #4]
 7059 0010 3B68     		ldr	r3, [r7]
 7060 0012 9A42     		cmp	r2, r3
 7061 0014 00F0AF80 		beq	.L380
3249:Drivers/STM32F4xx_HAL_Driver/Src/stm32f4xx_hal_tim.c ****   {
3250:Drivers/STM32F4xx_HAL_Driver/Src/stm32f4xx_hal_tim.c ****     __HAL_LOCK(htim);
 7062              		.loc 1 3250 0
 7063 0018 FB68     		ldr	r3, [r7, #12]
 7064 001a 93F83830 		ldrb	r3, [r3, #56]	@ zero_extendqisi2
 7065 001e 012B     		cmp	r3, #1
 7066 0020 01D1     		bne	.L381
 7067              		.loc 1 3250 0 is_stmt 0 discriminator 1
 7068 0022 0223     		movs	r3, #2
 7069 0024 A8E0     		b	.L391
 7070              	.L381:
 7071              		.loc 1 3250 0 discriminator 2
 7072 0026 FB68     		ldr	r3, [r7, #12]
 7073 0028 0122     		movs	r2, #1
 7074 002a 83F83820 		strb	r2, [r3, #56]
3251:Drivers/STM32F4xx_HAL_Driver/Src/stm32f4xx_hal_tim.c ****   
3252:Drivers/STM32F4xx_HAL_Driver/Src/stm32f4xx_hal_tim.c ****     htim->State = HAL_TIM_STATE_BUSY;
 7075              		.loc 1 3252 0 is_stmt 1 discriminator 2
 7076 002e FB68     		ldr	r3, [r7, #12]
 7077 0030 0222     		movs	r2, #2
 7078 0032 83F83920 		strb	r2, [r3, #57]
3253:Drivers/STM32F4xx_HAL_Driver/Src/stm32f4xx_hal_tim.c **** 
3254:Drivers/STM32F4xx_HAL_Driver/Src/stm32f4xx_hal_tim.c ****     /* Extract the Output compare configuration from sConfig structure */  
3255:Drivers/STM32F4xx_HAL_Driver/Src/stm32f4xx_hal_tim.c ****     temp1.OCMode = sConfig->OCMode;
 7079              		.loc 1 3255 0 discriminator 2
 7080 0036 BB68     		ldr	r3, [r7, #8]
 7081 0038 1B68     		ldr	r3, [r3]
 7082 003a 7B61     		str	r3, [r7, #20]
3256:Drivers/STM32F4xx_HAL_Driver/Src/stm32f4xx_hal_tim.c ****     temp1.Pulse = sConfig->Pulse;
 7083              		.loc 1 3256 0 discriminator 2
 7084 003c BB68     		ldr	r3, [r7, #8]
 7085 003e 5B68     		ldr	r3, [r3, #4]
 7086 0040 BB61     		str	r3, [r7, #24]
3257:Drivers/STM32F4xx_HAL_Driver/Src/stm32f4xx_hal_tim.c ****     temp1.OCPolarity = sConfig->OCPolarity;
 7087              		.loc 1 3257 0 discriminator 2
 7088 0042 BB68     		ldr	r3, [r7, #8]
 7089 0044 9B68     		ldr	r3, [r3, #8]
 7090 0046 FB61     		str	r3, [r7, #28]
3258:Drivers/STM32F4xx_HAL_Driver/Src/stm32f4xx_hal_tim.c ****     temp1.OCNPolarity = sConfig->OCNPolarity;
 7091              		.loc 1 3258 0 discriminator 2
 7092 0048 BB68     		ldr	r3, [r7, #8]
 7093 004a DB68     		ldr	r3, [r3, #12]
 7094 004c 3B62     		str	r3, [r7, #32]
3259:Drivers/STM32F4xx_HAL_Driver/Src/stm32f4xx_hal_tim.c ****     temp1.OCIdleState = sConfig->OCIdleState;
 7095              		.loc 1 3259 0 discriminator 2
 7096 004e BB68     		ldr	r3, [r7, #8]
 7097 0050 1B69     		ldr	r3, [r3, #16]
 7098 0052 BB62     		str	r3, [r7, #40]
3260:Drivers/STM32F4xx_HAL_Driver/Src/stm32f4xx_hal_tim.c ****     temp1.OCNIdleState = sConfig->OCNIdleState; 
 7099              		.loc 1 3260 0 discriminator 2
ARM GAS  /tmp/cc4tSQEQ.s 			page 181


 7100 0054 BB68     		ldr	r3, [r7, #8]
 7101 0056 5B69     		ldr	r3, [r3, #20]
 7102 0058 FB62     		str	r3, [r7, #44]
3261:Drivers/STM32F4xx_HAL_Driver/Src/stm32f4xx_hal_tim.c ****     
3262:Drivers/STM32F4xx_HAL_Driver/Src/stm32f4xx_hal_tim.c ****     switch (OutputChannel)
 7103              		.loc 1 3262 0 discriminator 2
 7104 005a 7B68     		ldr	r3, [r7, #4]
 7105 005c 002B     		cmp	r3, #0
 7106 005e 02D0     		beq	.L384
 7107 0060 042B     		cmp	r3, #4
 7108 0062 09D0     		beq	.L385
3263:Drivers/STM32F4xx_HAL_Driver/Src/stm32f4xx_hal_tim.c ****     {
3264:Drivers/STM32F4xx_HAL_Driver/Src/stm32f4xx_hal_tim.c ****       case TIM_CHANNEL_1:
3265:Drivers/STM32F4xx_HAL_Driver/Src/stm32f4xx_hal_tim.c ****       {
3266:Drivers/STM32F4xx_HAL_Driver/Src/stm32f4xx_hal_tim.c ****         assert_param(IS_TIM_CC1_INSTANCE(htim->Instance));
3267:Drivers/STM32F4xx_HAL_Driver/Src/stm32f4xx_hal_tim.c ****       
3268:Drivers/STM32F4xx_HAL_Driver/Src/stm32f4xx_hal_tim.c ****         TIM_OC1_SetConfig(htim->Instance, &temp1); 
3269:Drivers/STM32F4xx_HAL_Driver/Src/stm32f4xx_hal_tim.c ****       }
3270:Drivers/STM32F4xx_HAL_Driver/Src/stm32f4xx_hal_tim.c ****       break;
3271:Drivers/STM32F4xx_HAL_Driver/Src/stm32f4xx_hal_tim.c ****       case TIM_CHANNEL_2:
3272:Drivers/STM32F4xx_HAL_Driver/Src/stm32f4xx_hal_tim.c ****       {
3273:Drivers/STM32F4xx_HAL_Driver/Src/stm32f4xx_hal_tim.c ****         assert_param(IS_TIM_CC2_INSTANCE(htim->Instance));
3274:Drivers/STM32F4xx_HAL_Driver/Src/stm32f4xx_hal_tim.c ****       
3275:Drivers/STM32F4xx_HAL_Driver/Src/stm32f4xx_hal_tim.c ****         TIM_OC2_SetConfig(htim->Instance, &temp1);
3276:Drivers/STM32F4xx_HAL_Driver/Src/stm32f4xx_hal_tim.c ****       }
3277:Drivers/STM32F4xx_HAL_Driver/Src/stm32f4xx_hal_tim.c ****       break;
3278:Drivers/STM32F4xx_HAL_Driver/Src/stm32f4xx_hal_tim.c ****       default:
3279:Drivers/STM32F4xx_HAL_Driver/Src/stm32f4xx_hal_tim.c ****       break;  
 7109              		.loc 1 3279 0 discriminator 2
 7110 0064 11E0     		b	.L386
 7111              	.L384:
3268:Drivers/STM32F4xx_HAL_Driver/Src/stm32f4xx_hal_tim.c ****       }
 7112              		.loc 1 3268 0
 7113 0066 FB68     		ldr	r3, [r7, #12]
 7114 0068 1B68     		ldr	r3, [r3]
 7115 006a 07F11402 		add	r2, r7, #20
 7116 006e 1146     		mov	r1, r2
 7117 0070 1846     		mov	r0, r3
 7118 0072 FFF7FEFF 		bl	TIM_OC1_SetConfig
3270:Drivers/STM32F4xx_HAL_Driver/Src/stm32f4xx_hal_tim.c ****       case TIM_CHANNEL_2:
 7119              		.loc 1 3270 0
 7120 0076 08E0     		b	.L386
 7121              	.L385:
3275:Drivers/STM32F4xx_HAL_Driver/Src/stm32f4xx_hal_tim.c ****       }
 7122              		.loc 1 3275 0
 7123 0078 FB68     		ldr	r3, [r7, #12]
 7124 007a 1B68     		ldr	r3, [r3]
 7125 007c 07F11402 		add	r2, r7, #20
 7126 0080 1146     		mov	r1, r2
 7127 0082 1846     		mov	r0, r3
 7128 0084 FFF7FEFF 		bl	TIM_OC2_SetConfig
3277:Drivers/STM32F4xx_HAL_Driver/Src/stm32f4xx_hal_tim.c ****       default:
 7129              		.loc 1 3277 0
 7130 0088 00BF     		nop
 7131              	.L386:
3280:Drivers/STM32F4xx_HAL_Driver/Src/stm32f4xx_hal_tim.c ****     } 
3281:Drivers/STM32F4xx_HAL_Driver/Src/stm32f4xx_hal_tim.c ****     switch (InputChannel)
ARM GAS  /tmp/cc4tSQEQ.s 			page 182


 7132              		.loc 1 3281 0
 7133 008a 3B68     		ldr	r3, [r7]
 7134 008c 002B     		cmp	r3, #0
 7135 008e 02D0     		beq	.L388
 7136 0090 042B     		cmp	r3, #4
 7137 0092 33D0     		beq	.L389
3282:Drivers/STM32F4xx_HAL_Driver/Src/stm32f4xx_hal_tim.c ****     {
3283:Drivers/STM32F4xx_HAL_Driver/Src/stm32f4xx_hal_tim.c ****       case TIM_CHANNEL_1:
3284:Drivers/STM32F4xx_HAL_Driver/Src/stm32f4xx_hal_tim.c ****       {
3285:Drivers/STM32F4xx_HAL_Driver/Src/stm32f4xx_hal_tim.c ****         assert_param(IS_TIM_CC1_INSTANCE(htim->Instance));
3286:Drivers/STM32F4xx_HAL_Driver/Src/stm32f4xx_hal_tim.c ****       
3287:Drivers/STM32F4xx_HAL_Driver/Src/stm32f4xx_hal_tim.c ****         TIM_TI1_SetConfig(htim->Instance, sConfig->ICPolarity,
3288:Drivers/STM32F4xx_HAL_Driver/Src/stm32f4xx_hal_tim.c ****                         sConfig->ICSelection, sConfig->ICFilter);
3289:Drivers/STM32F4xx_HAL_Driver/Src/stm32f4xx_hal_tim.c ****                
3290:Drivers/STM32F4xx_HAL_Driver/Src/stm32f4xx_hal_tim.c ****         /* Reset the IC1PSC Bits */
3291:Drivers/STM32F4xx_HAL_Driver/Src/stm32f4xx_hal_tim.c ****         htim->Instance->CCMR1 &= ~TIM_CCMR1_IC1PSC;
3292:Drivers/STM32F4xx_HAL_Driver/Src/stm32f4xx_hal_tim.c **** 
3293:Drivers/STM32F4xx_HAL_Driver/Src/stm32f4xx_hal_tim.c ****         /* Select the Trigger source */
3294:Drivers/STM32F4xx_HAL_Driver/Src/stm32f4xx_hal_tim.c ****         htim->Instance->SMCR &= ~TIM_SMCR_TS;
3295:Drivers/STM32F4xx_HAL_Driver/Src/stm32f4xx_hal_tim.c ****         htim->Instance->SMCR |= TIM_TS_TI1FP1;
3296:Drivers/STM32F4xx_HAL_Driver/Src/stm32f4xx_hal_tim.c ****       
3297:Drivers/STM32F4xx_HAL_Driver/Src/stm32f4xx_hal_tim.c ****         /* Select the Slave Mode */      
3298:Drivers/STM32F4xx_HAL_Driver/Src/stm32f4xx_hal_tim.c ****         htim->Instance->SMCR &= ~TIM_SMCR_SMS;
3299:Drivers/STM32F4xx_HAL_Driver/Src/stm32f4xx_hal_tim.c ****         htim->Instance->SMCR |= TIM_SLAVEMODE_TRIGGER;
3300:Drivers/STM32F4xx_HAL_Driver/Src/stm32f4xx_hal_tim.c ****       }
3301:Drivers/STM32F4xx_HAL_Driver/Src/stm32f4xx_hal_tim.c ****       break;
3302:Drivers/STM32F4xx_HAL_Driver/Src/stm32f4xx_hal_tim.c ****       case TIM_CHANNEL_2:
3303:Drivers/STM32F4xx_HAL_Driver/Src/stm32f4xx_hal_tim.c ****       {
3304:Drivers/STM32F4xx_HAL_Driver/Src/stm32f4xx_hal_tim.c ****         assert_param(IS_TIM_CC2_INSTANCE(htim->Instance));
3305:Drivers/STM32F4xx_HAL_Driver/Src/stm32f4xx_hal_tim.c ****       
3306:Drivers/STM32F4xx_HAL_Driver/Src/stm32f4xx_hal_tim.c ****         TIM_TI2_SetConfig(htim->Instance, sConfig->ICPolarity,
3307:Drivers/STM32F4xx_HAL_Driver/Src/stm32f4xx_hal_tim.c ****                  sConfig->ICSelection, sConfig->ICFilter);
3308:Drivers/STM32F4xx_HAL_Driver/Src/stm32f4xx_hal_tim.c ****                
3309:Drivers/STM32F4xx_HAL_Driver/Src/stm32f4xx_hal_tim.c ****         /* Reset the IC2PSC Bits */
3310:Drivers/STM32F4xx_HAL_Driver/Src/stm32f4xx_hal_tim.c ****         htim->Instance->CCMR1 &= ~TIM_CCMR1_IC2PSC;
3311:Drivers/STM32F4xx_HAL_Driver/Src/stm32f4xx_hal_tim.c **** 
3312:Drivers/STM32F4xx_HAL_Driver/Src/stm32f4xx_hal_tim.c ****         /* Select the Trigger source */
3313:Drivers/STM32F4xx_HAL_Driver/Src/stm32f4xx_hal_tim.c ****         htim->Instance->SMCR &= ~TIM_SMCR_TS;
3314:Drivers/STM32F4xx_HAL_Driver/Src/stm32f4xx_hal_tim.c ****         htim->Instance->SMCR |= TIM_TS_TI2FP2;
3315:Drivers/STM32F4xx_HAL_Driver/Src/stm32f4xx_hal_tim.c ****       
3316:Drivers/STM32F4xx_HAL_Driver/Src/stm32f4xx_hal_tim.c ****         /* Select the Slave Mode */      
3317:Drivers/STM32F4xx_HAL_Driver/Src/stm32f4xx_hal_tim.c ****         htim->Instance->SMCR &= ~TIM_SMCR_SMS;
3318:Drivers/STM32F4xx_HAL_Driver/Src/stm32f4xx_hal_tim.c ****         htim->Instance->SMCR |= TIM_SLAVEMODE_TRIGGER;
3319:Drivers/STM32F4xx_HAL_Driver/Src/stm32f4xx_hal_tim.c ****       }
3320:Drivers/STM32F4xx_HAL_Driver/Src/stm32f4xx_hal_tim.c ****       break;
3321:Drivers/STM32F4xx_HAL_Driver/Src/stm32f4xx_hal_tim.c ****     
3322:Drivers/STM32F4xx_HAL_Driver/Src/stm32f4xx_hal_tim.c ****       default:
3323:Drivers/STM32F4xx_HAL_Driver/Src/stm32f4xx_hal_tim.c ****       break;  
 7138              		.loc 1 3323 0
 7139 0094 65E0     		b	.L390
 7140              	.L388:
3287:Drivers/STM32F4xx_HAL_Driver/Src/stm32f4xx_hal_tim.c ****                         sConfig->ICSelection, sConfig->ICFilter);
 7141              		.loc 1 3287 0
 7142 0096 FB68     		ldr	r3, [r7, #12]
 7143 0098 1868     		ldr	r0, [r3]
 7144 009a BB68     		ldr	r3, [r7, #8]
 7145 009c 9969     		ldr	r1, [r3, #24]
ARM GAS  /tmp/cc4tSQEQ.s 			page 183


 7146 009e BB68     		ldr	r3, [r7, #8]
 7147 00a0 DA69     		ldr	r2, [r3, #28]
 7148 00a2 BB68     		ldr	r3, [r7, #8]
 7149 00a4 1B6A     		ldr	r3, [r3, #32]
 7150 00a6 FFF7FEFF 		bl	TIM_TI1_SetConfig
3291:Drivers/STM32F4xx_HAL_Driver/Src/stm32f4xx_hal_tim.c **** 
 7151              		.loc 1 3291 0
 7152 00aa FB68     		ldr	r3, [r7, #12]
 7153 00ac 1B68     		ldr	r3, [r3]
 7154 00ae FA68     		ldr	r2, [r7, #12]
 7155 00b0 1268     		ldr	r2, [r2]
 7156 00b2 9269     		ldr	r2, [r2, #24]
 7157 00b4 22F00C02 		bic	r2, r2, #12
 7158 00b8 9A61     		str	r2, [r3, #24]
3294:Drivers/STM32F4xx_HAL_Driver/Src/stm32f4xx_hal_tim.c ****         htim->Instance->SMCR |= TIM_TS_TI1FP1;
 7159              		.loc 1 3294 0
 7160 00ba FB68     		ldr	r3, [r7, #12]
 7161 00bc 1B68     		ldr	r3, [r3]
 7162 00be FA68     		ldr	r2, [r7, #12]
 7163 00c0 1268     		ldr	r2, [r2]
 7164 00c2 9268     		ldr	r2, [r2, #8]
 7165 00c4 22F07002 		bic	r2, r2, #112
 7166 00c8 9A60     		str	r2, [r3, #8]
3295:Drivers/STM32F4xx_HAL_Driver/Src/stm32f4xx_hal_tim.c ****       
 7167              		.loc 1 3295 0
 7168 00ca FB68     		ldr	r3, [r7, #12]
 7169 00cc 1B68     		ldr	r3, [r3]
 7170 00ce FA68     		ldr	r2, [r7, #12]
 7171 00d0 1268     		ldr	r2, [r2]
 7172 00d2 9268     		ldr	r2, [r2, #8]
 7173 00d4 42F05002 		orr	r2, r2, #80
 7174 00d8 9A60     		str	r2, [r3, #8]
3298:Drivers/STM32F4xx_HAL_Driver/Src/stm32f4xx_hal_tim.c ****         htim->Instance->SMCR |= TIM_SLAVEMODE_TRIGGER;
 7175              		.loc 1 3298 0
 7176 00da FB68     		ldr	r3, [r7, #12]
 7177 00dc 1B68     		ldr	r3, [r3]
 7178 00de FA68     		ldr	r2, [r7, #12]
 7179 00e0 1268     		ldr	r2, [r2]
 7180 00e2 9268     		ldr	r2, [r2, #8]
 7181 00e4 22F00702 		bic	r2, r2, #7
 7182 00e8 9A60     		str	r2, [r3, #8]
3299:Drivers/STM32F4xx_HAL_Driver/Src/stm32f4xx_hal_tim.c ****       }
 7183              		.loc 1 3299 0
 7184 00ea FB68     		ldr	r3, [r7, #12]
 7185 00ec 1B68     		ldr	r3, [r3]
 7186 00ee FA68     		ldr	r2, [r7, #12]
 7187 00f0 1268     		ldr	r2, [r2]
 7188 00f2 9268     		ldr	r2, [r2, #8]
 7189 00f4 42F00602 		orr	r2, r2, #6
 7190 00f8 9A60     		str	r2, [r3, #8]
3301:Drivers/STM32F4xx_HAL_Driver/Src/stm32f4xx_hal_tim.c ****       case TIM_CHANNEL_2:
 7191              		.loc 1 3301 0
 7192 00fa 32E0     		b	.L390
 7193              	.L389:
3306:Drivers/STM32F4xx_HAL_Driver/Src/stm32f4xx_hal_tim.c ****                  sConfig->ICSelection, sConfig->ICFilter);
 7194              		.loc 1 3306 0
 7195 00fc FB68     		ldr	r3, [r7, #12]
ARM GAS  /tmp/cc4tSQEQ.s 			page 184


 7196 00fe 1868     		ldr	r0, [r3]
 7197 0100 BB68     		ldr	r3, [r7, #8]
 7198 0102 9969     		ldr	r1, [r3, #24]
 7199 0104 BB68     		ldr	r3, [r7, #8]
 7200 0106 DA69     		ldr	r2, [r3, #28]
 7201 0108 BB68     		ldr	r3, [r7, #8]
 7202 010a 1B6A     		ldr	r3, [r3, #32]
 7203 010c FFF7FEFF 		bl	TIM_TI2_SetConfig
3310:Drivers/STM32F4xx_HAL_Driver/Src/stm32f4xx_hal_tim.c **** 
 7204              		.loc 1 3310 0
 7205 0110 FB68     		ldr	r3, [r7, #12]
 7206 0112 1B68     		ldr	r3, [r3]
 7207 0114 FA68     		ldr	r2, [r7, #12]
 7208 0116 1268     		ldr	r2, [r2]
 7209 0118 9269     		ldr	r2, [r2, #24]
 7210 011a 22F44062 		bic	r2, r2, #3072
 7211 011e 9A61     		str	r2, [r3, #24]
3313:Drivers/STM32F4xx_HAL_Driver/Src/stm32f4xx_hal_tim.c ****         htim->Instance->SMCR |= TIM_TS_TI2FP2;
 7212              		.loc 1 3313 0
 7213 0120 FB68     		ldr	r3, [r7, #12]
 7214 0122 1B68     		ldr	r3, [r3]
 7215 0124 FA68     		ldr	r2, [r7, #12]
 7216 0126 1268     		ldr	r2, [r2]
 7217 0128 9268     		ldr	r2, [r2, #8]
 7218 012a 22F07002 		bic	r2, r2, #112
 7219 012e 9A60     		str	r2, [r3, #8]
3314:Drivers/STM32F4xx_HAL_Driver/Src/stm32f4xx_hal_tim.c ****       
 7220              		.loc 1 3314 0
 7221 0130 FB68     		ldr	r3, [r7, #12]
 7222 0132 1B68     		ldr	r3, [r3]
 7223 0134 FA68     		ldr	r2, [r7, #12]
 7224 0136 1268     		ldr	r2, [r2]
 7225 0138 9268     		ldr	r2, [r2, #8]
 7226 013a 42F06002 		orr	r2, r2, #96
 7227 013e 9A60     		str	r2, [r3, #8]
3317:Drivers/STM32F4xx_HAL_Driver/Src/stm32f4xx_hal_tim.c ****         htim->Instance->SMCR |= TIM_SLAVEMODE_TRIGGER;
 7228              		.loc 1 3317 0
 7229 0140 FB68     		ldr	r3, [r7, #12]
 7230 0142 1B68     		ldr	r3, [r3]
 7231 0144 FA68     		ldr	r2, [r7, #12]
 7232 0146 1268     		ldr	r2, [r2]
 7233 0148 9268     		ldr	r2, [r2, #8]
 7234 014a 22F00702 		bic	r2, r2, #7
 7235 014e 9A60     		str	r2, [r3, #8]
3318:Drivers/STM32F4xx_HAL_Driver/Src/stm32f4xx_hal_tim.c ****       }
 7236              		.loc 1 3318 0
 7237 0150 FB68     		ldr	r3, [r7, #12]
 7238 0152 1B68     		ldr	r3, [r3]
 7239 0154 FA68     		ldr	r2, [r7, #12]
 7240 0156 1268     		ldr	r2, [r2]
 7241 0158 9268     		ldr	r2, [r2, #8]
 7242 015a 42F00602 		orr	r2, r2, #6
 7243 015e 9A60     		str	r2, [r3, #8]
3320:Drivers/STM32F4xx_HAL_Driver/Src/stm32f4xx_hal_tim.c ****     
 7244              		.loc 1 3320 0
 7245 0160 00BF     		nop
 7246              	.L390:
ARM GAS  /tmp/cc4tSQEQ.s 			page 185


3324:Drivers/STM32F4xx_HAL_Driver/Src/stm32f4xx_hal_tim.c ****     }
3325:Drivers/STM32F4xx_HAL_Driver/Src/stm32f4xx_hal_tim.c ****   
3326:Drivers/STM32F4xx_HAL_Driver/Src/stm32f4xx_hal_tim.c ****     htim->State = HAL_TIM_STATE_READY;
 7247              		.loc 1 3326 0
 7248 0162 FB68     		ldr	r3, [r7, #12]
 7249 0164 0122     		movs	r2, #1
 7250 0166 83F83920 		strb	r2, [r3, #57]
3327:Drivers/STM32F4xx_HAL_Driver/Src/stm32f4xx_hal_tim.c ****     
3328:Drivers/STM32F4xx_HAL_Driver/Src/stm32f4xx_hal_tim.c ****     __HAL_UNLOCK(htim);
 7251              		.loc 1 3328 0
 7252 016a FB68     		ldr	r3, [r7, #12]
 7253 016c 0022     		movs	r2, #0
 7254 016e 83F83820 		strb	r2, [r3, #56]
3329:Drivers/STM32F4xx_HAL_Driver/Src/stm32f4xx_hal_tim.c ****   
3330:Drivers/STM32F4xx_HAL_Driver/Src/stm32f4xx_hal_tim.c ****     return HAL_OK;
 7255              		.loc 1 3330 0
 7256 0172 0023     		movs	r3, #0
 7257 0174 00E0     		b	.L391
 7258              	.L380:
3331:Drivers/STM32F4xx_HAL_Driver/Src/stm32f4xx_hal_tim.c ****   }
3332:Drivers/STM32F4xx_HAL_Driver/Src/stm32f4xx_hal_tim.c ****   else
3333:Drivers/STM32F4xx_HAL_Driver/Src/stm32f4xx_hal_tim.c ****   {
3334:Drivers/STM32F4xx_HAL_Driver/Src/stm32f4xx_hal_tim.c ****     return HAL_ERROR;
 7259              		.loc 1 3334 0
 7260 0176 0123     		movs	r3, #1
 7261              	.L391:
3335:Drivers/STM32F4xx_HAL_Driver/Src/stm32f4xx_hal_tim.c ****   }
3336:Drivers/STM32F4xx_HAL_Driver/Src/stm32f4xx_hal_tim.c **** } 
 7262              		.loc 1 3336 0 discriminator 1
 7263 0178 1846     		mov	r0, r3
 7264 017a 3037     		adds	r7, r7, #48
 7265              	.LCFI330:
 7266              		.cfi_def_cfa_offset 8
 7267 017c BD46     		mov	sp, r7
 7268              	.LCFI331:
 7269              		.cfi_def_cfa_register 13
 7270              		@ sp needed
 7271 017e 80BD     		pop	{r7, pc}
 7272              		.cfi_endproc
 7273              	.LFE186:
 7275              		.section	.text.HAL_TIM_DMABurst_WriteStart,"ax",%progbits
 7276              		.align	1
 7277              		.global	HAL_TIM_DMABurst_WriteStart
 7278              		.syntax unified
 7279              		.thumb
 7280              		.thumb_func
 7281              		.fpu fpv4-sp-d16
 7283              	HAL_TIM_DMABurst_WriteStart:
 7284              	.LFB187:
3337:Drivers/STM32F4xx_HAL_Driver/Src/stm32f4xx_hal_tim.c **** 
3338:Drivers/STM32F4xx_HAL_Driver/Src/stm32f4xx_hal_tim.c **** /**
3339:Drivers/STM32F4xx_HAL_Driver/Src/stm32f4xx_hal_tim.c ****   * @brief  Configure the DMA Burst to transfer Data from the memory to the TIM peripheral  
3340:Drivers/STM32F4xx_HAL_Driver/Src/stm32f4xx_hal_tim.c ****   * @param  htim pointer to a TIM_HandleTypeDef structure that contains
3341:Drivers/STM32F4xx_HAL_Driver/Src/stm32f4xx_hal_tim.c ****   *                the configuration information for TIM module.
3342:Drivers/STM32F4xx_HAL_Driver/Src/stm32f4xx_hal_tim.c ****   * @param  BurstBaseAddress TIM Base address from when the DMA will starts the Data write.
3343:Drivers/STM32F4xx_HAL_Driver/Src/stm32f4xx_hal_tim.c ****   *         This parameters can be on of the following values:
3344:Drivers/STM32F4xx_HAL_Driver/Src/stm32f4xx_hal_tim.c ****   *            @arg TIM_DMABASE_CR1  
ARM GAS  /tmp/cc4tSQEQ.s 			page 186


3345:Drivers/STM32F4xx_HAL_Driver/Src/stm32f4xx_hal_tim.c ****   *            @arg TIM_DMABASE_CR2
3346:Drivers/STM32F4xx_HAL_Driver/Src/stm32f4xx_hal_tim.c ****   *            @arg TIM_DMABASE_SMCR
3347:Drivers/STM32F4xx_HAL_Driver/Src/stm32f4xx_hal_tim.c ****   *            @arg TIM_DMABASE_DIER
3348:Drivers/STM32F4xx_HAL_Driver/Src/stm32f4xx_hal_tim.c ****   *            @arg TIM_DMABASE_SR
3349:Drivers/STM32F4xx_HAL_Driver/Src/stm32f4xx_hal_tim.c ****   *            @arg TIM_DMABASE_EGR
3350:Drivers/STM32F4xx_HAL_Driver/Src/stm32f4xx_hal_tim.c ****   *            @arg TIM_DMABASE_CCMR1
3351:Drivers/STM32F4xx_HAL_Driver/Src/stm32f4xx_hal_tim.c ****   *            @arg TIM_DMABASE_CCMR2
3352:Drivers/STM32F4xx_HAL_Driver/Src/stm32f4xx_hal_tim.c ****   *            @arg TIM_DMABASE_CCER
3353:Drivers/STM32F4xx_HAL_Driver/Src/stm32f4xx_hal_tim.c ****   *            @arg TIM_DMABASE_CNT   
3354:Drivers/STM32F4xx_HAL_Driver/Src/stm32f4xx_hal_tim.c ****   *            @arg TIM_DMABASE_PSC   
3355:Drivers/STM32F4xx_HAL_Driver/Src/stm32f4xx_hal_tim.c ****   *            @arg TIM_DMABASE_ARR
3356:Drivers/STM32F4xx_HAL_Driver/Src/stm32f4xx_hal_tim.c ****   *            @arg TIM_DMABASE_RCR
3357:Drivers/STM32F4xx_HAL_Driver/Src/stm32f4xx_hal_tim.c ****   *            @arg TIM_DMABASE_CCR1
3358:Drivers/STM32F4xx_HAL_Driver/Src/stm32f4xx_hal_tim.c ****   *            @arg TIM_DMABASE_CCR2
3359:Drivers/STM32F4xx_HAL_Driver/Src/stm32f4xx_hal_tim.c ****   *            @arg TIM_DMABASE_CCR3  
3360:Drivers/STM32F4xx_HAL_Driver/Src/stm32f4xx_hal_tim.c ****   *            @arg TIM_DMABASE_CCR4
3361:Drivers/STM32F4xx_HAL_Driver/Src/stm32f4xx_hal_tim.c ****   *            @arg TIM_DMABASE_BDTR
3362:Drivers/STM32F4xx_HAL_Driver/Src/stm32f4xx_hal_tim.c ****   *            @arg TIM_DMABASE_DCR
3363:Drivers/STM32F4xx_HAL_Driver/Src/stm32f4xx_hal_tim.c ****   * @param  BurstRequestSrc TIM DMA Request sources.
3364:Drivers/STM32F4xx_HAL_Driver/Src/stm32f4xx_hal_tim.c ****   *         This parameters can be on of the following values:
3365:Drivers/STM32F4xx_HAL_Driver/Src/stm32f4xx_hal_tim.c ****   *            @arg TIM_DMA_UPDATE: TIM update Interrupt source
3366:Drivers/STM32F4xx_HAL_Driver/Src/stm32f4xx_hal_tim.c ****   *            @arg TIM_DMA_CC1: TIM Capture Compare 1 DMA source
3367:Drivers/STM32F4xx_HAL_Driver/Src/stm32f4xx_hal_tim.c ****   *            @arg TIM_DMA_CC2: TIM Capture Compare 2 DMA source
3368:Drivers/STM32F4xx_HAL_Driver/Src/stm32f4xx_hal_tim.c ****   *            @arg TIM_DMA_CC3: TIM Capture Compare 3 DMA source
3369:Drivers/STM32F4xx_HAL_Driver/Src/stm32f4xx_hal_tim.c ****   *            @arg TIM_DMA_CC4: TIM Capture Compare 4 DMA source
3370:Drivers/STM32F4xx_HAL_Driver/Src/stm32f4xx_hal_tim.c ****   *            @arg TIM_DMA_COM: TIM Commutation DMA source
3371:Drivers/STM32F4xx_HAL_Driver/Src/stm32f4xx_hal_tim.c ****   *            @arg TIM_DMA_TRIGGER: TIM Trigger DMA source
3372:Drivers/STM32F4xx_HAL_Driver/Src/stm32f4xx_hal_tim.c ****   * @param  BurstBuffer The Buffer address.
3373:Drivers/STM32F4xx_HAL_Driver/Src/stm32f4xx_hal_tim.c ****   * @param  BurstLength DMA Burst length. This parameter can be one value
3374:Drivers/STM32F4xx_HAL_Driver/Src/stm32f4xx_hal_tim.c ****   *         between TIM_DMABURSTLENGTH_1TRANSFER and TIM_DMABURSTLENGTH_18TRANSFERS.
3375:Drivers/STM32F4xx_HAL_Driver/Src/stm32f4xx_hal_tim.c ****   * @retval HAL status
3376:Drivers/STM32F4xx_HAL_Driver/Src/stm32f4xx_hal_tim.c ****   */
3377:Drivers/STM32F4xx_HAL_Driver/Src/stm32f4xx_hal_tim.c **** HAL_StatusTypeDef HAL_TIM_DMABurst_WriteStart(TIM_HandleTypeDef *htim, uint32_t BurstBaseAddress, u
3378:Drivers/STM32F4xx_HAL_Driver/Src/stm32f4xx_hal_tim.c ****                                               uint32_t* BurstBuffer, uint32_t  BurstLength)
3379:Drivers/STM32F4xx_HAL_Driver/Src/stm32f4xx_hal_tim.c **** {
 7285              		.loc 1 3379 0
 7286              		.cfi_startproc
 7287              		@ args = 4, pretend = 0, frame = 16
 7288              		@ frame_needed = 1, uses_anonymous_args = 0
 7289 0000 80B5     		push	{r7, lr}
 7290              	.LCFI332:
 7291              		.cfi_def_cfa_offset 8
 7292              		.cfi_offset 7, -8
 7293              		.cfi_offset 14, -4
 7294 0002 84B0     		sub	sp, sp, #16
 7295              	.LCFI333:
 7296              		.cfi_def_cfa_offset 24
 7297 0004 00AF     		add	r7, sp, #0
 7298              	.LCFI334:
 7299              		.cfi_def_cfa_register 7
 7300 0006 F860     		str	r0, [r7, #12]
 7301 0008 B960     		str	r1, [r7, #8]
 7302 000a 7A60     		str	r2, [r7, #4]
 7303 000c 3B60     		str	r3, [r7]
3380:Drivers/STM32F4xx_HAL_Driver/Src/stm32f4xx_hal_tim.c ****   /* Check the parameters */
3381:Drivers/STM32F4xx_HAL_Driver/Src/stm32f4xx_hal_tim.c ****   assert_param(IS_TIM_DMABURST_INSTANCE(htim->Instance));
3382:Drivers/STM32F4xx_HAL_Driver/Src/stm32f4xx_hal_tim.c ****   assert_param(IS_TIM_DMA_BASE(BurstBaseAddress));
ARM GAS  /tmp/cc4tSQEQ.s 			page 187


3383:Drivers/STM32F4xx_HAL_Driver/Src/stm32f4xx_hal_tim.c ****   assert_param(IS_TIM_DMA_SOURCE(BurstRequestSrc));
3384:Drivers/STM32F4xx_HAL_Driver/Src/stm32f4xx_hal_tim.c ****   assert_param(IS_TIM_DMA_LENGTH(BurstLength));
3385:Drivers/STM32F4xx_HAL_Driver/Src/stm32f4xx_hal_tim.c ****   
3386:Drivers/STM32F4xx_HAL_Driver/Src/stm32f4xx_hal_tim.c ****   if((htim->State == HAL_TIM_STATE_BUSY))
 7304              		.loc 1 3386 0
 7305 000e FB68     		ldr	r3, [r7, #12]
 7306 0010 93F83930 		ldrb	r3, [r3, #57]
 7307 0014 DBB2     		uxtb	r3, r3
 7308 0016 022B     		cmp	r3, #2
 7309 0018 01D1     		bne	.L393
3387:Drivers/STM32F4xx_HAL_Driver/Src/stm32f4xx_hal_tim.c ****   {
3388:Drivers/STM32F4xx_HAL_Driver/Src/stm32f4xx_hal_tim.c ****      return HAL_BUSY;
 7310              		.loc 1 3388 0
 7311 001a 0223     		movs	r3, #2
 7312 001c D3E0     		b	.L394
 7313              	.L393:
3389:Drivers/STM32F4xx_HAL_Driver/Src/stm32f4xx_hal_tim.c ****   }
3390:Drivers/STM32F4xx_HAL_Driver/Src/stm32f4xx_hal_tim.c ****   else if((htim->State == HAL_TIM_STATE_READY))
 7314              		.loc 1 3390 0
 7315 001e FB68     		ldr	r3, [r7, #12]
 7316 0020 93F83930 		ldrb	r3, [r3, #57]
 7317 0024 DBB2     		uxtb	r3, r3
 7318 0026 012B     		cmp	r3, #1
 7319 0028 0BD1     		bne	.L395
3391:Drivers/STM32F4xx_HAL_Driver/Src/stm32f4xx_hal_tim.c ****   {
3392:Drivers/STM32F4xx_HAL_Driver/Src/stm32f4xx_hal_tim.c ****     if((BurstBuffer == 0U) && (BurstLength > 0U)) 
 7320              		.loc 1 3392 0
 7321 002a 3B68     		ldr	r3, [r7]
 7322 002c 002B     		cmp	r3, #0
 7323 002e 04D1     		bne	.L396
 7324              		.loc 1 3392 0 is_stmt 0 discriminator 1
 7325 0030 BB69     		ldr	r3, [r7, #24]
 7326 0032 002B     		cmp	r3, #0
 7327 0034 01D0     		beq	.L396
3393:Drivers/STM32F4xx_HAL_Driver/Src/stm32f4xx_hal_tim.c ****     {
3394:Drivers/STM32F4xx_HAL_Driver/Src/stm32f4xx_hal_tim.c ****       return HAL_ERROR;                                    
 7328              		.loc 1 3394 0 is_stmt 1
 7329 0036 0123     		movs	r3, #1
 7330 0038 C5E0     		b	.L394
 7331              	.L396:
3395:Drivers/STM32F4xx_HAL_Driver/Src/stm32f4xx_hal_tim.c ****     }
3396:Drivers/STM32F4xx_HAL_Driver/Src/stm32f4xx_hal_tim.c ****     else
3397:Drivers/STM32F4xx_HAL_Driver/Src/stm32f4xx_hal_tim.c ****     {
3398:Drivers/STM32F4xx_HAL_Driver/Src/stm32f4xx_hal_tim.c ****       htim->State = HAL_TIM_STATE_BUSY;
 7332              		.loc 1 3398 0
 7333 003a FB68     		ldr	r3, [r7, #12]
 7334 003c 0222     		movs	r2, #2
 7335 003e 83F83920 		strb	r2, [r3, #57]
 7336              	.L395:
3399:Drivers/STM32F4xx_HAL_Driver/Src/stm32f4xx_hal_tim.c ****     }
3400:Drivers/STM32F4xx_HAL_Driver/Src/stm32f4xx_hal_tim.c ****   }
3401:Drivers/STM32F4xx_HAL_Driver/Src/stm32f4xx_hal_tim.c ****   switch(BurstRequestSrc)
 7337              		.loc 1 3401 0
 7338 0042 7B68     		ldr	r3, [r7, #4]
 7339 0044 B3F5006F 		cmp	r3, #2048
 7340 0048 56D0     		beq	.L398
 7341 004a B3F5006F 		cmp	r3, #2048
ARM GAS  /tmp/cc4tSQEQ.s 			page 188


 7342 004e 09D8     		bhi	.L399
 7343 0050 B3F5007F 		cmp	r3, #512
 7344 0054 26D0     		beq	.L400
 7345 0056 B3F5806F 		cmp	r3, #1024
 7346 005a 38D0     		beq	.L401
 7347 005c B3F5807F 		cmp	r3, #256
 7348 0060 0BD0     		beq	.L402
3402:Drivers/STM32F4xx_HAL_Driver/Src/stm32f4xx_hal_tim.c ****   {
3403:Drivers/STM32F4xx_HAL_Driver/Src/stm32f4xx_hal_tim.c ****     case TIM_DMA_UPDATE:
3404:Drivers/STM32F4xx_HAL_Driver/Src/stm32f4xx_hal_tim.c ****     {  
3405:Drivers/STM32F4xx_HAL_Driver/Src/stm32f4xx_hal_tim.c ****       /* Set the DMA Period elapsed callback */
3406:Drivers/STM32F4xx_HAL_Driver/Src/stm32f4xx_hal_tim.c ****       htim->hdma[TIM_DMA_ID_UPDATE]->XferCpltCallback = TIM_DMAPeriodElapsedCplt;
3407:Drivers/STM32F4xx_HAL_Driver/Src/stm32f4xx_hal_tim.c ****      
3408:Drivers/STM32F4xx_HAL_Driver/Src/stm32f4xx_hal_tim.c ****       /* Set the DMA error callback */
3409:Drivers/STM32F4xx_HAL_Driver/Src/stm32f4xx_hal_tim.c ****       htim->hdma[TIM_DMA_ID_UPDATE]->XferErrorCallback = TIM_DMAError ;
3410:Drivers/STM32F4xx_HAL_Driver/Src/stm32f4xx_hal_tim.c ****   
3411:Drivers/STM32F4xx_HAL_Driver/Src/stm32f4xx_hal_tim.c ****       /* Enable the DMA Stream */
3412:Drivers/STM32F4xx_HAL_Driver/Src/stm32f4xx_hal_tim.c ****       HAL_DMA_Start_IT(htim->hdma[TIM_DMA_ID_UPDATE], (uint32_t)BurstBuffer, (uint32_t)&htim->Insta
3413:Drivers/STM32F4xx_HAL_Driver/Src/stm32f4xx_hal_tim.c ****     }
3414:Drivers/STM32F4xx_HAL_Driver/Src/stm32f4xx_hal_tim.c ****     break;
3415:Drivers/STM32F4xx_HAL_Driver/Src/stm32f4xx_hal_tim.c ****     case TIM_DMA_CC1:
3416:Drivers/STM32F4xx_HAL_Driver/Src/stm32f4xx_hal_tim.c ****     {  
3417:Drivers/STM32F4xx_HAL_Driver/Src/stm32f4xx_hal_tim.c ****       /* Set the DMA Period elapsed callback */
3418:Drivers/STM32F4xx_HAL_Driver/Src/stm32f4xx_hal_tim.c ****       htim->hdma[TIM_DMA_ID_CC1]->XferCpltCallback = TIM_DMADelayPulseCplt;
3419:Drivers/STM32F4xx_HAL_Driver/Src/stm32f4xx_hal_tim.c ****      
3420:Drivers/STM32F4xx_HAL_Driver/Src/stm32f4xx_hal_tim.c ****       /* Set the DMA error callback */
3421:Drivers/STM32F4xx_HAL_Driver/Src/stm32f4xx_hal_tim.c ****       htim->hdma[TIM_DMA_ID_CC1]->XferErrorCallback = TIM_DMAError ;
3422:Drivers/STM32F4xx_HAL_Driver/Src/stm32f4xx_hal_tim.c ****   
3423:Drivers/STM32F4xx_HAL_Driver/Src/stm32f4xx_hal_tim.c ****       /* Enable the DMA Stream */
3424:Drivers/STM32F4xx_HAL_Driver/Src/stm32f4xx_hal_tim.c ****       HAL_DMA_Start_IT(htim->hdma[TIM_DMA_ID_CC1], (uint32_t)BurstBuffer, (uint32_t)&htim->Instance
3425:Drivers/STM32F4xx_HAL_Driver/Src/stm32f4xx_hal_tim.c ****     }
3426:Drivers/STM32F4xx_HAL_Driver/Src/stm32f4xx_hal_tim.c ****     break;
3427:Drivers/STM32F4xx_HAL_Driver/Src/stm32f4xx_hal_tim.c ****     case TIM_DMA_CC2:
3428:Drivers/STM32F4xx_HAL_Driver/Src/stm32f4xx_hal_tim.c ****     {  
3429:Drivers/STM32F4xx_HAL_Driver/Src/stm32f4xx_hal_tim.c ****       /* Set the DMA Period elapsed callback */
3430:Drivers/STM32F4xx_HAL_Driver/Src/stm32f4xx_hal_tim.c ****       htim->hdma[TIM_DMA_ID_CC2]->XferCpltCallback = TIM_DMADelayPulseCplt;
3431:Drivers/STM32F4xx_HAL_Driver/Src/stm32f4xx_hal_tim.c ****      
3432:Drivers/STM32F4xx_HAL_Driver/Src/stm32f4xx_hal_tim.c ****       /* Set the DMA error callback */
3433:Drivers/STM32F4xx_HAL_Driver/Src/stm32f4xx_hal_tim.c ****       htim->hdma[TIM_DMA_ID_CC2]->XferErrorCallback = TIM_DMAError ;
3434:Drivers/STM32F4xx_HAL_Driver/Src/stm32f4xx_hal_tim.c ****   
3435:Drivers/STM32F4xx_HAL_Driver/Src/stm32f4xx_hal_tim.c ****       /* Enable the DMA Stream */
3436:Drivers/STM32F4xx_HAL_Driver/Src/stm32f4xx_hal_tim.c ****       HAL_DMA_Start_IT(htim->hdma[TIM_DMA_ID_CC2], (uint32_t)BurstBuffer, (uint32_t)&htim->Instance
3437:Drivers/STM32F4xx_HAL_Driver/Src/stm32f4xx_hal_tim.c ****     }
3438:Drivers/STM32F4xx_HAL_Driver/Src/stm32f4xx_hal_tim.c ****     break;
3439:Drivers/STM32F4xx_HAL_Driver/Src/stm32f4xx_hal_tim.c ****     case TIM_DMA_CC3:
3440:Drivers/STM32F4xx_HAL_Driver/Src/stm32f4xx_hal_tim.c ****     {  
3441:Drivers/STM32F4xx_HAL_Driver/Src/stm32f4xx_hal_tim.c ****       /* Set the DMA Period elapsed callback */
3442:Drivers/STM32F4xx_HAL_Driver/Src/stm32f4xx_hal_tim.c ****       htim->hdma[TIM_DMA_ID_CC3]->XferCpltCallback = TIM_DMADelayPulseCplt;
3443:Drivers/STM32F4xx_HAL_Driver/Src/stm32f4xx_hal_tim.c ****      
3444:Drivers/STM32F4xx_HAL_Driver/Src/stm32f4xx_hal_tim.c ****       /* Set the DMA error callback */
3445:Drivers/STM32F4xx_HAL_Driver/Src/stm32f4xx_hal_tim.c ****       htim->hdma[TIM_DMA_ID_CC3]->XferErrorCallback = TIM_DMAError ;
3446:Drivers/STM32F4xx_HAL_Driver/Src/stm32f4xx_hal_tim.c ****   
3447:Drivers/STM32F4xx_HAL_Driver/Src/stm32f4xx_hal_tim.c ****       /* Enable the DMA Stream */
3448:Drivers/STM32F4xx_HAL_Driver/Src/stm32f4xx_hal_tim.c ****       HAL_DMA_Start_IT(htim->hdma[TIM_DMA_ID_CC3], (uint32_t)BurstBuffer, (uint32_t)&htim->Instance
3449:Drivers/STM32F4xx_HAL_Driver/Src/stm32f4xx_hal_tim.c ****     }
3450:Drivers/STM32F4xx_HAL_Driver/Src/stm32f4xx_hal_tim.c ****     break;
3451:Drivers/STM32F4xx_HAL_Driver/Src/stm32f4xx_hal_tim.c ****     case TIM_DMA_CC4:
ARM GAS  /tmp/cc4tSQEQ.s 			page 189


3452:Drivers/STM32F4xx_HAL_Driver/Src/stm32f4xx_hal_tim.c ****     {  
3453:Drivers/STM32F4xx_HAL_Driver/Src/stm32f4xx_hal_tim.c ****       /* Set the DMA Period elapsed callback */
3454:Drivers/STM32F4xx_HAL_Driver/Src/stm32f4xx_hal_tim.c ****       htim->hdma[TIM_DMA_ID_CC4]->XferCpltCallback = TIM_DMADelayPulseCplt;
3455:Drivers/STM32F4xx_HAL_Driver/Src/stm32f4xx_hal_tim.c ****      
3456:Drivers/STM32F4xx_HAL_Driver/Src/stm32f4xx_hal_tim.c ****       /* Set the DMA error callback */
3457:Drivers/STM32F4xx_HAL_Driver/Src/stm32f4xx_hal_tim.c ****       htim->hdma[TIM_DMA_ID_CC4]->XferErrorCallback = TIM_DMAError ;
3458:Drivers/STM32F4xx_HAL_Driver/Src/stm32f4xx_hal_tim.c ****   
3459:Drivers/STM32F4xx_HAL_Driver/Src/stm32f4xx_hal_tim.c ****       /* Enable the DMA Stream */
3460:Drivers/STM32F4xx_HAL_Driver/Src/stm32f4xx_hal_tim.c ****       HAL_DMA_Start_IT(htim->hdma[TIM_DMA_ID_CC4], (uint32_t)BurstBuffer, (uint32_t)&htim->Instance
3461:Drivers/STM32F4xx_HAL_Driver/Src/stm32f4xx_hal_tim.c ****     }
3462:Drivers/STM32F4xx_HAL_Driver/Src/stm32f4xx_hal_tim.c ****     break;
3463:Drivers/STM32F4xx_HAL_Driver/Src/stm32f4xx_hal_tim.c ****     case TIM_DMA_COM:
3464:Drivers/STM32F4xx_HAL_Driver/Src/stm32f4xx_hal_tim.c ****     {  
3465:Drivers/STM32F4xx_HAL_Driver/Src/stm32f4xx_hal_tim.c ****       /* Set the DMA Period elapsed callback */
3466:Drivers/STM32F4xx_HAL_Driver/Src/stm32f4xx_hal_tim.c ****       htim->hdma[TIM_DMA_ID_COMMUTATION]->XferCpltCallback = TIMEx_DMACommutationCplt;
3467:Drivers/STM32F4xx_HAL_Driver/Src/stm32f4xx_hal_tim.c ****      
3468:Drivers/STM32F4xx_HAL_Driver/Src/stm32f4xx_hal_tim.c ****       /* Set the DMA error callback */
3469:Drivers/STM32F4xx_HAL_Driver/Src/stm32f4xx_hal_tim.c ****       htim->hdma[TIM_DMA_ID_COMMUTATION]->XferErrorCallback = TIM_DMAError ;
3470:Drivers/STM32F4xx_HAL_Driver/Src/stm32f4xx_hal_tim.c ****   
3471:Drivers/STM32F4xx_HAL_Driver/Src/stm32f4xx_hal_tim.c ****       /* Enable the DMA Stream */
3472:Drivers/STM32F4xx_HAL_Driver/Src/stm32f4xx_hal_tim.c ****       HAL_DMA_Start_IT(htim->hdma[TIM_DMA_ID_COMMUTATION], (uint32_t)BurstBuffer, (uint32_t)&htim->
3473:Drivers/STM32F4xx_HAL_Driver/Src/stm32f4xx_hal_tim.c ****     }
3474:Drivers/STM32F4xx_HAL_Driver/Src/stm32f4xx_hal_tim.c ****     break;
3475:Drivers/STM32F4xx_HAL_Driver/Src/stm32f4xx_hal_tim.c ****     case TIM_DMA_TRIGGER:
3476:Drivers/STM32F4xx_HAL_Driver/Src/stm32f4xx_hal_tim.c ****     {  
3477:Drivers/STM32F4xx_HAL_Driver/Src/stm32f4xx_hal_tim.c ****       /* Set the DMA Period elapsed callback */
3478:Drivers/STM32F4xx_HAL_Driver/Src/stm32f4xx_hal_tim.c ****       htim->hdma[TIM_DMA_ID_TRIGGER]->XferCpltCallback = TIM_DMATriggerCplt;
3479:Drivers/STM32F4xx_HAL_Driver/Src/stm32f4xx_hal_tim.c ****      
3480:Drivers/STM32F4xx_HAL_Driver/Src/stm32f4xx_hal_tim.c ****       /* Set the DMA error callback */
3481:Drivers/STM32F4xx_HAL_Driver/Src/stm32f4xx_hal_tim.c ****       htim->hdma[TIM_DMA_ID_TRIGGER]->XferErrorCallback = TIM_DMAError ;
3482:Drivers/STM32F4xx_HAL_Driver/Src/stm32f4xx_hal_tim.c ****   
3483:Drivers/STM32F4xx_HAL_Driver/Src/stm32f4xx_hal_tim.c ****       /* Enable the DMA Stream */
3484:Drivers/STM32F4xx_HAL_Driver/Src/stm32f4xx_hal_tim.c ****       HAL_DMA_Start_IT(htim->hdma[TIM_DMA_ID_TRIGGER], (uint32_t)BurstBuffer, (uint32_t)&htim->Inst
3485:Drivers/STM32F4xx_HAL_Driver/Src/stm32f4xx_hal_tim.c ****     }
3486:Drivers/STM32F4xx_HAL_Driver/Src/stm32f4xx_hal_tim.c ****     break;
3487:Drivers/STM32F4xx_HAL_Driver/Src/stm32f4xx_hal_tim.c ****     default:
3488:Drivers/STM32F4xx_HAL_Driver/Src/stm32f4xx_hal_tim.c ****     break;  
 7349              		.loc 1 3488 0
 7350 0062 9DE0     		b	.L406
 7351              	.L399:
3401:Drivers/STM32F4xx_HAL_Driver/Src/stm32f4xx_hal_tim.c ****   {
 7352              		.loc 1 3401 0
 7353 0064 B3F5005F 		cmp	r3, #8192
 7354 0068 70D0     		beq	.L403
 7355 006a B3F5804F 		cmp	r3, #16384
 7356 006e 00F08280 		beq	.L404
 7357 0072 B3F5805F 		cmp	r3, #4096
 7358 0076 54D0     		beq	.L405
 7359              		.loc 1 3488 0
 7360 0078 92E0     		b	.L406
 7361              	.L402:
3406:Drivers/STM32F4xx_HAL_Driver/Src/stm32f4xx_hal_tim.c ****      
 7362              		.loc 1 3406 0
 7363 007a FB68     		ldr	r3, [r7, #12]
 7364 007c DB69     		ldr	r3, [r3, #28]
 7365 007e 544A     		ldr	r2, .L407
 7366 0080 DA63     		str	r2, [r3, #60]
ARM GAS  /tmp/cc4tSQEQ.s 			page 190


3409:Drivers/STM32F4xx_HAL_Driver/Src/stm32f4xx_hal_tim.c ****   
 7367              		.loc 1 3409 0
 7368 0082 FB68     		ldr	r3, [r7, #12]
 7369 0084 DB69     		ldr	r3, [r3, #28]
 7370 0086 534A     		ldr	r2, .L407+4
 7371 0088 DA64     		str	r2, [r3, #76]
3412:Drivers/STM32F4xx_HAL_Driver/Src/stm32f4xx_hal_tim.c ****     }
 7372              		.loc 1 3412 0
 7373 008a FB68     		ldr	r3, [r7, #12]
 7374 008c D869     		ldr	r0, [r3, #28]
 7375 008e 3968     		ldr	r1, [r7]
 7376 0090 FB68     		ldr	r3, [r7, #12]
 7377 0092 1B68     		ldr	r3, [r3]
 7378 0094 4C33     		adds	r3, r3, #76
 7379 0096 1A46     		mov	r2, r3
 7380 0098 BB69     		ldr	r3, [r7, #24]
 7381 009a 1B0A     		lsrs	r3, r3, #8
 7382 009c 0133     		adds	r3, r3, #1
 7383 009e FFF7FEFF 		bl	HAL_DMA_Start_IT
3414:Drivers/STM32F4xx_HAL_Driver/Src/stm32f4xx_hal_tim.c ****     case TIM_DMA_CC1:
 7384              		.loc 1 3414 0
 7385 00a2 7DE0     		b	.L406
 7386              	.L400:
3418:Drivers/STM32F4xx_HAL_Driver/Src/stm32f4xx_hal_tim.c ****      
 7387              		.loc 1 3418 0
 7388 00a4 FB68     		ldr	r3, [r7, #12]
 7389 00a6 1B6A     		ldr	r3, [r3, #32]
 7390 00a8 4B4A     		ldr	r2, .L407+8
 7391 00aa DA63     		str	r2, [r3, #60]
3421:Drivers/STM32F4xx_HAL_Driver/Src/stm32f4xx_hal_tim.c ****   
 7392              		.loc 1 3421 0
 7393 00ac FB68     		ldr	r3, [r7, #12]
 7394 00ae 1B6A     		ldr	r3, [r3, #32]
 7395 00b0 484A     		ldr	r2, .L407+4
 7396 00b2 DA64     		str	r2, [r3, #76]
3424:Drivers/STM32F4xx_HAL_Driver/Src/stm32f4xx_hal_tim.c ****     }
 7397              		.loc 1 3424 0
 7398 00b4 FB68     		ldr	r3, [r7, #12]
 7399 00b6 186A     		ldr	r0, [r3, #32]
 7400 00b8 3968     		ldr	r1, [r7]
 7401 00ba FB68     		ldr	r3, [r7, #12]
 7402 00bc 1B68     		ldr	r3, [r3]
 7403 00be 4C33     		adds	r3, r3, #76
 7404 00c0 1A46     		mov	r2, r3
 7405 00c2 BB69     		ldr	r3, [r7, #24]
 7406 00c4 1B0A     		lsrs	r3, r3, #8
 7407 00c6 0133     		adds	r3, r3, #1
 7408 00c8 FFF7FEFF 		bl	HAL_DMA_Start_IT
3426:Drivers/STM32F4xx_HAL_Driver/Src/stm32f4xx_hal_tim.c ****     case TIM_DMA_CC2:
 7409              		.loc 1 3426 0
 7410 00cc 68E0     		b	.L406
 7411              	.L401:
3430:Drivers/STM32F4xx_HAL_Driver/Src/stm32f4xx_hal_tim.c ****      
 7412              		.loc 1 3430 0
 7413 00ce FB68     		ldr	r3, [r7, #12]
 7414 00d0 5B6A     		ldr	r3, [r3, #36]
 7415 00d2 414A     		ldr	r2, .L407+8
ARM GAS  /tmp/cc4tSQEQ.s 			page 191


 7416 00d4 DA63     		str	r2, [r3, #60]
3433:Drivers/STM32F4xx_HAL_Driver/Src/stm32f4xx_hal_tim.c ****   
 7417              		.loc 1 3433 0
 7418 00d6 FB68     		ldr	r3, [r7, #12]
 7419 00d8 5B6A     		ldr	r3, [r3, #36]
 7420 00da 3E4A     		ldr	r2, .L407+4
 7421 00dc DA64     		str	r2, [r3, #76]
3436:Drivers/STM32F4xx_HAL_Driver/Src/stm32f4xx_hal_tim.c ****     }
 7422              		.loc 1 3436 0
 7423 00de FB68     		ldr	r3, [r7, #12]
 7424 00e0 586A     		ldr	r0, [r3, #36]
 7425 00e2 3968     		ldr	r1, [r7]
 7426 00e4 FB68     		ldr	r3, [r7, #12]
 7427 00e6 1B68     		ldr	r3, [r3]
 7428 00e8 4C33     		adds	r3, r3, #76
 7429 00ea 1A46     		mov	r2, r3
 7430 00ec BB69     		ldr	r3, [r7, #24]
 7431 00ee 1B0A     		lsrs	r3, r3, #8
 7432 00f0 0133     		adds	r3, r3, #1
 7433 00f2 FFF7FEFF 		bl	HAL_DMA_Start_IT
3438:Drivers/STM32F4xx_HAL_Driver/Src/stm32f4xx_hal_tim.c ****     case TIM_DMA_CC3:
 7434              		.loc 1 3438 0
 7435 00f6 53E0     		b	.L406
 7436              	.L398:
3442:Drivers/STM32F4xx_HAL_Driver/Src/stm32f4xx_hal_tim.c ****      
 7437              		.loc 1 3442 0
 7438 00f8 FB68     		ldr	r3, [r7, #12]
 7439 00fa 9B6A     		ldr	r3, [r3, #40]
 7440 00fc 364A     		ldr	r2, .L407+8
 7441 00fe DA63     		str	r2, [r3, #60]
3445:Drivers/STM32F4xx_HAL_Driver/Src/stm32f4xx_hal_tim.c ****   
 7442              		.loc 1 3445 0
 7443 0100 FB68     		ldr	r3, [r7, #12]
 7444 0102 9B6A     		ldr	r3, [r3, #40]
 7445 0104 334A     		ldr	r2, .L407+4
 7446 0106 DA64     		str	r2, [r3, #76]
3448:Drivers/STM32F4xx_HAL_Driver/Src/stm32f4xx_hal_tim.c ****     }
 7447              		.loc 1 3448 0
 7448 0108 FB68     		ldr	r3, [r7, #12]
 7449 010a 986A     		ldr	r0, [r3, #40]
 7450 010c 3968     		ldr	r1, [r7]
 7451 010e FB68     		ldr	r3, [r7, #12]
 7452 0110 1B68     		ldr	r3, [r3]
 7453 0112 4C33     		adds	r3, r3, #76
 7454 0114 1A46     		mov	r2, r3
 7455 0116 BB69     		ldr	r3, [r7, #24]
 7456 0118 1B0A     		lsrs	r3, r3, #8
 7457 011a 0133     		adds	r3, r3, #1
 7458 011c FFF7FEFF 		bl	HAL_DMA_Start_IT
3450:Drivers/STM32F4xx_HAL_Driver/Src/stm32f4xx_hal_tim.c ****     case TIM_DMA_CC4:
 7459              		.loc 1 3450 0
 7460 0120 3EE0     		b	.L406
 7461              	.L405:
3454:Drivers/STM32F4xx_HAL_Driver/Src/stm32f4xx_hal_tim.c ****      
 7462              		.loc 1 3454 0
 7463 0122 FB68     		ldr	r3, [r7, #12]
 7464 0124 DB6A     		ldr	r3, [r3, #44]
ARM GAS  /tmp/cc4tSQEQ.s 			page 192


 7465 0126 2C4A     		ldr	r2, .L407+8
 7466 0128 DA63     		str	r2, [r3, #60]
3457:Drivers/STM32F4xx_HAL_Driver/Src/stm32f4xx_hal_tim.c ****   
 7467              		.loc 1 3457 0
 7468 012a FB68     		ldr	r3, [r7, #12]
 7469 012c DB6A     		ldr	r3, [r3, #44]
 7470 012e 294A     		ldr	r2, .L407+4
 7471 0130 DA64     		str	r2, [r3, #76]
3460:Drivers/STM32F4xx_HAL_Driver/Src/stm32f4xx_hal_tim.c ****     }
 7472              		.loc 1 3460 0
 7473 0132 FB68     		ldr	r3, [r7, #12]
 7474 0134 D86A     		ldr	r0, [r3, #44]
 7475 0136 3968     		ldr	r1, [r7]
 7476 0138 FB68     		ldr	r3, [r7, #12]
 7477 013a 1B68     		ldr	r3, [r3]
 7478 013c 4C33     		adds	r3, r3, #76
 7479 013e 1A46     		mov	r2, r3
 7480 0140 BB69     		ldr	r3, [r7, #24]
 7481 0142 1B0A     		lsrs	r3, r3, #8
 7482 0144 0133     		adds	r3, r3, #1
 7483 0146 FFF7FEFF 		bl	HAL_DMA_Start_IT
3462:Drivers/STM32F4xx_HAL_Driver/Src/stm32f4xx_hal_tim.c ****     case TIM_DMA_COM:
 7484              		.loc 1 3462 0
 7485 014a 29E0     		b	.L406
 7486              	.L403:
3466:Drivers/STM32F4xx_HAL_Driver/Src/stm32f4xx_hal_tim.c ****      
 7487              		.loc 1 3466 0
 7488 014c FB68     		ldr	r3, [r7, #12]
 7489 014e 1B6B     		ldr	r3, [r3, #48]
 7490 0150 224A     		ldr	r2, .L407+12
 7491 0152 DA63     		str	r2, [r3, #60]
3469:Drivers/STM32F4xx_HAL_Driver/Src/stm32f4xx_hal_tim.c ****   
 7492              		.loc 1 3469 0
 7493 0154 FB68     		ldr	r3, [r7, #12]
 7494 0156 1B6B     		ldr	r3, [r3, #48]
 7495 0158 1E4A     		ldr	r2, .L407+4
 7496 015a DA64     		str	r2, [r3, #76]
3472:Drivers/STM32F4xx_HAL_Driver/Src/stm32f4xx_hal_tim.c ****     }
 7497              		.loc 1 3472 0
 7498 015c FB68     		ldr	r3, [r7, #12]
 7499 015e 186B     		ldr	r0, [r3, #48]
 7500 0160 3968     		ldr	r1, [r7]
 7501 0162 FB68     		ldr	r3, [r7, #12]
 7502 0164 1B68     		ldr	r3, [r3]
 7503 0166 4C33     		adds	r3, r3, #76
 7504 0168 1A46     		mov	r2, r3
 7505 016a BB69     		ldr	r3, [r7, #24]
 7506 016c 1B0A     		lsrs	r3, r3, #8
 7507 016e 0133     		adds	r3, r3, #1
 7508 0170 FFF7FEFF 		bl	HAL_DMA_Start_IT
3474:Drivers/STM32F4xx_HAL_Driver/Src/stm32f4xx_hal_tim.c ****     case TIM_DMA_TRIGGER:
 7509              		.loc 1 3474 0
 7510 0174 14E0     		b	.L406
 7511              	.L404:
3478:Drivers/STM32F4xx_HAL_Driver/Src/stm32f4xx_hal_tim.c ****      
 7512              		.loc 1 3478 0
 7513 0176 FB68     		ldr	r3, [r7, #12]
ARM GAS  /tmp/cc4tSQEQ.s 			page 193


 7514 0178 5B6B     		ldr	r3, [r3, #52]
 7515 017a 194A     		ldr	r2, .L407+16
 7516 017c DA63     		str	r2, [r3, #60]
3481:Drivers/STM32F4xx_HAL_Driver/Src/stm32f4xx_hal_tim.c ****   
 7517              		.loc 1 3481 0
 7518 017e FB68     		ldr	r3, [r7, #12]
 7519 0180 5B6B     		ldr	r3, [r3, #52]
 7520 0182 144A     		ldr	r2, .L407+4
 7521 0184 DA64     		str	r2, [r3, #76]
3484:Drivers/STM32F4xx_HAL_Driver/Src/stm32f4xx_hal_tim.c ****     }
 7522              		.loc 1 3484 0
 7523 0186 FB68     		ldr	r3, [r7, #12]
 7524 0188 586B     		ldr	r0, [r3, #52]
 7525 018a 3968     		ldr	r1, [r7]
 7526 018c FB68     		ldr	r3, [r7, #12]
 7527 018e 1B68     		ldr	r3, [r3]
 7528 0190 4C33     		adds	r3, r3, #76
 7529 0192 1A46     		mov	r2, r3
 7530 0194 BB69     		ldr	r3, [r7, #24]
 7531 0196 1B0A     		lsrs	r3, r3, #8
 7532 0198 0133     		adds	r3, r3, #1
 7533 019a FFF7FEFF 		bl	HAL_DMA_Start_IT
3486:Drivers/STM32F4xx_HAL_Driver/Src/stm32f4xx_hal_tim.c ****     default:
 7534              		.loc 1 3486 0
 7535 019e 00BF     		nop
 7536              	.L406:
3489:Drivers/STM32F4xx_HAL_Driver/Src/stm32f4xx_hal_tim.c ****   }
3490:Drivers/STM32F4xx_HAL_Driver/Src/stm32f4xx_hal_tim.c ****    /* configure the DMA Burst Mode */
3491:Drivers/STM32F4xx_HAL_Driver/Src/stm32f4xx_hal_tim.c ****    htim->Instance->DCR = BurstBaseAddress | BurstLength;  
 7537              		.loc 1 3491 0
 7538 01a0 FB68     		ldr	r3, [r7, #12]
 7539 01a2 1B68     		ldr	r3, [r3]
 7540 01a4 B968     		ldr	r1, [r7, #8]
 7541 01a6 BA69     		ldr	r2, [r7, #24]
 7542 01a8 0A43     		orrs	r2, r2, r1
 7543 01aa 9A64     		str	r2, [r3, #72]
3492:Drivers/STM32F4xx_HAL_Driver/Src/stm32f4xx_hal_tim.c ****    
3493:Drivers/STM32F4xx_HAL_Driver/Src/stm32f4xx_hal_tim.c ****    /* Enable the TIM DMA Request */
3494:Drivers/STM32F4xx_HAL_Driver/Src/stm32f4xx_hal_tim.c ****    __HAL_TIM_ENABLE_DMA(htim, BurstRequestSrc);  
 7544              		.loc 1 3494 0
 7545 01ac FB68     		ldr	r3, [r7, #12]
 7546 01ae 1B68     		ldr	r3, [r3]
 7547 01b0 FA68     		ldr	r2, [r7, #12]
 7548 01b2 1268     		ldr	r2, [r2]
 7549 01b4 D168     		ldr	r1, [r2, #12]
 7550 01b6 7A68     		ldr	r2, [r7, #4]
 7551 01b8 0A43     		orrs	r2, r2, r1
 7552 01ba DA60     		str	r2, [r3, #12]
3495:Drivers/STM32F4xx_HAL_Driver/Src/stm32f4xx_hal_tim.c ****    
3496:Drivers/STM32F4xx_HAL_Driver/Src/stm32f4xx_hal_tim.c ****    htim->State = HAL_TIM_STATE_READY;
 7553              		.loc 1 3496 0
 7554 01bc FB68     		ldr	r3, [r7, #12]
 7555 01be 0122     		movs	r2, #1
 7556 01c0 83F83920 		strb	r2, [r3, #57]
3497:Drivers/STM32F4xx_HAL_Driver/Src/stm32f4xx_hal_tim.c ****   
3498:Drivers/STM32F4xx_HAL_Driver/Src/stm32f4xx_hal_tim.c ****   /* Return function status */
3499:Drivers/STM32F4xx_HAL_Driver/Src/stm32f4xx_hal_tim.c ****   return HAL_OK;
ARM GAS  /tmp/cc4tSQEQ.s 			page 194


 7557              		.loc 1 3499 0
 7558 01c4 0023     		movs	r3, #0
 7559              	.L394:
3500:Drivers/STM32F4xx_HAL_Driver/Src/stm32f4xx_hal_tim.c **** }
 7560              		.loc 1 3500 0
 7561 01c6 1846     		mov	r0, r3
 7562 01c8 1037     		adds	r7, r7, #16
 7563              	.LCFI335:
 7564              		.cfi_def_cfa_offset 8
 7565 01ca BD46     		mov	sp, r7
 7566              	.LCFI336:
 7567              		.cfi_def_cfa_register 13
 7568              		@ sp needed
 7569 01cc 80BD     		pop	{r7, pc}
 7570              	.L408:
 7571 01ce 00BF     		.align	2
 7572              	.L407:
 7573 01d0 00000000 		.word	TIM_DMAPeriodElapsedCplt
 7574 01d4 00000000 		.word	TIM_DMAError
 7575 01d8 00000000 		.word	TIM_DMADelayPulseCplt
 7576 01dc 00000000 		.word	TIMEx_DMACommutationCplt
 7577 01e0 00000000 		.word	TIM_DMATriggerCplt
 7578              		.cfi_endproc
 7579              	.LFE187:
 7581              		.section	.text.HAL_TIM_DMABurst_WriteStop,"ax",%progbits
 7582              		.align	1
 7583              		.global	HAL_TIM_DMABurst_WriteStop
 7584              		.syntax unified
 7585              		.thumb
 7586              		.thumb_func
 7587              		.fpu fpv4-sp-d16
 7589              	HAL_TIM_DMABurst_WriteStop:
 7590              	.LFB188:
3501:Drivers/STM32F4xx_HAL_Driver/Src/stm32f4xx_hal_tim.c **** 
3502:Drivers/STM32F4xx_HAL_Driver/Src/stm32f4xx_hal_tim.c **** /**
3503:Drivers/STM32F4xx_HAL_Driver/Src/stm32f4xx_hal_tim.c ****   * @brief  Stops the TIM DMA Burst mode 
3504:Drivers/STM32F4xx_HAL_Driver/Src/stm32f4xx_hal_tim.c ****   * @param  htim pointer to a TIM_HandleTypeDef structure that contains
3505:Drivers/STM32F4xx_HAL_Driver/Src/stm32f4xx_hal_tim.c ****   *                the configuration information for TIM module.
3506:Drivers/STM32F4xx_HAL_Driver/Src/stm32f4xx_hal_tim.c ****   * @param  BurstRequestSrc TIM DMA Request sources to disable
3507:Drivers/STM32F4xx_HAL_Driver/Src/stm32f4xx_hal_tim.c ****   * @retval HAL status
3508:Drivers/STM32F4xx_HAL_Driver/Src/stm32f4xx_hal_tim.c ****   */
3509:Drivers/STM32F4xx_HAL_Driver/Src/stm32f4xx_hal_tim.c **** HAL_StatusTypeDef HAL_TIM_DMABurst_WriteStop(TIM_HandleTypeDef *htim, uint32_t BurstRequestSrc)
3510:Drivers/STM32F4xx_HAL_Driver/Src/stm32f4xx_hal_tim.c **** {
 7591              		.loc 1 3510 0
 7592              		.cfi_startproc
 7593              		@ args = 0, pretend = 0, frame = 8
 7594              		@ frame_needed = 1, uses_anonymous_args = 0
 7595 0000 80B5     		push	{r7, lr}
 7596              	.LCFI337:
 7597              		.cfi_def_cfa_offset 8
 7598              		.cfi_offset 7, -8
 7599              		.cfi_offset 14, -4
 7600 0002 82B0     		sub	sp, sp, #8
 7601              	.LCFI338:
 7602              		.cfi_def_cfa_offset 16
 7603 0004 00AF     		add	r7, sp, #0
 7604              	.LCFI339:
ARM GAS  /tmp/cc4tSQEQ.s 			page 195


 7605              		.cfi_def_cfa_register 7
 7606 0006 7860     		str	r0, [r7, #4]
 7607 0008 3960     		str	r1, [r7]
3511:Drivers/STM32F4xx_HAL_Driver/Src/stm32f4xx_hal_tim.c ****   /* Check the parameters */
3512:Drivers/STM32F4xx_HAL_Driver/Src/stm32f4xx_hal_tim.c ****   assert_param(IS_TIM_DMA_SOURCE(BurstRequestSrc));
3513:Drivers/STM32F4xx_HAL_Driver/Src/stm32f4xx_hal_tim.c ****   
3514:Drivers/STM32F4xx_HAL_Driver/Src/stm32f4xx_hal_tim.c ****   /* Abort the DMA transfer (at least disable the DMA channel) */
3515:Drivers/STM32F4xx_HAL_Driver/Src/stm32f4xx_hal_tim.c ****   switch(BurstRequestSrc)
 7608              		.loc 1 3515 0
 7609 000a 3B68     		ldr	r3, [r7]
 7610 000c B3F5006F 		cmp	r3, #2048
 7611 0010 28D0     		beq	.L411
 7612 0012 B3F5006F 		cmp	r3, #2048
 7613 0016 09D8     		bhi	.L412
 7614 0018 B3F5007F 		cmp	r3, #512
 7615 001c 16D0     		beq	.L413
 7616 001e B3F5806F 		cmp	r3, #1024
 7617 0022 19D0     		beq	.L414
 7618 0024 B3F5807F 		cmp	r3, #256
 7619 0028 0AD0     		beq	.L415
3516:Drivers/STM32F4xx_HAL_Driver/Src/stm32f4xx_hal_tim.c ****   {
3517:Drivers/STM32F4xx_HAL_Driver/Src/stm32f4xx_hal_tim.c ****     case TIM_DMA_UPDATE:
3518:Drivers/STM32F4xx_HAL_Driver/Src/stm32f4xx_hal_tim.c ****     {  
3519:Drivers/STM32F4xx_HAL_Driver/Src/stm32f4xx_hal_tim.c ****       HAL_DMA_Abort(htim->hdma[TIM_DMA_ID_UPDATE]);
3520:Drivers/STM32F4xx_HAL_Driver/Src/stm32f4xx_hal_tim.c ****     }
3521:Drivers/STM32F4xx_HAL_Driver/Src/stm32f4xx_hal_tim.c ****     break;
3522:Drivers/STM32F4xx_HAL_Driver/Src/stm32f4xx_hal_tim.c ****     case TIM_DMA_CC1:
3523:Drivers/STM32F4xx_HAL_Driver/Src/stm32f4xx_hal_tim.c ****     {  
3524:Drivers/STM32F4xx_HAL_Driver/Src/stm32f4xx_hal_tim.c ****       HAL_DMA_Abort(htim->hdma[TIM_DMA_ID_CC1]);
3525:Drivers/STM32F4xx_HAL_Driver/Src/stm32f4xx_hal_tim.c ****     }
3526:Drivers/STM32F4xx_HAL_Driver/Src/stm32f4xx_hal_tim.c ****     break;
3527:Drivers/STM32F4xx_HAL_Driver/Src/stm32f4xx_hal_tim.c ****     case TIM_DMA_CC2:
3528:Drivers/STM32F4xx_HAL_Driver/Src/stm32f4xx_hal_tim.c ****     {  
3529:Drivers/STM32F4xx_HAL_Driver/Src/stm32f4xx_hal_tim.c ****       HAL_DMA_Abort(htim->hdma[TIM_DMA_ID_CC2]);
3530:Drivers/STM32F4xx_HAL_Driver/Src/stm32f4xx_hal_tim.c ****     }
3531:Drivers/STM32F4xx_HAL_Driver/Src/stm32f4xx_hal_tim.c ****     break;
3532:Drivers/STM32F4xx_HAL_Driver/Src/stm32f4xx_hal_tim.c ****     case TIM_DMA_CC3:
3533:Drivers/STM32F4xx_HAL_Driver/Src/stm32f4xx_hal_tim.c ****     {  
3534:Drivers/STM32F4xx_HAL_Driver/Src/stm32f4xx_hal_tim.c ****       HAL_DMA_Abort(htim->hdma[TIM_DMA_ID_CC3]);
3535:Drivers/STM32F4xx_HAL_Driver/Src/stm32f4xx_hal_tim.c ****     }
3536:Drivers/STM32F4xx_HAL_Driver/Src/stm32f4xx_hal_tim.c ****     break;
3537:Drivers/STM32F4xx_HAL_Driver/Src/stm32f4xx_hal_tim.c ****     case TIM_DMA_CC4:
3538:Drivers/STM32F4xx_HAL_Driver/Src/stm32f4xx_hal_tim.c ****     {  
3539:Drivers/STM32F4xx_HAL_Driver/Src/stm32f4xx_hal_tim.c ****       HAL_DMA_Abort(htim->hdma[TIM_DMA_ID_CC4]);
3540:Drivers/STM32F4xx_HAL_Driver/Src/stm32f4xx_hal_tim.c ****     }
3541:Drivers/STM32F4xx_HAL_Driver/Src/stm32f4xx_hal_tim.c ****     break;
3542:Drivers/STM32F4xx_HAL_Driver/Src/stm32f4xx_hal_tim.c ****     case TIM_DMA_COM:
3543:Drivers/STM32F4xx_HAL_Driver/Src/stm32f4xx_hal_tim.c ****     {  
3544:Drivers/STM32F4xx_HAL_Driver/Src/stm32f4xx_hal_tim.c ****       HAL_DMA_Abort(htim->hdma[TIM_DMA_ID_COMMUTATION]);
3545:Drivers/STM32F4xx_HAL_Driver/Src/stm32f4xx_hal_tim.c ****     }
3546:Drivers/STM32F4xx_HAL_Driver/Src/stm32f4xx_hal_tim.c ****     break;
3547:Drivers/STM32F4xx_HAL_Driver/Src/stm32f4xx_hal_tim.c ****     case TIM_DMA_TRIGGER:
3548:Drivers/STM32F4xx_HAL_Driver/Src/stm32f4xx_hal_tim.c ****     {  
3549:Drivers/STM32F4xx_HAL_Driver/Src/stm32f4xx_hal_tim.c ****       HAL_DMA_Abort(htim->hdma[TIM_DMA_ID_TRIGGER]);
3550:Drivers/STM32F4xx_HAL_Driver/Src/stm32f4xx_hal_tim.c ****     }
3551:Drivers/STM32F4xx_HAL_Driver/Src/stm32f4xx_hal_tim.c ****     break;
3552:Drivers/STM32F4xx_HAL_Driver/Src/stm32f4xx_hal_tim.c ****     default:
ARM GAS  /tmp/cc4tSQEQ.s 			page 196


3553:Drivers/STM32F4xx_HAL_Driver/Src/stm32f4xx_hal_tim.c ****     break;
 7620              		.loc 1 3553 0
 7621 002a 33E0     		b	.L419
 7622              	.L412:
3515:Drivers/STM32F4xx_HAL_Driver/Src/stm32f4xx_hal_tim.c ****   {
 7623              		.loc 1 3515 0
 7624 002c B3F5005F 		cmp	r3, #8192
 7625 0030 24D0     		beq	.L416
 7626 0032 B3F5804F 		cmp	r3, #16384
 7627 0036 27D0     		beq	.L417
 7628 0038 B3F5805F 		cmp	r3, #4096
 7629 003c 18D0     		beq	.L418
 7630              		.loc 1 3553 0
 7631 003e 29E0     		b	.L419
 7632              	.L415:
3519:Drivers/STM32F4xx_HAL_Driver/Src/stm32f4xx_hal_tim.c ****     }
 7633              		.loc 1 3519 0
 7634 0040 7B68     		ldr	r3, [r7, #4]
 7635 0042 DB69     		ldr	r3, [r3, #28]
 7636 0044 1846     		mov	r0, r3
 7637 0046 FFF7FEFF 		bl	HAL_DMA_Abort
3521:Drivers/STM32F4xx_HAL_Driver/Src/stm32f4xx_hal_tim.c ****     case TIM_DMA_CC1:
 7638              		.loc 1 3521 0
 7639 004a 23E0     		b	.L419
 7640              	.L413:
3524:Drivers/STM32F4xx_HAL_Driver/Src/stm32f4xx_hal_tim.c ****     }
 7641              		.loc 1 3524 0
 7642 004c 7B68     		ldr	r3, [r7, #4]
 7643 004e 1B6A     		ldr	r3, [r3, #32]
 7644 0050 1846     		mov	r0, r3
 7645 0052 FFF7FEFF 		bl	HAL_DMA_Abort
3526:Drivers/STM32F4xx_HAL_Driver/Src/stm32f4xx_hal_tim.c ****     case TIM_DMA_CC2:
 7646              		.loc 1 3526 0
 7647 0056 1DE0     		b	.L419
 7648              	.L414:
3529:Drivers/STM32F4xx_HAL_Driver/Src/stm32f4xx_hal_tim.c ****     }
 7649              		.loc 1 3529 0
 7650 0058 7B68     		ldr	r3, [r7, #4]
 7651 005a 5B6A     		ldr	r3, [r3, #36]
 7652 005c 1846     		mov	r0, r3
 7653 005e FFF7FEFF 		bl	HAL_DMA_Abort
3531:Drivers/STM32F4xx_HAL_Driver/Src/stm32f4xx_hal_tim.c ****     case TIM_DMA_CC3:
 7654              		.loc 1 3531 0
 7655 0062 17E0     		b	.L419
 7656              	.L411:
3534:Drivers/STM32F4xx_HAL_Driver/Src/stm32f4xx_hal_tim.c ****     }
 7657              		.loc 1 3534 0
 7658 0064 7B68     		ldr	r3, [r7, #4]
 7659 0066 9B6A     		ldr	r3, [r3, #40]
 7660 0068 1846     		mov	r0, r3
 7661 006a FFF7FEFF 		bl	HAL_DMA_Abort
3536:Drivers/STM32F4xx_HAL_Driver/Src/stm32f4xx_hal_tim.c ****     case TIM_DMA_CC4:
 7662              		.loc 1 3536 0
 7663 006e 11E0     		b	.L419
 7664              	.L418:
3539:Drivers/STM32F4xx_HAL_Driver/Src/stm32f4xx_hal_tim.c ****     }
 7665              		.loc 1 3539 0
ARM GAS  /tmp/cc4tSQEQ.s 			page 197


 7666 0070 7B68     		ldr	r3, [r7, #4]
 7667 0072 DB6A     		ldr	r3, [r3, #44]
 7668 0074 1846     		mov	r0, r3
 7669 0076 FFF7FEFF 		bl	HAL_DMA_Abort
3541:Drivers/STM32F4xx_HAL_Driver/Src/stm32f4xx_hal_tim.c ****     case TIM_DMA_COM:
 7670              		.loc 1 3541 0
 7671 007a 0BE0     		b	.L419
 7672              	.L416:
3544:Drivers/STM32F4xx_HAL_Driver/Src/stm32f4xx_hal_tim.c ****     }
 7673              		.loc 1 3544 0
 7674 007c 7B68     		ldr	r3, [r7, #4]
 7675 007e 1B6B     		ldr	r3, [r3, #48]
 7676 0080 1846     		mov	r0, r3
 7677 0082 FFF7FEFF 		bl	HAL_DMA_Abort
3546:Drivers/STM32F4xx_HAL_Driver/Src/stm32f4xx_hal_tim.c ****     case TIM_DMA_TRIGGER:
 7678              		.loc 1 3546 0
 7679 0086 05E0     		b	.L419
 7680              	.L417:
3549:Drivers/STM32F4xx_HAL_Driver/Src/stm32f4xx_hal_tim.c ****     }
 7681              		.loc 1 3549 0
 7682 0088 7B68     		ldr	r3, [r7, #4]
 7683 008a 5B6B     		ldr	r3, [r3, #52]
 7684 008c 1846     		mov	r0, r3
 7685 008e FFF7FEFF 		bl	HAL_DMA_Abort
3551:Drivers/STM32F4xx_HAL_Driver/Src/stm32f4xx_hal_tim.c ****     default:
 7686              		.loc 1 3551 0
 7687 0092 00BF     		nop
 7688              	.L419:
3554:Drivers/STM32F4xx_HAL_Driver/Src/stm32f4xx_hal_tim.c ****   }
3555:Drivers/STM32F4xx_HAL_Driver/Src/stm32f4xx_hal_tim.c **** 
3556:Drivers/STM32F4xx_HAL_Driver/Src/stm32f4xx_hal_tim.c ****   /* Disable the TIM Update DMA request */
3557:Drivers/STM32F4xx_HAL_Driver/Src/stm32f4xx_hal_tim.c ****   __HAL_TIM_DISABLE_DMA(htim, BurstRequestSrc);
 7689              		.loc 1 3557 0
 7690 0094 7B68     		ldr	r3, [r7, #4]
 7691 0096 1B68     		ldr	r3, [r3]
 7692 0098 7A68     		ldr	r2, [r7, #4]
 7693 009a 1268     		ldr	r2, [r2]
 7694 009c D168     		ldr	r1, [r2, #12]
 7695 009e 3A68     		ldr	r2, [r7]
 7696 00a0 D243     		mvns	r2, r2
 7697 00a2 0A40     		ands	r2, r2, r1
 7698 00a4 DA60     		str	r2, [r3, #12]
3558:Drivers/STM32F4xx_HAL_Driver/Src/stm32f4xx_hal_tim.c ****       
3559:Drivers/STM32F4xx_HAL_Driver/Src/stm32f4xx_hal_tim.c ****   /* Return function status */
3560:Drivers/STM32F4xx_HAL_Driver/Src/stm32f4xx_hal_tim.c ****   return HAL_OK;  
 7699              		.loc 1 3560 0
 7700 00a6 0023     		movs	r3, #0
3561:Drivers/STM32F4xx_HAL_Driver/Src/stm32f4xx_hal_tim.c **** }
 7701              		.loc 1 3561 0
 7702 00a8 1846     		mov	r0, r3
 7703 00aa 0837     		adds	r7, r7, #8
 7704              	.LCFI340:
 7705              		.cfi_def_cfa_offset 8
 7706 00ac BD46     		mov	sp, r7
 7707              	.LCFI341:
 7708              		.cfi_def_cfa_register 13
 7709              		@ sp needed
ARM GAS  /tmp/cc4tSQEQ.s 			page 198


 7710 00ae 80BD     		pop	{r7, pc}
 7711              		.cfi_endproc
 7712              	.LFE188:
 7714              		.section	.text.HAL_TIM_DMABurst_ReadStart,"ax",%progbits
 7715              		.align	1
 7716              		.global	HAL_TIM_DMABurst_ReadStart
 7717              		.syntax unified
 7718              		.thumb
 7719              		.thumb_func
 7720              		.fpu fpv4-sp-d16
 7722              	HAL_TIM_DMABurst_ReadStart:
 7723              	.LFB189:
3562:Drivers/STM32F4xx_HAL_Driver/Src/stm32f4xx_hal_tim.c **** 
3563:Drivers/STM32F4xx_HAL_Driver/Src/stm32f4xx_hal_tim.c **** /**
3564:Drivers/STM32F4xx_HAL_Driver/Src/stm32f4xx_hal_tim.c ****   * @brief  Configure the DMA Burst to transfer Data from the TIM peripheral to the memory 
3565:Drivers/STM32F4xx_HAL_Driver/Src/stm32f4xx_hal_tim.c ****   * @param  htim pointer to a TIM_HandleTypeDef structure that contains
3566:Drivers/STM32F4xx_HAL_Driver/Src/stm32f4xx_hal_tim.c ****   *                the configuration information for TIM module.
3567:Drivers/STM32F4xx_HAL_Driver/Src/stm32f4xx_hal_tim.c ****   * @param  BurstBaseAddress TIM Base address from when the DMA will starts the Data read.
3568:Drivers/STM32F4xx_HAL_Driver/Src/stm32f4xx_hal_tim.c ****   *         This parameters can be on of the following values:
3569:Drivers/STM32F4xx_HAL_Driver/Src/stm32f4xx_hal_tim.c ****   *            @arg TIM_DMABASE_CR1  
3570:Drivers/STM32F4xx_HAL_Driver/Src/stm32f4xx_hal_tim.c ****   *            @arg TIM_DMABASE_CR2
3571:Drivers/STM32F4xx_HAL_Driver/Src/stm32f4xx_hal_tim.c ****   *            @arg TIM_DMABASE_SMCR
3572:Drivers/STM32F4xx_HAL_Driver/Src/stm32f4xx_hal_tim.c ****   *            @arg TIM_DMABASE_DIER
3573:Drivers/STM32F4xx_HAL_Driver/Src/stm32f4xx_hal_tim.c ****   *            @arg TIM_DMABASE_SR
3574:Drivers/STM32F4xx_HAL_Driver/Src/stm32f4xx_hal_tim.c ****   *            @arg TIM_DMABASE_EGR
3575:Drivers/STM32F4xx_HAL_Driver/Src/stm32f4xx_hal_tim.c ****   *            @arg TIM_DMABASE_CCMR1
3576:Drivers/STM32F4xx_HAL_Driver/Src/stm32f4xx_hal_tim.c ****   *            @arg TIM_DMABASE_CCMR2
3577:Drivers/STM32F4xx_HAL_Driver/Src/stm32f4xx_hal_tim.c ****   *            @arg TIM_DMABASE_CCER
3578:Drivers/STM32F4xx_HAL_Driver/Src/stm32f4xx_hal_tim.c ****   *            @arg TIM_DMABASE_CNT   
3579:Drivers/STM32F4xx_HAL_Driver/Src/stm32f4xx_hal_tim.c ****   *            @arg TIM_DMABASE_PSC   
3580:Drivers/STM32F4xx_HAL_Driver/Src/stm32f4xx_hal_tim.c ****   *            @arg TIM_DMABASE_ARR
3581:Drivers/STM32F4xx_HAL_Driver/Src/stm32f4xx_hal_tim.c ****   *            @arg TIM_DMABASE_RCR
3582:Drivers/STM32F4xx_HAL_Driver/Src/stm32f4xx_hal_tim.c ****   *            @arg TIM_DMABASE_CCR1
3583:Drivers/STM32F4xx_HAL_Driver/Src/stm32f4xx_hal_tim.c ****   *            @arg TIM_DMABASE_CCR2
3584:Drivers/STM32F4xx_HAL_Driver/Src/stm32f4xx_hal_tim.c ****   *            @arg TIM_DMABASE_CCR3  
3585:Drivers/STM32F4xx_HAL_Driver/Src/stm32f4xx_hal_tim.c ****   *            @arg TIM_DMABASE_CCR4
3586:Drivers/STM32F4xx_HAL_Driver/Src/stm32f4xx_hal_tim.c ****   *            @arg TIM_DMABASE_BDTR
3587:Drivers/STM32F4xx_HAL_Driver/Src/stm32f4xx_hal_tim.c ****   *            @arg TIM_DMABASE_DCR
3588:Drivers/STM32F4xx_HAL_Driver/Src/stm32f4xx_hal_tim.c ****   * @param  BurstRequestSrc TIM DMA Request sources.
3589:Drivers/STM32F4xx_HAL_Driver/Src/stm32f4xx_hal_tim.c ****   *         This parameters can be on of the following values:
3590:Drivers/STM32F4xx_HAL_Driver/Src/stm32f4xx_hal_tim.c ****   *            @arg TIM_DMA_UPDATE: TIM update Interrupt source
3591:Drivers/STM32F4xx_HAL_Driver/Src/stm32f4xx_hal_tim.c ****   *            @arg TIM_DMA_CC1: TIM Capture Compare 1 DMA source
3592:Drivers/STM32F4xx_HAL_Driver/Src/stm32f4xx_hal_tim.c ****   *            @arg TIM_DMA_CC2: TIM Capture Compare 2 DMA source
3593:Drivers/STM32F4xx_HAL_Driver/Src/stm32f4xx_hal_tim.c ****   *            @arg TIM_DMA_CC3: TIM Capture Compare 3 DMA source
3594:Drivers/STM32F4xx_HAL_Driver/Src/stm32f4xx_hal_tim.c ****   *            @arg TIM_DMA_CC4: TIM Capture Compare 4 DMA source
3595:Drivers/STM32F4xx_HAL_Driver/Src/stm32f4xx_hal_tim.c ****   *            @arg TIM_DMA_COM: TIM Commutation DMA source
3596:Drivers/STM32F4xx_HAL_Driver/Src/stm32f4xx_hal_tim.c ****   *            @arg TIM_DMA_TRIGGER: TIM Trigger DMA source
3597:Drivers/STM32F4xx_HAL_Driver/Src/stm32f4xx_hal_tim.c ****   * @param  BurstBuffer The Buffer address.
3598:Drivers/STM32F4xx_HAL_Driver/Src/stm32f4xx_hal_tim.c ****   * @param  BurstLength DMA Burst length. This parameter can be one value
3599:Drivers/STM32F4xx_HAL_Driver/Src/stm32f4xx_hal_tim.c ****   *         between TIM_DMABURSTLENGTH_1TRANSFER and TIM_DMABURSTLENGTH_18TRANSFERS.
3600:Drivers/STM32F4xx_HAL_Driver/Src/stm32f4xx_hal_tim.c ****   * @retval HAL status
3601:Drivers/STM32F4xx_HAL_Driver/Src/stm32f4xx_hal_tim.c ****   */
3602:Drivers/STM32F4xx_HAL_Driver/Src/stm32f4xx_hal_tim.c **** HAL_StatusTypeDef HAL_TIM_DMABurst_ReadStart(TIM_HandleTypeDef *htim, uint32_t BurstBaseAddress, ui
3603:Drivers/STM32F4xx_HAL_Driver/Src/stm32f4xx_hal_tim.c ****                                              uint32_t  *BurstBuffer, uint32_t  BurstLength)
3604:Drivers/STM32F4xx_HAL_Driver/Src/stm32f4xx_hal_tim.c **** {
 7724              		.loc 1 3604 0
 7725              		.cfi_startproc
ARM GAS  /tmp/cc4tSQEQ.s 			page 199


 7726              		@ args = 4, pretend = 0, frame = 16
 7727              		@ frame_needed = 1, uses_anonymous_args = 0
 7728 0000 80B5     		push	{r7, lr}
 7729              	.LCFI342:
 7730              		.cfi_def_cfa_offset 8
 7731              		.cfi_offset 7, -8
 7732              		.cfi_offset 14, -4
 7733 0002 84B0     		sub	sp, sp, #16
 7734              	.LCFI343:
 7735              		.cfi_def_cfa_offset 24
 7736 0004 00AF     		add	r7, sp, #0
 7737              	.LCFI344:
 7738              		.cfi_def_cfa_register 7
 7739 0006 F860     		str	r0, [r7, #12]
 7740 0008 B960     		str	r1, [r7, #8]
 7741 000a 7A60     		str	r2, [r7, #4]
 7742 000c 3B60     		str	r3, [r7]
3605:Drivers/STM32F4xx_HAL_Driver/Src/stm32f4xx_hal_tim.c ****   /* Check the parameters */
3606:Drivers/STM32F4xx_HAL_Driver/Src/stm32f4xx_hal_tim.c ****   assert_param(IS_TIM_DMABURST_INSTANCE(htim->Instance));
3607:Drivers/STM32F4xx_HAL_Driver/Src/stm32f4xx_hal_tim.c ****   assert_param(IS_TIM_DMA_BASE(BurstBaseAddress));
3608:Drivers/STM32F4xx_HAL_Driver/Src/stm32f4xx_hal_tim.c ****   assert_param(IS_TIM_DMA_SOURCE(BurstRequestSrc));
3609:Drivers/STM32F4xx_HAL_Driver/Src/stm32f4xx_hal_tim.c ****   assert_param(IS_TIM_DMA_LENGTH(BurstLength));
3610:Drivers/STM32F4xx_HAL_Driver/Src/stm32f4xx_hal_tim.c ****   
3611:Drivers/STM32F4xx_HAL_Driver/Src/stm32f4xx_hal_tim.c ****   if((htim->State == HAL_TIM_STATE_BUSY))
 7743              		.loc 1 3611 0
 7744 000e FB68     		ldr	r3, [r7, #12]
 7745 0010 93F83930 		ldrb	r3, [r3, #57]
 7746 0014 DBB2     		uxtb	r3, r3
 7747 0016 022B     		cmp	r3, #2
 7748 0018 01D1     		bne	.L422
3612:Drivers/STM32F4xx_HAL_Driver/Src/stm32f4xx_hal_tim.c ****   {
3613:Drivers/STM32F4xx_HAL_Driver/Src/stm32f4xx_hal_tim.c ****      return HAL_BUSY;
 7749              		.loc 1 3613 0
 7750 001a 0223     		movs	r3, #2
 7751 001c D3E0     		b	.L423
 7752              	.L422:
3614:Drivers/STM32F4xx_HAL_Driver/Src/stm32f4xx_hal_tim.c ****   }
3615:Drivers/STM32F4xx_HAL_Driver/Src/stm32f4xx_hal_tim.c ****   else if((htim->State == HAL_TIM_STATE_READY))
 7753              		.loc 1 3615 0
 7754 001e FB68     		ldr	r3, [r7, #12]
 7755 0020 93F83930 		ldrb	r3, [r3, #57]
 7756 0024 DBB2     		uxtb	r3, r3
 7757 0026 012B     		cmp	r3, #1
 7758 0028 0BD1     		bne	.L424
3616:Drivers/STM32F4xx_HAL_Driver/Src/stm32f4xx_hal_tim.c ****   {
3617:Drivers/STM32F4xx_HAL_Driver/Src/stm32f4xx_hal_tim.c ****     if((BurstBuffer == 0U) && (BurstLength > 0U)) 
 7759              		.loc 1 3617 0
 7760 002a 3B68     		ldr	r3, [r7]
 7761 002c 002B     		cmp	r3, #0
 7762 002e 04D1     		bne	.L425
 7763              		.loc 1 3617 0 is_stmt 0 discriminator 1
 7764 0030 BB69     		ldr	r3, [r7, #24]
 7765 0032 002B     		cmp	r3, #0
 7766 0034 01D0     		beq	.L425
3618:Drivers/STM32F4xx_HAL_Driver/Src/stm32f4xx_hal_tim.c ****     {
3619:Drivers/STM32F4xx_HAL_Driver/Src/stm32f4xx_hal_tim.c ****       return HAL_ERROR;                                    
 7767              		.loc 1 3619 0 is_stmt 1
ARM GAS  /tmp/cc4tSQEQ.s 			page 200


 7768 0036 0123     		movs	r3, #1
 7769 0038 C5E0     		b	.L423
 7770              	.L425:
3620:Drivers/STM32F4xx_HAL_Driver/Src/stm32f4xx_hal_tim.c ****     }
3621:Drivers/STM32F4xx_HAL_Driver/Src/stm32f4xx_hal_tim.c ****     else
3622:Drivers/STM32F4xx_HAL_Driver/Src/stm32f4xx_hal_tim.c ****     {
3623:Drivers/STM32F4xx_HAL_Driver/Src/stm32f4xx_hal_tim.c ****       htim->State = HAL_TIM_STATE_BUSY;
 7771              		.loc 1 3623 0
 7772 003a FB68     		ldr	r3, [r7, #12]
 7773 003c 0222     		movs	r2, #2
 7774 003e 83F83920 		strb	r2, [r3, #57]
 7775              	.L424:
3624:Drivers/STM32F4xx_HAL_Driver/Src/stm32f4xx_hal_tim.c ****     }
3625:Drivers/STM32F4xx_HAL_Driver/Src/stm32f4xx_hal_tim.c ****   }  
3626:Drivers/STM32F4xx_HAL_Driver/Src/stm32f4xx_hal_tim.c ****   switch(BurstRequestSrc)
 7776              		.loc 1 3626 0
 7777 0042 7B68     		ldr	r3, [r7, #4]
 7778 0044 B3F5006F 		cmp	r3, #2048
 7779 0048 56D0     		beq	.L427
 7780 004a B3F5006F 		cmp	r3, #2048
 7781 004e 09D8     		bhi	.L428
 7782 0050 B3F5007F 		cmp	r3, #512
 7783 0054 26D0     		beq	.L429
 7784 0056 B3F5806F 		cmp	r3, #1024
 7785 005a 38D0     		beq	.L430
 7786 005c B3F5807F 		cmp	r3, #256
 7787 0060 0BD0     		beq	.L431
3627:Drivers/STM32F4xx_HAL_Driver/Src/stm32f4xx_hal_tim.c ****   {
3628:Drivers/STM32F4xx_HAL_Driver/Src/stm32f4xx_hal_tim.c ****     case TIM_DMA_UPDATE:
3629:Drivers/STM32F4xx_HAL_Driver/Src/stm32f4xx_hal_tim.c ****     {  
3630:Drivers/STM32F4xx_HAL_Driver/Src/stm32f4xx_hal_tim.c ****       /* Set the DMA Period elapsed callback */
3631:Drivers/STM32F4xx_HAL_Driver/Src/stm32f4xx_hal_tim.c ****       htim->hdma[TIM_DMA_ID_UPDATE]->XferCpltCallback = TIM_DMAPeriodElapsedCplt;
3632:Drivers/STM32F4xx_HAL_Driver/Src/stm32f4xx_hal_tim.c ****      
3633:Drivers/STM32F4xx_HAL_Driver/Src/stm32f4xx_hal_tim.c ****       /* Set the DMA error callback */
3634:Drivers/STM32F4xx_HAL_Driver/Src/stm32f4xx_hal_tim.c ****       htim->hdma[TIM_DMA_ID_UPDATE]->XferErrorCallback = TIM_DMAError ;
3635:Drivers/STM32F4xx_HAL_Driver/Src/stm32f4xx_hal_tim.c ****   
3636:Drivers/STM32F4xx_HAL_Driver/Src/stm32f4xx_hal_tim.c ****       /* Enable the DMA Stream */
3637:Drivers/STM32F4xx_HAL_Driver/Src/stm32f4xx_hal_tim.c ****        HAL_DMA_Start_IT(htim->hdma[TIM_DMA_ID_UPDATE], (uint32_t)&htim->Instance->DMAR, (uint32_t)B
3638:Drivers/STM32F4xx_HAL_Driver/Src/stm32f4xx_hal_tim.c ****     }
3639:Drivers/STM32F4xx_HAL_Driver/Src/stm32f4xx_hal_tim.c ****     break;
3640:Drivers/STM32F4xx_HAL_Driver/Src/stm32f4xx_hal_tim.c ****     case TIM_DMA_CC1:
3641:Drivers/STM32F4xx_HAL_Driver/Src/stm32f4xx_hal_tim.c ****     {  
3642:Drivers/STM32F4xx_HAL_Driver/Src/stm32f4xx_hal_tim.c ****       /* Set the DMA Period elapsed callback */
3643:Drivers/STM32F4xx_HAL_Driver/Src/stm32f4xx_hal_tim.c ****       htim->hdma[TIM_DMA_ID_CC1]->XferCpltCallback = TIM_DMACaptureCplt;
3644:Drivers/STM32F4xx_HAL_Driver/Src/stm32f4xx_hal_tim.c ****      
3645:Drivers/STM32F4xx_HAL_Driver/Src/stm32f4xx_hal_tim.c ****       /* Set the DMA error callback */
3646:Drivers/STM32F4xx_HAL_Driver/Src/stm32f4xx_hal_tim.c ****       htim->hdma[TIM_DMA_ID_CC1]->XferErrorCallback = TIM_DMAError ;
3647:Drivers/STM32F4xx_HAL_Driver/Src/stm32f4xx_hal_tim.c ****   
3648:Drivers/STM32F4xx_HAL_Driver/Src/stm32f4xx_hal_tim.c ****       /* Enable the DMA Stream */
3649:Drivers/STM32F4xx_HAL_Driver/Src/stm32f4xx_hal_tim.c ****       HAL_DMA_Start_IT(htim->hdma[TIM_DMA_ID_CC1], (uint32_t)&htim->Instance->DMAR, (uint32_t)Burst
3650:Drivers/STM32F4xx_HAL_Driver/Src/stm32f4xx_hal_tim.c ****     }
3651:Drivers/STM32F4xx_HAL_Driver/Src/stm32f4xx_hal_tim.c ****     break;
3652:Drivers/STM32F4xx_HAL_Driver/Src/stm32f4xx_hal_tim.c ****     case TIM_DMA_CC2:
3653:Drivers/STM32F4xx_HAL_Driver/Src/stm32f4xx_hal_tim.c ****     {  
3654:Drivers/STM32F4xx_HAL_Driver/Src/stm32f4xx_hal_tim.c ****       /* Set the DMA Period elapsed callback */
3655:Drivers/STM32F4xx_HAL_Driver/Src/stm32f4xx_hal_tim.c ****       htim->hdma[TIM_DMA_ID_CC2]->XferCpltCallback = TIM_DMACaptureCplt;
3656:Drivers/STM32F4xx_HAL_Driver/Src/stm32f4xx_hal_tim.c ****      
ARM GAS  /tmp/cc4tSQEQ.s 			page 201


3657:Drivers/STM32F4xx_HAL_Driver/Src/stm32f4xx_hal_tim.c ****       /* Set the DMA error callback */
3658:Drivers/STM32F4xx_HAL_Driver/Src/stm32f4xx_hal_tim.c ****       htim->hdma[TIM_DMA_ID_CC2]->XferErrorCallback = TIM_DMAError ;
3659:Drivers/STM32F4xx_HAL_Driver/Src/stm32f4xx_hal_tim.c ****   
3660:Drivers/STM32F4xx_HAL_Driver/Src/stm32f4xx_hal_tim.c ****       /* Enable the DMA Stream */
3661:Drivers/STM32F4xx_HAL_Driver/Src/stm32f4xx_hal_tim.c ****       HAL_DMA_Start_IT(htim->hdma[TIM_DMA_ID_CC2], (uint32_t)&htim->Instance->DMAR, (uint32_t)Burst
3662:Drivers/STM32F4xx_HAL_Driver/Src/stm32f4xx_hal_tim.c ****     }
3663:Drivers/STM32F4xx_HAL_Driver/Src/stm32f4xx_hal_tim.c ****     break;
3664:Drivers/STM32F4xx_HAL_Driver/Src/stm32f4xx_hal_tim.c ****     case TIM_DMA_CC3:
3665:Drivers/STM32F4xx_HAL_Driver/Src/stm32f4xx_hal_tim.c ****     {  
3666:Drivers/STM32F4xx_HAL_Driver/Src/stm32f4xx_hal_tim.c ****       /* Set the DMA Period elapsed callback */
3667:Drivers/STM32F4xx_HAL_Driver/Src/stm32f4xx_hal_tim.c ****       htim->hdma[TIM_DMA_ID_CC3]->XferCpltCallback = TIM_DMACaptureCplt;
3668:Drivers/STM32F4xx_HAL_Driver/Src/stm32f4xx_hal_tim.c ****      
3669:Drivers/STM32F4xx_HAL_Driver/Src/stm32f4xx_hal_tim.c ****       /* Set the DMA error callback */
3670:Drivers/STM32F4xx_HAL_Driver/Src/stm32f4xx_hal_tim.c ****       htim->hdma[TIM_DMA_ID_CC3]->XferErrorCallback = TIM_DMAError ;
3671:Drivers/STM32F4xx_HAL_Driver/Src/stm32f4xx_hal_tim.c ****   
3672:Drivers/STM32F4xx_HAL_Driver/Src/stm32f4xx_hal_tim.c ****       /* Enable the DMA Stream */
3673:Drivers/STM32F4xx_HAL_Driver/Src/stm32f4xx_hal_tim.c ****       HAL_DMA_Start_IT(htim->hdma[TIM_DMA_ID_CC3], (uint32_t)&htim->Instance->DMAR, (uint32_t)Burst
3674:Drivers/STM32F4xx_HAL_Driver/Src/stm32f4xx_hal_tim.c ****     }
3675:Drivers/STM32F4xx_HAL_Driver/Src/stm32f4xx_hal_tim.c ****     break;
3676:Drivers/STM32F4xx_HAL_Driver/Src/stm32f4xx_hal_tim.c ****     case TIM_DMA_CC4:
3677:Drivers/STM32F4xx_HAL_Driver/Src/stm32f4xx_hal_tim.c ****     {  
3678:Drivers/STM32F4xx_HAL_Driver/Src/stm32f4xx_hal_tim.c ****       /* Set the DMA Period elapsed callback */
3679:Drivers/STM32F4xx_HAL_Driver/Src/stm32f4xx_hal_tim.c ****       htim->hdma[TIM_DMA_ID_CC4]->XferCpltCallback = TIM_DMACaptureCplt;
3680:Drivers/STM32F4xx_HAL_Driver/Src/stm32f4xx_hal_tim.c ****      
3681:Drivers/STM32F4xx_HAL_Driver/Src/stm32f4xx_hal_tim.c ****       /* Set the DMA error callback */
3682:Drivers/STM32F4xx_HAL_Driver/Src/stm32f4xx_hal_tim.c ****       htim->hdma[TIM_DMA_ID_CC4]->XferErrorCallback = TIM_DMAError ;
3683:Drivers/STM32F4xx_HAL_Driver/Src/stm32f4xx_hal_tim.c ****   
3684:Drivers/STM32F4xx_HAL_Driver/Src/stm32f4xx_hal_tim.c ****       /* Enable the DMA Stream */
3685:Drivers/STM32F4xx_HAL_Driver/Src/stm32f4xx_hal_tim.c ****       HAL_DMA_Start_IT(htim->hdma[TIM_DMA_ID_CC4], (uint32_t)&htim->Instance->DMAR, (uint32_t)Burst
3686:Drivers/STM32F4xx_HAL_Driver/Src/stm32f4xx_hal_tim.c ****     }
3687:Drivers/STM32F4xx_HAL_Driver/Src/stm32f4xx_hal_tim.c ****     break;
3688:Drivers/STM32F4xx_HAL_Driver/Src/stm32f4xx_hal_tim.c ****     case TIM_DMA_COM:
3689:Drivers/STM32F4xx_HAL_Driver/Src/stm32f4xx_hal_tim.c ****     {  
3690:Drivers/STM32F4xx_HAL_Driver/Src/stm32f4xx_hal_tim.c ****       /* Set the DMA Period elapsed callback */
3691:Drivers/STM32F4xx_HAL_Driver/Src/stm32f4xx_hal_tim.c ****       htim->hdma[TIM_DMA_ID_COMMUTATION]->XferCpltCallback = TIMEx_DMACommutationCplt;
3692:Drivers/STM32F4xx_HAL_Driver/Src/stm32f4xx_hal_tim.c ****      
3693:Drivers/STM32F4xx_HAL_Driver/Src/stm32f4xx_hal_tim.c ****       /* Set the DMA error callback */
3694:Drivers/STM32F4xx_HAL_Driver/Src/stm32f4xx_hal_tim.c ****       htim->hdma[TIM_DMA_ID_COMMUTATION]->XferErrorCallback = TIM_DMAError ;
3695:Drivers/STM32F4xx_HAL_Driver/Src/stm32f4xx_hal_tim.c ****   
3696:Drivers/STM32F4xx_HAL_Driver/Src/stm32f4xx_hal_tim.c ****       /* Enable the DMA Stream */
3697:Drivers/STM32F4xx_HAL_Driver/Src/stm32f4xx_hal_tim.c ****       HAL_DMA_Start_IT(htim->hdma[TIM_DMA_ID_COMMUTATION], (uint32_t)&htim->Instance->DMAR, (uint32
3698:Drivers/STM32F4xx_HAL_Driver/Src/stm32f4xx_hal_tim.c ****     }
3699:Drivers/STM32F4xx_HAL_Driver/Src/stm32f4xx_hal_tim.c ****     break;
3700:Drivers/STM32F4xx_HAL_Driver/Src/stm32f4xx_hal_tim.c ****     case TIM_DMA_TRIGGER:
3701:Drivers/STM32F4xx_HAL_Driver/Src/stm32f4xx_hal_tim.c ****     {  
3702:Drivers/STM32F4xx_HAL_Driver/Src/stm32f4xx_hal_tim.c ****       /* Set the DMA Period elapsed callback */
3703:Drivers/STM32F4xx_HAL_Driver/Src/stm32f4xx_hal_tim.c ****       htim->hdma[TIM_DMA_ID_TRIGGER]->XferCpltCallback = TIM_DMATriggerCplt;
3704:Drivers/STM32F4xx_HAL_Driver/Src/stm32f4xx_hal_tim.c ****      
3705:Drivers/STM32F4xx_HAL_Driver/Src/stm32f4xx_hal_tim.c ****       /* Set the DMA error callback */
3706:Drivers/STM32F4xx_HAL_Driver/Src/stm32f4xx_hal_tim.c ****       htim->hdma[TIM_DMA_ID_TRIGGER]->XferErrorCallback = TIM_DMAError ;
3707:Drivers/STM32F4xx_HAL_Driver/Src/stm32f4xx_hal_tim.c ****   
3708:Drivers/STM32F4xx_HAL_Driver/Src/stm32f4xx_hal_tim.c ****       /* Enable the DMA Stream */
3709:Drivers/STM32F4xx_HAL_Driver/Src/stm32f4xx_hal_tim.c ****       HAL_DMA_Start_IT(htim->hdma[TIM_DMA_ID_TRIGGER], (uint32_t)&htim->Instance->DMAR, (uint32_t)B
3710:Drivers/STM32F4xx_HAL_Driver/Src/stm32f4xx_hal_tim.c ****     }
3711:Drivers/STM32F4xx_HAL_Driver/Src/stm32f4xx_hal_tim.c ****     break;
3712:Drivers/STM32F4xx_HAL_Driver/Src/stm32f4xx_hal_tim.c ****     default:
3713:Drivers/STM32F4xx_HAL_Driver/Src/stm32f4xx_hal_tim.c ****     break;  
ARM GAS  /tmp/cc4tSQEQ.s 			page 202


 7788              		.loc 1 3713 0
 7789 0062 9DE0     		b	.L435
 7790              	.L428:
3626:Drivers/STM32F4xx_HAL_Driver/Src/stm32f4xx_hal_tim.c ****   {
 7791              		.loc 1 3626 0
 7792 0064 B3F5005F 		cmp	r3, #8192
 7793 0068 70D0     		beq	.L432
 7794 006a B3F5804F 		cmp	r3, #16384
 7795 006e 00F08280 		beq	.L433
 7796 0072 B3F5805F 		cmp	r3, #4096
 7797 0076 54D0     		beq	.L434
 7798              		.loc 1 3713 0
 7799 0078 92E0     		b	.L435
 7800              	.L431:
3631:Drivers/STM32F4xx_HAL_Driver/Src/stm32f4xx_hal_tim.c ****      
 7801              		.loc 1 3631 0
 7802 007a FB68     		ldr	r3, [r7, #12]
 7803 007c DB69     		ldr	r3, [r3, #28]
 7804 007e 544A     		ldr	r2, .L436
 7805 0080 DA63     		str	r2, [r3, #60]
3634:Drivers/STM32F4xx_HAL_Driver/Src/stm32f4xx_hal_tim.c ****   
 7806              		.loc 1 3634 0
 7807 0082 FB68     		ldr	r3, [r7, #12]
 7808 0084 DB69     		ldr	r3, [r3, #28]
 7809 0086 534A     		ldr	r2, .L436+4
 7810 0088 DA64     		str	r2, [r3, #76]
3637:Drivers/STM32F4xx_HAL_Driver/Src/stm32f4xx_hal_tim.c ****     }
 7811              		.loc 1 3637 0
 7812 008a FB68     		ldr	r3, [r7, #12]
 7813 008c D869     		ldr	r0, [r3, #28]
 7814 008e FB68     		ldr	r3, [r7, #12]
 7815 0090 1B68     		ldr	r3, [r3]
 7816 0092 4C33     		adds	r3, r3, #76
 7817 0094 1946     		mov	r1, r3
 7818 0096 3A68     		ldr	r2, [r7]
 7819 0098 BB69     		ldr	r3, [r7, #24]
 7820 009a 1B0A     		lsrs	r3, r3, #8
 7821 009c 0133     		adds	r3, r3, #1
 7822 009e FFF7FEFF 		bl	HAL_DMA_Start_IT
3639:Drivers/STM32F4xx_HAL_Driver/Src/stm32f4xx_hal_tim.c ****     case TIM_DMA_CC1:
 7823              		.loc 1 3639 0
 7824 00a2 7DE0     		b	.L435
 7825              	.L429:
3643:Drivers/STM32F4xx_HAL_Driver/Src/stm32f4xx_hal_tim.c ****      
 7826              		.loc 1 3643 0
 7827 00a4 FB68     		ldr	r3, [r7, #12]
 7828 00a6 1B6A     		ldr	r3, [r3, #32]
 7829 00a8 4B4A     		ldr	r2, .L436+8
 7830 00aa DA63     		str	r2, [r3, #60]
3646:Drivers/STM32F4xx_HAL_Driver/Src/stm32f4xx_hal_tim.c ****   
 7831              		.loc 1 3646 0
 7832 00ac FB68     		ldr	r3, [r7, #12]
 7833 00ae 1B6A     		ldr	r3, [r3, #32]
 7834 00b0 484A     		ldr	r2, .L436+4
 7835 00b2 DA64     		str	r2, [r3, #76]
3649:Drivers/STM32F4xx_HAL_Driver/Src/stm32f4xx_hal_tim.c ****     }
 7836              		.loc 1 3649 0
ARM GAS  /tmp/cc4tSQEQ.s 			page 203


 7837 00b4 FB68     		ldr	r3, [r7, #12]
 7838 00b6 186A     		ldr	r0, [r3, #32]
 7839 00b8 FB68     		ldr	r3, [r7, #12]
 7840 00ba 1B68     		ldr	r3, [r3]
 7841 00bc 4C33     		adds	r3, r3, #76
 7842 00be 1946     		mov	r1, r3
 7843 00c0 3A68     		ldr	r2, [r7]
 7844 00c2 BB69     		ldr	r3, [r7, #24]
 7845 00c4 1B0A     		lsrs	r3, r3, #8
 7846 00c6 0133     		adds	r3, r3, #1
 7847 00c8 FFF7FEFF 		bl	HAL_DMA_Start_IT
3651:Drivers/STM32F4xx_HAL_Driver/Src/stm32f4xx_hal_tim.c ****     case TIM_DMA_CC2:
 7848              		.loc 1 3651 0
 7849 00cc 68E0     		b	.L435
 7850              	.L430:
3655:Drivers/STM32F4xx_HAL_Driver/Src/stm32f4xx_hal_tim.c ****      
 7851              		.loc 1 3655 0
 7852 00ce FB68     		ldr	r3, [r7, #12]
 7853 00d0 5B6A     		ldr	r3, [r3, #36]
 7854 00d2 414A     		ldr	r2, .L436+8
 7855 00d4 DA63     		str	r2, [r3, #60]
3658:Drivers/STM32F4xx_HAL_Driver/Src/stm32f4xx_hal_tim.c ****   
 7856              		.loc 1 3658 0
 7857 00d6 FB68     		ldr	r3, [r7, #12]
 7858 00d8 5B6A     		ldr	r3, [r3, #36]
 7859 00da 3E4A     		ldr	r2, .L436+4
 7860 00dc DA64     		str	r2, [r3, #76]
3661:Drivers/STM32F4xx_HAL_Driver/Src/stm32f4xx_hal_tim.c ****     }
 7861              		.loc 1 3661 0
 7862 00de FB68     		ldr	r3, [r7, #12]
 7863 00e0 586A     		ldr	r0, [r3, #36]
 7864 00e2 FB68     		ldr	r3, [r7, #12]
 7865 00e4 1B68     		ldr	r3, [r3]
 7866 00e6 4C33     		adds	r3, r3, #76
 7867 00e8 1946     		mov	r1, r3
 7868 00ea 3A68     		ldr	r2, [r7]
 7869 00ec BB69     		ldr	r3, [r7, #24]
 7870 00ee 1B0A     		lsrs	r3, r3, #8
 7871 00f0 0133     		adds	r3, r3, #1
 7872 00f2 FFF7FEFF 		bl	HAL_DMA_Start_IT
3663:Drivers/STM32F4xx_HAL_Driver/Src/stm32f4xx_hal_tim.c ****     case TIM_DMA_CC3:
 7873              		.loc 1 3663 0
 7874 00f6 53E0     		b	.L435
 7875              	.L427:
3667:Drivers/STM32F4xx_HAL_Driver/Src/stm32f4xx_hal_tim.c ****      
 7876              		.loc 1 3667 0
 7877 00f8 FB68     		ldr	r3, [r7, #12]
 7878 00fa 9B6A     		ldr	r3, [r3, #40]
 7879 00fc 364A     		ldr	r2, .L436+8
 7880 00fe DA63     		str	r2, [r3, #60]
3670:Drivers/STM32F4xx_HAL_Driver/Src/stm32f4xx_hal_tim.c ****   
 7881              		.loc 1 3670 0
 7882 0100 FB68     		ldr	r3, [r7, #12]
 7883 0102 9B6A     		ldr	r3, [r3, #40]
 7884 0104 334A     		ldr	r2, .L436+4
 7885 0106 DA64     		str	r2, [r3, #76]
3673:Drivers/STM32F4xx_HAL_Driver/Src/stm32f4xx_hal_tim.c ****     }
ARM GAS  /tmp/cc4tSQEQ.s 			page 204


 7886              		.loc 1 3673 0
 7887 0108 FB68     		ldr	r3, [r7, #12]
 7888 010a 986A     		ldr	r0, [r3, #40]
 7889 010c FB68     		ldr	r3, [r7, #12]
 7890 010e 1B68     		ldr	r3, [r3]
 7891 0110 4C33     		adds	r3, r3, #76
 7892 0112 1946     		mov	r1, r3
 7893 0114 3A68     		ldr	r2, [r7]
 7894 0116 BB69     		ldr	r3, [r7, #24]
 7895 0118 1B0A     		lsrs	r3, r3, #8
 7896 011a 0133     		adds	r3, r3, #1
 7897 011c FFF7FEFF 		bl	HAL_DMA_Start_IT
3675:Drivers/STM32F4xx_HAL_Driver/Src/stm32f4xx_hal_tim.c ****     case TIM_DMA_CC4:
 7898              		.loc 1 3675 0
 7899 0120 3EE0     		b	.L435
 7900              	.L434:
3679:Drivers/STM32F4xx_HAL_Driver/Src/stm32f4xx_hal_tim.c ****      
 7901              		.loc 1 3679 0
 7902 0122 FB68     		ldr	r3, [r7, #12]
 7903 0124 DB6A     		ldr	r3, [r3, #44]
 7904 0126 2C4A     		ldr	r2, .L436+8
 7905 0128 DA63     		str	r2, [r3, #60]
3682:Drivers/STM32F4xx_HAL_Driver/Src/stm32f4xx_hal_tim.c ****   
 7906              		.loc 1 3682 0
 7907 012a FB68     		ldr	r3, [r7, #12]
 7908 012c DB6A     		ldr	r3, [r3, #44]
 7909 012e 294A     		ldr	r2, .L436+4
 7910 0130 DA64     		str	r2, [r3, #76]
3685:Drivers/STM32F4xx_HAL_Driver/Src/stm32f4xx_hal_tim.c ****     }
 7911              		.loc 1 3685 0
 7912 0132 FB68     		ldr	r3, [r7, #12]
 7913 0134 D86A     		ldr	r0, [r3, #44]
 7914 0136 FB68     		ldr	r3, [r7, #12]
 7915 0138 1B68     		ldr	r3, [r3]
 7916 013a 4C33     		adds	r3, r3, #76
 7917 013c 1946     		mov	r1, r3
 7918 013e 3A68     		ldr	r2, [r7]
 7919 0140 BB69     		ldr	r3, [r7, #24]
 7920 0142 1B0A     		lsrs	r3, r3, #8
 7921 0144 0133     		adds	r3, r3, #1
 7922 0146 FFF7FEFF 		bl	HAL_DMA_Start_IT
3687:Drivers/STM32F4xx_HAL_Driver/Src/stm32f4xx_hal_tim.c ****     case TIM_DMA_COM:
 7923              		.loc 1 3687 0
 7924 014a 29E0     		b	.L435
 7925              	.L432:
3691:Drivers/STM32F4xx_HAL_Driver/Src/stm32f4xx_hal_tim.c ****      
 7926              		.loc 1 3691 0
 7927 014c FB68     		ldr	r3, [r7, #12]
 7928 014e 1B6B     		ldr	r3, [r3, #48]
 7929 0150 224A     		ldr	r2, .L436+12
 7930 0152 DA63     		str	r2, [r3, #60]
3694:Drivers/STM32F4xx_HAL_Driver/Src/stm32f4xx_hal_tim.c ****   
 7931              		.loc 1 3694 0
 7932 0154 FB68     		ldr	r3, [r7, #12]
 7933 0156 1B6B     		ldr	r3, [r3, #48]
 7934 0158 1E4A     		ldr	r2, .L436+4
 7935 015a DA64     		str	r2, [r3, #76]
ARM GAS  /tmp/cc4tSQEQ.s 			page 205


3697:Drivers/STM32F4xx_HAL_Driver/Src/stm32f4xx_hal_tim.c ****     }
 7936              		.loc 1 3697 0
 7937 015c FB68     		ldr	r3, [r7, #12]
 7938 015e 186B     		ldr	r0, [r3, #48]
 7939 0160 FB68     		ldr	r3, [r7, #12]
 7940 0162 1B68     		ldr	r3, [r3]
 7941 0164 4C33     		adds	r3, r3, #76
 7942 0166 1946     		mov	r1, r3
 7943 0168 3A68     		ldr	r2, [r7]
 7944 016a BB69     		ldr	r3, [r7, #24]
 7945 016c 1B0A     		lsrs	r3, r3, #8
 7946 016e 0133     		adds	r3, r3, #1
 7947 0170 FFF7FEFF 		bl	HAL_DMA_Start_IT
3699:Drivers/STM32F4xx_HAL_Driver/Src/stm32f4xx_hal_tim.c ****     case TIM_DMA_TRIGGER:
 7948              		.loc 1 3699 0
 7949 0174 14E0     		b	.L435
 7950              	.L433:
3703:Drivers/STM32F4xx_HAL_Driver/Src/stm32f4xx_hal_tim.c ****      
 7951              		.loc 1 3703 0
 7952 0176 FB68     		ldr	r3, [r7, #12]
 7953 0178 5B6B     		ldr	r3, [r3, #52]
 7954 017a 194A     		ldr	r2, .L436+16
 7955 017c DA63     		str	r2, [r3, #60]
3706:Drivers/STM32F4xx_HAL_Driver/Src/stm32f4xx_hal_tim.c ****   
 7956              		.loc 1 3706 0
 7957 017e FB68     		ldr	r3, [r7, #12]
 7958 0180 5B6B     		ldr	r3, [r3, #52]
 7959 0182 144A     		ldr	r2, .L436+4
 7960 0184 DA64     		str	r2, [r3, #76]
3709:Drivers/STM32F4xx_HAL_Driver/Src/stm32f4xx_hal_tim.c ****     }
 7961              		.loc 1 3709 0
 7962 0186 FB68     		ldr	r3, [r7, #12]
 7963 0188 586B     		ldr	r0, [r3, #52]
 7964 018a FB68     		ldr	r3, [r7, #12]
 7965 018c 1B68     		ldr	r3, [r3]
 7966 018e 4C33     		adds	r3, r3, #76
 7967 0190 1946     		mov	r1, r3
 7968 0192 3A68     		ldr	r2, [r7]
 7969 0194 BB69     		ldr	r3, [r7, #24]
 7970 0196 1B0A     		lsrs	r3, r3, #8
 7971 0198 0133     		adds	r3, r3, #1
 7972 019a FFF7FEFF 		bl	HAL_DMA_Start_IT
3711:Drivers/STM32F4xx_HAL_Driver/Src/stm32f4xx_hal_tim.c ****     default:
 7973              		.loc 1 3711 0
 7974 019e 00BF     		nop
 7975              	.L435:
3714:Drivers/STM32F4xx_HAL_Driver/Src/stm32f4xx_hal_tim.c ****   }
3715:Drivers/STM32F4xx_HAL_Driver/Src/stm32f4xx_hal_tim.c **** 
3716:Drivers/STM32F4xx_HAL_Driver/Src/stm32f4xx_hal_tim.c ****   /* configure the DMA Burst Mode */
3717:Drivers/STM32F4xx_HAL_Driver/Src/stm32f4xx_hal_tim.c ****   htim->Instance->DCR = BurstBaseAddress | BurstLength;  
 7976              		.loc 1 3717 0
 7977 01a0 FB68     		ldr	r3, [r7, #12]
 7978 01a2 1B68     		ldr	r3, [r3]
 7979 01a4 B968     		ldr	r1, [r7, #8]
 7980 01a6 BA69     		ldr	r2, [r7, #24]
 7981 01a8 0A43     		orrs	r2, r2, r1
 7982 01aa 9A64     		str	r2, [r3, #72]
ARM GAS  /tmp/cc4tSQEQ.s 			page 206


3718:Drivers/STM32F4xx_HAL_Driver/Src/stm32f4xx_hal_tim.c ****   
3719:Drivers/STM32F4xx_HAL_Driver/Src/stm32f4xx_hal_tim.c ****   /* Enable the TIM DMA Request */
3720:Drivers/STM32F4xx_HAL_Driver/Src/stm32f4xx_hal_tim.c ****   __HAL_TIM_ENABLE_DMA(htim, BurstRequestSrc);
 7983              		.loc 1 3720 0
 7984 01ac FB68     		ldr	r3, [r7, #12]
 7985 01ae 1B68     		ldr	r3, [r3]
 7986 01b0 FA68     		ldr	r2, [r7, #12]
 7987 01b2 1268     		ldr	r2, [r2]
 7988 01b4 D168     		ldr	r1, [r2, #12]
 7989 01b6 7A68     		ldr	r2, [r7, #4]
 7990 01b8 0A43     		orrs	r2, r2, r1
 7991 01ba DA60     		str	r2, [r3, #12]
3721:Drivers/STM32F4xx_HAL_Driver/Src/stm32f4xx_hal_tim.c ****   
3722:Drivers/STM32F4xx_HAL_Driver/Src/stm32f4xx_hal_tim.c ****   htim->State = HAL_TIM_STATE_READY;
 7992              		.loc 1 3722 0
 7993 01bc FB68     		ldr	r3, [r7, #12]
 7994 01be 0122     		movs	r2, #1
 7995 01c0 83F83920 		strb	r2, [r3, #57]
3723:Drivers/STM32F4xx_HAL_Driver/Src/stm32f4xx_hal_tim.c ****   
3724:Drivers/STM32F4xx_HAL_Driver/Src/stm32f4xx_hal_tim.c ****   /* Return function status */
3725:Drivers/STM32F4xx_HAL_Driver/Src/stm32f4xx_hal_tim.c ****   return HAL_OK;
 7996              		.loc 1 3725 0
 7997 01c4 0023     		movs	r3, #0
 7998              	.L423:
3726:Drivers/STM32F4xx_HAL_Driver/Src/stm32f4xx_hal_tim.c **** }
 7999              		.loc 1 3726 0
 8000 01c6 1846     		mov	r0, r3
 8001 01c8 1037     		adds	r7, r7, #16
 8002              	.LCFI345:
 8003              		.cfi_def_cfa_offset 8
 8004 01ca BD46     		mov	sp, r7
 8005              	.LCFI346:
 8006              		.cfi_def_cfa_register 13
 8007              		@ sp needed
 8008 01cc 80BD     		pop	{r7, pc}
 8009              	.L437:
 8010 01ce 00BF     		.align	2
 8011              	.L436:
 8012 01d0 00000000 		.word	TIM_DMAPeriodElapsedCplt
 8013 01d4 00000000 		.word	TIM_DMAError
 8014 01d8 00000000 		.word	TIM_DMACaptureCplt
 8015 01dc 00000000 		.word	TIMEx_DMACommutationCplt
 8016 01e0 00000000 		.word	TIM_DMATriggerCplt
 8017              		.cfi_endproc
 8018              	.LFE189:
 8020              		.section	.text.HAL_TIM_DMABurst_ReadStop,"ax",%progbits
 8021              		.align	1
 8022              		.global	HAL_TIM_DMABurst_ReadStop
 8023              		.syntax unified
 8024              		.thumb
 8025              		.thumb_func
 8026              		.fpu fpv4-sp-d16
 8028              	HAL_TIM_DMABurst_ReadStop:
 8029              	.LFB190:
3727:Drivers/STM32F4xx_HAL_Driver/Src/stm32f4xx_hal_tim.c **** 
3728:Drivers/STM32F4xx_HAL_Driver/Src/stm32f4xx_hal_tim.c **** /**
3729:Drivers/STM32F4xx_HAL_Driver/Src/stm32f4xx_hal_tim.c ****   * @brief  Stop the DMA burst reading 
ARM GAS  /tmp/cc4tSQEQ.s 			page 207


3730:Drivers/STM32F4xx_HAL_Driver/Src/stm32f4xx_hal_tim.c ****   * @param  htim pointer to a TIM_HandleTypeDef structure that contains
3731:Drivers/STM32F4xx_HAL_Driver/Src/stm32f4xx_hal_tim.c ****   *                the configuration information for TIM module.
3732:Drivers/STM32F4xx_HAL_Driver/Src/stm32f4xx_hal_tim.c ****   * @param  BurstRequestSrc TIM DMA Request sources to disable.
3733:Drivers/STM32F4xx_HAL_Driver/Src/stm32f4xx_hal_tim.c ****   * @retval HAL status
3734:Drivers/STM32F4xx_HAL_Driver/Src/stm32f4xx_hal_tim.c ****   */
3735:Drivers/STM32F4xx_HAL_Driver/Src/stm32f4xx_hal_tim.c **** HAL_StatusTypeDef HAL_TIM_DMABurst_ReadStop(TIM_HandleTypeDef *htim, uint32_t BurstRequestSrc)
3736:Drivers/STM32F4xx_HAL_Driver/Src/stm32f4xx_hal_tim.c **** {
 8030              		.loc 1 3736 0
 8031              		.cfi_startproc
 8032              		@ args = 0, pretend = 0, frame = 8
 8033              		@ frame_needed = 1, uses_anonymous_args = 0
 8034 0000 80B5     		push	{r7, lr}
 8035              	.LCFI347:
 8036              		.cfi_def_cfa_offset 8
 8037              		.cfi_offset 7, -8
 8038              		.cfi_offset 14, -4
 8039 0002 82B0     		sub	sp, sp, #8
 8040              	.LCFI348:
 8041              		.cfi_def_cfa_offset 16
 8042 0004 00AF     		add	r7, sp, #0
 8043              	.LCFI349:
 8044              		.cfi_def_cfa_register 7
 8045 0006 7860     		str	r0, [r7, #4]
 8046 0008 3960     		str	r1, [r7]
3737:Drivers/STM32F4xx_HAL_Driver/Src/stm32f4xx_hal_tim.c ****   /* Check the parameters */
3738:Drivers/STM32F4xx_HAL_Driver/Src/stm32f4xx_hal_tim.c ****   assert_param(IS_TIM_DMA_SOURCE(BurstRequestSrc));
3739:Drivers/STM32F4xx_HAL_Driver/Src/stm32f4xx_hal_tim.c ****   
3740:Drivers/STM32F4xx_HAL_Driver/Src/stm32f4xx_hal_tim.c ****   /* Abort the DMA transfer (at least disable the DMA channel) */
3741:Drivers/STM32F4xx_HAL_Driver/Src/stm32f4xx_hal_tim.c ****   switch(BurstRequestSrc)
 8047              		.loc 1 3741 0
 8048 000a 3B68     		ldr	r3, [r7]
 8049 000c B3F5006F 		cmp	r3, #2048
 8050 0010 28D0     		beq	.L440
 8051 0012 B3F5006F 		cmp	r3, #2048
 8052 0016 09D8     		bhi	.L441
 8053 0018 B3F5007F 		cmp	r3, #512
 8054 001c 16D0     		beq	.L442
 8055 001e B3F5806F 		cmp	r3, #1024
 8056 0022 19D0     		beq	.L443
 8057 0024 B3F5807F 		cmp	r3, #256
 8058 0028 0AD0     		beq	.L444
3742:Drivers/STM32F4xx_HAL_Driver/Src/stm32f4xx_hal_tim.c ****   {
3743:Drivers/STM32F4xx_HAL_Driver/Src/stm32f4xx_hal_tim.c ****     case TIM_DMA_UPDATE:
3744:Drivers/STM32F4xx_HAL_Driver/Src/stm32f4xx_hal_tim.c ****     {  
3745:Drivers/STM32F4xx_HAL_Driver/Src/stm32f4xx_hal_tim.c ****       HAL_DMA_Abort(htim->hdma[TIM_DMA_ID_UPDATE]);
3746:Drivers/STM32F4xx_HAL_Driver/Src/stm32f4xx_hal_tim.c ****     }
3747:Drivers/STM32F4xx_HAL_Driver/Src/stm32f4xx_hal_tim.c ****     break;
3748:Drivers/STM32F4xx_HAL_Driver/Src/stm32f4xx_hal_tim.c ****     case TIM_DMA_CC1:
3749:Drivers/STM32F4xx_HAL_Driver/Src/stm32f4xx_hal_tim.c ****     {  
3750:Drivers/STM32F4xx_HAL_Driver/Src/stm32f4xx_hal_tim.c ****       HAL_DMA_Abort(htim->hdma[TIM_DMA_ID_CC1]);
3751:Drivers/STM32F4xx_HAL_Driver/Src/stm32f4xx_hal_tim.c ****     }
3752:Drivers/STM32F4xx_HAL_Driver/Src/stm32f4xx_hal_tim.c ****     break;
3753:Drivers/STM32F4xx_HAL_Driver/Src/stm32f4xx_hal_tim.c ****     case TIM_DMA_CC2:
3754:Drivers/STM32F4xx_HAL_Driver/Src/stm32f4xx_hal_tim.c ****     {  
3755:Drivers/STM32F4xx_HAL_Driver/Src/stm32f4xx_hal_tim.c ****       HAL_DMA_Abort(htim->hdma[TIM_DMA_ID_CC2]);
3756:Drivers/STM32F4xx_HAL_Driver/Src/stm32f4xx_hal_tim.c ****     }
3757:Drivers/STM32F4xx_HAL_Driver/Src/stm32f4xx_hal_tim.c ****     break;
ARM GAS  /tmp/cc4tSQEQ.s 			page 208


3758:Drivers/STM32F4xx_HAL_Driver/Src/stm32f4xx_hal_tim.c ****     case TIM_DMA_CC3:
3759:Drivers/STM32F4xx_HAL_Driver/Src/stm32f4xx_hal_tim.c ****     {  
3760:Drivers/STM32F4xx_HAL_Driver/Src/stm32f4xx_hal_tim.c ****       HAL_DMA_Abort(htim->hdma[TIM_DMA_ID_CC3]);
3761:Drivers/STM32F4xx_HAL_Driver/Src/stm32f4xx_hal_tim.c ****     }
3762:Drivers/STM32F4xx_HAL_Driver/Src/stm32f4xx_hal_tim.c ****     break;
3763:Drivers/STM32F4xx_HAL_Driver/Src/stm32f4xx_hal_tim.c ****     case TIM_DMA_CC4:
3764:Drivers/STM32F4xx_HAL_Driver/Src/stm32f4xx_hal_tim.c ****     {  
3765:Drivers/STM32F4xx_HAL_Driver/Src/stm32f4xx_hal_tim.c ****       HAL_DMA_Abort(htim->hdma[TIM_DMA_ID_CC4]);
3766:Drivers/STM32F4xx_HAL_Driver/Src/stm32f4xx_hal_tim.c ****     }
3767:Drivers/STM32F4xx_HAL_Driver/Src/stm32f4xx_hal_tim.c ****     break;
3768:Drivers/STM32F4xx_HAL_Driver/Src/stm32f4xx_hal_tim.c ****     case TIM_DMA_COM:
3769:Drivers/STM32F4xx_HAL_Driver/Src/stm32f4xx_hal_tim.c ****     {  
3770:Drivers/STM32F4xx_HAL_Driver/Src/stm32f4xx_hal_tim.c ****       HAL_DMA_Abort(htim->hdma[TIM_DMA_ID_COMMUTATION]);
3771:Drivers/STM32F4xx_HAL_Driver/Src/stm32f4xx_hal_tim.c ****     }
3772:Drivers/STM32F4xx_HAL_Driver/Src/stm32f4xx_hal_tim.c ****     break;
3773:Drivers/STM32F4xx_HAL_Driver/Src/stm32f4xx_hal_tim.c ****     case TIM_DMA_TRIGGER:
3774:Drivers/STM32F4xx_HAL_Driver/Src/stm32f4xx_hal_tim.c ****     {  
3775:Drivers/STM32F4xx_HAL_Driver/Src/stm32f4xx_hal_tim.c ****       HAL_DMA_Abort(htim->hdma[TIM_DMA_ID_TRIGGER]);
3776:Drivers/STM32F4xx_HAL_Driver/Src/stm32f4xx_hal_tim.c ****     }
3777:Drivers/STM32F4xx_HAL_Driver/Src/stm32f4xx_hal_tim.c ****     break;
3778:Drivers/STM32F4xx_HAL_Driver/Src/stm32f4xx_hal_tim.c ****     default:
3779:Drivers/STM32F4xx_HAL_Driver/Src/stm32f4xx_hal_tim.c ****     break;  
 8059              		.loc 1 3779 0
 8060 002a 33E0     		b	.L448
 8061              	.L441:
3741:Drivers/STM32F4xx_HAL_Driver/Src/stm32f4xx_hal_tim.c ****   {
 8062              		.loc 1 3741 0
 8063 002c B3F5005F 		cmp	r3, #8192
 8064 0030 24D0     		beq	.L445
 8065 0032 B3F5804F 		cmp	r3, #16384
 8066 0036 27D0     		beq	.L446
 8067 0038 B3F5805F 		cmp	r3, #4096
 8068 003c 18D0     		beq	.L447
 8069              		.loc 1 3779 0
 8070 003e 29E0     		b	.L448
 8071              	.L444:
3745:Drivers/STM32F4xx_HAL_Driver/Src/stm32f4xx_hal_tim.c ****     }
 8072              		.loc 1 3745 0
 8073 0040 7B68     		ldr	r3, [r7, #4]
 8074 0042 DB69     		ldr	r3, [r3, #28]
 8075 0044 1846     		mov	r0, r3
 8076 0046 FFF7FEFF 		bl	HAL_DMA_Abort
3747:Drivers/STM32F4xx_HAL_Driver/Src/stm32f4xx_hal_tim.c ****     case TIM_DMA_CC1:
 8077              		.loc 1 3747 0
 8078 004a 23E0     		b	.L448
 8079              	.L442:
3750:Drivers/STM32F4xx_HAL_Driver/Src/stm32f4xx_hal_tim.c ****     }
 8080              		.loc 1 3750 0
 8081 004c 7B68     		ldr	r3, [r7, #4]
 8082 004e 1B6A     		ldr	r3, [r3, #32]
 8083 0050 1846     		mov	r0, r3
 8084 0052 FFF7FEFF 		bl	HAL_DMA_Abort
3752:Drivers/STM32F4xx_HAL_Driver/Src/stm32f4xx_hal_tim.c ****     case TIM_DMA_CC2:
 8085              		.loc 1 3752 0
 8086 0056 1DE0     		b	.L448
 8087              	.L443:
3755:Drivers/STM32F4xx_HAL_Driver/Src/stm32f4xx_hal_tim.c ****     }
ARM GAS  /tmp/cc4tSQEQ.s 			page 209


 8088              		.loc 1 3755 0
 8089 0058 7B68     		ldr	r3, [r7, #4]
 8090 005a 5B6A     		ldr	r3, [r3, #36]
 8091 005c 1846     		mov	r0, r3
 8092 005e FFF7FEFF 		bl	HAL_DMA_Abort
3757:Drivers/STM32F4xx_HAL_Driver/Src/stm32f4xx_hal_tim.c ****     case TIM_DMA_CC3:
 8093              		.loc 1 3757 0
 8094 0062 17E0     		b	.L448
 8095              	.L440:
3760:Drivers/STM32F4xx_HAL_Driver/Src/stm32f4xx_hal_tim.c ****     }
 8096              		.loc 1 3760 0
 8097 0064 7B68     		ldr	r3, [r7, #4]
 8098 0066 9B6A     		ldr	r3, [r3, #40]
 8099 0068 1846     		mov	r0, r3
 8100 006a FFF7FEFF 		bl	HAL_DMA_Abort
3762:Drivers/STM32F4xx_HAL_Driver/Src/stm32f4xx_hal_tim.c ****     case TIM_DMA_CC4:
 8101              		.loc 1 3762 0
 8102 006e 11E0     		b	.L448
 8103              	.L447:
3765:Drivers/STM32F4xx_HAL_Driver/Src/stm32f4xx_hal_tim.c ****     }
 8104              		.loc 1 3765 0
 8105 0070 7B68     		ldr	r3, [r7, #4]
 8106 0072 DB6A     		ldr	r3, [r3, #44]
 8107 0074 1846     		mov	r0, r3
 8108 0076 FFF7FEFF 		bl	HAL_DMA_Abort
3767:Drivers/STM32F4xx_HAL_Driver/Src/stm32f4xx_hal_tim.c ****     case TIM_DMA_COM:
 8109              		.loc 1 3767 0
 8110 007a 0BE0     		b	.L448
 8111              	.L445:
3770:Drivers/STM32F4xx_HAL_Driver/Src/stm32f4xx_hal_tim.c ****     }
 8112              		.loc 1 3770 0
 8113 007c 7B68     		ldr	r3, [r7, #4]
 8114 007e 1B6B     		ldr	r3, [r3, #48]
 8115 0080 1846     		mov	r0, r3
 8116 0082 FFF7FEFF 		bl	HAL_DMA_Abort
3772:Drivers/STM32F4xx_HAL_Driver/Src/stm32f4xx_hal_tim.c ****     case TIM_DMA_TRIGGER:
 8117              		.loc 1 3772 0
 8118 0086 05E0     		b	.L448
 8119              	.L446:
3775:Drivers/STM32F4xx_HAL_Driver/Src/stm32f4xx_hal_tim.c ****     }
 8120              		.loc 1 3775 0
 8121 0088 7B68     		ldr	r3, [r7, #4]
 8122 008a 5B6B     		ldr	r3, [r3, #52]
 8123 008c 1846     		mov	r0, r3
 8124 008e FFF7FEFF 		bl	HAL_DMA_Abort
3777:Drivers/STM32F4xx_HAL_Driver/Src/stm32f4xx_hal_tim.c ****     default:
 8125              		.loc 1 3777 0
 8126 0092 00BF     		nop
 8127              	.L448:
3780:Drivers/STM32F4xx_HAL_Driver/Src/stm32f4xx_hal_tim.c ****   }
3781:Drivers/STM32F4xx_HAL_Driver/Src/stm32f4xx_hal_tim.c ****   
3782:Drivers/STM32F4xx_HAL_Driver/Src/stm32f4xx_hal_tim.c ****   /* Disable the TIM Update DMA request */
3783:Drivers/STM32F4xx_HAL_Driver/Src/stm32f4xx_hal_tim.c ****   __HAL_TIM_DISABLE_DMA(htim, BurstRequestSrc);
 8128              		.loc 1 3783 0
 8129 0094 7B68     		ldr	r3, [r7, #4]
 8130 0096 1B68     		ldr	r3, [r3]
 8131 0098 7A68     		ldr	r2, [r7, #4]
ARM GAS  /tmp/cc4tSQEQ.s 			page 210


 8132 009a 1268     		ldr	r2, [r2]
 8133 009c D168     		ldr	r1, [r2, #12]
 8134 009e 3A68     		ldr	r2, [r7]
 8135 00a0 D243     		mvns	r2, r2
 8136 00a2 0A40     		ands	r2, r2, r1
 8137 00a4 DA60     		str	r2, [r3, #12]
3784:Drivers/STM32F4xx_HAL_Driver/Src/stm32f4xx_hal_tim.c ****       
3785:Drivers/STM32F4xx_HAL_Driver/Src/stm32f4xx_hal_tim.c ****   /* Return function status */
3786:Drivers/STM32F4xx_HAL_Driver/Src/stm32f4xx_hal_tim.c ****   return HAL_OK;  
 8138              		.loc 1 3786 0
 8139 00a6 0023     		movs	r3, #0
3787:Drivers/STM32F4xx_HAL_Driver/Src/stm32f4xx_hal_tim.c **** }
 8140              		.loc 1 3787 0
 8141 00a8 1846     		mov	r0, r3
 8142 00aa 0837     		adds	r7, r7, #8
 8143              	.LCFI350:
 8144              		.cfi_def_cfa_offset 8
 8145 00ac BD46     		mov	sp, r7
 8146              	.LCFI351:
 8147              		.cfi_def_cfa_register 13
 8148              		@ sp needed
 8149 00ae 80BD     		pop	{r7, pc}
 8150              		.cfi_endproc
 8151              	.LFE190:
 8153              		.section	.text.HAL_TIM_GenerateEvent,"ax",%progbits
 8154              		.align	1
 8155              		.global	HAL_TIM_GenerateEvent
 8156              		.syntax unified
 8157              		.thumb
 8158              		.thumb_func
 8159              		.fpu fpv4-sp-d16
 8161              	HAL_TIM_GenerateEvent:
 8162              	.LFB191:
3788:Drivers/STM32F4xx_HAL_Driver/Src/stm32f4xx_hal_tim.c **** 
3789:Drivers/STM32F4xx_HAL_Driver/Src/stm32f4xx_hal_tim.c **** /**
3790:Drivers/STM32F4xx_HAL_Driver/Src/stm32f4xx_hal_tim.c ****   * @brief  Generate a software event
3791:Drivers/STM32F4xx_HAL_Driver/Src/stm32f4xx_hal_tim.c ****   * @param  htim pointer to a TIM_HandleTypeDef structure that contains
3792:Drivers/STM32F4xx_HAL_Driver/Src/stm32f4xx_hal_tim.c ****   *                the configuration information for TIM module.
3793:Drivers/STM32F4xx_HAL_Driver/Src/stm32f4xx_hal_tim.c ****   * @param  EventSource specifies the event source.
3794:Drivers/STM32F4xx_HAL_Driver/Src/stm32f4xx_hal_tim.c ****   *          This parameter can be one of the following values:
3795:Drivers/STM32F4xx_HAL_Driver/Src/stm32f4xx_hal_tim.c ****   *            @arg TIM_EVENTSOURCE_UPDATE: Timer update Event source
3796:Drivers/STM32F4xx_HAL_Driver/Src/stm32f4xx_hal_tim.c ****   *            @arg TIM_EVENTSOURCE_CC1: Timer Capture Compare 1 Event source
3797:Drivers/STM32F4xx_HAL_Driver/Src/stm32f4xx_hal_tim.c ****   *            @arg TIM_EVENTSOURCE_CC2: Timer Capture Compare 2 Event source
3798:Drivers/STM32F4xx_HAL_Driver/Src/stm32f4xx_hal_tim.c ****   *            @arg TIM_EVENTSOURCE_CC3: Timer Capture Compare 3 Event source
3799:Drivers/STM32F4xx_HAL_Driver/Src/stm32f4xx_hal_tim.c ****   *            @arg TIM_EVENTSOURCE_CC4: Timer Capture Compare 4 Event source
3800:Drivers/STM32F4xx_HAL_Driver/Src/stm32f4xx_hal_tim.c ****   *            @arg TIM_EVENTSOURCE_COM: Timer COM event source  
3801:Drivers/STM32F4xx_HAL_Driver/Src/stm32f4xx_hal_tim.c ****   *            @arg TIM_EVENTSOURCE_TRIGGER: Timer Trigger Event source
3802:Drivers/STM32F4xx_HAL_Driver/Src/stm32f4xx_hal_tim.c ****   *            @arg TIM_EVENTSOURCE_BREAK: Timer Break event source
3803:Drivers/STM32F4xx_HAL_Driver/Src/stm32f4xx_hal_tim.c ****   * @note   TIM6 and TIM7 can only generate an update event. 
3804:Drivers/STM32F4xx_HAL_Driver/Src/stm32f4xx_hal_tim.c ****   * @note   TIM_EVENTSOURCE_COM and TIM_EVENTSOURCE_BREAK are used only with TIM1 and TIM8.
3805:Drivers/STM32F4xx_HAL_Driver/Src/stm32f4xx_hal_tim.c ****   * @retval HAL status
3806:Drivers/STM32F4xx_HAL_Driver/Src/stm32f4xx_hal_tim.c ****   */ 
3807:Drivers/STM32F4xx_HAL_Driver/Src/stm32f4xx_hal_tim.c **** 
3808:Drivers/STM32F4xx_HAL_Driver/Src/stm32f4xx_hal_tim.c **** HAL_StatusTypeDef HAL_TIM_GenerateEvent(TIM_HandleTypeDef *htim, uint32_t EventSource)
3809:Drivers/STM32F4xx_HAL_Driver/Src/stm32f4xx_hal_tim.c **** {
 8163              		.loc 1 3809 0
 8164              		.cfi_startproc
ARM GAS  /tmp/cc4tSQEQ.s 			page 211


 8165              		@ args = 0, pretend = 0, frame = 8
 8166              		@ frame_needed = 1, uses_anonymous_args = 0
 8167              		@ link register save eliminated.
 8168 0000 80B4     		push	{r7}
 8169              	.LCFI352:
 8170              		.cfi_def_cfa_offset 4
 8171              		.cfi_offset 7, -4
 8172 0002 83B0     		sub	sp, sp, #12
 8173              	.LCFI353:
 8174              		.cfi_def_cfa_offset 16
 8175 0004 00AF     		add	r7, sp, #0
 8176              	.LCFI354:
 8177              		.cfi_def_cfa_register 7
 8178 0006 7860     		str	r0, [r7, #4]
 8179 0008 3960     		str	r1, [r7]
3810:Drivers/STM32F4xx_HAL_Driver/Src/stm32f4xx_hal_tim.c ****   /* Check the parameters */
3811:Drivers/STM32F4xx_HAL_Driver/Src/stm32f4xx_hal_tim.c ****   assert_param(IS_TIM_INSTANCE(htim->Instance));
3812:Drivers/STM32F4xx_HAL_Driver/Src/stm32f4xx_hal_tim.c ****   assert_param(IS_TIM_EVENT_SOURCE(EventSource));
3813:Drivers/STM32F4xx_HAL_Driver/Src/stm32f4xx_hal_tim.c ****   
3814:Drivers/STM32F4xx_HAL_Driver/Src/stm32f4xx_hal_tim.c ****   /* Process Locked */
3815:Drivers/STM32F4xx_HAL_Driver/Src/stm32f4xx_hal_tim.c ****   __HAL_LOCK(htim);
 8180              		.loc 1 3815 0
 8181 000a 7B68     		ldr	r3, [r7, #4]
 8182 000c 93F83830 		ldrb	r3, [r3, #56]	@ zero_extendqisi2
 8183 0010 012B     		cmp	r3, #1
 8184 0012 01D1     		bne	.L451
 8185              		.loc 1 3815 0 is_stmt 0 discriminator 1
 8186 0014 0223     		movs	r3, #2
 8187 0016 14E0     		b	.L452
 8188              	.L451:
 8189              		.loc 1 3815 0 discriminator 2
 8190 0018 7B68     		ldr	r3, [r7, #4]
 8191 001a 0122     		movs	r2, #1
 8192 001c 83F83820 		strb	r2, [r3, #56]
3816:Drivers/STM32F4xx_HAL_Driver/Src/stm32f4xx_hal_tim.c ****   
3817:Drivers/STM32F4xx_HAL_Driver/Src/stm32f4xx_hal_tim.c ****   /* Change the TIM state */
3818:Drivers/STM32F4xx_HAL_Driver/Src/stm32f4xx_hal_tim.c ****   htim->State = HAL_TIM_STATE_BUSY;
 8193              		.loc 1 3818 0 is_stmt 1 discriminator 2
 8194 0020 7B68     		ldr	r3, [r7, #4]
 8195 0022 0222     		movs	r2, #2
 8196 0024 83F83920 		strb	r2, [r3, #57]
3819:Drivers/STM32F4xx_HAL_Driver/Src/stm32f4xx_hal_tim.c ****   
3820:Drivers/STM32F4xx_HAL_Driver/Src/stm32f4xx_hal_tim.c ****   /* Set the event sources */
3821:Drivers/STM32F4xx_HAL_Driver/Src/stm32f4xx_hal_tim.c ****   htim->Instance->EGR = EventSource;
 8197              		.loc 1 3821 0 discriminator 2
 8198 0028 7B68     		ldr	r3, [r7, #4]
 8199 002a 1B68     		ldr	r3, [r3]
 8200 002c 3A68     		ldr	r2, [r7]
 8201 002e 5A61     		str	r2, [r3, #20]
3822:Drivers/STM32F4xx_HAL_Driver/Src/stm32f4xx_hal_tim.c ****   
3823:Drivers/STM32F4xx_HAL_Driver/Src/stm32f4xx_hal_tim.c ****   /* Change the TIM state */
3824:Drivers/STM32F4xx_HAL_Driver/Src/stm32f4xx_hal_tim.c ****   htim->State = HAL_TIM_STATE_READY;
 8202              		.loc 1 3824 0 discriminator 2
 8203 0030 7B68     		ldr	r3, [r7, #4]
 8204 0032 0122     		movs	r2, #1
 8205 0034 83F83920 		strb	r2, [r3, #57]
3825:Drivers/STM32F4xx_HAL_Driver/Src/stm32f4xx_hal_tim.c ****   
ARM GAS  /tmp/cc4tSQEQ.s 			page 212


3826:Drivers/STM32F4xx_HAL_Driver/Src/stm32f4xx_hal_tim.c ****   __HAL_UNLOCK(htim);
 8206              		.loc 1 3826 0 discriminator 2
 8207 0038 7B68     		ldr	r3, [r7, #4]
 8208 003a 0022     		movs	r2, #0
 8209 003c 83F83820 		strb	r2, [r3, #56]
3827:Drivers/STM32F4xx_HAL_Driver/Src/stm32f4xx_hal_tim.c ****   
3828:Drivers/STM32F4xx_HAL_Driver/Src/stm32f4xx_hal_tim.c ****   /* Return function status */
3829:Drivers/STM32F4xx_HAL_Driver/Src/stm32f4xx_hal_tim.c ****   return HAL_OK;  
 8210              		.loc 1 3829 0 discriminator 2
 8211 0040 0023     		movs	r3, #0
 8212              	.L452:
3830:Drivers/STM32F4xx_HAL_Driver/Src/stm32f4xx_hal_tim.c **** }
 8213              		.loc 1 3830 0
 8214 0042 1846     		mov	r0, r3
 8215 0044 0C37     		adds	r7, r7, #12
 8216              	.LCFI355:
 8217              		.cfi_def_cfa_offset 4
 8218 0046 BD46     		mov	sp, r7
 8219              	.LCFI356:
 8220              		.cfi_def_cfa_register 13
 8221              		@ sp needed
 8222 0048 5DF8047B 		ldr	r7, [sp], #4
 8223              	.LCFI357:
 8224              		.cfi_restore 7
 8225              		.cfi_def_cfa_offset 0
 8226 004c 7047     		bx	lr
 8227              		.cfi_endproc
 8228              	.LFE191:
 8230              		.section	.text.HAL_TIM_ConfigOCrefClear,"ax",%progbits
 8231              		.align	1
 8232              		.global	HAL_TIM_ConfigOCrefClear
 8233              		.syntax unified
 8234              		.thumb
 8235              		.thumb_func
 8236              		.fpu fpv4-sp-d16
 8238              	HAL_TIM_ConfigOCrefClear:
 8239              	.LFB192:
3831:Drivers/STM32F4xx_HAL_Driver/Src/stm32f4xx_hal_tim.c **** 
3832:Drivers/STM32F4xx_HAL_Driver/Src/stm32f4xx_hal_tim.c **** /**
3833:Drivers/STM32F4xx_HAL_Driver/Src/stm32f4xx_hal_tim.c ****   * @brief  Configures the OCRef clear feature
3834:Drivers/STM32F4xx_HAL_Driver/Src/stm32f4xx_hal_tim.c ****   * @param  htim pointer to a TIM_HandleTypeDef structure that contains
3835:Drivers/STM32F4xx_HAL_Driver/Src/stm32f4xx_hal_tim.c ****   *                the configuration information for TIM module.
3836:Drivers/STM32F4xx_HAL_Driver/Src/stm32f4xx_hal_tim.c ****   * @param  sClearInputConfig pointer to a TIM_ClearInputConfigTypeDef structure that
3837:Drivers/STM32F4xx_HAL_Driver/Src/stm32f4xx_hal_tim.c ****   *         contains the OCREF clear feature and parameters for the TIM peripheral. 
3838:Drivers/STM32F4xx_HAL_Driver/Src/stm32f4xx_hal_tim.c ****   * @param  Channel specifies the TIM Channel.
3839:Drivers/STM32F4xx_HAL_Driver/Src/stm32f4xx_hal_tim.c ****   *          This parameter can be one of the following values:
3840:Drivers/STM32F4xx_HAL_Driver/Src/stm32f4xx_hal_tim.c ****   *            @arg TIM_CHANNEL_1: TIM Channel 1 selected
3841:Drivers/STM32F4xx_HAL_Driver/Src/stm32f4xx_hal_tim.c ****   *            @arg TIM_CHANNEL_2: TIM Channel 2 selected
3842:Drivers/STM32F4xx_HAL_Driver/Src/stm32f4xx_hal_tim.c ****   *            @arg TIM_CHANNEL_3: TIM Channel 3 selected
3843:Drivers/STM32F4xx_HAL_Driver/Src/stm32f4xx_hal_tim.c ****   *            @arg TIM_CHANNEL_4: TIM Channel 4 selected
3844:Drivers/STM32F4xx_HAL_Driver/Src/stm32f4xx_hal_tim.c ****   * @retval HAL status
3845:Drivers/STM32F4xx_HAL_Driver/Src/stm32f4xx_hal_tim.c ****   */ 
3846:Drivers/STM32F4xx_HAL_Driver/Src/stm32f4xx_hal_tim.c **** HAL_StatusTypeDef HAL_TIM_ConfigOCrefClear(TIM_HandleTypeDef *htim, TIM_ClearInputConfigTypeDef * s
3847:Drivers/STM32F4xx_HAL_Driver/Src/stm32f4xx_hal_tim.c **** { 
 8240              		.loc 1 3847 0
 8241              		.cfi_startproc
 8242              		@ args = 0, pretend = 0, frame = 16
ARM GAS  /tmp/cc4tSQEQ.s 			page 213


 8243              		@ frame_needed = 1, uses_anonymous_args = 0
 8244 0000 80B5     		push	{r7, lr}
 8245              	.LCFI358:
 8246              		.cfi_def_cfa_offset 8
 8247              		.cfi_offset 7, -8
 8248              		.cfi_offset 14, -4
 8249 0002 84B0     		sub	sp, sp, #16
 8250              	.LCFI359:
 8251              		.cfi_def_cfa_offset 24
 8252 0004 00AF     		add	r7, sp, #0
 8253              	.LCFI360:
 8254              		.cfi_def_cfa_register 7
 8255 0006 F860     		str	r0, [r7, #12]
 8256 0008 B960     		str	r1, [r7, #8]
 8257 000a 7A60     		str	r2, [r7, #4]
3848:Drivers/STM32F4xx_HAL_Driver/Src/stm32f4xx_hal_tim.c ****   /* Check the parameters */
3849:Drivers/STM32F4xx_HAL_Driver/Src/stm32f4xx_hal_tim.c ****   assert_param(IS_TIM_CC1_INSTANCE(htim->Instance));
3850:Drivers/STM32F4xx_HAL_Driver/Src/stm32f4xx_hal_tim.c ****   assert_param(IS_TIM_CHANNELS(Channel));
3851:Drivers/STM32F4xx_HAL_Driver/Src/stm32f4xx_hal_tim.c ****   assert_param(IS_TIM_CLEARINPUT_SOURCE(sClearInputConfig->ClearInputSource));
3852:Drivers/STM32F4xx_HAL_Driver/Src/stm32f4xx_hal_tim.c ****   assert_param(IS_TIM_CLEARINPUT_POLARITY(sClearInputConfig->ClearInputPolarity));
3853:Drivers/STM32F4xx_HAL_Driver/Src/stm32f4xx_hal_tim.c ****   assert_param(IS_TIM_CLEARINPUT_PRESCALER(sClearInputConfig->ClearInputPrescaler));
3854:Drivers/STM32F4xx_HAL_Driver/Src/stm32f4xx_hal_tim.c ****   assert_param(IS_TIM_CLEARINPUT_FILTER(sClearInputConfig->ClearInputFilter));
3855:Drivers/STM32F4xx_HAL_Driver/Src/stm32f4xx_hal_tim.c ****    
3856:Drivers/STM32F4xx_HAL_Driver/Src/stm32f4xx_hal_tim.c ****   /* Process Locked */
3857:Drivers/STM32F4xx_HAL_Driver/Src/stm32f4xx_hal_tim.c ****   __HAL_LOCK(htim);
 8258              		.loc 1 3857 0
 8259 000c FB68     		ldr	r3, [r7, #12]
 8260 000e 93F83830 		ldrb	r3, [r3, #56]	@ zero_extendqisi2
 8261 0012 012B     		cmp	r3, #1
 8262 0014 01D1     		bne	.L454
 8263              		.loc 1 3857 0 is_stmt 0 discriminator 1
 8264 0016 0223     		movs	r3, #2
 8265 0018 98E0     		b	.L455
 8266              	.L454:
 8267              		.loc 1 3857 0 discriminator 2
 8268 001a FB68     		ldr	r3, [r7, #12]
 8269 001c 0122     		movs	r2, #1
 8270 001e 83F83820 		strb	r2, [r3, #56]
3858:Drivers/STM32F4xx_HAL_Driver/Src/stm32f4xx_hal_tim.c ****   
3859:Drivers/STM32F4xx_HAL_Driver/Src/stm32f4xx_hal_tim.c ****   htim->State = HAL_TIM_STATE_BUSY;
 8271              		.loc 1 3859 0 is_stmt 1 discriminator 2
 8272 0022 FB68     		ldr	r3, [r7, #12]
 8273 0024 0222     		movs	r2, #2
 8274 0026 83F83920 		strb	r2, [r3, #57]
3860:Drivers/STM32F4xx_HAL_Driver/Src/stm32f4xx_hal_tim.c ****   
3861:Drivers/STM32F4xx_HAL_Driver/Src/stm32f4xx_hal_tim.c ****   if(sClearInputConfig->ClearInputSource == TIM_CLEARINPUTSOURCE_ETR)
 8275              		.loc 1 3861 0 discriminator 2
 8276 002a BB68     		ldr	r3, [r7, #8]
 8277 002c 5B68     		ldr	r3, [r3, #4]
 8278 002e 012B     		cmp	r3, #1
 8279 0030 09D1     		bne	.L456
3862:Drivers/STM32F4xx_HAL_Driver/Src/stm32f4xx_hal_tim.c ****   {
3863:Drivers/STM32F4xx_HAL_Driver/Src/stm32f4xx_hal_tim.c ****     TIM_ETR_SetConfig(htim->Instance, 
 8280              		.loc 1 3863 0
 8281 0032 FB68     		ldr	r3, [r7, #12]
 8282 0034 1868     		ldr	r0, [r3]
 8283 0036 BB68     		ldr	r3, [r7, #8]
ARM GAS  /tmp/cc4tSQEQ.s 			page 214


 8284 0038 D968     		ldr	r1, [r3, #12]
 8285 003a BB68     		ldr	r3, [r7, #8]
 8286 003c 9A68     		ldr	r2, [r3, #8]
 8287 003e BB68     		ldr	r3, [r7, #8]
 8288 0040 1B69     		ldr	r3, [r3, #16]
 8289 0042 FFF7FEFF 		bl	TIM_ETR_SetConfig
 8290              	.L456:
3864:Drivers/STM32F4xx_HAL_Driver/Src/stm32f4xx_hal_tim.c ****                       sClearInputConfig->ClearInputPrescaler,
3865:Drivers/STM32F4xx_HAL_Driver/Src/stm32f4xx_hal_tim.c ****                       sClearInputConfig->ClearInputPolarity,
3866:Drivers/STM32F4xx_HAL_Driver/Src/stm32f4xx_hal_tim.c ****                       sClearInputConfig->ClearInputFilter);
3867:Drivers/STM32F4xx_HAL_Driver/Src/stm32f4xx_hal_tim.c ****   }
3868:Drivers/STM32F4xx_HAL_Driver/Src/stm32f4xx_hal_tim.c ****   
3869:Drivers/STM32F4xx_HAL_Driver/Src/stm32f4xx_hal_tim.c ****   switch (Channel)
 8291              		.loc 1 3869 0
 8292 0046 7B68     		ldr	r3, [r7, #4]
 8293 0048 0C2B     		cmp	r3, #12
 8294 004a 75D8     		bhi	.L472
 8295 004c 01A2     		adr	r2, .L459
 8296 004e 52F823F0 		ldr	pc, [r2, r3, lsl #2]
 8297 0052 00BF     		.p2align 2
 8298              	.L459:
 8299 0054 89000000 		.word	.L458+1
 8300 0058 39010000 		.word	.L472+1
 8301 005c 39010000 		.word	.L472+1
 8302 0060 39010000 		.word	.L472+1
 8303 0064 B5000000 		.word	.L460+1
 8304 0068 39010000 		.word	.L472+1
 8305 006c 39010000 		.word	.L472+1
 8306 0070 39010000 		.word	.L472+1
 8307 0074 E1000000 		.word	.L461+1
 8308 0078 39010000 		.word	.L472+1
 8309 007c 39010000 		.word	.L472+1
 8310 0080 39010000 		.word	.L472+1
 8311 0084 0D010000 		.word	.L462+1
 8312              		.p2align 1
 8313              	.L458:
3870:Drivers/STM32F4xx_HAL_Driver/Src/stm32f4xx_hal_tim.c ****   {
3871:Drivers/STM32F4xx_HAL_Driver/Src/stm32f4xx_hal_tim.c ****     case TIM_CHANNEL_1:
3872:Drivers/STM32F4xx_HAL_Driver/Src/stm32f4xx_hal_tim.c ****     {        
3873:Drivers/STM32F4xx_HAL_Driver/Src/stm32f4xx_hal_tim.c ****       if(sClearInputConfig->ClearInputState != RESET)  
 8314              		.loc 1 3873 0
 8315 0088 BB68     		ldr	r3, [r7, #8]
 8316 008a 1B68     		ldr	r3, [r3]
 8317 008c 002B     		cmp	r3, #0
 8318 008e 08D0     		beq	.L463
3874:Drivers/STM32F4xx_HAL_Driver/Src/stm32f4xx_hal_tim.c ****       {
3875:Drivers/STM32F4xx_HAL_Driver/Src/stm32f4xx_hal_tim.c ****         /* Enable the Ocref clear feature for Channel 1 */
3876:Drivers/STM32F4xx_HAL_Driver/Src/stm32f4xx_hal_tim.c ****         htim->Instance->CCMR1 |= TIM_CCMR1_OC1CE;
 8319              		.loc 1 3876 0
 8320 0090 FB68     		ldr	r3, [r7, #12]
 8321 0092 1B68     		ldr	r3, [r3]
 8322 0094 FA68     		ldr	r2, [r7, #12]
 8323 0096 1268     		ldr	r2, [r2]
 8324 0098 9269     		ldr	r2, [r2, #24]
 8325 009a 42F08002 		orr	r2, r2, #128
 8326 009e 9A61     		str	r2, [r3, #24]
3877:Drivers/STM32F4xx_HAL_Driver/Src/stm32f4xx_hal_tim.c ****       }
ARM GAS  /tmp/cc4tSQEQ.s 			page 215


3878:Drivers/STM32F4xx_HAL_Driver/Src/stm32f4xx_hal_tim.c ****       else
3879:Drivers/STM32F4xx_HAL_Driver/Src/stm32f4xx_hal_tim.c ****       {
3880:Drivers/STM32F4xx_HAL_Driver/Src/stm32f4xx_hal_tim.c ****         /* Disable the Ocref clear feature for Channel 1 */
3881:Drivers/STM32F4xx_HAL_Driver/Src/stm32f4xx_hal_tim.c ****         htim->Instance->CCMR1 &= ~TIM_CCMR1_OC1CE;      
3882:Drivers/STM32F4xx_HAL_Driver/Src/stm32f4xx_hal_tim.c ****       }
3883:Drivers/STM32F4xx_HAL_Driver/Src/stm32f4xx_hal_tim.c ****     }    
3884:Drivers/STM32F4xx_HAL_Driver/Src/stm32f4xx_hal_tim.c ****     break;
 8327              		.loc 1 3884 0
 8328 00a0 4BE0     		b	.L465
 8329              	.L463:
3881:Drivers/STM32F4xx_HAL_Driver/Src/stm32f4xx_hal_tim.c ****       }
 8330              		.loc 1 3881 0
 8331 00a2 FB68     		ldr	r3, [r7, #12]
 8332 00a4 1B68     		ldr	r3, [r3]
 8333 00a6 FA68     		ldr	r2, [r7, #12]
 8334 00a8 1268     		ldr	r2, [r2]
 8335 00aa 9269     		ldr	r2, [r2, #24]
 8336 00ac 22F08002 		bic	r2, r2, #128
 8337 00b0 9A61     		str	r2, [r3, #24]
 8338              		.loc 1 3884 0
 8339 00b2 42E0     		b	.L465
 8340              	.L460:
3885:Drivers/STM32F4xx_HAL_Driver/Src/stm32f4xx_hal_tim.c ****     case TIM_CHANNEL_2:    
3886:Drivers/STM32F4xx_HAL_Driver/Src/stm32f4xx_hal_tim.c ****     { 
3887:Drivers/STM32F4xx_HAL_Driver/Src/stm32f4xx_hal_tim.c ****       assert_param(IS_TIM_CC2_INSTANCE(htim->Instance)); 
3888:Drivers/STM32F4xx_HAL_Driver/Src/stm32f4xx_hal_tim.c ****       if(sClearInputConfig->ClearInputState != RESET)  
 8341              		.loc 1 3888 0
 8342 00b4 BB68     		ldr	r3, [r7, #8]
 8343 00b6 1B68     		ldr	r3, [r3]
 8344 00b8 002B     		cmp	r3, #0
 8345 00ba 08D0     		beq	.L466
3889:Drivers/STM32F4xx_HAL_Driver/Src/stm32f4xx_hal_tim.c ****       {
3890:Drivers/STM32F4xx_HAL_Driver/Src/stm32f4xx_hal_tim.c ****         /* Enable the Ocref clear feature for Channel 2 */
3891:Drivers/STM32F4xx_HAL_Driver/Src/stm32f4xx_hal_tim.c ****         htim->Instance->CCMR1 |= TIM_CCMR1_OC2CE;
 8346              		.loc 1 3891 0
 8347 00bc FB68     		ldr	r3, [r7, #12]
 8348 00be 1B68     		ldr	r3, [r3]
 8349 00c0 FA68     		ldr	r2, [r7, #12]
 8350 00c2 1268     		ldr	r2, [r2]
 8351 00c4 9269     		ldr	r2, [r2, #24]
 8352 00c6 42F40042 		orr	r2, r2, #32768
 8353 00ca 9A61     		str	r2, [r3, #24]
3892:Drivers/STM32F4xx_HAL_Driver/Src/stm32f4xx_hal_tim.c ****       }
3893:Drivers/STM32F4xx_HAL_Driver/Src/stm32f4xx_hal_tim.c ****       else
3894:Drivers/STM32F4xx_HAL_Driver/Src/stm32f4xx_hal_tim.c ****       {
3895:Drivers/STM32F4xx_HAL_Driver/Src/stm32f4xx_hal_tim.c ****         /* Disable the Ocref clear feature for Channel 2 */
3896:Drivers/STM32F4xx_HAL_Driver/Src/stm32f4xx_hal_tim.c ****         htim->Instance->CCMR1 &= ~TIM_CCMR1_OC2CE;      
3897:Drivers/STM32F4xx_HAL_Driver/Src/stm32f4xx_hal_tim.c ****       }
3898:Drivers/STM32F4xx_HAL_Driver/Src/stm32f4xx_hal_tim.c ****     } 
3899:Drivers/STM32F4xx_HAL_Driver/Src/stm32f4xx_hal_tim.c ****     break;
 8354              		.loc 1 3899 0
 8355 00cc 35E0     		b	.L465
 8356              	.L466:
3896:Drivers/STM32F4xx_HAL_Driver/Src/stm32f4xx_hal_tim.c ****       }
 8357              		.loc 1 3896 0
 8358 00ce FB68     		ldr	r3, [r7, #12]
 8359 00d0 1B68     		ldr	r3, [r3]
ARM GAS  /tmp/cc4tSQEQ.s 			page 216


 8360 00d2 FA68     		ldr	r2, [r7, #12]
 8361 00d4 1268     		ldr	r2, [r2]
 8362 00d6 9269     		ldr	r2, [r2, #24]
 8363 00d8 22F40042 		bic	r2, r2, #32768
 8364 00dc 9A61     		str	r2, [r3, #24]
 8365              		.loc 1 3899 0
 8366 00de 2CE0     		b	.L465
 8367              	.L461:
3900:Drivers/STM32F4xx_HAL_Driver/Src/stm32f4xx_hal_tim.c ****     case TIM_CHANNEL_3:   
3901:Drivers/STM32F4xx_HAL_Driver/Src/stm32f4xx_hal_tim.c ****     {  
3902:Drivers/STM32F4xx_HAL_Driver/Src/stm32f4xx_hal_tim.c ****       assert_param(IS_TIM_CC3_INSTANCE(htim->Instance));
3903:Drivers/STM32F4xx_HAL_Driver/Src/stm32f4xx_hal_tim.c ****       if(sClearInputConfig->ClearInputState != RESET)  
 8368              		.loc 1 3903 0
 8369 00e0 BB68     		ldr	r3, [r7, #8]
 8370 00e2 1B68     		ldr	r3, [r3]
 8371 00e4 002B     		cmp	r3, #0
 8372 00e6 08D0     		beq	.L468
3904:Drivers/STM32F4xx_HAL_Driver/Src/stm32f4xx_hal_tim.c ****       {
3905:Drivers/STM32F4xx_HAL_Driver/Src/stm32f4xx_hal_tim.c ****         /* Enable the Ocref clear feature for Channel 3 */
3906:Drivers/STM32F4xx_HAL_Driver/Src/stm32f4xx_hal_tim.c ****         htim->Instance->CCMR2 |= TIM_CCMR2_OC3CE;
 8373              		.loc 1 3906 0
 8374 00e8 FB68     		ldr	r3, [r7, #12]
 8375 00ea 1B68     		ldr	r3, [r3]
 8376 00ec FA68     		ldr	r2, [r7, #12]
 8377 00ee 1268     		ldr	r2, [r2]
 8378 00f0 D269     		ldr	r2, [r2, #28]
 8379 00f2 42F08002 		orr	r2, r2, #128
 8380 00f6 DA61     		str	r2, [r3, #28]
3907:Drivers/STM32F4xx_HAL_Driver/Src/stm32f4xx_hal_tim.c ****       }
3908:Drivers/STM32F4xx_HAL_Driver/Src/stm32f4xx_hal_tim.c ****       else
3909:Drivers/STM32F4xx_HAL_Driver/Src/stm32f4xx_hal_tim.c ****       {
3910:Drivers/STM32F4xx_HAL_Driver/Src/stm32f4xx_hal_tim.c ****         /* Disable the Ocref clear feature for Channel 3 */
3911:Drivers/STM32F4xx_HAL_Driver/Src/stm32f4xx_hal_tim.c ****         htim->Instance->CCMR2 &= ~TIM_CCMR2_OC3CE;      
3912:Drivers/STM32F4xx_HAL_Driver/Src/stm32f4xx_hal_tim.c ****       }
3913:Drivers/STM32F4xx_HAL_Driver/Src/stm32f4xx_hal_tim.c ****     } 
3914:Drivers/STM32F4xx_HAL_Driver/Src/stm32f4xx_hal_tim.c ****     break;
 8381              		.loc 1 3914 0
 8382 00f8 1FE0     		b	.L465
 8383              	.L468:
3911:Drivers/STM32F4xx_HAL_Driver/Src/stm32f4xx_hal_tim.c ****       }
 8384              		.loc 1 3911 0
 8385 00fa FB68     		ldr	r3, [r7, #12]
 8386 00fc 1B68     		ldr	r3, [r3]
 8387 00fe FA68     		ldr	r2, [r7, #12]
 8388 0100 1268     		ldr	r2, [r2]
 8389 0102 D269     		ldr	r2, [r2, #28]
 8390 0104 22F08002 		bic	r2, r2, #128
 8391 0108 DA61     		str	r2, [r3, #28]
 8392              		.loc 1 3914 0
 8393 010a 16E0     		b	.L465
 8394              	.L462:
3915:Drivers/STM32F4xx_HAL_Driver/Src/stm32f4xx_hal_tim.c ****     case TIM_CHANNEL_4:    
3916:Drivers/STM32F4xx_HAL_Driver/Src/stm32f4xx_hal_tim.c ****     {  
3917:Drivers/STM32F4xx_HAL_Driver/Src/stm32f4xx_hal_tim.c ****       assert_param(IS_TIM_CC4_INSTANCE(htim->Instance));
3918:Drivers/STM32F4xx_HAL_Driver/Src/stm32f4xx_hal_tim.c ****       if(sClearInputConfig->ClearInputState != RESET)  
 8395              		.loc 1 3918 0
 8396 010c BB68     		ldr	r3, [r7, #8]
ARM GAS  /tmp/cc4tSQEQ.s 			page 217


 8397 010e 1B68     		ldr	r3, [r3]
 8398 0110 002B     		cmp	r3, #0
 8399 0112 08D0     		beq	.L470
3919:Drivers/STM32F4xx_HAL_Driver/Src/stm32f4xx_hal_tim.c ****       {
3920:Drivers/STM32F4xx_HAL_Driver/Src/stm32f4xx_hal_tim.c ****         /* Enable the Ocref clear feature for Channel 4 */
3921:Drivers/STM32F4xx_HAL_Driver/Src/stm32f4xx_hal_tim.c ****         htim->Instance->CCMR2 |= TIM_CCMR2_OC4CE;
 8400              		.loc 1 3921 0
 8401 0114 FB68     		ldr	r3, [r7, #12]
 8402 0116 1B68     		ldr	r3, [r3]
 8403 0118 FA68     		ldr	r2, [r7, #12]
 8404 011a 1268     		ldr	r2, [r2]
 8405 011c D269     		ldr	r2, [r2, #28]
 8406 011e 42F40042 		orr	r2, r2, #32768
 8407 0122 DA61     		str	r2, [r3, #28]
3922:Drivers/STM32F4xx_HAL_Driver/Src/stm32f4xx_hal_tim.c ****       }
3923:Drivers/STM32F4xx_HAL_Driver/Src/stm32f4xx_hal_tim.c ****       else
3924:Drivers/STM32F4xx_HAL_Driver/Src/stm32f4xx_hal_tim.c ****       {
3925:Drivers/STM32F4xx_HAL_Driver/Src/stm32f4xx_hal_tim.c ****         /* Disable the Ocref clear feature for Channel 4 */
3926:Drivers/STM32F4xx_HAL_Driver/Src/stm32f4xx_hal_tim.c ****         htim->Instance->CCMR2 &= ~TIM_CCMR2_OC4CE;      
3927:Drivers/STM32F4xx_HAL_Driver/Src/stm32f4xx_hal_tim.c ****       }
3928:Drivers/STM32F4xx_HAL_Driver/Src/stm32f4xx_hal_tim.c ****     } 
3929:Drivers/STM32F4xx_HAL_Driver/Src/stm32f4xx_hal_tim.c ****     break;
 8408              		.loc 1 3929 0
 8409 0124 09E0     		b	.L465
 8410              	.L470:
3926:Drivers/STM32F4xx_HAL_Driver/Src/stm32f4xx_hal_tim.c ****       }
 8411              		.loc 1 3926 0
 8412 0126 FB68     		ldr	r3, [r7, #12]
 8413 0128 1B68     		ldr	r3, [r3]
 8414 012a FA68     		ldr	r2, [r7, #12]
 8415 012c 1268     		ldr	r2, [r2]
 8416 012e D269     		ldr	r2, [r2, #28]
 8417 0130 22F40042 		bic	r2, r2, #32768
 8418 0134 DA61     		str	r2, [r3, #28]
 8419              		.loc 1 3929 0
 8420 0136 00E0     		b	.L465
 8421              	.L472:
3930:Drivers/STM32F4xx_HAL_Driver/Src/stm32f4xx_hal_tim.c ****     default:  
3931:Drivers/STM32F4xx_HAL_Driver/Src/stm32f4xx_hal_tim.c ****     break;
 8422              		.loc 1 3931 0
 8423 0138 00BF     		nop
 8424              	.L465:
3932:Drivers/STM32F4xx_HAL_Driver/Src/stm32f4xx_hal_tim.c ****   } 
3933:Drivers/STM32F4xx_HAL_Driver/Src/stm32f4xx_hal_tim.c **** 
3934:Drivers/STM32F4xx_HAL_Driver/Src/stm32f4xx_hal_tim.c ****   htim->State = HAL_TIM_STATE_READY;
 8425              		.loc 1 3934 0
 8426 013a FB68     		ldr	r3, [r7, #12]
 8427 013c 0122     		movs	r2, #1
 8428 013e 83F83920 		strb	r2, [r3, #57]
3935:Drivers/STM32F4xx_HAL_Driver/Src/stm32f4xx_hal_tim.c ****   
3936:Drivers/STM32F4xx_HAL_Driver/Src/stm32f4xx_hal_tim.c ****   __HAL_UNLOCK(htim);
 8429              		.loc 1 3936 0
 8430 0142 FB68     		ldr	r3, [r7, #12]
 8431 0144 0022     		movs	r2, #0
 8432 0146 83F83820 		strb	r2, [r3, #56]
3937:Drivers/STM32F4xx_HAL_Driver/Src/stm32f4xx_hal_tim.c ****   
3938:Drivers/STM32F4xx_HAL_Driver/Src/stm32f4xx_hal_tim.c ****   return HAL_OK;  
ARM GAS  /tmp/cc4tSQEQ.s 			page 218


 8433              		.loc 1 3938 0
 8434 014a 0023     		movs	r3, #0
 8435              	.L455:
3939:Drivers/STM32F4xx_HAL_Driver/Src/stm32f4xx_hal_tim.c **** }  
 8436              		.loc 1 3939 0
 8437 014c 1846     		mov	r0, r3
 8438 014e 1037     		adds	r7, r7, #16
 8439              	.LCFI361:
 8440              		.cfi_def_cfa_offset 8
 8441 0150 BD46     		mov	sp, r7
 8442              	.LCFI362:
 8443              		.cfi_def_cfa_register 13
 8444              		@ sp needed
 8445 0152 80BD     		pop	{r7, pc}
 8446              		.cfi_endproc
 8447              	.LFE192:
 8449              		.section	.text.HAL_TIM_ConfigClockSource,"ax",%progbits
 8450              		.align	1
 8451              		.global	HAL_TIM_ConfigClockSource
 8452              		.syntax unified
 8453              		.thumb
 8454              		.thumb_func
 8455              		.fpu fpv4-sp-d16
 8457              	HAL_TIM_ConfigClockSource:
 8458              	.LFB193:
3940:Drivers/STM32F4xx_HAL_Driver/Src/stm32f4xx_hal_tim.c **** 
3941:Drivers/STM32F4xx_HAL_Driver/Src/stm32f4xx_hal_tim.c **** /**
3942:Drivers/STM32F4xx_HAL_Driver/Src/stm32f4xx_hal_tim.c ****   * @brief   Configures the clock source to be used
3943:Drivers/STM32F4xx_HAL_Driver/Src/stm32f4xx_hal_tim.c ****   * @param  htim pointer to a TIM_HandleTypeDef structure that contains
3944:Drivers/STM32F4xx_HAL_Driver/Src/stm32f4xx_hal_tim.c ****   *                the configuration information for TIM module.
3945:Drivers/STM32F4xx_HAL_Driver/Src/stm32f4xx_hal_tim.c ****   * @param  sClockSourceConfig pointer to a TIM_ClockConfigTypeDef structure that
3946:Drivers/STM32F4xx_HAL_Driver/Src/stm32f4xx_hal_tim.c ****   *         contains the clock source information for the TIM peripheral. 
3947:Drivers/STM32F4xx_HAL_Driver/Src/stm32f4xx_hal_tim.c ****   * @retval HAL status
3948:Drivers/STM32F4xx_HAL_Driver/Src/stm32f4xx_hal_tim.c ****   */ 
3949:Drivers/STM32F4xx_HAL_Driver/Src/stm32f4xx_hal_tim.c **** HAL_StatusTypeDef HAL_TIM_ConfigClockSource(TIM_HandleTypeDef *htim, TIM_ClockConfigTypeDef * sCloc
3950:Drivers/STM32F4xx_HAL_Driver/Src/stm32f4xx_hal_tim.c **** {
 8459              		.loc 1 3950 0
 8460              		.cfi_startproc
 8461              		@ args = 0, pretend = 0, frame = 16
 8462              		@ frame_needed = 1, uses_anonymous_args = 0
 8463 0000 80B5     		push	{r7, lr}
 8464              	.LCFI363:
 8465              		.cfi_def_cfa_offset 8
 8466              		.cfi_offset 7, -8
 8467              		.cfi_offset 14, -4
 8468 0002 84B0     		sub	sp, sp, #16
 8469              	.LCFI364:
 8470              		.cfi_def_cfa_offset 24
 8471 0004 00AF     		add	r7, sp, #0
 8472              	.LCFI365:
 8473              		.cfi_def_cfa_register 7
 8474 0006 7860     		str	r0, [r7, #4]
 8475 0008 3960     		str	r1, [r7]
3951:Drivers/STM32F4xx_HAL_Driver/Src/stm32f4xx_hal_tim.c ****   uint32_t tmpsmcr = 0U;
 8476              		.loc 1 3951 0
 8477 000a 0023     		movs	r3, #0
 8478 000c FB60     		str	r3, [r7, #12]
ARM GAS  /tmp/cc4tSQEQ.s 			page 219


3952:Drivers/STM32F4xx_HAL_Driver/Src/stm32f4xx_hal_tim.c ****     
3953:Drivers/STM32F4xx_HAL_Driver/Src/stm32f4xx_hal_tim.c ****   /* Process Locked */
3954:Drivers/STM32F4xx_HAL_Driver/Src/stm32f4xx_hal_tim.c ****   __HAL_LOCK(htim);
 8479              		.loc 1 3954 0
 8480 000e 7B68     		ldr	r3, [r7, #4]
 8481 0010 93F83830 		ldrb	r3, [r3, #56]	@ zero_extendqisi2
 8482 0014 012B     		cmp	r3, #1
 8483 0016 01D1     		bne	.L474
 8484              		.loc 1 3954 0 is_stmt 0 discriminator 1
 8485 0018 0223     		movs	r3, #2
 8486 001a C8E0     		b	.L475
 8487              	.L474:
 8488              		.loc 1 3954 0 discriminator 2
 8489 001c 7B68     		ldr	r3, [r7, #4]
 8490 001e 0122     		movs	r2, #1
 8491 0020 83F83820 		strb	r2, [r3, #56]
3955:Drivers/STM32F4xx_HAL_Driver/Src/stm32f4xx_hal_tim.c ****   
3956:Drivers/STM32F4xx_HAL_Driver/Src/stm32f4xx_hal_tim.c ****   htim->State = HAL_TIM_STATE_BUSY;
 8492              		.loc 1 3956 0 is_stmt 1 discriminator 2
 8493 0024 7B68     		ldr	r3, [r7, #4]
 8494 0026 0222     		movs	r2, #2
 8495 0028 83F83920 		strb	r2, [r3, #57]
3957:Drivers/STM32F4xx_HAL_Driver/Src/stm32f4xx_hal_tim.c ****   
3958:Drivers/STM32F4xx_HAL_Driver/Src/stm32f4xx_hal_tim.c ****   /* Check the parameters */
3959:Drivers/STM32F4xx_HAL_Driver/Src/stm32f4xx_hal_tim.c ****   assert_param(IS_TIM_CLOCKSOURCE(sClockSourceConfig->ClockSource));
3960:Drivers/STM32F4xx_HAL_Driver/Src/stm32f4xx_hal_tim.c ****   
3961:Drivers/STM32F4xx_HAL_Driver/Src/stm32f4xx_hal_tim.c ****   /* Reset the SMS, TS, ECE, ETPS and ETRF bits */
3962:Drivers/STM32F4xx_HAL_Driver/Src/stm32f4xx_hal_tim.c ****   tmpsmcr = htim->Instance->SMCR;
 8496              		.loc 1 3962 0 discriminator 2
 8497 002c 7B68     		ldr	r3, [r7, #4]
 8498 002e 1B68     		ldr	r3, [r3]
 8499 0030 9B68     		ldr	r3, [r3, #8]
 8500 0032 FB60     		str	r3, [r7, #12]
3963:Drivers/STM32F4xx_HAL_Driver/Src/stm32f4xx_hal_tim.c ****   tmpsmcr &= ~(TIM_SMCR_SMS | TIM_SMCR_TS);
 8501              		.loc 1 3963 0 discriminator 2
 8502 0034 FB68     		ldr	r3, [r7, #12]
 8503 0036 23F07703 		bic	r3, r3, #119
 8504 003a FB60     		str	r3, [r7, #12]
3964:Drivers/STM32F4xx_HAL_Driver/Src/stm32f4xx_hal_tim.c ****   tmpsmcr &= ~(TIM_SMCR_ETF | TIM_SMCR_ETPS | TIM_SMCR_ECE | TIM_SMCR_ETP);
 8505              		.loc 1 3964 0 discriminator 2
 8506 003c FB68     		ldr	r3, [r7, #12]
 8507 003e 23F47F43 		bic	r3, r3, #65280
 8508 0042 FB60     		str	r3, [r7, #12]
3965:Drivers/STM32F4xx_HAL_Driver/Src/stm32f4xx_hal_tim.c ****   htim->Instance->SMCR = tmpsmcr;
 8509              		.loc 1 3965 0 discriminator 2
 8510 0044 7B68     		ldr	r3, [r7, #4]
 8511 0046 1B68     		ldr	r3, [r3]
 8512 0048 FA68     		ldr	r2, [r7, #12]
 8513 004a 9A60     		str	r2, [r3, #8]
3966:Drivers/STM32F4xx_HAL_Driver/Src/stm32f4xx_hal_tim.c ****   
3967:Drivers/STM32F4xx_HAL_Driver/Src/stm32f4xx_hal_tim.c ****   switch (sClockSourceConfig->ClockSource)
 8514              		.loc 1 3967 0 discriminator 2
 8515 004c 3B68     		ldr	r3, [r7]
 8516 004e 1B68     		ldr	r3, [r3]
 8517 0050 402B     		cmp	r3, #64
 8518 0052 77D0     		beq	.L477
 8519 0054 402B     		cmp	r3, #64
ARM GAS  /tmp/cc4tSQEQ.s 			page 220


 8520 0056 0ED8     		bhi	.L478
 8521 0058 102B     		cmp	r3, #16
 8522 005a 00F08A80 		beq	.L479
 8523 005e 102B     		cmp	r3, #16
 8524 0060 02D8     		bhi	.L480
 8525 0062 002B     		cmp	r3, #0
 8526 0064 7ED0     		beq	.L481
3968:Drivers/STM32F4xx_HAL_Driver/Src/stm32f4xx_hal_tim.c ****   {
3969:Drivers/STM32F4xx_HAL_Driver/Src/stm32f4xx_hal_tim.c ****     case TIM_CLOCKSOURCE_INTERNAL:
3970:Drivers/STM32F4xx_HAL_Driver/Src/stm32f4xx_hal_tim.c ****     { 
3971:Drivers/STM32F4xx_HAL_Driver/Src/stm32f4xx_hal_tim.c ****       assert_param(IS_TIM_INSTANCE(htim->Instance));
3972:Drivers/STM32F4xx_HAL_Driver/Src/stm32f4xx_hal_tim.c ****       
3973:Drivers/STM32F4xx_HAL_Driver/Src/stm32f4xx_hal_tim.c ****       /* Disable slave mode to clock the prescaler directly with the internal clock */
3974:Drivers/STM32F4xx_HAL_Driver/Src/stm32f4xx_hal_tim.c ****       htim->Instance->SMCR &= ~TIM_SMCR_SMS;
3975:Drivers/STM32F4xx_HAL_Driver/Src/stm32f4xx_hal_tim.c ****     }
3976:Drivers/STM32F4xx_HAL_Driver/Src/stm32f4xx_hal_tim.c ****     break;
3977:Drivers/STM32F4xx_HAL_Driver/Src/stm32f4xx_hal_tim.c ****     
3978:Drivers/STM32F4xx_HAL_Driver/Src/stm32f4xx_hal_tim.c ****     case TIM_CLOCKSOURCE_ETRMODE1:
3979:Drivers/STM32F4xx_HAL_Driver/Src/stm32f4xx_hal_tim.c ****     {
3980:Drivers/STM32F4xx_HAL_Driver/Src/stm32f4xx_hal_tim.c ****       assert_param(IS_TIM_ETR_INSTANCE(htim->Instance));
3981:Drivers/STM32F4xx_HAL_Driver/Src/stm32f4xx_hal_tim.c **** 
3982:Drivers/STM32F4xx_HAL_Driver/Src/stm32f4xx_hal_tim.c ****       assert_param(IS_TIM_CLOCKPOLARITY(sClockSourceConfig->ClockPolarity));
3983:Drivers/STM32F4xx_HAL_Driver/Src/stm32f4xx_hal_tim.c ****       assert_param(IS_TIM_CLOCKPRESCALER(sClockSourceConfig->ClockPrescaler));
3984:Drivers/STM32F4xx_HAL_Driver/Src/stm32f4xx_hal_tim.c ****       assert_param(IS_TIM_CLOCKFILTER(sClockSourceConfig->ClockFilter));
3985:Drivers/STM32F4xx_HAL_Driver/Src/stm32f4xx_hal_tim.c **** 
3986:Drivers/STM32F4xx_HAL_Driver/Src/stm32f4xx_hal_tim.c ****       /* Configure the ETR Clock source */
3987:Drivers/STM32F4xx_HAL_Driver/Src/stm32f4xx_hal_tim.c ****       TIM_ETR_SetConfig(htim->Instance, 
3988:Drivers/STM32F4xx_HAL_Driver/Src/stm32f4xx_hal_tim.c ****                         sClockSourceConfig->ClockPrescaler, 
3989:Drivers/STM32F4xx_HAL_Driver/Src/stm32f4xx_hal_tim.c ****                         sClockSourceConfig->ClockPolarity, 
3990:Drivers/STM32F4xx_HAL_Driver/Src/stm32f4xx_hal_tim.c ****                         sClockSourceConfig->ClockFilter);
3991:Drivers/STM32F4xx_HAL_Driver/Src/stm32f4xx_hal_tim.c ****       /* Get the TIMx SMCR register value */
3992:Drivers/STM32F4xx_HAL_Driver/Src/stm32f4xx_hal_tim.c ****       tmpsmcr = htim->Instance->SMCR;
3993:Drivers/STM32F4xx_HAL_Driver/Src/stm32f4xx_hal_tim.c ****       /* Reset the SMS and TS Bits */
3994:Drivers/STM32F4xx_HAL_Driver/Src/stm32f4xx_hal_tim.c ****       tmpsmcr &= ~(TIM_SMCR_SMS | TIM_SMCR_TS);
3995:Drivers/STM32F4xx_HAL_Driver/Src/stm32f4xx_hal_tim.c ****       /* Select the External clock mode1 and the ETRF trigger */
3996:Drivers/STM32F4xx_HAL_Driver/Src/stm32f4xx_hal_tim.c ****       tmpsmcr |= (TIM_SLAVEMODE_EXTERNAL1 | TIM_CLOCKSOURCE_ETRMODE1);
3997:Drivers/STM32F4xx_HAL_Driver/Src/stm32f4xx_hal_tim.c ****       /* Write to TIMx SMCR */
3998:Drivers/STM32F4xx_HAL_Driver/Src/stm32f4xx_hal_tim.c ****       htim->Instance->SMCR = tmpsmcr;
3999:Drivers/STM32F4xx_HAL_Driver/Src/stm32f4xx_hal_tim.c ****     }
4000:Drivers/STM32F4xx_HAL_Driver/Src/stm32f4xx_hal_tim.c ****     break;
4001:Drivers/STM32F4xx_HAL_Driver/Src/stm32f4xx_hal_tim.c ****     
4002:Drivers/STM32F4xx_HAL_Driver/Src/stm32f4xx_hal_tim.c ****     case TIM_CLOCKSOURCE_ETRMODE2:
4003:Drivers/STM32F4xx_HAL_Driver/Src/stm32f4xx_hal_tim.c ****     {
4004:Drivers/STM32F4xx_HAL_Driver/Src/stm32f4xx_hal_tim.c ****       assert_param(IS_TIM_ETR_INSTANCE(htim->Instance));
4005:Drivers/STM32F4xx_HAL_Driver/Src/stm32f4xx_hal_tim.c **** 
4006:Drivers/STM32F4xx_HAL_Driver/Src/stm32f4xx_hal_tim.c ****       assert_param(IS_TIM_CLOCKPOLARITY(sClockSourceConfig->ClockPolarity));
4007:Drivers/STM32F4xx_HAL_Driver/Src/stm32f4xx_hal_tim.c ****       assert_param(IS_TIM_CLOCKPRESCALER(sClockSourceConfig->ClockPrescaler));
4008:Drivers/STM32F4xx_HAL_Driver/Src/stm32f4xx_hal_tim.c ****       assert_param(IS_TIM_CLOCKFILTER(sClockSourceConfig->ClockFilter));
4009:Drivers/STM32F4xx_HAL_Driver/Src/stm32f4xx_hal_tim.c **** 
4010:Drivers/STM32F4xx_HAL_Driver/Src/stm32f4xx_hal_tim.c ****       /* Configure the ETR Clock source */
4011:Drivers/STM32F4xx_HAL_Driver/Src/stm32f4xx_hal_tim.c ****       TIM_ETR_SetConfig(htim->Instance, 
4012:Drivers/STM32F4xx_HAL_Driver/Src/stm32f4xx_hal_tim.c ****                         sClockSourceConfig->ClockPrescaler, 
4013:Drivers/STM32F4xx_HAL_Driver/Src/stm32f4xx_hal_tim.c ****                         sClockSourceConfig->ClockPolarity,
4014:Drivers/STM32F4xx_HAL_Driver/Src/stm32f4xx_hal_tim.c ****                         sClockSourceConfig->ClockFilter);
4015:Drivers/STM32F4xx_HAL_Driver/Src/stm32f4xx_hal_tim.c ****       /* Enable the External clock mode2 */
4016:Drivers/STM32F4xx_HAL_Driver/Src/stm32f4xx_hal_tim.c ****       htim->Instance->SMCR |= TIM_SMCR_ECE;
4017:Drivers/STM32F4xx_HAL_Driver/Src/stm32f4xx_hal_tim.c ****     }
ARM GAS  /tmp/cc4tSQEQ.s 			page 221


4018:Drivers/STM32F4xx_HAL_Driver/Src/stm32f4xx_hal_tim.c ****     break;
4019:Drivers/STM32F4xx_HAL_Driver/Src/stm32f4xx_hal_tim.c ****     
4020:Drivers/STM32F4xx_HAL_Driver/Src/stm32f4xx_hal_tim.c ****     case TIM_CLOCKSOURCE_TI1:
4021:Drivers/STM32F4xx_HAL_Driver/Src/stm32f4xx_hal_tim.c ****     {
4022:Drivers/STM32F4xx_HAL_Driver/Src/stm32f4xx_hal_tim.c ****       assert_param(IS_TIM_CC1_INSTANCE(htim->Instance));
4023:Drivers/STM32F4xx_HAL_Driver/Src/stm32f4xx_hal_tim.c **** 
4024:Drivers/STM32F4xx_HAL_Driver/Src/stm32f4xx_hal_tim.c ****       /* Check TI1 input conditioning related parameters */
4025:Drivers/STM32F4xx_HAL_Driver/Src/stm32f4xx_hal_tim.c ****       assert_param(IS_TIM_CLOCKPOLARITY(sClockSourceConfig->ClockPolarity));
4026:Drivers/STM32F4xx_HAL_Driver/Src/stm32f4xx_hal_tim.c ****       assert_param(IS_TIM_CLOCKFILTER(sClockSourceConfig->ClockFilter));
4027:Drivers/STM32F4xx_HAL_Driver/Src/stm32f4xx_hal_tim.c **** 
4028:Drivers/STM32F4xx_HAL_Driver/Src/stm32f4xx_hal_tim.c ****       TIM_TI1_ConfigInputStage(htim->Instance, 
4029:Drivers/STM32F4xx_HAL_Driver/Src/stm32f4xx_hal_tim.c ****                         sClockSourceConfig->ClockPolarity, 
4030:Drivers/STM32F4xx_HAL_Driver/Src/stm32f4xx_hal_tim.c ****                         sClockSourceConfig->ClockFilter);
4031:Drivers/STM32F4xx_HAL_Driver/Src/stm32f4xx_hal_tim.c ****       TIM_ITRx_SetConfig(htim->Instance, TIM_CLOCKSOURCE_TI1);
4032:Drivers/STM32F4xx_HAL_Driver/Src/stm32f4xx_hal_tim.c ****     }
4033:Drivers/STM32F4xx_HAL_Driver/Src/stm32f4xx_hal_tim.c ****     break;
4034:Drivers/STM32F4xx_HAL_Driver/Src/stm32f4xx_hal_tim.c ****     case TIM_CLOCKSOURCE_TI2:
4035:Drivers/STM32F4xx_HAL_Driver/Src/stm32f4xx_hal_tim.c ****     {
4036:Drivers/STM32F4xx_HAL_Driver/Src/stm32f4xx_hal_tim.c ****       assert_param(IS_TIM_CC2_INSTANCE(htim->Instance));
4037:Drivers/STM32F4xx_HAL_Driver/Src/stm32f4xx_hal_tim.c **** 
4038:Drivers/STM32F4xx_HAL_Driver/Src/stm32f4xx_hal_tim.c ****       /* Check TI1 input conditioning related parameters */
4039:Drivers/STM32F4xx_HAL_Driver/Src/stm32f4xx_hal_tim.c ****       assert_param(IS_TIM_CLOCKPOLARITY(sClockSourceConfig->ClockPolarity));
4040:Drivers/STM32F4xx_HAL_Driver/Src/stm32f4xx_hal_tim.c ****       assert_param(IS_TIM_CLOCKFILTER(sClockSourceConfig->ClockFilter));
4041:Drivers/STM32F4xx_HAL_Driver/Src/stm32f4xx_hal_tim.c **** 
4042:Drivers/STM32F4xx_HAL_Driver/Src/stm32f4xx_hal_tim.c ****       TIM_TI2_ConfigInputStage(htim->Instance, 
4043:Drivers/STM32F4xx_HAL_Driver/Src/stm32f4xx_hal_tim.c ****                         sClockSourceConfig->ClockPolarity, 
4044:Drivers/STM32F4xx_HAL_Driver/Src/stm32f4xx_hal_tim.c ****                         sClockSourceConfig->ClockFilter);
4045:Drivers/STM32F4xx_HAL_Driver/Src/stm32f4xx_hal_tim.c ****       TIM_ITRx_SetConfig(htim->Instance, TIM_CLOCKSOURCE_TI2);
4046:Drivers/STM32F4xx_HAL_Driver/Src/stm32f4xx_hal_tim.c ****     }
4047:Drivers/STM32F4xx_HAL_Driver/Src/stm32f4xx_hal_tim.c ****     break;
4048:Drivers/STM32F4xx_HAL_Driver/Src/stm32f4xx_hal_tim.c ****     case TIM_CLOCKSOURCE_TI1ED:
4049:Drivers/STM32F4xx_HAL_Driver/Src/stm32f4xx_hal_tim.c ****     {
4050:Drivers/STM32F4xx_HAL_Driver/Src/stm32f4xx_hal_tim.c ****       assert_param(IS_TIM_CC1_INSTANCE(htim->Instance));
4051:Drivers/STM32F4xx_HAL_Driver/Src/stm32f4xx_hal_tim.c **** 
4052:Drivers/STM32F4xx_HAL_Driver/Src/stm32f4xx_hal_tim.c ****       /* Check TI1 input conditioning related parameters */
4053:Drivers/STM32F4xx_HAL_Driver/Src/stm32f4xx_hal_tim.c ****       assert_param(IS_TIM_CLOCKPOLARITY(sClockSourceConfig->ClockPolarity));
4054:Drivers/STM32F4xx_HAL_Driver/Src/stm32f4xx_hal_tim.c ****       assert_param(IS_TIM_CLOCKFILTER(sClockSourceConfig->ClockFilter));
4055:Drivers/STM32F4xx_HAL_Driver/Src/stm32f4xx_hal_tim.c **** 
4056:Drivers/STM32F4xx_HAL_Driver/Src/stm32f4xx_hal_tim.c ****       TIM_TI1_ConfigInputStage(htim->Instance, 
4057:Drivers/STM32F4xx_HAL_Driver/Src/stm32f4xx_hal_tim.c ****                         sClockSourceConfig->ClockPolarity,
4058:Drivers/STM32F4xx_HAL_Driver/Src/stm32f4xx_hal_tim.c ****                         sClockSourceConfig->ClockFilter);
4059:Drivers/STM32F4xx_HAL_Driver/Src/stm32f4xx_hal_tim.c ****       TIM_ITRx_SetConfig(htim->Instance, TIM_CLOCKSOURCE_TI1ED);
4060:Drivers/STM32F4xx_HAL_Driver/Src/stm32f4xx_hal_tim.c ****     }
4061:Drivers/STM32F4xx_HAL_Driver/Src/stm32f4xx_hal_tim.c ****     break;
4062:Drivers/STM32F4xx_HAL_Driver/Src/stm32f4xx_hal_tim.c ****     case TIM_CLOCKSOURCE_ITR0:
4063:Drivers/STM32F4xx_HAL_Driver/Src/stm32f4xx_hal_tim.c ****     {
4064:Drivers/STM32F4xx_HAL_Driver/Src/stm32f4xx_hal_tim.c ****       assert_param(IS_TIM_CC2_INSTANCE(htim->Instance));
4065:Drivers/STM32F4xx_HAL_Driver/Src/stm32f4xx_hal_tim.c ****       TIM_ITRx_SetConfig(htim->Instance, TIM_CLOCKSOURCE_ITR0);
4066:Drivers/STM32F4xx_HAL_Driver/Src/stm32f4xx_hal_tim.c ****     }
4067:Drivers/STM32F4xx_HAL_Driver/Src/stm32f4xx_hal_tim.c ****     break;
4068:Drivers/STM32F4xx_HAL_Driver/Src/stm32f4xx_hal_tim.c ****     case TIM_CLOCKSOURCE_ITR1:
4069:Drivers/STM32F4xx_HAL_Driver/Src/stm32f4xx_hal_tim.c ****     {
4070:Drivers/STM32F4xx_HAL_Driver/Src/stm32f4xx_hal_tim.c ****       assert_param(IS_TIM_CC2_INSTANCE(htim->Instance));
4071:Drivers/STM32F4xx_HAL_Driver/Src/stm32f4xx_hal_tim.c ****       TIM_ITRx_SetConfig(htim->Instance, TIM_CLOCKSOURCE_ITR1);
4072:Drivers/STM32F4xx_HAL_Driver/Src/stm32f4xx_hal_tim.c ****     }
4073:Drivers/STM32F4xx_HAL_Driver/Src/stm32f4xx_hal_tim.c ****     break;
4074:Drivers/STM32F4xx_HAL_Driver/Src/stm32f4xx_hal_tim.c ****     case TIM_CLOCKSOURCE_ITR2:
ARM GAS  /tmp/cc4tSQEQ.s 			page 222


4075:Drivers/STM32F4xx_HAL_Driver/Src/stm32f4xx_hal_tim.c ****     {
4076:Drivers/STM32F4xx_HAL_Driver/Src/stm32f4xx_hal_tim.c ****       assert_param(IS_TIM_CC2_INSTANCE(htim->Instance));
4077:Drivers/STM32F4xx_HAL_Driver/Src/stm32f4xx_hal_tim.c ****       TIM_ITRx_SetConfig(htim->Instance, TIM_CLOCKSOURCE_ITR2);
4078:Drivers/STM32F4xx_HAL_Driver/Src/stm32f4xx_hal_tim.c ****     }
4079:Drivers/STM32F4xx_HAL_Driver/Src/stm32f4xx_hal_tim.c ****     break;
4080:Drivers/STM32F4xx_HAL_Driver/Src/stm32f4xx_hal_tim.c ****     case TIM_CLOCKSOURCE_ITR3:
4081:Drivers/STM32F4xx_HAL_Driver/Src/stm32f4xx_hal_tim.c ****     {
4082:Drivers/STM32F4xx_HAL_Driver/Src/stm32f4xx_hal_tim.c ****       assert_param(IS_TIM_CC2_INSTANCE(htim->Instance));
4083:Drivers/STM32F4xx_HAL_Driver/Src/stm32f4xx_hal_tim.c ****       TIM_ITRx_SetConfig(htim->Instance, TIM_CLOCKSOURCE_ITR3);
4084:Drivers/STM32F4xx_HAL_Driver/Src/stm32f4xx_hal_tim.c ****     }
4085:Drivers/STM32F4xx_HAL_Driver/Src/stm32f4xx_hal_tim.c ****     break;
4086:Drivers/STM32F4xx_HAL_Driver/Src/stm32f4xx_hal_tim.c ****     
4087:Drivers/STM32F4xx_HAL_Driver/Src/stm32f4xx_hal_tim.c ****     default:
4088:Drivers/STM32F4xx_HAL_Driver/Src/stm32f4xx_hal_tim.c ****     break;    
 8527              		.loc 1 4088 0 discriminator 2
 8528 0066 99E0     		b	.L490
 8529              	.L480:
3967:Drivers/STM32F4xx_HAL_Driver/Src/stm32f4xx_hal_tim.c ****   {
 8530              		.loc 1 3967 0 discriminator 2
 8531 0068 202B     		cmp	r3, #32
 8532 006a 00F08980 		beq	.L482
 8533 006e 302B     		cmp	r3, #48
 8534 0070 00F08D80 		beq	.L483
 8535              		.loc 1 4088 0 discriminator 2
 8536 0074 92E0     		b	.L490
 8537              	.L478:
3967:Drivers/STM32F4xx_HAL_Driver/Src/stm32f4xx_hal_tim.c ****   {
 8538              		.loc 1 3967 0 discriminator 2
 8539 0076 702B     		cmp	r3, #112
 8540 0078 16D0     		beq	.L484
 8541 007a 702B     		cmp	r3, #112
 8542 007c 04D8     		bhi	.L485
 8543 007e 502B     		cmp	r3, #80
 8544 0080 40D0     		beq	.L486
 8545 0082 602B     		cmp	r3, #96
 8546 0084 4ED0     		beq	.L487
 8547              		.loc 1 4088 0 discriminator 2
 8548 0086 89E0     		b	.L490
 8549              	.L485:
3967:Drivers/STM32F4xx_HAL_Driver/Src/stm32f4xx_hal_tim.c ****   {
 8550              		.loc 1 3967 0 discriminator 2
 8551 0088 B3F5805F 		cmp	r3, #4096
 8552 008c 03D0     		beq	.L488
 8553 008e B3F5005F 		cmp	r3, #8192
 8554 0092 24D0     		beq	.L489
 8555              		.loc 1 4088 0 discriminator 2
 8556 0094 82E0     		b	.L490
 8557              	.L488:
3974:Drivers/STM32F4xx_HAL_Driver/Src/stm32f4xx_hal_tim.c ****     }
 8558              		.loc 1 3974 0
 8559 0096 7B68     		ldr	r3, [r7, #4]
 8560 0098 1B68     		ldr	r3, [r3]
 8561 009a 7A68     		ldr	r2, [r7, #4]
 8562 009c 1268     		ldr	r2, [r2]
 8563 009e 9268     		ldr	r2, [r2, #8]
 8564 00a0 22F00702 		bic	r2, r2, #7
 8565 00a4 9A60     		str	r2, [r3, #8]
ARM GAS  /tmp/cc4tSQEQ.s 			page 223


3976:Drivers/STM32F4xx_HAL_Driver/Src/stm32f4xx_hal_tim.c ****     
 8566              		.loc 1 3976 0
 8567 00a6 79E0     		b	.L490
 8568              	.L484:
3987:Drivers/STM32F4xx_HAL_Driver/Src/stm32f4xx_hal_tim.c ****                         sClockSourceConfig->ClockPrescaler, 
 8569              		.loc 1 3987 0
 8570 00a8 7B68     		ldr	r3, [r7, #4]
 8571 00aa 1868     		ldr	r0, [r3]
 8572 00ac 3B68     		ldr	r3, [r7]
 8573 00ae 9968     		ldr	r1, [r3, #8]
 8574 00b0 3B68     		ldr	r3, [r7]
 8575 00b2 5A68     		ldr	r2, [r3, #4]
 8576 00b4 3B68     		ldr	r3, [r7]
 8577 00b6 DB68     		ldr	r3, [r3, #12]
 8578 00b8 FFF7FEFF 		bl	TIM_ETR_SetConfig
3992:Drivers/STM32F4xx_HAL_Driver/Src/stm32f4xx_hal_tim.c ****       /* Reset the SMS and TS Bits */
 8579              		.loc 1 3992 0
 8580 00bc 7B68     		ldr	r3, [r7, #4]
 8581 00be 1B68     		ldr	r3, [r3]
 8582 00c0 9B68     		ldr	r3, [r3, #8]
 8583 00c2 FB60     		str	r3, [r7, #12]
3994:Drivers/STM32F4xx_HAL_Driver/Src/stm32f4xx_hal_tim.c ****       /* Select the External clock mode1 and the ETRF trigger */
 8584              		.loc 1 3994 0
 8585 00c4 FB68     		ldr	r3, [r7, #12]
 8586 00c6 23F07703 		bic	r3, r3, #119
 8587 00ca FB60     		str	r3, [r7, #12]
3996:Drivers/STM32F4xx_HAL_Driver/Src/stm32f4xx_hal_tim.c ****       /* Write to TIMx SMCR */
 8588              		.loc 1 3996 0
 8589 00cc FB68     		ldr	r3, [r7, #12]
 8590 00ce 43F07703 		orr	r3, r3, #119
 8591 00d2 FB60     		str	r3, [r7, #12]
3998:Drivers/STM32F4xx_HAL_Driver/Src/stm32f4xx_hal_tim.c ****     }
 8592              		.loc 1 3998 0
 8593 00d4 7B68     		ldr	r3, [r7, #4]
 8594 00d6 1B68     		ldr	r3, [r3]
 8595 00d8 FA68     		ldr	r2, [r7, #12]
 8596 00da 9A60     		str	r2, [r3, #8]
4000:Drivers/STM32F4xx_HAL_Driver/Src/stm32f4xx_hal_tim.c ****     
 8597              		.loc 1 4000 0
 8598 00dc 5EE0     		b	.L490
 8599              	.L489:
4011:Drivers/STM32F4xx_HAL_Driver/Src/stm32f4xx_hal_tim.c ****                         sClockSourceConfig->ClockPrescaler, 
 8600              		.loc 1 4011 0
 8601 00de 7B68     		ldr	r3, [r7, #4]
 8602 00e0 1868     		ldr	r0, [r3]
 8603 00e2 3B68     		ldr	r3, [r7]
 8604 00e4 9968     		ldr	r1, [r3, #8]
 8605 00e6 3B68     		ldr	r3, [r7]
 8606 00e8 5A68     		ldr	r2, [r3, #4]
 8607 00ea 3B68     		ldr	r3, [r7]
 8608 00ec DB68     		ldr	r3, [r3, #12]
 8609 00ee FFF7FEFF 		bl	TIM_ETR_SetConfig
4016:Drivers/STM32F4xx_HAL_Driver/Src/stm32f4xx_hal_tim.c ****     }
 8610              		.loc 1 4016 0
 8611 00f2 7B68     		ldr	r3, [r7, #4]
 8612 00f4 1B68     		ldr	r3, [r3]
 8613 00f6 7A68     		ldr	r2, [r7, #4]
ARM GAS  /tmp/cc4tSQEQ.s 			page 224


 8614 00f8 1268     		ldr	r2, [r2]
 8615 00fa 9268     		ldr	r2, [r2, #8]
 8616 00fc 42F48042 		orr	r2, r2, #16384
 8617 0100 9A60     		str	r2, [r3, #8]
4018:Drivers/STM32F4xx_HAL_Driver/Src/stm32f4xx_hal_tim.c ****     
 8618              		.loc 1 4018 0
 8619 0102 4BE0     		b	.L490
 8620              	.L486:
4028:Drivers/STM32F4xx_HAL_Driver/Src/stm32f4xx_hal_tim.c ****                         sClockSourceConfig->ClockPolarity, 
 8621              		.loc 1 4028 0
 8622 0104 7B68     		ldr	r3, [r7, #4]
 8623 0106 1868     		ldr	r0, [r3]
 8624 0108 3B68     		ldr	r3, [r7]
 8625 010a 5968     		ldr	r1, [r3, #4]
 8626 010c 3B68     		ldr	r3, [r7]
 8627 010e DB68     		ldr	r3, [r3, #12]
 8628 0110 1A46     		mov	r2, r3
 8629 0112 FFF7FEFF 		bl	TIM_TI1_ConfigInputStage
4031:Drivers/STM32F4xx_HAL_Driver/Src/stm32f4xx_hal_tim.c ****     }
 8630              		.loc 1 4031 0
 8631 0116 7B68     		ldr	r3, [r7, #4]
 8632 0118 1B68     		ldr	r3, [r3]
 8633 011a 5021     		movs	r1, #80
 8634 011c 1846     		mov	r0, r3
 8635 011e FFF7FEFF 		bl	TIM_ITRx_SetConfig
4033:Drivers/STM32F4xx_HAL_Driver/Src/stm32f4xx_hal_tim.c ****     case TIM_CLOCKSOURCE_TI2:
 8636              		.loc 1 4033 0
 8637 0122 3BE0     		b	.L490
 8638              	.L487:
4042:Drivers/STM32F4xx_HAL_Driver/Src/stm32f4xx_hal_tim.c ****                         sClockSourceConfig->ClockPolarity, 
 8639              		.loc 1 4042 0
 8640 0124 7B68     		ldr	r3, [r7, #4]
 8641 0126 1868     		ldr	r0, [r3]
 8642 0128 3B68     		ldr	r3, [r7]
 8643 012a 5968     		ldr	r1, [r3, #4]
 8644 012c 3B68     		ldr	r3, [r7]
 8645 012e DB68     		ldr	r3, [r3, #12]
 8646 0130 1A46     		mov	r2, r3
 8647 0132 FFF7FEFF 		bl	TIM_TI2_ConfigInputStage
4045:Drivers/STM32F4xx_HAL_Driver/Src/stm32f4xx_hal_tim.c ****     }
 8648              		.loc 1 4045 0
 8649 0136 7B68     		ldr	r3, [r7, #4]
 8650 0138 1B68     		ldr	r3, [r3]
 8651 013a 6021     		movs	r1, #96
 8652 013c 1846     		mov	r0, r3
 8653 013e FFF7FEFF 		bl	TIM_ITRx_SetConfig
4047:Drivers/STM32F4xx_HAL_Driver/Src/stm32f4xx_hal_tim.c ****     case TIM_CLOCKSOURCE_TI1ED:
 8654              		.loc 1 4047 0
 8655 0142 2BE0     		b	.L490
 8656              	.L477:
4056:Drivers/STM32F4xx_HAL_Driver/Src/stm32f4xx_hal_tim.c ****                         sClockSourceConfig->ClockPolarity,
 8657              		.loc 1 4056 0
 8658 0144 7B68     		ldr	r3, [r7, #4]
 8659 0146 1868     		ldr	r0, [r3]
 8660 0148 3B68     		ldr	r3, [r7]
 8661 014a 5968     		ldr	r1, [r3, #4]
 8662 014c 3B68     		ldr	r3, [r7]
ARM GAS  /tmp/cc4tSQEQ.s 			page 225


 8663 014e DB68     		ldr	r3, [r3, #12]
 8664 0150 1A46     		mov	r2, r3
 8665 0152 FFF7FEFF 		bl	TIM_TI1_ConfigInputStage
4059:Drivers/STM32F4xx_HAL_Driver/Src/stm32f4xx_hal_tim.c ****     }
 8666              		.loc 1 4059 0
 8667 0156 7B68     		ldr	r3, [r7, #4]
 8668 0158 1B68     		ldr	r3, [r3]
 8669 015a 4021     		movs	r1, #64
 8670 015c 1846     		mov	r0, r3
 8671 015e FFF7FEFF 		bl	TIM_ITRx_SetConfig
4061:Drivers/STM32F4xx_HAL_Driver/Src/stm32f4xx_hal_tim.c ****     case TIM_CLOCKSOURCE_ITR0:
 8672              		.loc 1 4061 0
 8673 0162 1BE0     		b	.L490
 8674              	.L481:
4065:Drivers/STM32F4xx_HAL_Driver/Src/stm32f4xx_hal_tim.c ****     }
 8675              		.loc 1 4065 0
 8676 0164 7B68     		ldr	r3, [r7, #4]
 8677 0166 1B68     		ldr	r3, [r3]
 8678 0168 0021     		movs	r1, #0
 8679 016a 1846     		mov	r0, r3
 8680 016c FFF7FEFF 		bl	TIM_ITRx_SetConfig
4067:Drivers/STM32F4xx_HAL_Driver/Src/stm32f4xx_hal_tim.c ****     case TIM_CLOCKSOURCE_ITR1:
 8681              		.loc 1 4067 0
 8682 0170 14E0     		b	.L490
 8683              	.L479:
4071:Drivers/STM32F4xx_HAL_Driver/Src/stm32f4xx_hal_tim.c ****     }
 8684              		.loc 1 4071 0
 8685 0172 7B68     		ldr	r3, [r7, #4]
 8686 0174 1B68     		ldr	r3, [r3]
 8687 0176 1021     		movs	r1, #16
 8688 0178 1846     		mov	r0, r3
 8689 017a FFF7FEFF 		bl	TIM_ITRx_SetConfig
4073:Drivers/STM32F4xx_HAL_Driver/Src/stm32f4xx_hal_tim.c ****     case TIM_CLOCKSOURCE_ITR2:
 8690              		.loc 1 4073 0
 8691 017e 0DE0     		b	.L490
 8692              	.L482:
4077:Drivers/STM32F4xx_HAL_Driver/Src/stm32f4xx_hal_tim.c ****     }
 8693              		.loc 1 4077 0
 8694 0180 7B68     		ldr	r3, [r7, #4]
 8695 0182 1B68     		ldr	r3, [r3]
 8696 0184 2021     		movs	r1, #32
 8697 0186 1846     		mov	r0, r3
 8698 0188 FFF7FEFF 		bl	TIM_ITRx_SetConfig
4079:Drivers/STM32F4xx_HAL_Driver/Src/stm32f4xx_hal_tim.c ****     case TIM_CLOCKSOURCE_ITR3:
 8699              		.loc 1 4079 0
 8700 018c 06E0     		b	.L490
 8701              	.L483:
4083:Drivers/STM32F4xx_HAL_Driver/Src/stm32f4xx_hal_tim.c ****     }
 8702              		.loc 1 4083 0
 8703 018e 7B68     		ldr	r3, [r7, #4]
 8704 0190 1B68     		ldr	r3, [r3]
 8705 0192 3021     		movs	r1, #48
 8706 0194 1846     		mov	r0, r3
 8707 0196 FFF7FEFF 		bl	TIM_ITRx_SetConfig
4085:Drivers/STM32F4xx_HAL_Driver/Src/stm32f4xx_hal_tim.c ****     
 8708              		.loc 1 4085 0
 8709 019a 00BF     		nop
ARM GAS  /tmp/cc4tSQEQ.s 			page 226


 8710              	.L490:
4089:Drivers/STM32F4xx_HAL_Driver/Src/stm32f4xx_hal_tim.c ****   }
4090:Drivers/STM32F4xx_HAL_Driver/Src/stm32f4xx_hal_tim.c ****   htim->State = HAL_TIM_STATE_READY;
 8711              		.loc 1 4090 0
 8712 019c 7B68     		ldr	r3, [r7, #4]
 8713 019e 0122     		movs	r2, #1
 8714 01a0 83F83920 		strb	r2, [r3, #57]
4091:Drivers/STM32F4xx_HAL_Driver/Src/stm32f4xx_hal_tim.c ****   
4092:Drivers/STM32F4xx_HAL_Driver/Src/stm32f4xx_hal_tim.c ****   __HAL_UNLOCK(htim);
 8715              		.loc 1 4092 0
 8716 01a4 7B68     		ldr	r3, [r7, #4]
 8717 01a6 0022     		movs	r2, #0
 8718 01a8 83F83820 		strb	r2, [r3, #56]
4093:Drivers/STM32F4xx_HAL_Driver/Src/stm32f4xx_hal_tim.c ****   
4094:Drivers/STM32F4xx_HAL_Driver/Src/stm32f4xx_hal_tim.c ****   return HAL_OK;
 8719              		.loc 1 4094 0
 8720 01ac 0023     		movs	r3, #0
 8721              	.L475:
4095:Drivers/STM32F4xx_HAL_Driver/Src/stm32f4xx_hal_tim.c **** }
 8722              		.loc 1 4095 0
 8723 01ae 1846     		mov	r0, r3
 8724 01b0 1037     		adds	r7, r7, #16
 8725              	.LCFI366:
 8726              		.cfi_def_cfa_offset 8
 8727 01b2 BD46     		mov	sp, r7
 8728              	.LCFI367:
 8729              		.cfi_def_cfa_register 13
 8730              		@ sp needed
 8731 01b4 80BD     		pop	{r7, pc}
 8732              		.cfi_endproc
 8733              	.LFE193:
 8735              		.section	.text.HAL_TIM_ConfigTI1Input,"ax",%progbits
 8736              		.align	1
 8737              		.global	HAL_TIM_ConfigTI1Input
 8738              		.syntax unified
 8739              		.thumb
 8740              		.thumb_func
 8741              		.fpu fpv4-sp-d16
 8743              	HAL_TIM_ConfigTI1Input:
 8744              	.LFB194:
4096:Drivers/STM32F4xx_HAL_Driver/Src/stm32f4xx_hal_tim.c **** 
4097:Drivers/STM32F4xx_HAL_Driver/Src/stm32f4xx_hal_tim.c **** /**
4098:Drivers/STM32F4xx_HAL_Driver/Src/stm32f4xx_hal_tim.c ****   * @brief  Selects the signal connected to the TI1 input: direct from CH1_input
4099:Drivers/STM32F4xx_HAL_Driver/Src/stm32f4xx_hal_tim.c ****   *         or a XOR combination between CH1_input, CH2_input & CH3_input
4100:Drivers/STM32F4xx_HAL_Driver/Src/stm32f4xx_hal_tim.c ****   * @param  htim pointer to a TIM_HandleTypeDef structure that contains
4101:Drivers/STM32F4xx_HAL_Driver/Src/stm32f4xx_hal_tim.c ****   *                the configuration information for TIM module.
4102:Drivers/STM32F4xx_HAL_Driver/Src/stm32f4xx_hal_tim.c ****   * @param  TI1_Selection Indicate whether or not channel 1 is connected to the
4103:Drivers/STM32F4xx_HAL_Driver/Src/stm32f4xx_hal_tim.c ****   *         output of a XOR gate.
4104:Drivers/STM32F4xx_HAL_Driver/Src/stm32f4xx_hal_tim.c ****   *         This parameter can be one of the following values:
4105:Drivers/STM32F4xx_HAL_Driver/Src/stm32f4xx_hal_tim.c ****   *            @arg TIM_TI1SELECTION_CH1: The TIMx_CH1 pin is connected to TI1 input
4106:Drivers/STM32F4xx_HAL_Driver/Src/stm32f4xx_hal_tim.c ****   *            @arg TIM_TI1SELECTION_XORCOMBINATION: The TIMx_CH1, CH2 and CH3
4107:Drivers/STM32F4xx_HAL_Driver/Src/stm32f4xx_hal_tim.c ****   *            pins are connected to the TI1 input (XOR combination)
4108:Drivers/STM32F4xx_HAL_Driver/Src/stm32f4xx_hal_tim.c ****   * @retval HAL status
4109:Drivers/STM32F4xx_HAL_Driver/Src/stm32f4xx_hal_tim.c ****   */
4110:Drivers/STM32F4xx_HAL_Driver/Src/stm32f4xx_hal_tim.c **** HAL_StatusTypeDef HAL_TIM_ConfigTI1Input(TIM_HandleTypeDef *htim, uint32_t TI1_Selection)
4111:Drivers/STM32F4xx_HAL_Driver/Src/stm32f4xx_hal_tim.c **** {
 8745              		.loc 1 4111 0
ARM GAS  /tmp/cc4tSQEQ.s 			page 227


 8746              		.cfi_startproc
 8747              		@ args = 0, pretend = 0, frame = 16
 8748              		@ frame_needed = 1, uses_anonymous_args = 0
 8749              		@ link register save eliminated.
 8750 0000 80B4     		push	{r7}
 8751              	.LCFI368:
 8752              		.cfi_def_cfa_offset 4
 8753              		.cfi_offset 7, -4
 8754 0002 85B0     		sub	sp, sp, #20
 8755              	.LCFI369:
 8756              		.cfi_def_cfa_offset 24
 8757 0004 00AF     		add	r7, sp, #0
 8758              	.LCFI370:
 8759              		.cfi_def_cfa_register 7
 8760 0006 7860     		str	r0, [r7, #4]
 8761 0008 3960     		str	r1, [r7]
4112:Drivers/STM32F4xx_HAL_Driver/Src/stm32f4xx_hal_tim.c ****   uint32_t tmpcr2 = 0U;
 8762              		.loc 1 4112 0
 8763 000a 0023     		movs	r3, #0
 8764 000c FB60     		str	r3, [r7, #12]
4113:Drivers/STM32F4xx_HAL_Driver/Src/stm32f4xx_hal_tim.c ****   
4114:Drivers/STM32F4xx_HAL_Driver/Src/stm32f4xx_hal_tim.c ****   /* Check the parameters */
4115:Drivers/STM32F4xx_HAL_Driver/Src/stm32f4xx_hal_tim.c ****   assert_param(IS_TIM_XOR_INSTANCE(htim->Instance)); 
4116:Drivers/STM32F4xx_HAL_Driver/Src/stm32f4xx_hal_tim.c ****   assert_param(IS_TIM_TI1SELECTION(TI1_Selection));
4117:Drivers/STM32F4xx_HAL_Driver/Src/stm32f4xx_hal_tim.c **** 
4118:Drivers/STM32F4xx_HAL_Driver/Src/stm32f4xx_hal_tim.c ****   /* Get the TIMx CR2 register value */
4119:Drivers/STM32F4xx_HAL_Driver/Src/stm32f4xx_hal_tim.c ****   tmpcr2 = htim->Instance->CR2;
 8765              		.loc 1 4119 0
 8766 000e 7B68     		ldr	r3, [r7, #4]
 8767 0010 1B68     		ldr	r3, [r3]
 8768 0012 5B68     		ldr	r3, [r3, #4]
 8769 0014 FB60     		str	r3, [r7, #12]
4120:Drivers/STM32F4xx_HAL_Driver/Src/stm32f4xx_hal_tim.c **** 
4121:Drivers/STM32F4xx_HAL_Driver/Src/stm32f4xx_hal_tim.c ****   /* Reset the TI1 selection */
4122:Drivers/STM32F4xx_HAL_Driver/Src/stm32f4xx_hal_tim.c ****   tmpcr2 &= ~TIM_CR2_TI1S;
 8770              		.loc 1 4122 0
 8771 0016 FB68     		ldr	r3, [r7, #12]
 8772 0018 23F08003 		bic	r3, r3, #128
 8773 001c FB60     		str	r3, [r7, #12]
4123:Drivers/STM32F4xx_HAL_Driver/Src/stm32f4xx_hal_tim.c **** 
4124:Drivers/STM32F4xx_HAL_Driver/Src/stm32f4xx_hal_tim.c ****   /* Set the TI1 selection */
4125:Drivers/STM32F4xx_HAL_Driver/Src/stm32f4xx_hal_tim.c ****   tmpcr2 |= TI1_Selection;
 8774              		.loc 1 4125 0
 8775 001e FA68     		ldr	r2, [r7, #12]
 8776 0020 3B68     		ldr	r3, [r7]
 8777 0022 1343     		orrs	r3, r3, r2
 8778 0024 FB60     		str	r3, [r7, #12]
4126:Drivers/STM32F4xx_HAL_Driver/Src/stm32f4xx_hal_tim.c ****   
4127:Drivers/STM32F4xx_HAL_Driver/Src/stm32f4xx_hal_tim.c ****   /* Write to TIMxCR2 */
4128:Drivers/STM32F4xx_HAL_Driver/Src/stm32f4xx_hal_tim.c ****   htim->Instance->CR2 = tmpcr2;
 8779              		.loc 1 4128 0
 8780 0026 7B68     		ldr	r3, [r7, #4]
 8781 0028 1B68     		ldr	r3, [r3]
 8782 002a FA68     		ldr	r2, [r7, #12]
 8783 002c 5A60     		str	r2, [r3, #4]
4129:Drivers/STM32F4xx_HAL_Driver/Src/stm32f4xx_hal_tim.c **** 
4130:Drivers/STM32F4xx_HAL_Driver/Src/stm32f4xx_hal_tim.c ****   return HAL_OK;
ARM GAS  /tmp/cc4tSQEQ.s 			page 228


 8784              		.loc 1 4130 0
 8785 002e 0023     		movs	r3, #0
4131:Drivers/STM32F4xx_HAL_Driver/Src/stm32f4xx_hal_tim.c **** }
 8786              		.loc 1 4131 0
 8787 0030 1846     		mov	r0, r3
 8788 0032 1437     		adds	r7, r7, #20
 8789              	.LCFI371:
 8790              		.cfi_def_cfa_offset 4
 8791 0034 BD46     		mov	sp, r7
 8792              	.LCFI372:
 8793              		.cfi_def_cfa_register 13
 8794              		@ sp needed
 8795 0036 5DF8047B 		ldr	r7, [sp], #4
 8796              	.LCFI373:
 8797              		.cfi_restore 7
 8798              		.cfi_def_cfa_offset 0
 8799 003a 7047     		bx	lr
 8800              		.cfi_endproc
 8801              	.LFE194:
 8803              		.section	.text.HAL_TIM_SlaveConfigSynchronization,"ax",%progbits
 8804              		.align	1
 8805              		.global	HAL_TIM_SlaveConfigSynchronization
 8806              		.syntax unified
 8807              		.thumb
 8808              		.thumb_func
 8809              		.fpu fpv4-sp-d16
 8811              	HAL_TIM_SlaveConfigSynchronization:
 8812              	.LFB195:
4132:Drivers/STM32F4xx_HAL_Driver/Src/stm32f4xx_hal_tim.c **** 
4133:Drivers/STM32F4xx_HAL_Driver/Src/stm32f4xx_hal_tim.c **** /**
4134:Drivers/STM32F4xx_HAL_Driver/Src/stm32f4xx_hal_tim.c ****   * @brief  Configures the TIM in Slave mode
4135:Drivers/STM32F4xx_HAL_Driver/Src/stm32f4xx_hal_tim.c ****   * @param  htim pointer to a TIM_HandleTypeDef structure that contains
4136:Drivers/STM32F4xx_HAL_Driver/Src/stm32f4xx_hal_tim.c ****   *                the configuration information for TIM module.
4137:Drivers/STM32F4xx_HAL_Driver/Src/stm32f4xx_hal_tim.c ****   * @param  sSlaveConfig pointer to a TIM_SlaveConfigTypeDef structure that
4138:Drivers/STM32F4xx_HAL_Driver/Src/stm32f4xx_hal_tim.c ****   *         contains the selected trigger (internal trigger input, filtered
4139:Drivers/STM32F4xx_HAL_Driver/Src/stm32f4xx_hal_tim.c ****   *         timer input or external trigger input) and the ) and the Slave 
4140:Drivers/STM32F4xx_HAL_Driver/Src/stm32f4xx_hal_tim.c ****   *         mode (Disable, Reset, Gated, Trigger, External clock mode 1). 
4141:Drivers/STM32F4xx_HAL_Driver/Src/stm32f4xx_hal_tim.c ****   * @retval HAL status
4142:Drivers/STM32F4xx_HAL_Driver/Src/stm32f4xx_hal_tim.c ****   */
4143:Drivers/STM32F4xx_HAL_Driver/Src/stm32f4xx_hal_tim.c **** HAL_StatusTypeDef HAL_TIM_SlaveConfigSynchronization(TIM_HandleTypeDef *htim, TIM_SlaveConfigTypeDe
4144:Drivers/STM32F4xx_HAL_Driver/Src/stm32f4xx_hal_tim.c **** {
 8813              		.loc 1 4144 0
 8814              		.cfi_startproc
 8815              		@ args = 0, pretend = 0, frame = 8
 8816              		@ frame_needed = 1, uses_anonymous_args = 0
 8817 0000 80B5     		push	{r7, lr}
 8818              	.LCFI374:
 8819              		.cfi_def_cfa_offset 8
 8820              		.cfi_offset 7, -8
 8821              		.cfi_offset 14, -4
 8822 0002 82B0     		sub	sp, sp, #8
 8823              	.LCFI375:
 8824              		.cfi_def_cfa_offset 16
 8825 0004 00AF     		add	r7, sp, #0
 8826              	.LCFI376:
 8827              		.cfi_def_cfa_register 7
 8828 0006 7860     		str	r0, [r7, #4]
ARM GAS  /tmp/cc4tSQEQ.s 			page 229


 8829 0008 3960     		str	r1, [r7]
4145:Drivers/STM32F4xx_HAL_Driver/Src/stm32f4xx_hal_tim.c ****   /* Check the parameters */
4146:Drivers/STM32F4xx_HAL_Driver/Src/stm32f4xx_hal_tim.c ****   assert_param(IS_TIM_SLAVE_INSTANCE(htim->Instance));
4147:Drivers/STM32F4xx_HAL_Driver/Src/stm32f4xx_hal_tim.c ****   assert_param(IS_TIM_SLAVE_MODE(sSlaveConfig->SlaveMode));
4148:Drivers/STM32F4xx_HAL_Driver/Src/stm32f4xx_hal_tim.c ****   assert_param(IS_TIM_TRIGGER_SELECTION(sSlaveConfig->InputTrigger));
4149:Drivers/STM32F4xx_HAL_Driver/Src/stm32f4xx_hal_tim.c ****    
4150:Drivers/STM32F4xx_HAL_Driver/Src/stm32f4xx_hal_tim.c ****   __HAL_LOCK(htim);
 8830              		.loc 1 4150 0
 8831 000a 7B68     		ldr	r3, [r7, #4]
 8832 000c 93F83830 		ldrb	r3, [r3, #56]	@ zero_extendqisi2
 8833 0010 012B     		cmp	r3, #1
 8834 0012 01D1     		bne	.L494
 8835              		.loc 1 4150 0 is_stmt 0 discriminator 1
 8836 0014 0223     		movs	r3, #2
 8837 0016 24E0     		b	.L495
 8838              	.L494:
 8839              		.loc 1 4150 0 discriminator 2
 8840 0018 7B68     		ldr	r3, [r7, #4]
 8841 001a 0122     		movs	r2, #1
 8842 001c 83F83820 		strb	r2, [r3, #56]
4151:Drivers/STM32F4xx_HAL_Driver/Src/stm32f4xx_hal_tim.c ****   
4152:Drivers/STM32F4xx_HAL_Driver/Src/stm32f4xx_hal_tim.c ****   htim->State = HAL_TIM_STATE_BUSY;
 8843              		.loc 1 4152 0 is_stmt 1 discriminator 2
 8844 0020 7B68     		ldr	r3, [r7, #4]
 8845 0022 0222     		movs	r2, #2
 8846 0024 83F83920 		strb	r2, [r3, #57]
4153:Drivers/STM32F4xx_HAL_Driver/Src/stm32f4xx_hal_tim.c **** 
4154:Drivers/STM32F4xx_HAL_Driver/Src/stm32f4xx_hal_tim.c ****   TIM_SlaveTimer_SetConfig(htim, sSlaveConfig);
 8847              		.loc 1 4154 0 discriminator 2
 8848 0028 3968     		ldr	r1, [r7]
 8849 002a 7868     		ldr	r0, [r7, #4]
 8850 002c FFF7FEFF 		bl	TIM_SlaveTimer_SetConfig
4155:Drivers/STM32F4xx_HAL_Driver/Src/stm32f4xx_hal_tim.c ****   
4156:Drivers/STM32F4xx_HAL_Driver/Src/stm32f4xx_hal_tim.c ****   /* Disable Trigger Interrupt */
4157:Drivers/STM32F4xx_HAL_Driver/Src/stm32f4xx_hal_tim.c ****   __HAL_TIM_DISABLE_IT(htim, TIM_IT_TRIGGER);
 8851              		.loc 1 4157 0 discriminator 2
 8852 0030 7B68     		ldr	r3, [r7, #4]
 8853 0032 1B68     		ldr	r3, [r3]
 8854 0034 7A68     		ldr	r2, [r7, #4]
 8855 0036 1268     		ldr	r2, [r2]
 8856 0038 D268     		ldr	r2, [r2, #12]
 8857 003a 22F04002 		bic	r2, r2, #64
 8858 003e DA60     		str	r2, [r3, #12]
4158:Drivers/STM32F4xx_HAL_Driver/Src/stm32f4xx_hal_tim.c ****   
4159:Drivers/STM32F4xx_HAL_Driver/Src/stm32f4xx_hal_tim.c ****   /* Disable Trigger DMA request */
4160:Drivers/STM32F4xx_HAL_Driver/Src/stm32f4xx_hal_tim.c ****   __HAL_TIM_DISABLE_DMA(htim, TIM_DMA_TRIGGER);
 8859              		.loc 1 4160 0 discriminator 2
 8860 0040 7B68     		ldr	r3, [r7, #4]
 8861 0042 1B68     		ldr	r3, [r3]
 8862 0044 7A68     		ldr	r2, [r7, #4]
 8863 0046 1268     		ldr	r2, [r2]
 8864 0048 D268     		ldr	r2, [r2, #12]
 8865 004a 22F48042 		bic	r2, r2, #16384
 8866 004e DA60     		str	r2, [r3, #12]
4161:Drivers/STM32F4xx_HAL_Driver/Src/stm32f4xx_hal_tim.c ****   
4162:Drivers/STM32F4xx_HAL_Driver/Src/stm32f4xx_hal_tim.c ****   htim->State = HAL_TIM_STATE_READY;
 8867              		.loc 1 4162 0 discriminator 2
ARM GAS  /tmp/cc4tSQEQ.s 			page 230


 8868 0050 7B68     		ldr	r3, [r7, #4]
 8869 0052 0122     		movs	r2, #1
 8870 0054 83F83920 		strb	r2, [r3, #57]
4163:Drivers/STM32F4xx_HAL_Driver/Src/stm32f4xx_hal_tim.c ****      
4164:Drivers/STM32F4xx_HAL_Driver/Src/stm32f4xx_hal_tim.c ****   __HAL_UNLOCK(htim);  
 8871              		.loc 1 4164 0 discriminator 2
 8872 0058 7B68     		ldr	r3, [r7, #4]
 8873 005a 0022     		movs	r2, #0
 8874 005c 83F83820 		strb	r2, [r3, #56]
4165:Drivers/STM32F4xx_HAL_Driver/Src/stm32f4xx_hal_tim.c ****   
4166:Drivers/STM32F4xx_HAL_Driver/Src/stm32f4xx_hal_tim.c ****   return HAL_OK;
 8875              		.loc 1 4166 0 discriminator 2
 8876 0060 0023     		movs	r3, #0
 8877              	.L495:
4167:Drivers/STM32F4xx_HAL_Driver/Src/stm32f4xx_hal_tim.c **** } 
 8878              		.loc 1 4167 0
 8879 0062 1846     		mov	r0, r3
 8880 0064 0837     		adds	r7, r7, #8
 8881              	.LCFI377:
 8882              		.cfi_def_cfa_offset 8
 8883 0066 BD46     		mov	sp, r7
 8884              	.LCFI378:
 8885              		.cfi_def_cfa_register 13
 8886              		@ sp needed
 8887 0068 80BD     		pop	{r7, pc}
 8888              		.cfi_endproc
 8889              	.LFE195:
 8891              		.section	.text.HAL_TIM_SlaveConfigSynchronization_IT,"ax",%progbits
 8892              		.align	1
 8893              		.global	HAL_TIM_SlaveConfigSynchronization_IT
 8894              		.syntax unified
 8895              		.thumb
 8896              		.thumb_func
 8897              		.fpu fpv4-sp-d16
 8899              	HAL_TIM_SlaveConfigSynchronization_IT:
 8900              	.LFB196:
4168:Drivers/STM32F4xx_HAL_Driver/Src/stm32f4xx_hal_tim.c **** 
4169:Drivers/STM32F4xx_HAL_Driver/Src/stm32f4xx_hal_tim.c **** /**
4170:Drivers/STM32F4xx_HAL_Driver/Src/stm32f4xx_hal_tim.c ****   * @brief  Configures the TIM in Slave mode in interrupt mode
4171:Drivers/STM32F4xx_HAL_Driver/Src/stm32f4xx_hal_tim.c ****   * @param  htim TIM handle.
4172:Drivers/STM32F4xx_HAL_Driver/Src/stm32f4xx_hal_tim.c ****   * @param  sSlaveConfig pointer to a TIM_SlaveConfigTypeDef structure that
4173:Drivers/STM32F4xx_HAL_Driver/Src/stm32f4xx_hal_tim.c ****   *         contains the selected trigger (internal trigger input, filtered
4174:Drivers/STM32F4xx_HAL_Driver/Src/stm32f4xx_hal_tim.c ****   *         timer input or external trigger input) and the ) and the Slave 
4175:Drivers/STM32F4xx_HAL_Driver/Src/stm32f4xx_hal_tim.c ****   *         mode (Disable, Reset, Gated, Trigger, External clock mode 1). 
4176:Drivers/STM32F4xx_HAL_Driver/Src/stm32f4xx_hal_tim.c ****   * @retval HAL status
4177:Drivers/STM32F4xx_HAL_Driver/Src/stm32f4xx_hal_tim.c ****   */
4178:Drivers/STM32F4xx_HAL_Driver/Src/stm32f4xx_hal_tim.c **** HAL_StatusTypeDef HAL_TIM_SlaveConfigSynchronization_IT(TIM_HandleTypeDef *htim, 
4179:Drivers/STM32F4xx_HAL_Driver/Src/stm32f4xx_hal_tim.c ****                                                         TIM_SlaveConfigTypeDef * sSlaveConfig)
4180:Drivers/STM32F4xx_HAL_Driver/Src/stm32f4xx_hal_tim.c **** {
 8901              		.loc 1 4180 0
 8902              		.cfi_startproc
 8903              		@ args = 0, pretend = 0, frame = 8
 8904              		@ frame_needed = 1, uses_anonymous_args = 0
 8905 0000 80B5     		push	{r7, lr}
 8906              	.LCFI379:
 8907              		.cfi_def_cfa_offset 8
 8908              		.cfi_offset 7, -8
ARM GAS  /tmp/cc4tSQEQ.s 			page 231


 8909              		.cfi_offset 14, -4
 8910 0002 82B0     		sub	sp, sp, #8
 8911              	.LCFI380:
 8912              		.cfi_def_cfa_offset 16
 8913 0004 00AF     		add	r7, sp, #0
 8914              	.LCFI381:
 8915              		.cfi_def_cfa_register 7
 8916 0006 7860     		str	r0, [r7, #4]
 8917 0008 3960     		str	r1, [r7]
4181:Drivers/STM32F4xx_HAL_Driver/Src/stm32f4xx_hal_tim.c ****   /* Check the parameters */
4182:Drivers/STM32F4xx_HAL_Driver/Src/stm32f4xx_hal_tim.c ****   assert_param(IS_TIM_SLAVE_INSTANCE(htim->Instance));
4183:Drivers/STM32F4xx_HAL_Driver/Src/stm32f4xx_hal_tim.c ****   assert_param(IS_TIM_SLAVE_MODE(sSlaveConfig->SlaveMode));
4184:Drivers/STM32F4xx_HAL_Driver/Src/stm32f4xx_hal_tim.c ****   assert_param(IS_TIM_TRIGGER_SELECTION(sSlaveConfig->InputTrigger));
4185:Drivers/STM32F4xx_HAL_Driver/Src/stm32f4xx_hal_tim.c ****   
4186:Drivers/STM32F4xx_HAL_Driver/Src/stm32f4xx_hal_tim.c ****   __HAL_LOCK(htim);
 8918              		.loc 1 4186 0
 8919 000a 7B68     		ldr	r3, [r7, #4]
 8920 000c 93F83830 		ldrb	r3, [r3, #56]	@ zero_extendqisi2
 8921 0010 012B     		cmp	r3, #1
 8922 0012 01D1     		bne	.L497
 8923              		.loc 1 4186 0 is_stmt 0 discriminator 1
 8924 0014 0223     		movs	r3, #2
 8925 0016 24E0     		b	.L498
 8926              	.L497:
 8927              		.loc 1 4186 0 discriminator 2
 8928 0018 7B68     		ldr	r3, [r7, #4]
 8929 001a 0122     		movs	r2, #1
 8930 001c 83F83820 		strb	r2, [r3, #56]
4187:Drivers/STM32F4xx_HAL_Driver/Src/stm32f4xx_hal_tim.c **** 
4188:Drivers/STM32F4xx_HAL_Driver/Src/stm32f4xx_hal_tim.c ****   htim->State = HAL_TIM_STATE_BUSY;
 8931              		.loc 1 4188 0 is_stmt 1 discriminator 2
 8932 0020 7B68     		ldr	r3, [r7, #4]
 8933 0022 0222     		movs	r2, #2
 8934 0024 83F83920 		strb	r2, [r3, #57]
4189:Drivers/STM32F4xx_HAL_Driver/Src/stm32f4xx_hal_tim.c ****   
4190:Drivers/STM32F4xx_HAL_Driver/Src/stm32f4xx_hal_tim.c ****   TIM_SlaveTimer_SetConfig(htim, sSlaveConfig);
 8935              		.loc 1 4190 0 discriminator 2
 8936 0028 3968     		ldr	r1, [r7]
 8937 002a 7868     		ldr	r0, [r7, #4]
 8938 002c FFF7FEFF 		bl	TIM_SlaveTimer_SetConfig
4191:Drivers/STM32F4xx_HAL_Driver/Src/stm32f4xx_hal_tim.c ****   
4192:Drivers/STM32F4xx_HAL_Driver/Src/stm32f4xx_hal_tim.c ****   /* Enable Trigger Interrupt */
4193:Drivers/STM32F4xx_HAL_Driver/Src/stm32f4xx_hal_tim.c ****   __HAL_TIM_ENABLE_IT(htim, TIM_IT_TRIGGER);
 8939              		.loc 1 4193 0 discriminator 2
 8940 0030 7B68     		ldr	r3, [r7, #4]
 8941 0032 1B68     		ldr	r3, [r3]
 8942 0034 7A68     		ldr	r2, [r7, #4]
 8943 0036 1268     		ldr	r2, [r2]
 8944 0038 D268     		ldr	r2, [r2, #12]
 8945 003a 42F04002 		orr	r2, r2, #64
 8946 003e DA60     		str	r2, [r3, #12]
4194:Drivers/STM32F4xx_HAL_Driver/Src/stm32f4xx_hal_tim.c ****   
4195:Drivers/STM32F4xx_HAL_Driver/Src/stm32f4xx_hal_tim.c ****   /* Disable Trigger DMA request */
4196:Drivers/STM32F4xx_HAL_Driver/Src/stm32f4xx_hal_tim.c ****   __HAL_TIM_DISABLE_DMA(htim, TIM_DMA_TRIGGER);
 8947              		.loc 1 4196 0 discriminator 2
 8948 0040 7B68     		ldr	r3, [r7, #4]
 8949 0042 1B68     		ldr	r3, [r3]
ARM GAS  /tmp/cc4tSQEQ.s 			page 232


 8950 0044 7A68     		ldr	r2, [r7, #4]
 8951 0046 1268     		ldr	r2, [r2]
 8952 0048 D268     		ldr	r2, [r2, #12]
 8953 004a 22F48042 		bic	r2, r2, #16384
 8954 004e DA60     		str	r2, [r3, #12]
4197:Drivers/STM32F4xx_HAL_Driver/Src/stm32f4xx_hal_tim.c ****   
4198:Drivers/STM32F4xx_HAL_Driver/Src/stm32f4xx_hal_tim.c ****   htim->State = HAL_TIM_STATE_READY;
 8955              		.loc 1 4198 0 discriminator 2
 8956 0050 7B68     		ldr	r3, [r7, #4]
 8957 0052 0122     		movs	r2, #1
 8958 0054 83F83920 		strb	r2, [r3, #57]
4199:Drivers/STM32F4xx_HAL_Driver/Src/stm32f4xx_hal_tim.c ****      
4200:Drivers/STM32F4xx_HAL_Driver/Src/stm32f4xx_hal_tim.c ****   __HAL_UNLOCK(htim);  
 8959              		.loc 1 4200 0 discriminator 2
 8960 0058 7B68     		ldr	r3, [r7, #4]
 8961 005a 0022     		movs	r2, #0
 8962 005c 83F83820 		strb	r2, [r3, #56]
4201:Drivers/STM32F4xx_HAL_Driver/Src/stm32f4xx_hal_tim.c ****   
4202:Drivers/STM32F4xx_HAL_Driver/Src/stm32f4xx_hal_tim.c ****   return HAL_OK;
 8963              		.loc 1 4202 0 discriminator 2
 8964 0060 0023     		movs	r3, #0
 8965              	.L498:
4203:Drivers/STM32F4xx_HAL_Driver/Src/stm32f4xx_hal_tim.c **** }
 8966              		.loc 1 4203 0
 8967 0062 1846     		mov	r0, r3
 8968 0064 0837     		adds	r7, r7, #8
 8969              	.LCFI382:
 8970              		.cfi_def_cfa_offset 8
 8971 0066 BD46     		mov	sp, r7
 8972              	.LCFI383:
 8973              		.cfi_def_cfa_register 13
 8974              		@ sp needed
 8975 0068 80BD     		pop	{r7, pc}
 8976              		.cfi_endproc
 8977              	.LFE196:
 8979              		.section	.text.HAL_TIM_ReadCapturedValue,"ax",%progbits
 8980              		.align	1
 8981              		.global	HAL_TIM_ReadCapturedValue
 8982              		.syntax unified
 8983              		.thumb
 8984              		.thumb_func
 8985              		.fpu fpv4-sp-d16
 8987              	HAL_TIM_ReadCapturedValue:
 8988              	.LFB197:
4204:Drivers/STM32F4xx_HAL_Driver/Src/stm32f4xx_hal_tim.c **** 
4205:Drivers/STM32F4xx_HAL_Driver/Src/stm32f4xx_hal_tim.c **** /**
4206:Drivers/STM32F4xx_HAL_Driver/Src/stm32f4xx_hal_tim.c ****   * @brief  Read the captured value from Capture Compare unit
4207:Drivers/STM32F4xx_HAL_Driver/Src/stm32f4xx_hal_tim.c ****   * @param  htim pointer to a TIM_HandleTypeDef structure that contains
4208:Drivers/STM32F4xx_HAL_Driver/Src/stm32f4xx_hal_tim.c ****   *                the configuration information for TIM module.
4209:Drivers/STM32F4xx_HAL_Driver/Src/stm32f4xx_hal_tim.c ****   * @param  Channel TIM Channels to be enabled.
4210:Drivers/STM32F4xx_HAL_Driver/Src/stm32f4xx_hal_tim.c ****   *          This parameter can be one of the following values:
4211:Drivers/STM32F4xx_HAL_Driver/Src/stm32f4xx_hal_tim.c ****   *            @arg TIM_CHANNEL_1: TIM Channel 1 selected
4212:Drivers/STM32F4xx_HAL_Driver/Src/stm32f4xx_hal_tim.c ****   *            @arg TIM_CHANNEL_2: TIM Channel 2 selected
4213:Drivers/STM32F4xx_HAL_Driver/Src/stm32f4xx_hal_tim.c ****   *            @arg TIM_CHANNEL_3: TIM Channel 3 selected
4214:Drivers/STM32F4xx_HAL_Driver/Src/stm32f4xx_hal_tim.c ****   *            @arg TIM_CHANNEL_4: TIM Channel 4 selected
4215:Drivers/STM32F4xx_HAL_Driver/Src/stm32f4xx_hal_tim.c ****   * @retval Captured value
4216:Drivers/STM32F4xx_HAL_Driver/Src/stm32f4xx_hal_tim.c ****   */
ARM GAS  /tmp/cc4tSQEQ.s 			page 233


4217:Drivers/STM32F4xx_HAL_Driver/Src/stm32f4xx_hal_tim.c **** uint32_t HAL_TIM_ReadCapturedValue(TIM_HandleTypeDef *htim, uint32_t Channel)
4218:Drivers/STM32F4xx_HAL_Driver/Src/stm32f4xx_hal_tim.c **** {
 8989              		.loc 1 4218 0
 8990              		.cfi_startproc
 8991              		@ args = 0, pretend = 0, frame = 16
 8992              		@ frame_needed = 1, uses_anonymous_args = 0
 8993              		@ link register save eliminated.
 8994 0000 80B4     		push	{r7}
 8995              	.LCFI384:
 8996              		.cfi_def_cfa_offset 4
 8997              		.cfi_offset 7, -4
 8998 0002 85B0     		sub	sp, sp, #20
 8999              	.LCFI385:
 9000              		.cfi_def_cfa_offset 24
 9001 0004 00AF     		add	r7, sp, #0
 9002              	.LCFI386:
 9003              		.cfi_def_cfa_register 7
 9004 0006 7860     		str	r0, [r7, #4]
 9005 0008 3960     		str	r1, [r7]
4219:Drivers/STM32F4xx_HAL_Driver/Src/stm32f4xx_hal_tim.c ****   uint32_t tmpreg = 0U;
 9006              		.loc 1 4219 0
 9007 000a 0023     		movs	r3, #0
 9008 000c FB60     		str	r3, [r7, #12]
4220:Drivers/STM32F4xx_HAL_Driver/Src/stm32f4xx_hal_tim.c ****   
4221:Drivers/STM32F4xx_HAL_Driver/Src/stm32f4xx_hal_tim.c ****   __HAL_LOCK(htim);
 9009              		.loc 1 4221 0
 9010 000e 7B68     		ldr	r3, [r7, #4]
 9011 0010 93F83830 		ldrb	r3, [r3, #56]	@ zero_extendqisi2
 9012 0014 012B     		cmp	r3, #1
 9013 0016 01D1     		bne	.L500
 9014              		.loc 1 4221 0 is_stmt 0 discriminator 1
 9015 0018 0223     		movs	r3, #2
 9016 001a 3DE0     		b	.L501
 9017              	.L500:
 9018              		.loc 1 4221 0 discriminator 2
 9019 001c 7B68     		ldr	r3, [r7, #4]
 9020 001e 0122     		movs	r2, #1
 9021 0020 83F83820 		strb	r2, [r3, #56]
4222:Drivers/STM32F4xx_HAL_Driver/Src/stm32f4xx_hal_tim.c ****   
4223:Drivers/STM32F4xx_HAL_Driver/Src/stm32f4xx_hal_tim.c ****   switch (Channel)
 9022              		.loc 1 4223 0 is_stmt 1 discriminator 2
 9023 0024 3B68     		ldr	r3, [r7]
 9024 0026 0C2B     		cmp	r3, #12
 9025 0028 30D8     		bhi	.L509
 9026 002a 01A2     		adr	r2, .L504
 9027 002c 52F823F0 		ldr	pc, [r2, r3, lsl #2]
 9028              		.p2align 2
 9029              	.L504:
 9030 0030 65000000 		.word	.L503+1
 9031 0034 8D000000 		.word	.L509+1
 9032 0038 8D000000 		.word	.L509+1
 9033 003c 8D000000 		.word	.L509+1
 9034 0040 6F000000 		.word	.L505+1
 9035 0044 8D000000 		.word	.L509+1
 9036 0048 8D000000 		.word	.L509+1
 9037 004c 8D000000 		.word	.L509+1
 9038 0050 79000000 		.word	.L506+1
ARM GAS  /tmp/cc4tSQEQ.s 			page 234


 9039 0054 8D000000 		.word	.L509+1
 9040 0058 8D000000 		.word	.L509+1
 9041 005c 8D000000 		.word	.L509+1
 9042 0060 83000000 		.word	.L507+1
 9043              		.p2align 1
 9044              	.L503:
4224:Drivers/STM32F4xx_HAL_Driver/Src/stm32f4xx_hal_tim.c ****   {
4225:Drivers/STM32F4xx_HAL_Driver/Src/stm32f4xx_hal_tim.c ****     case TIM_CHANNEL_1:
4226:Drivers/STM32F4xx_HAL_Driver/Src/stm32f4xx_hal_tim.c ****     {
4227:Drivers/STM32F4xx_HAL_Driver/Src/stm32f4xx_hal_tim.c ****       /* Check the parameters */
4228:Drivers/STM32F4xx_HAL_Driver/Src/stm32f4xx_hal_tim.c ****       assert_param(IS_TIM_CC1_INSTANCE(htim->Instance));
4229:Drivers/STM32F4xx_HAL_Driver/Src/stm32f4xx_hal_tim.c ****       
4230:Drivers/STM32F4xx_HAL_Driver/Src/stm32f4xx_hal_tim.c ****       /* Return the capture 1 value */
4231:Drivers/STM32F4xx_HAL_Driver/Src/stm32f4xx_hal_tim.c ****       tmpreg = htim->Instance->CCR1;
 9045              		.loc 1 4231 0
 9046 0064 7B68     		ldr	r3, [r7, #4]
 9047 0066 1B68     		ldr	r3, [r3]
 9048 0068 5B6B     		ldr	r3, [r3, #52]
 9049 006a FB60     		str	r3, [r7, #12]
4232:Drivers/STM32F4xx_HAL_Driver/Src/stm32f4xx_hal_tim.c ****       
4233:Drivers/STM32F4xx_HAL_Driver/Src/stm32f4xx_hal_tim.c ****       break;
 9050              		.loc 1 4233 0
 9051 006c 0FE0     		b	.L508
 9052              	.L505:
4234:Drivers/STM32F4xx_HAL_Driver/Src/stm32f4xx_hal_tim.c ****     }
4235:Drivers/STM32F4xx_HAL_Driver/Src/stm32f4xx_hal_tim.c ****     case TIM_CHANNEL_2:
4236:Drivers/STM32F4xx_HAL_Driver/Src/stm32f4xx_hal_tim.c ****     {
4237:Drivers/STM32F4xx_HAL_Driver/Src/stm32f4xx_hal_tim.c ****       /* Check the parameters */
4238:Drivers/STM32F4xx_HAL_Driver/Src/stm32f4xx_hal_tim.c ****       assert_param(IS_TIM_CC2_INSTANCE(htim->Instance));
4239:Drivers/STM32F4xx_HAL_Driver/Src/stm32f4xx_hal_tim.c ****       
4240:Drivers/STM32F4xx_HAL_Driver/Src/stm32f4xx_hal_tim.c ****       /* Return the capture 2 value */
4241:Drivers/STM32F4xx_HAL_Driver/Src/stm32f4xx_hal_tim.c ****       tmpreg = htim->Instance->CCR2;
 9053              		.loc 1 4241 0
 9054 006e 7B68     		ldr	r3, [r7, #4]
 9055 0070 1B68     		ldr	r3, [r3]
 9056 0072 9B6B     		ldr	r3, [r3, #56]
 9057 0074 FB60     		str	r3, [r7, #12]
4242:Drivers/STM32F4xx_HAL_Driver/Src/stm32f4xx_hal_tim.c ****       
4243:Drivers/STM32F4xx_HAL_Driver/Src/stm32f4xx_hal_tim.c ****       break;
 9058              		.loc 1 4243 0
 9059 0076 0AE0     		b	.L508
 9060              	.L506:
4244:Drivers/STM32F4xx_HAL_Driver/Src/stm32f4xx_hal_tim.c ****     }
4245:Drivers/STM32F4xx_HAL_Driver/Src/stm32f4xx_hal_tim.c ****     
4246:Drivers/STM32F4xx_HAL_Driver/Src/stm32f4xx_hal_tim.c ****     case TIM_CHANNEL_3:
4247:Drivers/STM32F4xx_HAL_Driver/Src/stm32f4xx_hal_tim.c ****     {
4248:Drivers/STM32F4xx_HAL_Driver/Src/stm32f4xx_hal_tim.c ****       /* Check the parameters */
4249:Drivers/STM32F4xx_HAL_Driver/Src/stm32f4xx_hal_tim.c ****       assert_param(IS_TIM_CC3_INSTANCE(htim->Instance));
4250:Drivers/STM32F4xx_HAL_Driver/Src/stm32f4xx_hal_tim.c ****       
4251:Drivers/STM32F4xx_HAL_Driver/Src/stm32f4xx_hal_tim.c ****       /* Return the capture 3 value */
4252:Drivers/STM32F4xx_HAL_Driver/Src/stm32f4xx_hal_tim.c ****       tmpreg = htim->Instance->CCR3;
 9061              		.loc 1 4252 0
 9062 0078 7B68     		ldr	r3, [r7, #4]
 9063 007a 1B68     		ldr	r3, [r3]
 9064 007c DB6B     		ldr	r3, [r3, #60]
 9065 007e FB60     		str	r3, [r7, #12]
4253:Drivers/STM32F4xx_HAL_Driver/Src/stm32f4xx_hal_tim.c ****       
ARM GAS  /tmp/cc4tSQEQ.s 			page 235


4254:Drivers/STM32F4xx_HAL_Driver/Src/stm32f4xx_hal_tim.c ****       break;
 9066              		.loc 1 4254 0
 9067 0080 05E0     		b	.L508
 9068              	.L507:
4255:Drivers/STM32F4xx_HAL_Driver/Src/stm32f4xx_hal_tim.c ****     }
4256:Drivers/STM32F4xx_HAL_Driver/Src/stm32f4xx_hal_tim.c ****     
4257:Drivers/STM32F4xx_HAL_Driver/Src/stm32f4xx_hal_tim.c ****     case TIM_CHANNEL_4:
4258:Drivers/STM32F4xx_HAL_Driver/Src/stm32f4xx_hal_tim.c ****     {
4259:Drivers/STM32F4xx_HAL_Driver/Src/stm32f4xx_hal_tim.c ****       /* Check the parameters */
4260:Drivers/STM32F4xx_HAL_Driver/Src/stm32f4xx_hal_tim.c ****       assert_param(IS_TIM_CC4_INSTANCE(htim->Instance));
4261:Drivers/STM32F4xx_HAL_Driver/Src/stm32f4xx_hal_tim.c ****       
4262:Drivers/STM32F4xx_HAL_Driver/Src/stm32f4xx_hal_tim.c ****       /* Return the capture 4 value */
4263:Drivers/STM32F4xx_HAL_Driver/Src/stm32f4xx_hal_tim.c ****       tmpreg = htim->Instance->CCR4;
 9069              		.loc 1 4263 0
 9070 0082 7B68     		ldr	r3, [r7, #4]
 9071 0084 1B68     		ldr	r3, [r3]
 9072 0086 1B6C     		ldr	r3, [r3, #64]
 9073 0088 FB60     		str	r3, [r7, #12]
4264:Drivers/STM32F4xx_HAL_Driver/Src/stm32f4xx_hal_tim.c ****       
4265:Drivers/STM32F4xx_HAL_Driver/Src/stm32f4xx_hal_tim.c ****       break;
 9074              		.loc 1 4265 0
 9075 008a 00E0     		b	.L508
 9076              	.L509:
4266:Drivers/STM32F4xx_HAL_Driver/Src/stm32f4xx_hal_tim.c ****     }
4267:Drivers/STM32F4xx_HAL_Driver/Src/stm32f4xx_hal_tim.c ****     
4268:Drivers/STM32F4xx_HAL_Driver/Src/stm32f4xx_hal_tim.c ****     default:
4269:Drivers/STM32F4xx_HAL_Driver/Src/stm32f4xx_hal_tim.c ****     break;  
 9077              		.loc 1 4269 0
 9078 008c 00BF     		nop
 9079              	.L508:
4270:Drivers/STM32F4xx_HAL_Driver/Src/stm32f4xx_hal_tim.c ****   }
4271:Drivers/STM32F4xx_HAL_Driver/Src/stm32f4xx_hal_tim.c ****      
4272:Drivers/STM32F4xx_HAL_Driver/Src/stm32f4xx_hal_tim.c ****   __HAL_UNLOCK(htim);  
 9080              		.loc 1 4272 0
 9081 008e 7B68     		ldr	r3, [r7, #4]
 9082 0090 0022     		movs	r2, #0
 9083 0092 83F83820 		strb	r2, [r3, #56]
4273:Drivers/STM32F4xx_HAL_Driver/Src/stm32f4xx_hal_tim.c ****   return tmpreg;
 9084              		.loc 1 4273 0
 9085 0096 FB68     		ldr	r3, [r7, #12]
 9086              	.L501:
4274:Drivers/STM32F4xx_HAL_Driver/Src/stm32f4xx_hal_tim.c **** }
 9087              		.loc 1 4274 0
 9088 0098 1846     		mov	r0, r3
 9089 009a 1437     		adds	r7, r7, #20
 9090              	.LCFI387:
 9091              		.cfi_def_cfa_offset 4
 9092 009c BD46     		mov	sp, r7
 9093              	.LCFI388:
 9094              		.cfi_def_cfa_register 13
 9095              		@ sp needed
 9096 009e 5DF8047B 		ldr	r7, [sp], #4
 9097              	.LCFI389:
 9098              		.cfi_restore 7
 9099              		.cfi_def_cfa_offset 0
 9100 00a2 7047     		bx	lr
 9101              		.cfi_endproc
ARM GAS  /tmp/cc4tSQEQ.s 			page 236


 9102              	.LFE197:
 9104              		.section	.text.HAL_TIM_PeriodElapsedCallback,"ax",%progbits
 9105              		.align	1
 9106              		.weak	HAL_TIM_PeriodElapsedCallback
 9107              		.syntax unified
 9108              		.thumb
 9109              		.thumb_func
 9110              		.fpu fpv4-sp-d16
 9112              	HAL_TIM_PeriodElapsedCallback:
 9113              	.LFB198:
4275:Drivers/STM32F4xx_HAL_Driver/Src/stm32f4xx_hal_tim.c **** /**
4276:Drivers/STM32F4xx_HAL_Driver/Src/stm32f4xx_hal_tim.c ****   * @}
4277:Drivers/STM32F4xx_HAL_Driver/Src/stm32f4xx_hal_tim.c ****   */
4278:Drivers/STM32F4xx_HAL_Driver/Src/stm32f4xx_hal_tim.c ****   
4279:Drivers/STM32F4xx_HAL_Driver/Src/stm32f4xx_hal_tim.c **** /** @defgroup TIM_Exported_Functions_Group9 TIM Callbacks functions
4280:Drivers/STM32F4xx_HAL_Driver/Src/stm32f4xx_hal_tim.c ****  *  @brief    TIM Callbacks functions 
4281:Drivers/STM32F4xx_HAL_Driver/Src/stm32f4xx_hal_tim.c ****  *
4282:Drivers/STM32F4xx_HAL_Driver/Src/stm32f4xx_hal_tim.c **** @verbatim   
4283:Drivers/STM32F4xx_HAL_Driver/Src/stm32f4xx_hal_tim.c ****   ==============================================================================
4284:Drivers/STM32F4xx_HAL_Driver/Src/stm32f4xx_hal_tim.c ****                         ##### TIM Callbacks functions #####
4285:Drivers/STM32F4xx_HAL_Driver/Src/stm32f4xx_hal_tim.c ****   ==============================================================================  
4286:Drivers/STM32F4xx_HAL_Driver/Src/stm32f4xx_hal_tim.c ****  [..]  
4287:Drivers/STM32F4xx_HAL_Driver/Src/stm32f4xx_hal_tim.c ****    This section provides TIM callback functions:
4288:Drivers/STM32F4xx_HAL_Driver/Src/stm32f4xx_hal_tim.c ****    (+) Timer Period elapsed callback
4289:Drivers/STM32F4xx_HAL_Driver/Src/stm32f4xx_hal_tim.c ****    (+) Timer Output Compare callback
4290:Drivers/STM32F4xx_HAL_Driver/Src/stm32f4xx_hal_tim.c ****    (+) Timer Input capture callback
4291:Drivers/STM32F4xx_HAL_Driver/Src/stm32f4xx_hal_tim.c ****    (+) Timer Trigger callback
4292:Drivers/STM32F4xx_HAL_Driver/Src/stm32f4xx_hal_tim.c ****    (+) Timer Error callback
4293:Drivers/STM32F4xx_HAL_Driver/Src/stm32f4xx_hal_tim.c **** 
4294:Drivers/STM32F4xx_HAL_Driver/Src/stm32f4xx_hal_tim.c **** @endverbatim
4295:Drivers/STM32F4xx_HAL_Driver/Src/stm32f4xx_hal_tim.c ****   * @{
4296:Drivers/STM32F4xx_HAL_Driver/Src/stm32f4xx_hal_tim.c ****   */
4297:Drivers/STM32F4xx_HAL_Driver/Src/stm32f4xx_hal_tim.c **** 
4298:Drivers/STM32F4xx_HAL_Driver/Src/stm32f4xx_hal_tim.c **** /**
4299:Drivers/STM32F4xx_HAL_Driver/Src/stm32f4xx_hal_tim.c ****   * @brief  Period elapsed callback in non blocking mode 
4300:Drivers/STM32F4xx_HAL_Driver/Src/stm32f4xx_hal_tim.c ****   * @param  htim pointer to a TIM_HandleTypeDef structure that contains
4301:Drivers/STM32F4xx_HAL_Driver/Src/stm32f4xx_hal_tim.c ****   *                the configuration information for TIM module.
4302:Drivers/STM32F4xx_HAL_Driver/Src/stm32f4xx_hal_tim.c ****   * @retval None
4303:Drivers/STM32F4xx_HAL_Driver/Src/stm32f4xx_hal_tim.c ****   */
4304:Drivers/STM32F4xx_HAL_Driver/Src/stm32f4xx_hal_tim.c **** __weak void HAL_TIM_PeriodElapsedCallback(TIM_HandleTypeDef *htim)
4305:Drivers/STM32F4xx_HAL_Driver/Src/stm32f4xx_hal_tim.c **** {
 9114              		.loc 1 4305 0
 9115              		.cfi_startproc
 9116              		@ args = 0, pretend = 0, frame = 8
 9117              		@ frame_needed = 1, uses_anonymous_args = 0
 9118              		@ link register save eliminated.
 9119 0000 80B4     		push	{r7}
 9120              	.LCFI390:
 9121              		.cfi_def_cfa_offset 4
 9122              		.cfi_offset 7, -4
 9123 0002 83B0     		sub	sp, sp, #12
 9124              	.LCFI391:
 9125              		.cfi_def_cfa_offset 16
 9126 0004 00AF     		add	r7, sp, #0
 9127              	.LCFI392:
 9128              		.cfi_def_cfa_register 7
 9129 0006 7860     		str	r0, [r7, #4]
ARM GAS  /tmp/cc4tSQEQ.s 			page 237


4306:Drivers/STM32F4xx_HAL_Driver/Src/stm32f4xx_hal_tim.c ****   /* Prevent unused argument(s) compilation warning */
4307:Drivers/STM32F4xx_HAL_Driver/Src/stm32f4xx_hal_tim.c ****   UNUSED(htim);
4308:Drivers/STM32F4xx_HAL_Driver/Src/stm32f4xx_hal_tim.c ****   /* NOTE : This function Should not be modified, when the callback is needed,
4309:Drivers/STM32F4xx_HAL_Driver/Src/stm32f4xx_hal_tim.c ****             the __HAL_TIM_PeriodElapsedCallback could be implemented in the user file
4310:Drivers/STM32F4xx_HAL_Driver/Src/stm32f4xx_hal_tim.c ****    */
4311:Drivers/STM32F4xx_HAL_Driver/Src/stm32f4xx_hal_tim.c **** }
 9130              		.loc 1 4311 0
 9131 0008 00BF     		nop
 9132 000a 0C37     		adds	r7, r7, #12
 9133              	.LCFI393:
 9134              		.cfi_def_cfa_offset 4
 9135 000c BD46     		mov	sp, r7
 9136              	.LCFI394:
 9137              		.cfi_def_cfa_register 13
 9138              		@ sp needed
 9139 000e 5DF8047B 		ldr	r7, [sp], #4
 9140              	.LCFI395:
 9141              		.cfi_restore 7
 9142              		.cfi_def_cfa_offset 0
 9143 0012 7047     		bx	lr
 9144              		.cfi_endproc
 9145              	.LFE198:
 9147              		.section	.text.HAL_TIM_OC_DelayElapsedCallback,"ax",%progbits
 9148              		.align	1
 9149              		.weak	HAL_TIM_OC_DelayElapsedCallback
 9150              		.syntax unified
 9151              		.thumb
 9152              		.thumb_func
 9153              		.fpu fpv4-sp-d16
 9155              	HAL_TIM_OC_DelayElapsedCallback:
 9156              	.LFB199:
4312:Drivers/STM32F4xx_HAL_Driver/Src/stm32f4xx_hal_tim.c **** 
4313:Drivers/STM32F4xx_HAL_Driver/Src/stm32f4xx_hal_tim.c **** /**
4314:Drivers/STM32F4xx_HAL_Driver/Src/stm32f4xx_hal_tim.c ****   * @brief  Output Compare callback in non blocking mode 
4315:Drivers/STM32F4xx_HAL_Driver/Src/stm32f4xx_hal_tim.c ****   * @param  htim pointer to a TIM_HandleTypeDef structure that contains
4316:Drivers/STM32F4xx_HAL_Driver/Src/stm32f4xx_hal_tim.c ****   *                the configuration information for TIM module.
4317:Drivers/STM32F4xx_HAL_Driver/Src/stm32f4xx_hal_tim.c ****   * @retval None
4318:Drivers/STM32F4xx_HAL_Driver/Src/stm32f4xx_hal_tim.c ****   */
4319:Drivers/STM32F4xx_HAL_Driver/Src/stm32f4xx_hal_tim.c **** __weak void HAL_TIM_OC_DelayElapsedCallback(TIM_HandleTypeDef *htim)
4320:Drivers/STM32F4xx_HAL_Driver/Src/stm32f4xx_hal_tim.c **** {
 9157              		.loc 1 4320 0
 9158              		.cfi_startproc
 9159              		@ args = 0, pretend = 0, frame = 8
 9160              		@ frame_needed = 1, uses_anonymous_args = 0
 9161              		@ link register save eliminated.
 9162 0000 80B4     		push	{r7}
 9163              	.LCFI396:
 9164              		.cfi_def_cfa_offset 4
 9165              		.cfi_offset 7, -4
 9166 0002 83B0     		sub	sp, sp, #12
 9167              	.LCFI397:
 9168              		.cfi_def_cfa_offset 16
 9169 0004 00AF     		add	r7, sp, #0
 9170              	.LCFI398:
 9171              		.cfi_def_cfa_register 7
 9172 0006 7860     		str	r0, [r7, #4]
4321:Drivers/STM32F4xx_HAL_Driver/Src/stm32f4xx_hal_tim.c ****   /* Prevent unused argument(s) compilation warning */
ARM GAS  /tmp/cc4tSQEQ.s 			page 238


4322:Drivers/STM32F4xx_HAL_Driver/Src/stm32f4xx_hal_tim.c ****   UNUSED(htim);
4323:Drivers/STM32F4xx_HAL_Driver/Src/stm32f4xx_hal_tim.c ****   /* NOTE : This function Should not be modified, when the callback is needed,
4324:Drivers/STM32F4xx_HAL_Driver/Src/stm32f4xx_hal_tim.c ****             the __HAL_TIM_OC_DelayElapsedCallback could be implemented in the user file
4325:Drivers/STM32F4xx_HAL_Driver/Src/stm32f4xx_hal_tim.c ****    */
4326:Drivers/STM32F4xx_HAL_Driver/Src/stm32f4xx_hal_tim.c **** }
 9173              		.loc 1 4326 0
 9174 0008 00BF     		nop
 9175 000a 0C37     		adds	r7, r7, #12
 9176              	.LCFI399:
 9177              		.cfi_def_cfa_offset 4
 9178 000c BD46     		mov	sp, r7
 9179              	.LCFI400:
 9180              		.cfi_def_cfa_register 13
 9181              		@ sp needed
 9182 000e 5DF8047B 		ldr	r7, [sp], #4
 9183              	.LCFI401:
 9184              		.cfi_restore 7
 9185              		.cfi_def_cfa_offset 0
 9186 0012 7047     		bx	lr
 9187              		.cfi_endproc
 9188              	.LFE199:
 9190              		.section	.text.HAL_TIM_IC_CaptureCallback,"ax",%progbits
 9191              		.align	1
 9192              		.weak	HAL_TIM_IC_CaptureCallback
 9193              		.syntax unified
 9194              		.thumb
 9195              		.thumb_func
 9196              		.fpu fpv4-sp-d16
 9198              	HAL_TIM_IC_CaptureCallback:
 9199              	.LFB200:
4327:Drivers/STM32F4xx_HAL_Driver/Src/stm32f4xx_hal_tim.c **** 
4328:Drivers/STM32F4xx_HAL_Driver/Src/stm32f4xx_hal_tim.c **** /**
4329:Drivers/STM32F4xx_HAL_Driver/Src/stm32f4xx_hal_tim.c ****   * @brief  Input Capture callback in non blocking mode 
4330:Drivers/STM32F4xx_HAL_Driver/Src/stm32f4xx_hal_tim.c ****   * @param  htim pointer to a TIM_HandleTypeDef structure that contains
4331:Drivers/STM32F4xx_HAL_Driver/Src/stm32f4xx_hal_tim.c ****   *                the configuration information for TIM module.
4332:Drivers/STM32F4xx_HAL_Driver/Src/stm32f4xx_hal_tim.c ****   * @retval None
4333:Drivers/STM32F4xx_HAL_Driver/Src/stm32f4xx_hal_tim.c ****   */
4334:Drivers/STM32F4xx_HAL_Driver/Src/stm32f4xx_hal_tim.c **** __weak void HAL_TIM_IC_CaptureCallback(TIM_HandleTypeDef *htim)
4335:Drivers/STM32F4xx_HAL_Driver/Src/stm32f4xx_hal_tim.c **** {
 9200              		.loc 1 4335 0
 9201              		.cfi_startproc
 9202              		@ args = 0, pretend = 0, frame = 8
 9203              		@ frame_needed = 1, uses_anonymous_args = 0
 9204              		@ link register save eliminated.
 9205 0000 80B4     		push	{r7}
 9206              	.LCFI402:
 9207              		.cfi_def_cfa_offset 4
 9208              		.cfi_offset 7, -4
 9209 0002 83B0     		sub	sp, sp, #12
 9210              	.LCFI403:
 9211              		.cfi_def_cfa_offset 16
 9212 0004 00AF     		add	r7, sp, #0
 9213              	.LCFI404:
 9214              		.cfi_def_cfa_register 7
 9215 0006 7860     		str	r0, [r7, #4]
4336:Drivers/STM32F4xx_HAL_Driver/Src/stm32f4xx_hal_tim.c ****   /* Prevent unused argument(s) compilation warning */
4337:Drivers/STM32F4xx_HAL_Driver/Src/stm32f4xx_hal_tim.c ****   UNUSED(htim);
ARM GAS  /tmp/cc4tSQEQ.s 			page 239


4338:Drivers/STM32F4xx_HAL_Driver/Src/stm32f4xx_hal_tim.c ****   /* NOTE : This function Should not be modified, when the callback is needed,
4339:Drivers/STM32F4xx_HAL_Driver/Src/stm32f4xx_hal_tim.c ****             the __HAL_TIM_IC_CaptureCallback could be implemented in the user file
4340:Drivers/STM32F4xx_HAL_Driver/Src/stm32f4xx_hal_tim.c ****    */
4341:Drivers/STM32F4xx_HAL_Driver/Src/stm32f4xx_hal_tim.c **** }
 9216              		.loc 1 4341 0
 9217 0008 00BF     		nop
 9218 000a 0C37     		adds	r7, r7, #12
 9219              	.LCFI405:
 9220              		.cfi_def_cfa_offset 4
 9221 000c BD46     		mov	sp, r7
 9222              	.LCFI406:
 9223              		.cfi_def_cfa_register 13
 9224              		@ sp needed
 9225 000e 5DF8047B 		ldr	r7, [sp], #4
 9226              	.LCFI407:
 9227              		.cfi_restore 7
 9228              		.cfi_def_cfa_offset 0
 9229 0012 7047     		bx	lr
 9230              		.cfi_endproc
 9231              	.LFE200:
 9233              		.section	.text.HAL_TIM_PWM_PulseFinishedCallback,"ax",%progbits
 9234              		.align	1
 9235              		.weak	HAL_TIM_PWM_PulseFinishedCallback
 9236              		.syntax unified
 9237              		.thumb
 9238              		.thumb_func
 9239              		.fpu fpv4-sp-d16
 9241              	HAL_TIM_PWM_PulseFinishedCallback:
 9242              	.LFB201:
4342:Drivers/STM32F4xx_HAL_Driver/Src/stm32f4xx_hal_tim.c **** 
4343:Drivers/STM32F4xx_HAL_Driver/Src/stm32f4xx_hal_tim.c **** /**
4344:Drivers/STM32F4xx_HAL_Driver/Src/stm32f4xx_hal_tim.c ****   * @brief  PWM Pulse finished callback in non blocking mode 
4345:Drivers/STM32F4xx_HAL_Driver/Src/stm32f4xx_hal_tim.c ****   * @param  htim pointer to a TIM_HandleTypeDef structure that contains
4346:Drivers/STM32F4xx_HAL_Driver/Src/stm32f4xx_hal_tim.c ****   *                the configuration information for TIM module.
4347:Drivers/STM32F4xx_HAL_Driver/Src/stm32f4xx_hal_tim.c ****   * @retval None
4348:Drivers/STM32F4xx_HAL_Driver/Src/stm32f4xx_hal_tim.c ****   */
4349:Drivers/STM32F4xx_HAL_Driver/Src/stm32f4xx_hal_tim.c **** __weak void HAL_TIM_PWM_PulseFinishedCallback(TIM_HandleTypeDef *htim)
4350:Drivers/STM32F4xx_HAL_Driver/Src/stm32f4xx_hal_tim.c **** {
 9243              		.loc 1 4350 0
 9244              		.cfi_startproc
 9245              		@ args = 0, pretend = 0, frame = 8
 9246              		@ frame_needed = 1, uses_anonymous_args = 0
 9247              		@ link register save eliminated.
 9248 0000 80B4     		push	{r7}
 9249              	.LCFI408:
 9250              		.cfi_def_cfa_offset 4
 9251              		.cfi_offset 7, -4
 9252 0002 83B0     		sub	sp, sp, #12
 9253              	.LCFI409:
 9254              		.cfi_def_cfa_offset 16
 9255 0004 00AF     		add	r7, sp, #0
 9256              	.LCFI410:
 9257              		.cfi_def_cfa_register 7
 9258 0006 7860     		str	r0, [r7, #4]
4351:Drivers/STM32F4xx_HAL_Driver/Src/stm32f4xx_hal_tim.c ****   /* Prevent unused argument(s) compilation warning */
4352:Drivers/STM32F4xx_HAL_Driver/Src/stm32f4xx_hal_tim.c ****   UNUSED(htim);
4353:Drivers/STM32F4xx_HAL_Driver/Src/stm32f4xx_hal_tim.c ****   /* NOTE : This function Should not be modified, when the callback is needed,
ARM GAS  /tmp/cc4tSQEQ.s 			page 240


4354:Drivers/STM32F4xx_HAL_Driver/Src/stm32f4xx_hal_tim.c ****             the __HAL_TIM_PWM_PulseFinishedCallback could be implemented in the user file
4355:Drivers/STM32F4xx_HAL_Driver/Src/stm32f4xx_hal_tim.c ****    */
4356:Drivers/STM32F4xx_HAL_Driver/Src/stm32f4xx_hal_tim.c **** }
 9259              		.loc 1 4356 0
 9260 0008 00BF     		nop
 9261 000a 0C37     		adds	r7, r7, #12
 9262              	.LCFI411:
 9263              		.cfi_def_cfa_offset 4
 9264 000c BD46     		mov	sp, r7
 9265              	.LCFI412:
 9266              		.cfi_def_cfa_register 13
 9267              		@ sp needed
 9268 000e 5DF8047B 		ldr	r7, [sp], #4
 9269              	.LCFI413:
 9270              		.cfi_restore 7
 9271              		.cfi_def_cfa_offset 0
 9272 0012 7047     		bx	lr
 9273              		.cfi_endproc
 9274              	.LFE201:
 9276              		.section	.text.HAL_TIM_TriggerCallback,"ax",%progbits
 9277              		.align	1
 9278              		.weak	HAL_TIM_TriggerCallback
 9279              		.syntax unified
 9280              		.thumb
 9281              		.thumb_func
 9282              		.fpu fpv4-sp-d16
 9284              	HAL_TIM_TriggerCallback:
 9285              	.LFB202:
4357:Drivers/STM32F4xx_HAL_Driver/Src/stm32f4xx_hal_tim.c **** 
4358:Drivers/STM32F4xx_HAL_Driver/Src/stm32f4xx_hal_tim.c **** /**
4359:Drivers/STM32F4xx_HAL_Driver/Src/stm32f4xx_hal_tim.c ****   * @brief  Hall Trigger detection callback in non blocking mode 
4360:Drivers/STM32F4xx_HAL_Driver/Src/stm32f4xx_hal_tim.c ****   * @param  htim pointer to a TIM_HandleTypeDef structure that contains
4361:Drivers/STM32F4xx_HAL_Driver/Src/stm32f4xx_hal_tim.c ****   *                the configuration information for TIM module.
4362:Drivers/STM32F4xx_HAL_Driver/Src/stm32f4xx_hal_tim.c ****   * @retval None
4363:Drivers/STM32F4xx_HAL_Driver/Src/stm32f4xx_hal_tim.c ****   */
4364:Drivers/STM32F4xx_HAL_Driver/Src/stm32f4xx_hal_tim.c **** __weak void HAL_TIM_TriggerCallback(TIM_HandleTypeDef *htim)
4365:Drivers/STM32F4xx_HAL_Driver/Src/stm32f4xx_hal_tim.c **** {
 9286              		.loc 1 4365 0
 9287              		.cfi_startproc
 9288              		@ args = 0, pretend = 0, frame = 8
 9289              		@ frame_needed = 1, uses_anonymous_args = 0
 9290              		@ link register save eliminated.
 9291 0000 80B4     		push	{r7}
 9292              	.LCFI414:
 9293              		.cfi_def_cfa_offset 4
 9294              		.cfi_offset 7, -4
 9295 0002 83B0     		sub	sp, sp, #12
 9296              	.LCFI415:
 9297              		.cfi_def_cfa_offset 16
 9298 0004 00AF     		add	r7, sp, #0
 9299              	.LCFI416:
 9300              		.cfi_def_cfa_register 7
 9301 0006 7860     		str	r0, [r7, #4]
4366:Drivers/STM32F4xx_HAL_Driver/Src/stm32f4xx_hal_tim.c ****   /* Prevent unused argument(s) compilation warning */
4367:Drivers/STM32F4xx_HAL_Driver/Src/stm32f4xx_hal_tim.c ****   UNUSED(htim);
4368:Drivers/STM32F4xx_HAL_Driver/Src/stm32f4xx_hal_tim.c ****   /* NOTE : This function Should not be modified, when the callback is needed,
4369:Drivers/STM32F4xx_HAL_Driver/Src/stm32f4xx_hal_tim.c ****             the HAL_TIM_TriggerCallback could be implemented in the user file
ARM GAS  /tmp/cc4tSQEQ.s 			page 241


4370:Drivers/STM32F4xx_HAL_Driver/Src/stm32f4xx_hal_tim.c ****    */
4371:Drivers/STM32F4xx_HAL_Driver/Src/stm32f4xx_hal_tim.c **** }
 9302              		.loc 1 4371 0
 9303 0008 00BF     		nop
 9304 000a 0C37     		adds	r7, r7, #12
 9305              	.LCFI417:
 9306              		.cfi_def_cfa_offset 4
 9307 000c BD46     		mov	sp, r7
 9308              	.LCFI418:
 9309              		.cfi_def_cfa_register 13
 9310              		@ sp needed
 9311 000e 5DF8047B 		ldr	r7, [sp], #4
 9312              	.LCFI419:
 9313              		.cfi_restore 7
 9314              		.cfi_def_cfa_offset 0
 9315 0012 7047     		bx	lr
 9316              		.cfi_endproc
 9317              	.LFE202:
 9319              		.section	.text.HAL_TIM_ErrorCallback,"ax",%progbits
 9320              		.align	1
 9321              		.weak	HAL_TIM_ErrorCallback
 9322              		.syntax unified
 9323              		.thumb
 9324              		.thumb_func
 9325              		.fpu fpv4-sp-d16
 9327              	HAL_TIM_ErrorCallback:
 9328              	.LFB203:
4372:Drivers/STM32F4xx_HAL_Driver/Src/stm32f4xx_hal_tim.c **** 
4373:Drivers/STM32F4xx_HAL_Driver/Src/stm32f4xx_hal_tim.c **** /**
4374:Drivers/STM32F4xx_HAL_Driver/Src/stm32f4xx_hal_tim.c ****   * @brief  Timer error callback in non blocking mode 
4375:Drivers/STM32F4xx_HAL_Driver/Src/stm32f4xx_hal_tim.c ****   * @param  htim pointer to a TIM_HandleTypeDef structure that contains
4376:Drivers/STM32F4xx_HAL_Driver/Src/stm32f4xx_hal_tim.c ****   *                the configuration information for TIM module.
4377:Drivers/STM32F4xx_HAL_Driver/Src/stm32f4xx_hal_tim.c ****   * @retval None
4378:Drivers/STM32F4xx_HAL_Driver/Src/stm32f4xx_hal_tim.c ****   */
4379:Drivers/STM32F4xx_HAL_Driver/Src/stm32f4xx_hal_tim.c **** __weak void HAL_TIM_ErrorCallback(TIM_HandleTypeDef *htim)
4380:Drivers/STM32F4xx_HAL_Driver/Src/stm32f4xx_hal_tim.c **** {
 9329              		.loc 1 4380 0
 9330              		.cfi_startproc
 9331              		@ args = 0, pretend = 0, frame = 8
 9332              		@ frame_needed = 1, uses_anonymous_args = 0
 9333              		@ link register save eliminated.
 9334 0000 80B4     		push	{r7}
 9335              	.LCFI420:
 9336              		.cfi_def_cfa_offset 4
 9337              		.cfi_offset 7, -4
 9338 0002 83B0     		sub	sp, sp, #12
 9339              	.LCFI421:
 9340              		.cfi_def_cfa_offset 16
 9341 0004 00AF     		add	r7, sp, #0
 9342              	.LCFI422:
 9343              		.cfi_def_cfa_register 7
 9344 0006 7860     		str	r0, [r7, #4]
4381:Drivers/STM32F4xx_HAL_Driver/Src/stm32f4xx_hal_tim.c ****   /* Prevent unused argument(s) compilation warning */
4382:Drivers/STM32F4xx_HAL_Driver/Src/stm32f4xx_hal_tim.c ****   UNUSED(htim);
4383:Drivers/STM32F4xx_HAL_Driver/Src/stm32f4xx_hal_tim.c ****   /* NOTE : This function Should not be modified, when the callback is needed,
4384:Drivers/STM32F4xx_HAL_Driver/Src/stm32f4xx_hal_tim.c ****             the HAL_TIM_ErrorCallback could be implemented in the user file
4385:Drivers/STM32F4xx_HAL_Driver/Src/stm32f4xx_hal_tim.c ****    */
ARM GAS  /tmp/cc4tSQEQ.s 			page 242


4386:Drivers/STM32F4xx_HAL_Driver/Src/stm32f4xx_hal_tim.c **** }
 9345              		.loc 1 4386 0
 9346 0008 00BF     		nop
 9347 000a 0C37     		adds	r7, r7, #12
 9348              	.LCFI423:
 9349              		.cfi_def_cfa_offset 4
 9350 000c BD46     		mov	sp, r7
 9351              	.LCFI424:
 9352              		.cfi_def_cfa_register 13
 9353              		@ sp needed
 9354 000e 5DF8047B 		ldr	r7, [sp], #4
 9355              	.LCFI425:
 9356              		.cfi_restore 7
 9357              		.cfi_def_cfa_offset 0
 9358 0012 7047     		bx	lr
 9359              		.cfi_endproc
 9360              	.LFE203:
 9362              		.section	.text.HAL_TIM_Base_GetState,"ax",%progbits
 9363              		.align	1
 9364              		.global	HAL_TIM_Base_GetState
 9365              		.syntax unified
 9366              		.thumb
 9367              		.thumb_func
 9368              		.fpu fpv4-sp-d16
 9370              	HAL_TIM_Base_GetState:
 9371              	.LFB204:
4387:Drivers/STM32F4xx_HAL_Driver/Src/stm32f4xx_hal_tim.c **** /**
4388:Drivers/STM32F4xx_HAL_Driver/Src/stm32f4xx_hal_tim.c ****   * @}
4389:Drivers/STM32F4xx_HAL_Driver/Src/stm32f4xx_hal_tim.c ****   */
4390:Drivers/STM32F4xx_HAL_Driver/Src/stm32f4xx_hal_tim.c **** 
4391:Drivers/STM32F4xx_HAL_Driver/Src/stm32f4xx_hal_tim.c **** /** @defgroup TIM_Exported_Functions_Group10 Peripheral State functions 
4392:Drivers/STM32F4xx_HAL_Driver/Src/stm32f4xx_hal_tim.c ****  *  @brief   Peripheral State functions 
4393:Drivers/STM32F4xx_HAL_Driver/Src/stm32f4xx_hal_tim.c ****  *
4394:Drivers/STM32F4xx_HAL_Driver/Src/stm32f4xx_hal_tim.c **** @verbatim   
4395:Drivers/STM32F4xx_HAL_Driver/Src/stm32f4xx_hal_tim.c ****   ==============================================================================
4396:Drivers/STM32F4xx_HAL_Driver/Src/stm32f4xx_hal_tim.c ****                         ##### Peripheral State functions #####
4397:Drivers/STM32F4xx_HAL_Driver/Src/stm32f4xx_hal_tim.c ****   ==============================================================================  
4398:Drivers/STM32F4xx_HAL_Driver/Src/stm32f4xx_hal_tim.c ****   [..]
4399:Drivers/STM32F4xx_HAL_Driver/Src/stm32f4xx_hal_tim.c ****     This subsection permits to get in run-time the status of the peripheral 
4400:Drivers/STM32F4xx_HAL_Driver/Src/stm32f4xx_hal_tim.c ****     and the data flow.
4401:Drivers/STM32F4xx_HAL_Driver/Src/stm32f4xx_hal_tim.c **** 
4402:Drivers/STM32F4xx_HAL_Driver/Src/stm32f4xx_hal_tim.c **** @endverbatim
4403:Drivers/STM32F4xx_HAL_Driver/Src/stm32f4xx_hal_tim.c ****   * @{
4404:Drivers/STM32F4xx_HAL_Driver/Src/stm32f4xx_hal_tim.c ****   */
4405:Drivers/STM32F4xx_HAL_Driver/Src/stm32f4xx_hal_tim.c **** 
4406:Drivers/STM32F4xx_HAL_Driver/Src/stm32f4xx_hal_tim.c **** /**
4407:Drivers/STM32F4xx_HAL_Driver/Src/stm32f4xx_hal_tim.c ****   * @brief  Return the TIM Base state
4408:Drivers/STM32F4xx_HAL_Driver/Src/stm32f4xx_hal_tim.c ****   * @param  htim pointer to a TIM_HandleTypeDef structure that contains
4409:Drivers/STM32F4xx_HAL_Driver/Src/stm32f4xx_hal_tim.c ****   *                the configuration information for TIM module.
4410:Drivers/STM32F4xx_HAL_Driver/Src/stm32f4xx_hal_tim.c ****   * @retval HAL state
4411:Drivers/STM32F4xx_HAL_Driver/Src/stm32f4xx_hal_tim.c ****   */
4412:Drivers/STM32F4xx_HAL_Driver/Src/stm32f4xx_hal_tim.c **** HAL_TIM_StateTypeDef HAL_TIM_Base_GetState(TIM_HandleTypeDef *htim)
4413:Drivers/STM32F4xx_HAL_Driver/Src/stm32f4xx_hal_tim.c **** {
 9372              		.loc 1 4413 0
 9373              		.cfi_startproc
 9374              		@ args = 0, pretend = 0, frame = 8
 9375              		@ frame_needed = 1, uses_anonymous_args = 0
ARM GAS  /tmp/cc4tSQEQ.s 			page 243


 9376              		@ link register save eliminated.
 9377 0000 80B4     		push	{r7}
 9378              	.LCFI426:
 9379              		.cfi_def_cfa_offset 4
 9380              		.cfi_offset 7, -4
 9381 0002 83B0     		sub	sp, sp, #12
 9382              	.LCFI427:
 9383              		.cfi_def_cfa_offset 16
 9384 0004 00AF     		add	r7, sp, #0
 9385              	.LCFI428:
 9386              		.cfi_def_cfa_register 7
 9387 0006 7860     		str	r0, [r7, #4]
4414:Drivers/STM32F4xx_HAL_Driver/Src/stm32f4xx_hal_tim.c ****   return htim->State;
 9388              		.loc 1 4414 0
 9389 0008 7B68     		ldr	r3, [r7, #4]
 9390 000a 93F83930 		ldrb	r3, [r3, #57]
 9391 000e DBB2     		uxtb	r3, r3
4415:Drivers/STM32F4xx_HAL_Driver/Src/stm32f4xx_hal_tim.c **** }
 9392              		.loc 1 4415 0
 9393 0010 1846     		mov	r0, r3
 9394 0012 0C37     		adds	r7, r7, #12
 9395              	.LCFI429:
 9396              		.cfi_def_cfa_offset 4
 9397 0014 BD46     		mov	sp, r7
 9398              	.LCFI430:
 9399              		.cfi_def_cfa_register 13
 9400              		@ sp needed
 9401 0016 5DF8047B 		ldr	r7, [sp], #4
 9402              	.LCFI431:
 9403              		.cfi_restore 7
 9404              		.cfi_def_cfa_offset 0
 9405 001a 7047     		bx	lr
 9406              		.cfi_endproc
 9407              	.LFE204:
 9409              		.section	.text.HAL_TIM_OC_GetState,"ax",%progbits
 9410              		.align	1
 9411              		.global	HAL_TIM_OC_GetState
 9412              		.syntax unified
 9413              		.thumb
 9414              		.thumb_func
 9415              		.fpu fpv4-sp-d16
 9417              	HAL_TIM_OC_GetState:
 9418              	.LFB205:
4416:Drivers/STM32F4xx_HAL_Driver/Src/stm32f4xx_hal_tim.c **** 
4417:Drivers/STM32F4xx_HAL_Driver/Src/stm32f4xx_hal_tim.c **** /**
4418:Drivers/STM32F4xx_HAL_Driver/Src/stm32f4xx_hal_tim.c ****   * @brief  Return the TIM OC state
4419:Drivers/STM32F4xx_HAL_Driver/Src/stm32f4xx_hal_tim.c ****   * @param  htim pointer to a TIM_HandleTypeDef structure that contains
4420:Drivers/STM32F4xx_HAL_Driver/Src/stm32f4xx_hal_tim.c ****   *                the configuration information for TIM module.
4421:Drivers/STM32F4xx_HAL_Driver/Src/stm32f4xx_hal_tim.c ****   * @retval HAL state
4422:Drivers/STM32F4xx_HAL_Driver/Src/stm32f4xx_hal_tim.c ****   */
4423:Drivers/STM32F4xx_HAL_Driver/Src/stm32f4xx_hal_tim.c **** HAL_TIM_StateTypeDef HAL_TIM_OC_GetState(TIM_HandleTypeDef *htim)
4424:Drivers/STM32F4xx_HAL_Driver/Src/stm32f4xx_hal_tim.c **** {
 9419              		.loc 1 4424 0
 9420              		.cfi_startproc
 9421              		@ args = 0, pretend = 0, frame = 8
 9422              		@ frame_needed = 1, uses_anonymous_args = 0
 9423              		@ link register save eliminated.
ARM GAS  /tmp/cc4tSQEQ.s 			page 244


 9424 0000 80B4     		push	{r7}
 9425              	.LCFI432:
 9426              		.cfi_def_cfa_offset 4
 9427              		.cfi_offset 7, -4
 9428 0002 83B0     		sub	sp, sp, #12
 9429              	.LCFI433:
 9430              		.cfi_def_cfa_offset 16
 9431 0004 00AF     		add	r7, sp, #0
 9432              	.LCFI434:
 9433              		.cfi_def_cfa_register 7
 9434 0006 7860     		str	r0, [r7, #4]
4425:Drivers/STM32F4xx_HAL_Driver/Src/stm32f4xx_hal_tim.c ****   return htim->State;
 9435              		.loc 1 4425 0
 9436 0008 7B68     		ldr	r3, [r7, #4]
 9437 000a 93F83930 		ldrb	r3, [r3, #57]
 9438 000e DBB2     		uxtb	r3, r3
4426:Drivers/STM32F4xx_HAL_Driver/Src/stm32f4xx_hal_tim.c **** }
 9439              		.loc 1 4426 0
 9440 0010 1846     		mov	r0, r3
 9441 0012 0C37     		adds	r7, r7, #12
 9442              	.LCFI435:
 9443              		.cfi_def_cfa_offset 4
 9444 0014 BD46     		mov	sp, r7
 9445              	.LCFI436:
 9446              		.cfi_def_cfa_register 13
 9447              		@ sp needed
 9448 0016 5DF8047B 		ldr	r7, [sp], #4
 9449              	.LCFI437:
 9450              		.cfi_restore 7
 9451              		.cfi_def_cfa_offset 0
 9452 001a 7047     		bx	lr
 9453              		.cfi_endproc
 9454              	.LFE205:
 9456              		.section	.text.HAL_TIM_PWM_GetState,"ax",%progbits
 9457              		.align	1
 9458              		.global	HAL_TIM_PWM_GetState
 9459              		.syntax unified
 9460              		.thumb
 9461              		.thumb_func
 9462              		.fpu fpv4-sp-d16
 9464              	HAL_TIM_PWM_GetState:
 9465              	.LFB206:
4427:Drivers/STM32F4xx_HAL_Driver/Src/stm32f4xx_hal_tim.c **** 
4428:Drivers/STM32F4xx_HAL_Driver/Src/stm32f4xx_hal_tim.c **** /**
4429:Drivers/STM32F4xx_HAL_Driver/Src/stm32f4xx_hal_tim.c ****   * @brief  Return the TIM PWM state
4430:Drivers/STM32F4xx_HAL_Driver/Src/stm32f4xx_hal_tim.c ****   * @param  htim pointer to a TIM_HandleTypeDef structure that contains
4431:Drivers/STM32F4xx_HAL_Driver/Src/stm32f4xx_hal_tim.c ****   *                the configuration information for TIM module.
4432:Drivers/STM32F4xx_HAL_Driver/Src/stm32f4xx_hal_tim.c ****   * @retval HAL state
4433:Drivers/STM32F4xx_HAL_Driver/Src/stm32f4xx_hal_tim.c ****   */
4434:Drivers/STM32F4xx_HAL_Driver/Src/stm32f4xx_hal_tim.c **** HAL_TIM_StateTypeDef HAL_TIM_PWM_GetState(TIM_HandleTypeDef *htim)
4435:Drivers/STM32F4xx_HAL_Driver/Src/stm32f4xx_hal_tim.c **** {
 9466              		.loc 1 4435 0
 9467              		.cfi_startproc
 9468              		@ args = 0, pretend = 0, frame = 8
 9469              		@ frame_needed = 1, uses_anonymous_args = 0
 9470              		@ link register save eliminated.
 9471 0000 80B4     		push	{r7}
ARM GAS  /tmp/cc4tSQEQ.s 			page 245


 9472              	.LCFI438:
 9473              		.cfi_def_cfa_offset 4
 9474              		.cfi_offset 7, -4
 9475 0002 83B0     		sub	sp, sp, #12
 9476              	.LCFI439:
 9477              		.cfi_def_cfa_offset 16
 9478 0004 00AF     		add	r7, sp, #0
 9479              	.LCFI440:
 9480              		.cfi_def_cfa_register 7
 9481 0006 7860     		str	r0, [r7, #4]
4436:Drivers/STM32F4xx_HAL_Driver/Src/stm32f4xx_hal_tim.c ****   return htim->State;
 9482              		.loc 1 4436 0
 9483 0008 7B68     		ldr	r3, [r7, #4]
 9484 000a 93F83930 		ldrb	r3, [r3, #57]
 9485 000e DBB2     		uxtb	r3, r3
4437:Drivers/STM32F4xx_HAL_Driver/Src/stm32f4xx_hal_tim.c **** }
 9486              		.loc 1 4437 0
 9487 0010 1846     		mov	r0, r3
 9488 0012 0C37     		adds	r7, r7, #12
 9489              	.LCFI441:
 9490              		.cfi_def_cfa_offset 4
 9491 0014 BD46     		mov	sp, r7
 9492              	.LCFI442:
 9493              		.cfi_def_cfa_register 13
 9494              		@ sp needed
 9495 0016 5DF8047B 		ldr	r7, [sp], #4
 9496              	.LCFI443:
 9497              		.cfi_restore 7
 9498              		.cfi_def_cfa_offset 0
 9499 001a 7047     		bx	lr
 9500              		.cfi_endproc
 9501              	.LFE206:
 9503              		.section	.text.HAL_TIM_IC_GetState,"ax",%progbits
 9504              		.align	1
 9505              		.global	HAL_TIM_IC_GetState
 9506              		.syntax unified
 9507              		.thumb
 9508              		.thumb_func
 9509              		.fpu fpv4-sp-d16
 9511              	HAL_TIM_IC_GetState:
 9512              	.LFB207:
4438:Drivers/STM32F4xx_HAL_Driver/Src/stm32f4xx_hal_tim.c **** 
4439:Drivers/STM32F4xx_HAL_Driver/Src/stm32f4xx_hal_tim.c **** /**
4440:Drivers/STM32F4xx_HAL_Driver/Src/stm32f4xx_hal_tim.c ****   * @brief  Return the TIM Input Capture state
4441:Drivers/STM32F4xx_HAL_Driver/Src/stm32f4xx_hal_tim.c ****   * @param  htim pointer to a TIM_HandleTypeDef structure that contains
4442:Drivers/STM32F4xx_HAL_Driver/Src/stm32f4xx_hal_tim.c ****   *                the configuration information for TIM module.
4443:Drivers/STM32F4xx_HAL_Driver/Src/stm32f4xx_hal_tim.c ****   * @retval HAL state
4444:Drivers/STM32F4xx_HAL_Driver/Src/stm32f4xx_hal_tim.c ****   */
4445:Drivers/STM32F4xx_HAL_Driver/Src/stm32f4xx_hal_tim.c **** HAL_TIM_StateTypeDef HAL_TIM_IC_GetState(TIM_HandleTypeDef *htim)
4446:Drivers/STM32F4xx_HAL_Driver/Src/stm32f4xx_hal_tim.c **** {
 9513              		.loc 1 4446 0
 9514              		.cfi_startproc
 9515              		@ args = 0, pretend = 0, frame = 8
 9516              		@ frame_needed = 1, uses_anonymous_args = 0
 9517              		@ link register save eliminated.
 9518 0000 80B4     		push	{r7}
 9519              	.LCFI444:
ARM GAS  /tmp/cc4tSQEQ.s 			page 246


 9520              		.cfi_def_cfa_offset 4
 9521              		.cfi_offset 7, -4
 9522 0002 83B0     		sub	sp, sp, #12
 9523              	.LCFI445:
 9524              		.cfi_def_cfa_offset 16
 9525 0004 00AF     		add	r7, sp, #0
 9526              	.LCFI446:
 9527              		.cfi_def_cfa_register 7
 9528 0006 7860     		str	r0, [r7, #4]
4447:Drivers/STM32F4xx_HAL_Driver/Src/stm32f4xx_hal_tim.c ****   return htim->State;
 9529              		.loc 1 4447 0
 9530 0008 7B68     		ldr	r3, [r7, #4]
 9531 000a 93F83930 		ldrb	r3, [r3, #57]
 9532 000e DBB2     		uxtb	r3, r3
4448:Drivers/STM32F4xx_HAL_Driver/Src/stm32f4xx_hal_tim.c **** }
 9533              		.loc 1 4448 0
 9534 0010 1846     		mov	r0, r3
 9535 0012 0C37     		adds	r7, r7, #12
 9536              	.LCFI447:
 9537              		.cfi_def_cfa_offset 4
 9538 0014 BD46     		mov	sp, r7
 9539              	.LCFI448:
 9540              		.cfi_def_cfa_register 13
 9541              		@ sp needed
 9542 0016 5DF8047B 		ldr	r7, [sp], #4
 9543              	.LCFI449:
 9544              		.cfi_restore 7
 9545              		.cfi_def_cfa_offset 0
 9546 001a 7047     		bx	lr
 9547              		.cfi_endproc
 9548              	.LFE207:
 9550              		.section	.text.HAL_TIM_OnePulse_GetState,"ax",%progbits
 9551              		.align	1
 9552              		.global	HAL_TIM_OnePulse_GetState
 9553              		.syntax unified
 9554              		.thumb
 9555              		.thumb_func
 9556              		.fpu fpv4-sp-d16
 9558              	HAL_TIM_OnePulse_GetState:
 9559              	.LFB208:
4449:Drivers/STM32F4xx_HAL_Driver/Src/stm32f4xx_hal_tim.c **** 
4450:Drivers/STM32F4xx_HAL_Driver/Src/stm32f4xx_hal_tim.c **** /**
4451:Drivers/STM32F4xx_HAL_Driver/Src/stm32f4xx_hal_tim.c ****   * @brief  Return the TIM One Pulse Mode state
4452:Drivers/STM32F4xx_HAL_Driver/Src/stm32f4xx_hal_tim.c ****   * @param  htim pointer to a TIM_HandleTypeDef structure that contains
4453:Drivers/STM32F4xx_HAL_Driver/Src/stm32f4xx_hal_tim.c ****   *                the configuration information for TIM module.
4454:Drivers/STM32F4xx_HAL_Driver/Src/stm32f4xx_hal_tim.c ****   * @retval HAL state
4455:Drivers/STM32F4xx_HAL_Driver/Src/stm32f4xx_hal_tim.c ****   */
4456:Drivers/STM32F4xx_HAL_Driver/Src/stm32f4xx_hal_tim.c **** HAL_TIM_StateTypeDef HAL_TIM_OnePulse_GetState(TIM_HandleTypeDef *htim)
4457:Drivers/STM32F4xx_HAL_Driver/Src/stm32f4xx_hal_tim.c **** {
 9560              		.loc 1 4457 0
 9561              		.cfi_startproc
 9562              		@ args = 0, pretend = 0, frame = 8
 9563              		@ frame_needed = 1, uses_anonymous_args = 0
 9564              		@ link register save eliminated.
 9565 0000 80B4     		push	{r7}
 9566              	.LCFI450:
 9567              		.cfi_def_cfa_offset 4
ARM GAS  /tmp/cc4tSQEQ.s 			page 247


 9568              		.cfi_offset 7, -4
 9569 0002 83B0     		sub	sp, sp, #12
 9570              	.LCFI451:
 9571              		.cfi_def_cfa_offset 16
 9572 0004 00AF     		add	r7, sp, #0
 9573              	.LCFI452:
 9574              		.cfi_def_cfa_register 7
 9575 0006 7860     		str	r0, [r7, #4]
4458:Drivers/STM32F4xx_HAL_Driver/Src/stm32f4xx_hal_tim.c ****   return htim->State;
 9576              		.loc 1 4458 0
 9577 0008 7B68     		ldr	r3, [r7, #4]
 9578 000a 93F83930 		ldrb	r3, [r3, #57]
 9579 000e DBB2     		uxtb	r3, r3
4459:Drivers/STM32F4xx_HAL_Driver/Src/stm32f4xx_hal_tim.c **** }
 9580              		.loc 1 4459 0
 9581 0010 1846     		mov	r0, r3
 9582 0012 0C37     		adds	r7, r7, #12
 9583              	.LCFI453:
 9584              		.cfi_def_cfa_offset 4
 9585 0014 BD46     		mov	sp, r7
 9586              	.LCFI454:
 9587              		.cfi_def_cfa_register 13
 9588              		@ sp needed
 9589 0016 5DF8047B 		ldr	r7, [sp], #4
 9590              	.LCFI455:
 9591              		.cfi_restore 7
 9592              		.cfi_def_cfa_offset 0
 9593 001a 7047     		bx	lr
 9594              		.cfi_endproc
 9595              	.LFE208:
 9597              		.section	.text.HAL_TIM_Encoder_GetState,"ax",%progbits
 9598              		.align	1
 9599              		.global	HAL_TIM_Encoder_GetState
 9600              		.syntax unified
 9601              		.thumb
 9602              		.thumb_func
 9603              		.fpu fpv4-sp-d16
 9605              	HAL_TIM_Encoder_GetState:
 9606              	.LFB209:
4460:Drivers/STM32F4xx_HAL_Driver/Src/stm32f4xx_hal_tim.c **** 
4461:Drivers/STM32F4xx_HAL_Driver/Src/stm32f4xx_hal_tim.c **** /**
4462:Drivers/STM32F4xx_HAL_Driver/Src/stm32f4xx_hal_tim.c ****   * @brief  Return the TIM Encoder Mode state
4463:Drivers/STM32F4xx_HAL_Driver/Src/stm32f4xx_hal_tim.c ****   * @param  htim pointer to a TIM_HandleTypeDef structure that contains
4464:Drivers/STM32F4xx_HAL_Driver/Src/stm32f4xx_hal_tim.c ****   *                the configuration information for TIM module.
4465:Drivers/STM32F4xx_HAL_Driver/Src/stm32f4xx_hal_tim.c ****   * @retval HAL state
4466:Drivers/STM32F4xx_HAL_Driver/Src/stm32f4xx_hal_tim.c ****   */
4467:Drivers/STM32F4xx_HAL_Driver/Src/stm32f4xx_hal_tim.c **** HAL_TIM_StateTypeDef HAL_TIM_Encoder_GetState(TIM_HandleTypeDef *htim)
4468:Drivers/STM32F4xx_HAL_Driver/Src/stm32f4xx_hal_tim.c **** {
 9607              		.loc 1 4468 0
 9608              		.cfi_startproc
 9609              		@ args = 0, pretend = 0, frame = 8
 9610              		@ frame_needed = 1, uses_anonymous_args = 0
 9611              		@ link register save eliminated.
 9612 0000 80B4     		push	{r7}
 9613              	.LCFI456:
 9614              		.cfi_def_cfa_offset 4
 9615              		.cfi_offset 7, -4
ARM GAS  /tmp/cc4tSQEQ.s 			page 248


 9616 0002 83B0     		sub	sp, sp, #12
 9617              	.LCFI457:
 9618              		.cfi_def_cfa_offset 16
 9619 0004 00AF     		add	r7, sp, #0
 9620              	.LCFI458:
 9621              		.cfi_def_cfa_register 7
 9622 0006 7860     		str	r0, [r7, #4]
4469:Drivers/STM32F4xx_HAL_Driver/Src/stm32f4xx_hal_tim.c ****   return htim->State;
 9623              		.loc 1 4469 0
 9624 0008 7B68     		ldr	r3, [r7, #4]
 9625 000a 93F83930 		ldrb	r3, [r3, #57]
 9626 000e DBB2     		uxtb	r3, r3
4470:Drivers/STM32F4xx_HAL_Driver/Src/stm32f4xx_hal_tim.c **** }
 9627              		.loc 1 4470 0
 9628 0010 1846     		mov	r0, r3
 9629 0012 0C37     		adds	r7, r7, #12
 9630              	.LCFI459:
 9631              		.cfi_def_cfa_offset 4
 9632 0014 BD46     		mov	sp, r7
 9633              	.LCFI460:
 9634              		.cfi_def_cfa_register 13
 9635              		@ sp needed
 9636 0016 5DF8047B 		ldr	r7, [sp], #4
 9637              	.LCFI461:
 9638              		.cfi_restore 7
 9639              		.cfi_def_cfa_offset 0
 9640 001a 7047     		bx	lr
 9641              		.cfi_endproc
 9642              	.LFE209:
 9644              		.section	.text.TIM_Base_SetConfig,"ax",%progbits
 9645              		.align	1
 9646              		.global	TIM_Base_SetConfig
 9647              		.syntax unified
 9648              		.thumb
 9649              		.thumb_func
 9650              		.fpu fpv4-sp-d16
 9652              	TIM_Base_SetConfig:
 9653              	.LFB210:
4471:Drivers/STM32F4xx_HAL_Driver/Src/stm32f4xx_hal_tim.c **** /**
4472:Drivers/STM32F4xx_HAL_Driver/Src/stm32f4xx_hal_tim.c ****   * @}
4473:Drivers/STM32F4xx_HAL_Driver/Src/stm32f4xx_hal_tim.c ****   */
4474:Drivers/STM32F4xx_HAL_Driver/Src/stm32f4xx_hal_tim.c **** 
4475:Drivers/STM32F4xx_HAL_Driver/Src/stm32f4xx_hal_tim.c **** /**
4476:Drivers/STM32F4xx_HAL_Driver/Src/stm32f4xx_hal_tim.c ****   * @brief  Time Base configuration
4477:Drivers/STM32F4xx_HAL_Driver/Src/stm32f4xx_hal_tim.c ****   * @param  TIMx TIM peripheral
4478:Drivers/STM32F4xx_HAL_Driver/Src/stm32f4xx_hal_tim.c ****   * @param  Structure pointer on TIM Time Base required parameters  
4479:Drivers/STM32F4xx_HAL_Driver/Src/stm32f4xx_hal_tim.c ****   * @retval None
4480:Drivers/STM32F4xx_HAL_Driver/Src/stm32f4xx_hal_tim.c ****   */
4481:Drivers/STM32F4xx_HAL_Driver/Src/stm32f4xx_hal_tim.c **** void TIM_Base_SetConfig(TIM_TypeDef *TIMx, TIM_Base_InitTypeDef *Structure)
4482:Drivers/STM32F4xx_HAL_Driver/Src/stm32f4xx_hal_tim.c **** {
 9654              		.loc 1 4482 0
 9655              		.cfi_startproc
 9656              		@ args = 0, pretend = 0, frame = 16
 9657              		@ frame_needed = 1, uses_anonymous_args = 0
 9658              		@ link register save eliminated.
 9659 0000 80B4     		push	{r7}
 9660              	.LCFI462:
ARM GAS  /tmp/cc4tSQEQ.s 			page 249


 9661              		.cfi_def_cfa_offset 4
 9662              		.cfi_offset 7, -4
 9663 0002 85B0     		sub	sp, sp, #20
 9664              	.LCFI463:
 9665              		.cfi_def_cfa_offset 24
 9666 0004 00AF     		add	r7, sp, #0
 9667              	.LCFI464:
 9668              		.cfi_def_cfa_register 7
 9669 0006 7860     		str	r0, [r7, #4]
 9670 0008 3960     		str	r1, [r7]
4483:Drivers/STM32F4xx_HAL_Driver/Src/stm32f4xx_hal_tim.c ****   uint32_t tmpcr1 = 0U;
 9671              		.loc 1 4483 0
 9672 000a 0023     		movs	r3, #0
 9673 000c FB60     		str	r3, [r7, #12]
4484:Drivers/STM32F4xx_HAL_Driver/Src/stm32f4xx_hal_tim.c ****   tmpcr1 = TIMx->CR1;
 9674              		.loc 1 4484 0
 9675 000e 7B68     		ldr	r3, [r7, #4]
 9676 0010 1B68     		ldr	r3, [r3]
 9677 0012 FB60     		str	r3, [r7, #12]
4485:Drivers/STM32F4xx_HAL_Driver/Src/stm32f4xx_hal_tim.c ****   
4486:Drivers/STM32F4xx_HAL_Driver/Src/stm32f4xx_hal_tim.c ****   /* Set TIM Time Base Unit parameters ---------------------------------------*/
4487:Drivers/STM32F4xx_HAL_Driver/Src/stm32f4xx_hal_tim.c ****   if(IS_TIM_CC3_INSTANCE(TIMx) != RESET)   
 9678              		.loc 1 4487 0
 9679 0014 7B68     		ldr	r3, [r7, #4]
 9680 0016 354A     		ldr	r2, .L538
 9681 0018 9342     		cmp	r3, r2
 9682 001a 0FD0     		beq	.L529
 9683              		.loc 1 4487 0 is_stmt 0 discriminator 2
 9684 001c 7B68     		ldr	r3, [r7, #4]
 9685 001e B3F1804F 		cmp	r3, #1073741824
 9686 0022 0BD0     		beq	.L529
 9687              		.loc 1 4487 0 discriminator 4
 9688 0024 7B68     		ldr	r3, [r7, #4]
 9689 0026 324A     		ldr	r2, .L538+4
 9690 0028 9342     		cmp	r3, r2
 9691 002a 07D0     		beq	.L529
 9692              		.loc 1 4487 0 discriminator 6
 9693 002c 7B68     		ldr	r3, [r7, #4]
 9694 002e 314A     		ldr	r2, .L538+8
 9695 0030 9342     		cmp	r3, r2
 9696 0032 03D0     		beq	.L529
 9697              		.loc 1 4487 0 discriminator 8
 9698 0034 7B68     		ldr	r3, [r7, #4]
 9699 0036 304A     		ldr	r2, .L538+12
 9700 0038 9342     		cmp	r3, r2
 9701 003a 01D1     		bne	.L530
 9702              	.L529:
 9703              		.loc 1 4487 0 discriminator 9
 9704 003c 0123     		movs	r3, #1
 9705 003e 00E0     		b	.L531
 9706              	.L530:
 9707              		.loc 1 4487 0 discriminator 10
 9708 0040 0023     		movs	r3, #0
 9709              	.L531:
 9710              		.loc 1 4487 0 discriminator 12
 9711 0042 002B     		cmp	r3, #0
 9712 0044 08D0     		beq	.L532
ARM GAS  /tmp/cc4tSQEQ.s 			page 250


4488:Drivers/STM32F4xx_HAL_Driver/Src/stm32f4xx_hal_tim.c ****   {
4489:Drivers/STM32F4xx_HAL_Driver/Src/stm32f4xx_hal_tim.c ****     /* Select the Counter Mode */
4490:Drivers/STM32F4xx_HAL_Driver/Src/stm32f4xx_hal_tim.c ****     tmpcr1 &= ~(TIM_CR1_DIR | TIM_CR1_CMS);
 9713              		.loc 1 4490 0 is_stmt 1
 9714 0046 FB68     		ldr	r3, [r7, #12]
 9715 0048 23F07003 		bic	r3, r3, #112
 9716 004c FB60     		str	r3, [r7, #12]
4491:Drivers/STM32F4xx_HAL_Driver/Src/stm32f4xx_hal_tim.c ****     tmpcr1 |= Structure->CounterMode;
 9717              		.loc 1 4491 0
 9718 004e 3B68     		ldr	r3, [r7]
 9719 0050 5B68     		ldr	r3, [r3, #4]
 9720 0052 FA68     		ldr	r2, [r7, #12]
 9721 0054 1343     		orrs	r3, r3, r2
 9722 0056 FB60     		str	r3, [r7, #12]
 9723              	.L532:
4492:Drivers/STM32F4xx_HAL_Driver/Src/stm32f4xx_hal_tim.c ****   }
4493:Drivers/STM32F4xx_HAL_Driver/Src/stm32f4xx_hal_tim.c ****  
4494:Drivers/STM32F4xx_HAL_Driver/Src/stm32f4xx_hal_tim.c ****   if(IS_TIM_CC1_INSTANCE(TIMx) != RESET)  
 9724              		.loc 1 4494 0
 9725 0058 7B68     		ldr	r3, [r7, #4]
 9726 005a 244A     		ldr	r2, .L538
 9727 005c 9342     		cmp	r3, r2
 9728 005e 1BD0     		beq	.L533
 9729              		.loc 1 4494 0 is_stmt 0 discriminator 2
 9730 0060 7B68     		ldr	r3, [r7, #4]
 9731 0062 B3F1804F 		cmp	r3, #1073741824
 9732 0066 17D0     		beq	.L533
 9733              		.loc 1 4494 0 discriminator 4
 9734 0068 7B68     		ldr	r3, [r7, #4]
 9735 006a 214A     		ldr	r2, .L538+4
 9736 006c 9342     		cmp	r3, r2
 9737 006e 13D0     		beq	.L533
 9738              		.loc 1 4494 0 discriminator 6
 9739 0070 7B68     		ldr	r3, [r7, #4]
 9740 0072 204A     		ldr	r2, .L538+8
 9741 0074 9342     		cmp	r3, r2
 9742 0076 0FD0     		beq	.L533
 9743              		.loc 1 4494 0 discriminator 8
 9744 0078 7B68     		ldr	r3, [r7, #4]
 9745 007a 1F4A     		ldr	r2, .L538+12
 9746 007c 9342     		cmp	r3, r2
 9747 007e 0BD0     		beq	.L533
 9748              		.loc 1 4494 0 discriminator 10
 9749 0080 7B68     		ldr	r3, [r7, #4]
 9750 0082 1E4A     		ldr	r2, .L538+16
 9751 0084 9342     		cmp	r3, r2
 9752 0086 07D0     		beq	.L533
 9753              		.loc 1 4494 0 discriminator 12
 9754 0088 7B68     		ldr	r3, [r7, #4]
 9755 008a 1D4A     		ldr	r2, .L538+20
 9756 008c 9342     		cmp	r3, r2
 9757 008e 03D0     		beq	.L533
 9758              		.loc 1 4494 0 discriminator 14
 9759 0090 7B68     		ldr	r3, [r7, #4]
 9760 0092 1C4A     		ldr	r2, .L538+24
 9761 0094 9342     		cmp	r3, r2
 9762 0096 01D1     		bne	.L534
ARM GAS  /tmp/cc4tSQEQ.s 			page 251


 9763              	.L533:
 9764              		.loc 1 4494 0 discriminator 15
 9765 0098 0123     		movs	r3, #1
 9766 009a 00E0     		b	.L535
 9767              	.L534:
 9768              		.loc 1 4494 0 discriminator 16
 9769 009c 0023     		movs	r3, #0
 9770              	.L535:
 9771              		.loc 1 4494 0 discriminator 18
 9772 009e 002B     		cmp	r3, #0
 9773 00a0 08D0     		beq	.L536
4495:Drivers/STM32F4xx_HAL_Driver/Src/stm32f4xx_hal_tim.c ****   {
4496:Drivers/STM32F4xx_HAL_Driver/Src/stm32f4xx_hal_tim.c ****     /* Set the clock division */
4497:Drivers/STM32F4xx_HAL_Driver/Src/stm32f4xx_hal_tim.c ****     tmpcr1 &= ~TIM_CR1_CKD;
 9774              		.loc 1 4497 0 is_stmt 1
 9775 00a2 FB68     		ldr	r3, [r7, #12]
 9776 00a4 23F44073 		bic	r3, r3, #768
 9777 00a8 FB60     		str	r3, [r7, #12]
4498:Drivers/STM32F4xx_HAL_Driver/Src/stm32f4xx_hal_tim.c ****     tmpcr1 |= (uint32_t)Structure->ClockDivision;
 9778              		.loc 1 4498 0
 9779 00aa 3B68     		ldr	r3, [r7]
 9780 00ac DB68     		ldr	r3, [r3, #12]
 9781 00ae FA68     		ldr	r2, [r7, #12]
 9782 00b0 1343     		orrs	r3, r3, r2
 9783 00b2 FB60     		str	r3, [r7, #12]
 9784              	.L536:
4499:Drivers/STM32F4xx_HAL_Driver/Src/stm32f4xx_hal_tim.c ****   }
4500:Drivers/STM32F4xx_HAL_Driver/Src/stm32f4xx_hal_tim.c **** 
4501:Drivers/STM32F4xx_HAL_Driver/Src/stm32f4xx_hal_tim.c ****   TIMx->CR1 = tmpcr1;
 9785              		.loc 1 4501 0
 9786 00b4 7B68     		ldr	r3, [r7, #4]
 9787 00b6 FA68     		ldr	r2, [r7, #12]
 9788 00b8 1A60     		str	r2, [r3]
4502:Drivers/STM32F4xx_HAL_Driver/Src/stm32f4xx_hal_tim.c **** 
4503:Drivers/STM32F4xx_HAL_Driver/Src/stm32f4xx_hal_tim.c ****   /* Set the Auto-reload value */
4504:Drivers/STM32F4xx_HAL_Driver/Src/stm32f4xx_hal_tim.c ****   TIMx->ARR = (uint32_t)Structure->Period ;
 9789              		.loc 1 4504 0
 9790 00ba 3B68     		ldr	r3, [r7]
 9791 00bc 9A68     		ldr	r2, [r3, #8]
 9792 00be 7B68     		ldr	r3, [r7, #4]
 9793 00c0 DA62     		str	r2, [r3, #44]
4505:Drivers/STM32F4xx_HAL_Driver/Src/stm32f4xx_hal_tim.c ****  
4506:Drivers/STM32F4xx_HAL_Driver/Src/stm32f4xx_hal_tim.c ****   /* Set the Prescaler value */
4507:Drivers/STM32F4xx_HAL_Driver/Src/stm32f4xx_hal_tim.c ****   TIMx->PSC = (uint32_t)Structure->Prescaler;
 9794              		.loc 1 4507 0
 9795 00c2 3B68     		ldr	r3, [r7]
 9796 00c4 1A68     		ldr	r2, [r3]
 9797 00c6 7B68     		ldr	r3, [r7, #4]
 9798 00c8 9A62     		str	r2, [r3, #40]
4508:Drivers/STM32F4xx_HAL_Driver/Src/stm32f4xx_hal_tim.c ****     
4509:Drivers/STM32F4xx_HAL_Driver/Src/stm32f4xx_hal_tim.c ****   if(IS_TIM_ADVANCED_INSTANCE(TIMx) != RESET)  
 9799              		.loc 1 4509 0
 9800 00ca 7B68     		ldr	r3, [r7, #4]
 9801 00cc 074A     		ldr	r2, .L538
 9802 00ce 9342     		cmp	r3, r2
 9803 00d0 03D1     		bne	.L537
4510:Drivers/STM32F4xx_HAL_Driver/Src/stm32f4xx_hal_tim.c ****   {
ARM GAS  /tmp/cc4tSQEQ.s 			page 252


4511:Drivers/STM32F4xx_HAL_Driver/Src/stm32f4xx_hal_tim.c ****     /* Set the Repetition Counter value */
4512:Drivers/STM32F4xx_HAL_Driver/Src/stm32f4xx_hal_tim.c ****     TIMx->RCR = Structure->RepetitionCounter;
 9804              		.loc 1 4512 0
 9805 00d2 3B68     		ldr	r3, [r7]
 9806 00d4 1A69     		ldr	r2, [r3, #16]
 9807 00d6 7B68     		ldr	r3, [r7, #4]
 9808 00d8 1A63     		str	r2, [r3, #48]
 9809              	.L537:
4513:Drivers/STM32F4xx_HAL_Driver/Src/stm32f4xx_hal_tim.c ****   }
4514:Drivers/STM32F4xx_HAL_Driver/Src/stm32f4xx_hal_tim.c **** 
4515:Drivers/STM32F4xx_HAL_Driver/Src/stm32f4xx_hal_tim.c ****   /* Generate an update event to reload the Prescaler 
4516:Drivers/STM32F4xx_HAL_Driver/Src/stm32f4xx_hal_tim.c ****      and the repetition counter(only for TIM1 and TIM8) value immediately */
4517:Drivers/STM32F4xx_HAL_Driver/Src/stm32f4xx_hal_tim.c ****   TIMx->EGR = TIM_EGR_UG;
 9810              		.loc 1 4517 0
 9811 00da 7B68     		ldr	r3, [r7, #4]
 9812 00dc 0122     		movs	r2, #1
 9813 00de 5A61     		str	r2, [r3, #20]
4518:Drivers/STM32F4xx_HAL_Driver/Src/stm32f4xx_hal_tim.c **** }
 9814              		.loc 1 4518 0
 9815 00e0 00BF     		nop
 9816 00e2 1437     		adds	r7, r7, #20
 9817              	.LCFI465:
 9818              		.cfi_def_cfa_offset 4
 9819 00e4 BD46     		mov	sp, r7
 9820              	.LCFI466:
 9821              		.cfi_def_cfa_register 13
 9822              		@ sp needed
 9823 00e6 5DF8047B 		ldr	r7, [sp], #4
 9824              	.LCFI467:
 9825              		.cfi_restore 7
 9826              		.cfi_def_cfa_offset 0
 9827 00ea 7047     		bx	lr
 9828              	.L539:
 9829              		.align	2
 9830              	.L538:
 9831 00ec 00000140 		.word	1073807360
 9832 00f0 00040040 		.word	1073742848
 9833 00f4 00080040 		.word	1073743872
 9834 00f8 000C0040 		.word	1073744896
 9835 00fc 00400140 		.word	1073823744
 9836 0100 00440140 		.word	1073824768
 9837 0104 00480140 		.word	1073825792
 9838              		.cfi_endproc
 9839              	.LFE210:
 9841              		.section	.text.TIM_TI1_SetConfig,"ax",%progbits
 9842              		.align	1
 9843              		.global	TIM_TI1_SetConfig
 9844              		.syntax unified
 9845              		.thumb
 9846              		.thumb_func
 9847              		.fpu fpv4-sp-d16
 9849              	TIM_TI1_SetConfig:
 9850              	.LFB211:
4519:Drivers/STM32F4xx_HAL_Driver/Src/stm32f4xx_hal_tim.c **** 
4520:Drivers/STM32F4xx_HAL_Driver/Src/stm32f4xx_hal_tim.c **** /**
4521:Drivers/STM32F4xx_HAL_Driver/Src/stm32f4xx_hal_tim.c ****   * @brief  Configure the TI1 as Input.
4522:Drivers/STM32F4xx_HAL_Driver/Src/stm32f4xx_hal_tim.c ****   * @param  TIMx to select the TIM peripheral.
ARM GAS  /tmp/cc4tSQEQ.s 			page 253


4523:Drivers/STM32F4xx_HAL_Driver/Src/stm32f4xx_hal_tim.c ****   * @param  TIM_ICPolarity  The Input Polarity.
4524:Drivers/STM32F4xx_HAL_Driver/Src/stm32f4xx_hal_tim.c ****   *          This parameter can be one of the following values:
4525:Drivers/STM32F4xx_HAL_Driver/Src/stm32f4xx_hal_tim.c ****   *            @arg TIM_ICPolarity_Rising
4526:Drivers/STM32F4xx_HAL_Driver/Src/stm32f4xx_hal_tim.c ****   *            @arg TIM_ICPolarity_Falling
4527:Drivers/STM32F4xx_HAL_Driver/Src/stm32f4xx_hal_tim.c ****   *            @arg TIM_ICPolarity_BothEdge  
4528:Drivers/STM32F4xx_HAL_Driver/Src/stm32f4xx_hal_tim.c ****   * @param  TIM_ICSelection specifies the input to be used.
4529:Drivers/STM32F4xx_HAL_Driver/Src/stm32f4xx_hal_tim.c ****   *          This parameter can be one of the following values:
4530:Drivers/STM32F4xx_HAL_Driver/Src/stm32f4xx_hal_tim.c ****   *            @arg TIM_ICSelection_DirectTI: TIM Input 1 is selected to be connected to IC1.
4531:Drivers/STM32F4xx_HAL_Driver/Src/stm32f4xx_hal_tim.c ****   *            @arg TIM_ICSelection_IndirectTI: TIM Input 1 is selected to be connected to IC2.
4532:Drivers/STM32F4xx_HAL_Driver/Src/stm32f4xx_hal_tim.c ****   *            @arg TIM_ICSelection_TRC: TIM Input 1 is selected to be connected to TRC.
4533:Drivers/STM32F4xx_HAL_Driver/Src/stm32f4xx_hal_tim.c ****   * @param  TIM_ICFilter Specifies the Input Capture Filter.
4534:Drivers/STM32F4xx_HAL_Driver/Src/stm32f4xx_hal_tim.c ****   *          This parameter must be a value between 0x00 and 0x0F.
4535:Drivers/STM32F4xx_HAL_Driver/Src/stm32f4xx_hal_tim.c ****   * @note TIM_ICFilter and TIM_ICPolarity are not used in INDIRECT mode as TI2FP1 
4536:Drivers/STM32F4xx_HAL_Driver/Src/stm32f4xx_hal_tim.c ****   *       (on channel2 path) is used as the input signal. Therefore CCMR1 must be 
4537:Drivers/STM32F4xx_HAL_Driver/Src/stm32f4xx_hal_tim.c ****   *        protected against un-initialized filter and polarity values.
4538:Drivers/STM32F4xx_HAL_Driver/Src/stm32f4xx_hal_tim.c ****   * @retval None
4539:Drivers/STM32F4xx_HAL_Driver/Src/stm32f4xx_hal_tim.c ****   */
4540:Drivers/STM32F4xx_HAL_Driver/Src/stm32f4xx_hal_tim.c **** void TIM_TI1_SetConfig(TIM_TypeDef *TIMx, uint32_t TIM_ICPolarity, uint32_t TIM_ICSelection,
4541:Drivers/STM32F4xx_HAL_Driver/Src/stm32f4xx_hal_tim.c ****                        uint32_t TIM_ICFilter)
4542:Drivers/STM32F4xx_HAL_Driver/Src/stm32f4xx_hal_tim.c **** {
 9851              		.loc 1 4542 0
 9852              		.cfi_startproc
 9853              		@ args = 0, pretend = 0, frame = 24
 9854              		@ frame_needed = 1, uses_anonymous_args = 0
 9855              		@ link register save eliminated.
 9856 0000 80B4     		push	{r7}
 9857              	.LCFI468:
 9858              		.cfi_def_cfa_offset 4
 9859              		.cfi_offset 7, -4
 9860 0002 87B0     		sub	sp, sp, #28
 9861              	.LCFI469:
 9862              		.cfi_def_cfa_offset 32
 9863 0004 00AF     		add	r7, sp, #0
 9864              	.LCFI470:
 9865              		.cfi_def_cfa_register 7
 9866 0006 F860     		str	r0, [r7, #12]
 9867 0008 B960     		str	r1, [r7, #8]
 9868 000a 7A60     		str	r2, [r7, #4]
 9869 000c 3B60     		str	r3, [r7]
4543:Drivers/STM32F4xx_HAL_Driver/Src/stm32f4xx_hal_tim.c ****   uint32_t tmpccmr1 = 0U;
 9870              		.loc 1 4543 0
 9871 000e 0023     		movs	r3, #0
 9872 0010 7B61     		str	r3, [r7, #20]
4544:Drivers/STM32F4xx_HAL_Driver/Src/stm32f4xx_hal_tim.c ****   uint32_t tmpccer = 0U;
 9873              		.loc 1 4544 0
 9874 0012 0023     		movs	r3, #0
 9875 0014 3B61     		str	r3, [r7, #16]
4545:Drivers/STM32F4xx_HAL_Driver/Src/stm32f4xx_hal_tim.c ****   
4546:Drivers/STM32F4xx_HAL_Driver/Src/stm32f4xx_hal_tim.c ****   /* Disable the Channel 1: Reset the CC1E Bit */
4547:Drivers/STM32F4xx_HAL_Driver/Src/stm32f4xx_hal_tim.c ****   TIMx->CCER &= ~TIM_CCER_CC1E;
 9876              		.loc 1 4547 0
 9877 0016 FB68     		ldr	r3, [r7, #12]
 9878 0018 1B6A     		ldr	r3, [r3, #32]
 9879 001a 23F00102 		bic	r2, r3, #1
 9880 001e FB68     		ldr	r3, [r7, #12]
 9881 0020 1A62     		str	r2, [r3, #32]
4548:Drivers/STM32F4xx_HAL_Driver/Src/stm32f4xx_hal_tim.c ****   tmpccmr1 = TIMx->CCMR1;
ARM GAS  /tmp/cc4tSQEQ.s 			page 254


 9882              		.loc 1 4548 0
 9883 0022 FB68     		ldr	r3, [r7, #12]
 9884 0024 9B69     		ldr	r3, [r3, #24]
 9885 0026 7B61     		str	r3, [r7, #20]
4549:Drivers/STM32F4xx_HAL_Driver/Src/stm32f4xx_hal_tim.c ****   tmpccer = TIMx->CCER;
 9886              		.loc 1 4549 0
 9887 0028 FB68     		ldr	r3, [r7, #12]
 9888 002a 1B6A     		ldr	r3, [r3, #32]
 9889 002c 3B61     		str	r3, [r7, #16]
4550:Drivers/STM32F4xx_HAL_Driver/Src/stm32f4xx_hal_tim.c **** 
4551:Drivers/STM32F4xx_HAL_Driver/Src/stm32f4xx_hal_tim.c ****   /* Select the Input */
4552:Drivers/STM32F4xx_HAL_Driver/Src/stm32f4xx_hal_tim.c ****   if(IS_TIM_CC2_INSTANCE(TIMx) != RESET)
 9890              		.loc 1 4552 0
 9891 002e FB68     		ldr	r3, [r7, #12]
 9892 0030 264A     		ldr	r2, .L546
 9893 0032 9342     		cmp	r3, r2
 9894 0034 13D0     		beq	.L541
 9895              		.loc 1 4552 0 is_stmt 0 discriminator 2
 9896 0036 FB68     		ldr	r3, [r7, #12]
 9897 0038 B3F1804F 		cmp	r3, #1073741824
 9898 003c 0FD0     		beq	.L541
 9899              		.loc 1 4552 0 discriminator 4
 9900 003e FB68     		ldr	r3, [r7, #12]
 9901 0040 234A     		ldr	r2, .L546+4
 9902 0042 9342     		cmp	r3, r2
 9903 0044 0BD0     		beq	.L541
 9904              		.loc 1 4552 0 discriminator 6
 9905 0046 FB68     		ldr	r3, [r7, #12]
 9906 0048 224A     		ldr	r2, .L546+8
 9907 004a 9342     		cmp	r3, r2
 9908 004c 07D0     		beq	.L541
 9909              		.loc 1 4552 0 discriminator 8
 9910 004e FB68     		ldr	r3, [r7, #12]
 9911 0050 214A     		ldr	r2, .L546+12
 9912 0052 9342     		cmp	r3, r2
 9913 0054 03D0     		beq	.L541
 9914              		.loc 1 4552 0 discriminator 10
 9915 0056 FB68     		ldr	r3, [r7, #12]
 9916 0058 204A     		ldr	r2, .L546+16
 9917 005a 9342     		cmp	r3, r2
 9918 005c 01D1     		bne	.L542
 9919              	.L541:
 9920              		.loc 1 4552 0 discriminator 11
 9921 005e 0123     		movs	r3, #1
 9922 0060 00E0     		b	.L543
 9923              	.L542:
 9924              		.loc 1 4552 0 discriminator 12
 9925 0062 0023     		movs	r3, #0
 9926              	.L543:
 9927              		.loc 1 4552 0 discriminator 14
 9928 0064 002B     		cmp	r3, #0
 9929 0066 08D0     		beq	.L544
4553:Drivers/STM32F4xx_HAL_Driver/Src/stm32f4xx_hal_tim.c ****   {
4554:Drivers/STM32F4xx_HAL_Driver/Src/stm32f4xx_hal_tim.c ****     tmpccmr1 &= ~TIM_CCMR1_CC1S;
 9930              		.loc 1 4554 0 is_stmt 1
 9931 0068 7B69     		ldr	r3, [r7, #20]
 9932 006a 23F00303 		bic	r3, r3, #3
ARM GAS  /tmp/cc4tSQEQ.s 			page 255


 9933 006e 7B61     		str	r3, [r7, #20]
4555:Drivers/STM32F4xx_HAL_Driver/Src/stm32f4xx_hal_tim.c ****     tmpccmr1 |= TIM_ICSelection;
 9934              		.loc 1 4555 0
 9935 0070 7A69     		ldr	r2, [r7, #20]
 9936 0072 7B68     		ldr	r3, [r7, #4]
 9937 0074 1343     		orrs	r3, r3, r2
 9938 0076 7B61     		str	r3, [r7, #20]
 9939 0078 07E0     		b	.L545
 9940              	.L544:
4556:Drivers/STM32F4xx_HAL_Driver/Src/stm32f4xx_hal_tim.c ****   } 
4557:Drivers/STM32F4xx_HAL_Driver/Src/stm32f4xx_hal_tim.c ****   else
4558:Drivers/STM32F4xx_HAL_Driver/Src/stm32f4xx_hal_tim.c ****   {
4559:Drivers/STM32F4xx_HAL_Driver/Src/stm32f4xx_hal_tim.c ****     tmpccmr1 &= ~TIM_CCMR1_CC1S;
 9941              		.loc 1 4559 0
 9942 007a 7B69     		ldr	r3, [r7, #20]
 9943 007c 23F00303 		bic	r3, r3, #3
 9944 0080 7B61     		str	r3, [r7, #20]
4560:Drivers/STM32F4xx_HAL_Driver/Src/stm32f4xx_hal_tim.c ****     tmpccmr1 |= TIM_CCMR1_CC1S_0;
 9945              		.loc 1 4560 0
 9946 0082 7B69     		ldr	r3, [r7, #20]
 9947 0084 43F00103 		orr	r3, r3, #1
 9948 0088 7B61     		str	r3, [r7, #20]
 9949              	.L545:
4561:Drivers/STM32F4xx_HAL_Driver/Src/stm32f4xx_hal_tim.c ****   }
4562:Drivers/STM32F4xx_HAL_Driver/Src/stm32f4xx_hal_tim.c **** 
4563:Drivers/STM32F4xx_HAL_Driver/Src/stm32f4xx_hal_tim.c ****   /* Set the filter */
4564:Drivers/STM32F4xx_HAL_Driver/Src/stm32f4xx_hal_tim.c ****   tmpccmr1 &= ~TIM_CCMR1_IC1F;
 9950              		.loc 1 4564 0
 9951 008a 7B69     		ldr	r3, [r7, #20]
 9952 008c 23F0F003 		bic	r3, r3, #240
 9953 0090 7B61     		str	r3, [r7, #20]
4565:Drivers/STM32F4xx_HAL_Driver/Src/stm32f4xx_hal_tim.c ****   tmpccmr1 |= ((TIM_ICFilter << 4U) & TIM_CCMR1_IC1F);
 9954              		.loc 1 4565 0
 9955 0092 3B68     		ldr	r3, [r7]
 9956 0094 1B01     		lsls	r3, r3, #4
 9957 0096 DBB2     		uxtb	r3, r3
 9958 0098 7A69     		ldr	r2, [r7, #20]
 9959 009a 1343     		orrs	r3, r3, r2
 9960 009c 7B61     		str	r3, [r7, #20]
4566:Drivers/STM32F4xx_HAL_Driver/Src/stm32f4xx_hal_tim.c **** 
4567:Drivers/STM32F4xx_HAL_Driver/Src/stm32f4xx_hal_tim.c ****   /* Select the Polarity and set the CC1E Bit */
4568:Drivers/STM32F4xx_HAL_Driver/Src/stm32f4xx_hal_tim.c ****   tmpccer &= ~(TIM_CCER_CC1P | TIM_CCER_CC1NP);
 9961              		.loc 1 4568 0
 9962 009e 3B69     		ldr	r3, [r7, #16]
 9963 00a0 23F00A03 		bic	r3, r3, #10
 9964 00a4 3B61     		str	r3, [r7, #16]
4569:Drivers/STM32F4xx_HAL_Driver/Src/stm32f4xx_hal_tim.c ****   tmpccer |= (TIM_ICPolarity & (TIM_CCER_CC1P | TIM_CCER_CC1NP));
 9965              		.loc 1 4569 0
 9966 00a6 BB68     		ldr	r3, [r7, #8]
 9967 00a8 03F00A03 		and	r3, r3, #10
 9968 00ac 3A69     		ldr	r2, [r7, #16]
 9969 00ae 1343     		orrs	r3, r3, r2
 9970 00b0 3B61     		str	r3, [r7, #16]
4570:Drivers/STM32F4xx_HAL_Driver/Src/stm32f4xx_hal_tim.c **** 
4571:Drivers/STM32F4xx_HAL_Driver/Src/stm32f4xx_hal_tim.c ****   /* Write to TIMx CCMR1 and CCER registers */
4572:Drivers/STM32F4xx_HAL_Driver/Src/stm32f4xx_hal_tim.c ****   TIMx->CCMR1 = tmpccmr1;
 9971              		.loc 1 4572 0
ARM GAS  /tmp/cc4tSQEQ.s 			page 256


 9972 00b2 FB68     		ldr	r3, [r7, #12]
 9973 00b4 7A69     		ldr	r2, [r7, #20]
 9974 00b6 9A61     		str	r2, [r3, #24]
4573:Drivers/STM32F4xx_HAL_Driver/Src/stm32f4xx_hal_tim.c ****   TIMx->CCER = tmpccer;
 9975              		.loc 1 4573 0
 9976 00b8 FB68     		ldr	r3, [r7, #12]
 9977 00ba 3A69     		ldr	r2, [r7, #16]
 9978 00bc 1A62     		str	r2, [r3, #32]
4574:Drivers/STM32F4xx_HAL_Driver/Src/stm32f4xx_hal_tim.c **** }
 9979              		.loc 1 4574 0
 9980 00be 00BF     		nop
 9981 00c0 1C37     		adds	r7, r7, #28
 9982              	.LCFI471:
 9983              		.cfi_def_cfa_offset 4
 9984 00c2 BD46     		mov	sp, r7
 9985              	.LCFI472:
 9986              		.cfi_def_cfa_register 13
 9987              		@ sp needed
 9988 00c4 5DF8047B 		ldr	r7, [sp], #4
 9989              	.LCFI473:
 9990              		.cfi_restore 7
 9991              		.cfi_def_cfa_offset 0
 9992 00c8 7047     		bx	lr
 9993              	.L547:
 9994 00ca 00BF     		.align	2
 9995              	.L546:
 9996 00cc 00000140 		.word	1073807360
 9997 00d0 00040040 		.word	1073742848
 9998 00d4 00080040 		.word	1073743872
 9999 00d8 000C0040 		.word	1073744896
 10000 00dc 00400140 		.word	1073823744
 10001              		.cfi_endproc
 10002              	.LFE211:
 10004              		.section	.text.TIM_OC2_SetConfig,"ax",%progbits
 10005              		.align	1
 10006              		.global	TIM_OC2_SetConfig
 10007              		.syntax unified
 10008              		.thumb
 10009              		.thumb_func
 10010              		.fpu fpv4-sp-d16
 10012              	TIM_OC2_SetConfig:
 10013              	.LFB212:
4575:Drivers/STM32F4xx_HAL_Driver/Src/stm32f4xx_hal_tim.c **** 
4576:Drivers/STM32F4xx_HAL_Driver/Src/stm32f4xx_hal_tim.c **** /**
4577:Drivers/STM32F4xx_HAL_Driver/Src/stm32f4xx_hal_tim.c ****   * @brief  Time Output Compare 2 configuration
4578:Drivers/STM32F4xx_HAL_Driver/Src/stm32f4xx_hal_tim.c ****   * @param  TIMx to select the TIM peripheral
4579:Drivers/STM32F4xx_HAL_Driver/Src/stm32f4xx_hal_tim.c ****   * @param  OC_Config The output configuration structure
4580:Drivers/STM32F4xx_HAL_Driver/Src/stm32f4xx_hal_tim.c ****   * @retval None
4581:Drivers/STM32F4xx_HAL_Driver/Src/stm32f4xx_hal_tim.c ****   */
4582:Drivers/STM32F4xx_HAL_Driver/Src/stm32f4xx_hal_tim.c **** void TIM_OC2_SetConfig(TIM_TypeDef *TIMx, TIM_OC_InitTypeDef *OC_Config)
4583:Drivers/STM32F4xx_HAL_Driver/Src/stm32f4xx_hal_tim.c **** {
 10014              		.loc 1 4583 0
 10015              		.cfi_startproc
 10016              		@ args = 0, pretend = 0, frame = 24
 10017              		@ frame_needed = 1, uses_anonymous_args = 0
 10018              		@ link register save eliminated.
 10019 0000 80B4     		push	{r7}
ARM GAS  /tmp/cc4tSQEQ.s 			page 257


 10020              	.LCFI474:
 10021              		.cfi_def_cfa_offset 4
 10022              		.cfi_offset 7, -4
 10023 0002 87B0     		sub	sp, sp, #28
 10024              	.LCFI475:
 10025              		.cfi_def_cfa_offset 32
 10026 0004 00AF     		add	r7, sp, #0
 10027              	.LCFI476:
 10028              		.cfi_def_cfa_register 7
 10029 0006 7860     		str	r0, [r7, #4]
 10030 0008 3960     		str	r1, [r7]
4584:Drivers/STM32F4xx_HAL_Driver/Src/stm32f4xx_hal_tim.c ****   uint32_t tmpccmrx = 0U;
 10031              		.loc 1 4584 0
 10032 000a 0023     		movs	r3, #0
 10033 000c FB60     		str	r3, [r7, #12]
4585:Drivers/STM32F4xx_HAL_Driver/Src/stm32f4xx_hal_tim.c ****   uint32_t tmpccer = 0U;
 10034              		.loc 1 4585 0
 10035 000e 0023     		movs	r3, #0
 10036 0010 7B61     		str	r3, [r7, #20]
4586:Drivers/STM32F4xx_HAL_Driver/Src/stm32f4xx_hal_tim.c ****   uint32_t tmpcr2 = 0U;
 10037              		.loc 1 4586 0
 10038 0012 0023     		movs	r3, #0
 10039 0014 3B61     		str	r3, [r7, #16]
4587:Drivers/STM32F4xx_HAL_Driver/Src/stm32f4xx_hal_tim.c ****    
4588:Drivers/STM32F4xx_HAL_Driver/Src/stm32f4xx_hal_tim.c ****   /* Disable the Channel 2: Reset the CC2E Bit */
4589:Drivers/STM32F4xx_HAL_Driver/Src/stm32f4xx_hal_tim.c ****   TIMx->CCER &= ~TIM_CCER_CC2E;
 10040              		.loc 1 4589 0
 10041 0016 7B68     		ldr	r3, [r7, #4]
 10042 0018 1B6A     		ldr	r3, [r3, #32]
 10043 001a 23F01002 		bic	r2, r3, #16
 10044 001e 7B68     		ldr	r3, [r7, #4]
 10045 0020 1A62     		str	r2, [r3, #32]
4590:Drivers/STM32F4xx_HAL_Driver/Src/stm32f4xx_hal_tim.c ****   
4591:Drivers/STM32F4xx_HAL_Driver/Src/stm32f4xx_hal_tim.c ****   /* Get the TIMx CCER register value */  
4592:Drivers/STM32F4xx_HAL_Driver/Src/stm32f4xx_hal_tim.c ****   tmpccer = TIMx->CCER;
 10046              		.loc 1 4592 0
 10047 0022 7B68     		ldr	r3, [r7, #4]
 10048 0024 1B6A     		ldr	r3, [r3, #32]
 10049 0026 7B61     		str	r3, [r7, #20]
4593:Drivers/STM32F4xx_HAL_Driver/Src/stm32f4xx_hal_tim.c ****   /* Get the TIMx CR2 register value */
4594:Drivers/STM32F4xx_HAL_Driver/Src/stm32f4xx_hal_tim.c ****   tmpcr2 = TIMx->CR2;
 10050              		.loc 1 4594 0
 10051 0028 7B68     		ldr	r3, [r7, #4]
 10052 002a 5B68     		ldr	r3, [r3, #4]
 10053 002c 3B61     		str	r3, [r7, #16]
4595:Drivers/STM32F4xx_HAL_Driver/Src/stm32f4xx_hal_tim.c ****   
4596:Drivers/STM32F4xx_HAL_Driver/Src/stm32f4xx_hal_tim.c ****   /* Get the TIMx CCMR1 register value */
4597:Drivers/STM32F4xx_HAL_Driver/Src/stm32f4xx_hal_tim.c ****   tmpccmrx = TIMx->CCMR1;
 10054              		.loc 1 4597 0
 10055 002e 7B68     		ldr	r3, [r7, #4]
 10056 0030 9B69     		ldr	r3, [r3, #24]
 10057 0032 FB60     		str	r3, [r7, #12]
4598:Drivers/STM32F4xx_HAL_Driver/Src/stm32f4xx_hal_tim.c ****     
4599:Drivers/STM32F4xx_HAL_Driver/Src/stm32f4xx_hal_tim.c ****   /* Reset the Output Compare mode and Capture/Compare selection Bits */
4600:Drivers/STM32F4xx_HAL_Driver/Src/stm32f4xx_hal_tim.c ****   tmpccmrx &= ~TIM_CCMR1_OC2M;
 10058              		.loc 1 4600 0
 10059 0034 FB68     		ldr	r3, [r7, #12]
ARM GAS  /tmp/cc4tSQEQ.s 			page 258


 10060 0036 23F4E043 		bic	r3, r3, #28672
 10061 003a FB60     		str	r3, [r7, #12]
4601:Drivers/STM32F4xx_HAL_Driver/Src/stm32f4xx_hal_tim.c ****   tmpccmrx &= ~TIM_CCMR1_CC2S;
 10062              		.loc 1 4601 0
 10063 003c FB68     		ldr	r3, [r7, #12]
 10064 003e 23F44073 		bic	r3, r3, #768
 10065 0042 FB60     		str	r3, [r7, #12]
4602:Drivers/STM32F4xx_HAL_Driver/Src/stm32f4xx_hal_tim.c ****   
4603:Drivers/STM32F4xx_HAL_Driver/Src/stm32f4xx_hal_tim.c ****   /* Select the Output Compare Mode */
4604:Drivers/STM32F4xx_HAL_Driver/Src/stm32f4xx_hal_tim.c ****   tmpccmrx |= (OC_Config->OCMode << 8U);
 10066              		.loc 1 4604 0
 10067 0044 3B68     		ldr	r3, [r7]
 10068 0046 1B68     		ldr	r3, [r3]
 10069 0048 1B02     		lsls	r3, r3, #8
 10070 004a FA68     		ldr	r2, [r7, #12]
 10071 004c 1343     		orrs	r3, r3, r2
 10072 004e FB60     		str	r3, [r7, #12]
4605:Drivers/STM32F4xx_HAL_Driver/Src/stm32f4xx_hal_tim.c ****   
4606:Drivers/STM32F4xx_HAL_Driver/Src/stm32f4xx_hal_tim.c ****   /* Reset the Output Polarity level */
4607:Drivers/STM32F4xx_HAL_Driver/Src/stm32f4xx_hal_tim.c ****   tmpccer &= ~TIM_CCER_CC2P;
 10073              		.loc 1 4607 0
 10074 0050 7B69     		ldr	r3, [r7, #20]
 10075 0052 23F02003 		bic	r3, r3, #32
 10076 0056 7B61     		str	r3, [r7, #20]
4608:Drivers/STM32F4xx_HAL_Driver/Src/stm32f4xx_hal_tim.c ****   /* Set the Output Compare Polarity */
4609:Drivers/STM32F4xx_HAL_Driver/Src/stm32f4xx_hal_tim.c ****   tmpccer |= (OC_Config->OCPolarity << 4U);
 10077              		.loc 1 4609 0
 10078 0058 3B68     		ldr	r3, [r7]
 10079 005a 9B68     		ldr	r3, [r3, #8]
 10080 005c 1B01     		lsls	r3, r3, #4
 10081 005e 7A69     		ldr	r2, [r7, #20]
 10082 0060 1343     		orrs	r3, r3, r2
 10083 0062 7B61     		str	r3, [r7, #20]
4610:Drivers/STM32F4xx_HAL_Driver/Src/stm32f4xx_hal_tim.c ****     
4611:Drivers/STM32F4xx_HAL_Driver/Src/stm32f4xx_hal_tim.c ****   if(IS_TIM_ADVANCED_INSTANCE(TIMx) != RESET)
 10084              		.loc 1 4611 0
 10085 0064 7B68     		ldr	r3, [r7, #4]
 10086 0066 1C4A     		ldr	r2, .L550
 10087 0068 9342     		cmp	r3, r2
 10088 006a 21D1     		bne	.L549
4612:Drivers/STM32F4xx_HAL_Driver/Src/stm32f4xx_hal_tim.c ****   {
4613:Drivers/STM32F4xx_HAL_Driver/Src/stm32f4xx_hal_tim.c ****     assert_param(IS_TIM_OCN_POLARITY(OC_Config->OCNPolarity));
4614:Drivers/STM32F4xx_HAL_Driver/Src/stm32f4xx_hal_tim.c ****     
4615:Drivers/STM32F4xx_HAL_Driver/Src/stm32f4xx_hal_tim.c ****     /* Reset the Output N Polarity level */
4616:Drivers/STM32F4xx_HAL_Driver/Src/stm32f4xx_hal_tim.c ****     tmpccer &= ~TIM_CCER_CC2NP;
 10089              		.loc 1 4616 0
 10090 006c 7B69     		ldr	r3, [r7, #20]
 10091 006e 23F08003 		bic	r3, r3, #128
 10092 0072 7B61     		str	r3, [r7, #20]
4617:Drivers/STM32F4xx_HAL_Driver/Src/stm32f4xx_hal_tim.c ****     /* Set the Output N Polarity */
4618:Drivers/STM32F4xx_HAL_Driver/Src/stm32f4xx_hal_tim.c ****     tmpccer |= (OC_Config->OCNPolarity << 4U);
 10093              		.loc 1 4618 0
 10094 0074 3B68     		ldr	r3, [r7]
 10095 0076 DB68     		ldr	r3, [r3, #12]
 10096 0078 1B01     		lsls	r3, r3, #4
 10097 007a 7A69     		ldr	r2, [r7, #20]
 10098 007c 1343     		orrs	r3, r3, r2
ARM GAS  /tmp/cc4tSQEQ.s 			page 259


 10099 007e 7B61     		str	r3, [r7, #20]
4619:Drivers/STM32F4xx_HAL_Driver/Src/stm32f4xx_hal_tim.c ****     /* Reset the Output N State */
4620:Drivers/STM32F4xx_HAL_Driver/Src/stm32f4xx_hal_tim.c ****     tmpccer &= ~TIM_CCER_CC2NE;
 10100              		.loc 1 4620 0
 10101 0080 7B69     		ldr	r3, [r7, #20]
 10102 0082 23F04003 		bic	r3, r3, #64
 10103 0086 7B61     		str	r3, [r7, #20]
4621:Drivers/STM32F4xx_HAL_Driver/Src/stm32f4xx_hal_tim.c ****     
4622:Drivers/STM32F4xx_HAL_Driver/Src/stm32f4xx_hal_tim.c ****     /* Reset the Output Compare and Output Compare N IDLE State */
4623:Drivers/STM32F4xx_HAL_Driver/Src/stm32f4xx_hal_tim.c ****     tmpcr2 &= ~TIM_CR2_OIS2;
 10104              		.loc 1 4623 0
 10105 0088 3B69     		ldr	r3, [r7, #16]
 10106 008a 23F48063 		bic	r3, r3, #1024
 10107 008e 3B61     		str	r3, [r7, #16]
4624:Drivers/STM32F4xx_HAL_Driver/Src/stm32f4xx_hal_tim.c ****     tmpcr2 &= ~TIM_CR2_OIS2N;
 10108              		.loc 1 4624 0
 10109 0090 3B69     		ldr	r3, [r7, #16]
 10110 0092 23F40063 		bic	r3, r3, #2048
 10111 0096 3B61     		str	r3, [r7, #16]
4625:Drivers/STM32F4xx_HAL_Driver/Src/stm32f4xx_hal_tim.c ****     /* Set the Output Idle state */
4626:Drivers/STM32F4xx_HAL_Driver/Src/stm32f4xx_hal_tim.c ****     tmpcr2 |= (OC_Config->OCIdleState << 2U);
 10112              		.loc 1 4626 0
 10113 0098 3B68     		ldr	r3, [r7]
 10114 009a 5B69     		ldr	r3, [r3, #20]
 10115 009c 9B00     		lsls	r3, r3, #2
 10116 009e 3A69     		ldr	r2, [r7, #16]
 10117 00a0 1343     		orrs	r3, r3, r2
 10118 00a2 3B61     		str	r3, [r7, #16]
4627:Drivers/STM32F4xx_HAL_Driver/Src/stm32f4xx_hal_tim.c ****     /* Set the Output N Idle state */
4628:Drivers/STM32F4xx_HAL_Driver/Src/stm32f4xx_hal_tim.c ****     tmpcr2 |= (OC_Config->OCNIdleState << 2U);
 10119              		.loc 1 4628 0
 10120 00a4 3B68     		ldr	r3, [r7]
 10121 00a6 9B69     		ldr	r3, [r3, #24]
 10122 00a8 9B00     		lsls	r3, r3, #2
 10123 00aa 3A69     		ldr	r2, [r7, #16]
 10124 00ac 1343     		orrs	r3, r3, r2
 10125 00ae 3B61     		str	r3, [r7, #16]
 10126              	.L549:
4629:Drivers/STM32F4xx_HAL_Driver/Src/stm32f4xx_hal_tim.c ****   }
4630:Drivers/STM32F4xx_HAL_Driver/Src/stm32f4xx_hal_tim.c ****   /* Write to TIMx CR2 */
4631:Drivers/STM32F4xx_HAL_Driver/Src/stm32f4xx_hal_tim.c ****   TIMx->CR2 = tmpcr2;
 10127              		.loc 1 4631 0
 10128 00b0 7B68     		ldr	r3, [r7, #4]
 10129 00b2 3A69     		ldr	r2, [r7, #16]
 10130 00b4 5A60     		str	r2, [r3, #4]
4632:Drivers/STM32F4xx_HAL_Driver/Src/stm32f4xx_hal_tim.c ****   
4633:Drivers/STM32F4xx_HAL_Driver/Src/stm32f4xx_hal_tim.c ****   /* Write to TIMx CCMR1 */
4634:Drivers/STM32F4xx_HAL_Driver/Src/stm32f4xx_hal_tim.c ****   TIMx->CCMR1 = tmpccmrx;
 10131              		.loc 1 4634 0
 10132 00b6 7B68     		ldr	r3, [r7, #4]
 10133 00b8 FA68     		ldr	r2, [r7, #12]
 10134 00ba 9A61     		str	r2, [r3, #24]
4635:Drivers/STM32F4xx_HAL_Driver/Src/stm32f4xx_hal_tim.c ****   
4636:Drivers/STM32F4xx_HAL_Driver/Src/stm32f4xx_hal_tim.c ****   /* Set the Capture Compare Register value */
4637:Drivers/STM32F4xx_HAL_Driver/Src/stm32f4xx_hal_tim.c ****   TIMx->CCR2 = OC_Config->Pulse;
 10135              		.loc 1 4637 0
 10136 00bc 3B68     		ldr	r3, [r7]
ARM GAS  /tmp/cc4tSQEQ.s 			page 260


 10137 00be 5A68     		ldr	r2, [r3, #4]
 10138 00c0 7B68     		ldr	r3, [r7, #4]
 10139 00c2 9A63     		str	r2, [r3, #56]
4638:Drivers/STM32F4xx_HAL_Driver/Src/stm32f4xx_hal_tim.c ****   
4639:Drivers/STM32F4xx_HAL_Driver/Src/stm32f4xx_hal_tim.c ****   /* Write to TIMx CCER */
4640:Drivers/STM32F4xx_HAL_Driver/Src/stm32f4xx_hal_tim.c ****   TIMx->CCER = tmpccer;
 10140              		.loc 1 4640 0
 10141 00c4 7B68     		ldr	r3, [r7, #4]
 10142 00c6 7A69     		ldr	r2, [r7, #20]
 10143 00c8 1A62     		str	r2, [r3, #32]
4641:Drivers/STM32F4xx_HAL_Driver/Src/stm32f4xx_hal_tim.c **** }
 10144              		.loc 1 4641 0
 10145 00ca 00BF     		nop
 10146 00cc 1C37     		adds	r7, r7, #28
 10147              	.LCFI477:
 10148              		.cfi_def_cfa_offset 4
 10149 00ce BD46     		mov	sp, r7
 10150              	.LCFI478:
 10151              		.cfi_def_cfa_register 13
 10152              		@ sp needed
 10153 00d0 5DF8047B 		ldr	r7, [sp], #4
 10154              	.LCFI479:
 10155              		.cfi_restore 7
 10156              		.cfi_def_cfa_offset 0
 10157 00d4 7047     		bx	lr
 10158              	.L551:
 10159 00d6 00BF     		.align	2
 10160              	.L550:
 10161 00d8 00000140 		.word	1073807360
 10162              		.cfi_endproc
 10163              	.LFE212:
 10165              		.section	.text.TIM_DMADelayPulseCplt,"ax",%progbits
 10166              		.align	1
 10167              		.global	TIM_DMADelayPulseCplt
 10168              		.syntax unified
 10169              		.thumb
 10170              		.thumb_func
 10171              		.fpu fpv4-sp-d16
 10173              	TIM_DMADelayPulseCplt:
 10174              	.LFB213:
4642:Drivers/STM32F4xx_HAL_Driver/Src/stm32f4xx_hal_tim.c **** 
4643:Drivers/STM32F4xx_HAL_Driver/Src/stm32f4xx_hal_tim.c **** /**
4644:Drivers/STM32F4xx_HAL_Driver/Src/stm32f4xx_hal_tim.c ****   * @brief  TIM DMA Delay Pulse complete callback. 
4645:Drivers/STM32F4xx_HAL_Driver/Src/stm32f4xx_hal_tim.c ****   * @param  hdma pointer to a DMA_HandleTypeDef structure that contains
4646:Drivers/STM32F4xx_HAL_Driver/Src/stm32f4xx_hal_tim.c ****   *               the configuration information for the specified DMA module.
4647:Drivers/STM32F4xx_HAL_Driver/Src/stm32f4xx_hal_tim.c ****   * @retval None
4648:Drivers/STM32F4xx_HAL_Driver/Src/stm32f4xx_hal_tim.c ****   */
4649:Drivers/STM32F4xx_HAL_Driver/Src/stm32f4xx_hal_tim.c **** void TIM_DMADelayPulseCplt(DMA_HandleTypeDef *hdma)
4650:Drivers/STM32F4xx_HAL_Driver/Src/stm32f4xx_hal_tim.c **** {
 10175              		.loc 1 4650 0
 10176              		.cfi_startproc
 10177              		@ args = 0, pretend = 0, frame = 16
 10178              		@ frame_needed = 1, uses_anonymous_args = 0
 10179 0000 80B5     		push	{r7, lr}
 10180              	.LCFI480:
 10181              		.cfi_def_cfa_offset 8
 10182              		.cfi_offset 7, -8
ARM GAS  /tmp/cc4tSQEQ.s 			page 261


 10183              		.cfi_offset 14, -4
 10184 0002 84B0     		sub	sp, sp, #16
 10185              	.LCFI481:
 10186              		.cfi_def_cfa_offset 24
 10187 0004 00AF     		add	r7, sp, #0
 10188              	.LCFI482:
 10189              		.cfi_def_cfa_register 7
 10190 0006 7860     		str	r0, [r7, #4]
4651:Drivers/STM32F4xx_HAL_Driver/Src/stm32f4xx_hal_tim.c ****   TIM_HandleTypeDef* htim = ( TIM_HandleTypeDef* )((DMA_HandleTypeDef* )hdma)->Parent;
 10191              		.loc 1 4651 0
 10192 0008 7B68     		ldr	r3, [r7, #4]
 10193 000a 9B6B     		ldr	r3, [r3, #56]
 10194 000c FB60     		str	r3, [r7, #12]
4652:Drivers/STM32F4xx_HAL_Driver/Src/stm32f4xx_hal_tim.c ****   
4653:Drivers/STM32F4xx_HAL_Driver/Src/stm32f4xx_hal_tim.c ****   htim->State= HAL_TIM_STATE_READY; 
 10195              		.loc 1 4653 0
 10196 000e FB68     		ldr	r3, [r7, #12]
 10197 0010 0122     		movs	r2, #1
 10198 0012 83F83920 		strb	r2, [r3, #57]
4654:Drivers/STM32F4xx_HAL_Driver/Src/stm32f4xx_hal_tim.c ****   
4655:Drivers/STM32F4xx_HAL_Driver/Src/stm32f4xx_hal_tim.c ****   if(hdma == htim->hdma[TIM_DMA_ID_CC1])
 10199              		.loc 1 4655 0
 10200 0016 FB68     		ldr	r3, [r7, #12]
 10201 0018 1A6A     		ldr	r2, [r3, #32]
 10202 001a 7B68     		ldr	r3, [r7, #4]
 10203 001c 9A42     		cmp	r2, r3
 10204 001e 03D1     		bne	.L553
4656:Drivers/STM32F4xx_HAL_Driver/Src/stm32f4xx_hal_tim.c ****   {
4657:Drivers/STM32F4xx_HAL_Driver/Src/stm32f4xx_hal_tim.c ****     htim->Channel = HAL_TIM_ACTIVE_CHANNEL_1;
 10205              		.loc 1 4657 0
 10206 0020 FB68     		ldr	r3, [r7, #12]
 10207 0022 0122     		movs	r2, #1
 10208 0024 1A76     		strb	r2, [r3, #24]
 10209 0026 19E0     		b	.L554
 10210              	.L553:
4658:Drivers/STM32F4xx_HAL_Driver/Src/stm32f4xx_hal_tim.c ****   }
4659:Drivers/STM32F4xx_HAL_Driver/Src/stm32f4xx_hal_tim.c ****   else if(hdma == htim->hdma[TIM_DMA_ID_CC2])
 10211              		.loc 1 4659 0
 10212 0028 FB68     		ldr	r3, [r7, #12]
 10213 002a 5A6A     		ldr	r2, [r3, #36]
 10214 002c 7B68     		ldr	r3, [r7, #4]
 10215 002e 9A42     		cmp	r2, r3
 10216 0030 03D1     		bne	.L555
4660:Drivers/STM32F4xx_HAL_Driver/Src/stm32f4xx_hal_tim.c ****   {
4661:Drivers/STM32F4xx_HAL_Driver/Src/stm32f4xx_hal_tim.c ****     htim->Channel = HAL_TIM_ACTIVE_CHANNEL_2;
 10217              		.loc 1 4661 0
 10218 0032 FB68     		ldr	r3, [r7, #12]
 10219 0034 0222     		movs	r2, #2
 10220 0036 1A76     		strb	r2, [r3, #24]
 10221 0038 10E0     		b	.L554
 10222              	.L555:
4662:Drivers/STM32F4xx_HAL_Driver/Src/stm32f4xx_hal_tim.c ****   }
4663:Drivers/STM32F4xx_HAL_Driver/Src/stm32f4xx_hal_tim.c ****   else if(hdma == htim->hdma[TIM_DMA_ID_CC3])
 10223              		.loc 1 4663 0
 10224 003a FB68     		ldr	r3, [r7, #12]
 10225 003c 9A6A     		ldr	r2, [r3, #40]
 10226 003e 7B68     		ldr	r3, [r7, #4]
ARM GAS  /tmp/cc4tSQEQ.s 			page 262


 10227 0040 9A42     		cmp	r2, r3
 10228 0042 03D1     		bne	.L556
4664:Drivers/STM32F4xx_HAL_Driver/Src/stm32f4xx_hal_tim.c ****   {
4665:Drivers/STM32F4xx_HAL_Driver/Src/stm32f4xx_hal_tim.c ****     htim->Channel = HAL_TIM_ACTIVE_CHANNEL_3;
 10229              		.loc 1 4665 0
 10230 0044 FB68     		ldr	r3, [r7, #12]
 10231 0046 0422     		movs	r2, #4
 10232 0048 1A76     		strb	r2, [r3, #24]
 10233 004a 07E0     		b	.L554
 10234              	.L556:
4666:Drivers/STM32F4xx_HAL_Driver/Src/stm32f4xx_hal_tim.c ****   }
4667:Drivers/STM32F4xx_HAL_Driver/Src/stm32f4xx_hal_tim.c ****   else if(hdma == htim->hdma[TIM_DMA_ID_CC4])
 10235              		.loc 1 4667 0
 10236 004c FB68     		ldr	r3, [r7, #12]
 10237 004e DA6A     		ldr	r2, [r3, #44]
 10238 0050 7B68     		ldr	r3, [r7, #4]
 10239 0052 9A42     		cmp	r2, r3
 10240 0054 02D1     		bne	.L554
4668:Drivers/STM32F4xx_HAL_Driver/Src/stm32f4xx_hal_tim.c ****   {
4669:Drivers/STM32F4xx_HAL_Driver/Src/stm32f4xx_hal_tim.c ****     htim->Channel = HAL_TIM_ACTIVE_CHANNEL_4;
 10241              		.loc 1 4669 0
 10242 0056 FB68     		ldr	r3, [r7, #12]
 10243 0058 0822     		movs	r2, #8
 10244 005a 1A76     		strb	r2, [r3, #24]
 10245              	.L554:
4670:Drivers/STM32F4xx_HAL_Driver/Src/stm32f4xx_hal_tim.c ****   }
4671:Drivers/STM32F4xx_HAL_Driver/Src/stm32f4xx_hal_tim.c **** 
4672:Drivers/STM32F4xx_HAL_Driver/Src/stm32f4xx_hal_tim.c ****   HAL_TIM_PWM_PulseFinishedCallback(htim);
 10246              		.loc 1 4672 0
 10247 005c F868     		ldr	r0, [r7, #12]
 10248 005e FFF7FEFF 		bl	HAL_TIM_PWM_PulseFinishedCallback
4673:Drivers/STM32F4xx_HAL_Driver/Src/stm32f4xx_hal_tim.c **** 
4674:Drivers/STM32F4xx_HAL_Driver/Src/stm32f4xx_hal_tim.c ****   htim->Channel = HAL_TIM_ACTIVE_CHANNEL_CLEARED;  
 10249              		.loc 1 4674 0
 10250 0062 FB68     		ldr	r3, [r7, #12]
 10251 0064 0022     		movs	r2, #0
 10252 0066 1A76     		strb	r2, [r3, #24]
4675:Drivers/STM32F4xx_HAL_Driver/Src/stm32f4xx_hal_tim.c **** }
 10253              		.loc 1 4675 0
 10254 0068 00BF     		nop
 10255 006a 1037     		adds	r7, r7, #16
 10256              	.LCFI483:
 10257              		.cfi_def_cfa_offset 8
 10258 006c BD46     		mov	sp, r7
 10259              	.LCFI484:
 10260              		.cfi_def_cfa_register 13
 10261              		@ sp needed
 10262 006e 80BD     		pop	{r7, pc}
 10263              		.cfi_endproc
 10264              	.LFE213:
 10266              		.section	.text.TIM_DMAError,"ax",%progbits
 10267              		.align	1
 10268              		.global	TIM_DMAError
 10269              		.syntax unified
 10270              		.thumb
 10271              		.thumb_func
 10272              		.fpu fpv4-sp-d16
ARM GAS  /tmp/cc4tSQEQ.s 			page 263


 10274              	TIM_DMAError:
 10275              	.LFB214:
4676:Drivers/STM32F4xx_HAL_Driver/Src/stm32f4xx_hal_tim.c **** 
4677:Drivers/STM32F4xx_HAL_Driver/Src/stm32f4xx_hal_tim.c **** /**
4678:Drivers/STM32F4xx_HAL_Driver/Src/stm32f4xx_hal_tim.c ****   * @brief  TIM DMA error callback 
4679:Drivers/STM32F4xx_HAL_Driver/Src/stm32f4xx_hal_tim.c ****   * @param  hdma pointer to a DMA_HandleTypeDef structure that contains
4680:Drivers/STM32F4xx_HAL_Driver/Src/stm32f4xx_hal_tim.c ****   *                the configuration information for the specified DMA module.
4681:Drivers/STM32F4xx_HAL_Driver/Src/stm32f4xx_hal_tim.c ****   * @retval None
4682:Drivers/STM32F4xx_HAL_Driver/Src/stm32f4xx_hal_tim.c ****   */
4683:Drivers/STM32F4xx_HAL_Driver/Src/stm32f4xx_hal_tim.c **** void TIM_DMAError(DMA_HandleTypeDef *hdma)
4684:Drivers/STM32F4xx_HAL_Driver/Src/stm32f4xx_hal_tim.c **** {
 10276              		.loc 1 4684 0
 10277              		.cfi_startproc
 10278              		@ args = 0, pretend = 0, frame = 16
 10279              		@ frame_needed = 1, uses_anonymous_args = 0
 10280 0000 80B5     		push	{r7, lr}
 10281              	.LCFI485:
 10282              		.cfi_def_cfa_offset 8
 10283              		.cfi_offset 7, -8
 10284              		.cfi_offset 14, -4
 10285 0002 84B0     		sub	sp, sp, #16
 10286              	.LCFI486:
 10287              		.cfi_def_cfa_offset 24
 10288 0004 00AF     		add	r7, sp, #0
 10289              	.LCFI487:
 10290              		.cfi_def_cfa_register 7
 10291 0006 7860     		str	r0, [r7, #4]
4685:Drivers/STM32F4xx_HAL_Driver/Src/stm32f4xx_hal_tim.c ****   TIM_HandleTypeDef* htim = ( TIM_HandleTypeDef* )((DMA_HandleTypeDef* )hdma)->Parent;
 10292              		.loc 1 4685 0
 10293 0008 7B68     		ldr	r3, [r7, #4]
 10294 000a 9B6B     		ldr	r3, [r3, #56]
 10295 000c FB60     		str	r3, [r7, #12]
4686:Drivers/STM32F4xx_HAL_Driver/Src/stm32f4xx_hal_tim.c ****   
4687:Drivers/STM32F4xx_HAL_Driver/Src/stm32f4xx_hal_tim.c ****   htim->State= HAL_TIM_STATE_READY;
 10296              		.loc 1 4687 0
 10297 000e FB68     		ldr	r3, [r7, #12]
 10298 0010 0122     		movs	r2, #1
 10299 0012 83F83920 		strb	r2, [r3, #57]
4688:Drivers/STM32F4xx_HAL_Driver/Src/stm32f4xx_hal_tim.c ****    
4689:Drivers/STM32F4xx_HAL_Driver/Src/stm32f4xx_hal_tim.c ****   HAL_TIM_ErrorCallback(htim);
 10300              		.loc 1 4689 0
 10301 0016 F868     		ldr	r0, [r7, #12]
 10302 0018 FFF7FEFF 		bl	HAL_TIM_ErrorCallback
4690:Drivers/STM32F4xx_HAL_Driver/Src/stm32f4xx_hal_tim.c **** }
 10303              		.loc 1 4690 0
 10304 001c 00BF     		nop
 10305 001e 1037     		adds	r7, r7, #16
 10306              	.LCFI488:
 10307              		.cfi_def_cfa_offset 8
 10308 0020 BD46     		mov	sp, r7
 10309              	.LCFI489:
 10310              		.cfi_def_cfa_register 13
 10311              		@ sp needed
 10312 0022 80BD     		pop	{r7, pc}
 10313              		.cfi_endproc
 10314              	.LFE214:
 10316              		.section	.text.TIM_DMACaptureCplt,"ax",%progbits
ARM GAS  /tmp/cc4tSQEQ.s 			page 264


 10317              		.align	1
 10318              		.global	TIM_DMACaptureCplt
 10319              		.syntax unified
 10320              		.thumb
 10321              		.thumb_func
 10322              		.fpu fpv4-sp-d16
 10324              	TIM_DMACaptureCplt:
 10325              	.LFB215:
4691:Drivers/STM32F4xx_HAL_Driver/Src/stm32f4xx_hal_tim.c **** 
4692:Drivers/STM32F4xx_HAL_Driver/Src/stm32f4xx_hal_tim.c **** /**
4693:Drivers/STM32F4xx_HAL_Driver/Src/stm32f4xx_hal_tim.c ****   * @brief  TIM DMA Capture complete callback. 
4694:Drivers/STM32F4xx_HAL_Driver/Src/stm32f4xx_hal_tim.c ****   * @param  hdma pointer to a DMA_HandleTypeDef structure that contains
4695:Drivers/STM32F4xx_HAL_Driver/Src/stm32f4xx_hal_tim.c ****   *                the configuration information for the specified DMA module.
4696:Drivers/STM32F4xx_HAL_Driver/Src/stm32f4xx_hal_tim.c ****   * @retval None
4697:Drivers/STM32F4xx_HAL_Driver/Src/stm32f4xx_hal_tim.c ****   */
4698:Drivers/STM32F4xx_HAL_Driver/Src/stm32f4xx_hal_tim.c **** void TIM_DMACaptureCplt(DMA_HandleTypeDef *hdma)
4699:Drivers/STM32F4xx_HAL_Driver/Src/stm32f4xx_hal_tim.c **** {
 10326              		.loc 1 4699 0
 10327              		.cfi_startproc
 10328              		@ args = 0, pretend = 0, frame = 16
 10329              		@ frame_needed = 1, uses_anonymous_args = 0
 10330 0000 80B5     		push	{r7, lr}
 10331              	.LCFI490:
 10332              		.cfi_def_cfa_offset 8
 10333              		.cfi_offset 7, -8
 10334              		.cfi_offset 14, -4
 10335 0002 84B0     		sub	sp, sp, #16
 10336              	.LCFI491:
 10337              		.cfi_def_cfa_offset 24
 10338 0004 00AF     		add	r7, sp, #0
 10339              	.LCFI492:
 10340              		.cfi_def_cfa_register 7
 10341 0006 7860     		str	r0, [r7, #4]
4700:Drivers/STM32F4xx_HAL_Driver/Src/stm32f4xx_hal_tim.c ****   TIM_HandleTypeDef* htim = ( TIM_HandleTypeDef* )((DMA_HandleTypeDef* )hdma)->Parent;
 10342              		.loc 1 4700 0
 10343 0008 7B68     		ldr	r3, [r7, #4]
 10344 000a 9B6B     		ldr	r3, [r3, #56]
 10345 000c FB60     		str	r3, [r7, #12]
4701:Drivers/STM32F4xx_HAL_Driver/Src/stm32f4xx_hal_tim.c ****   
4702:Drivers/STM32F4xx_HAL_Driver/Src/stm32f4xx_hal_tim.c ****   htim->State= HAL_TIM_STATE_READY;
 10346              		.loc 1 4702 0
 10347 000e FB68     		ldr	r3, [r7, #12]
 10348 0010 0122     		movs	r2, #1
 10349 0012 83F83920 		strb	r2, [r3, #57]
4703:Drivers/STM32F4xx_HAL_Driver/Src/stm32f4xx_hal_tim.c ****   
4704:Drivers/STM32F4xx_HAL_Driver/Src/stm32f4xx_hal_tim.c ****   if(hdma == htim->hdma[TIM_DMA_ID_CC1])
 10350              		.loc 1 4704 0
 10351 0016 FB68     		ldr	r3, [r7, #12]
 10352 0018 1A6A     		ldr	r2, [r3, #32]
 10353 001a 7B68     		ldr	r3, [r7, #4]
 10354 001c 9A42     		cmp	r2, r3
 10355 001e 03D1     		bne	.L559
4705:Drivers/STM32F4xx_HAL_Driver/Src/stm32f4xx_hal_tim.c ****   {
4706:Drivers/STM32F4xx_HAL_Driver/Src/stm32f4xx_hal_tim.c ****     htim->Channel = HAL_TIM_ACTIVE_CHANNEL_1;
 10356              		.loc 1 4706 0
 10357 0020 FB68     		ldr	r3, [r7, #12]
 10358 0022 0122     		movs	r2, #1
ARM GAS  /tmp/cc4tSQEQ.s 			page 265


 10359 0024 1A76     		strb	r2, [r3, #24]
 10360 0026 19E0     		b	.L560
 10361              	.L559:
4707:Drivers/STM32F4xx_HAL_Driver/Src/stm32f4xx_hal_tim.c ****   }
4708:Drivers/STM32F4xx_HAL_Driver/Src/stm32f4xx_hal_tim.c ****   else if(hdma == htim->hdma[TIM_DMA_ID_CC2])
 10362              		.loc 1 4708 0
 10363 0028 FB68     		ldr	r3, [r7, #12]
 10364 002a 5A6A     		ldr	r2, [r3, #36]
 10365 002c 7B68     		ldr	r3, [r7, #4]
 10366 002e 9A42     		cmp	r2, r3
 10367 0030 03D1     		bne	.L561
4709:Drivers/STM32F4xx_HAL_Driver/Src/stm32f4xx_hal_tim.c ****   {
4710:Drivers/STM32F4xx_HAL_Driver/Src/stm32f4xx_hal_tim.c ****     htim->Channel = HAL_TIM_ACTIVE_CHANNEL_2;
 10368              		.loc 1 4710 0
 10369 0032 FB68     		ldr	r3, [r7, #12]
 10370 0034 0222     		movs	r2, #2
 10371 0036 1A76     		strb	r2, [r3, #24]
 10372 0038 10E0     		b	.L560
 10373              	.L561:
4711:Drivers/STM32F4xx_HAL_Driver/Src/stm32f4xx_hal_tim.c ****   }
4712:Drivers/STM32F4xx_HAL_Driver/Src/stm32f4xx_hal_tim.c ****   else if(hdma == htim->hdma[TIM_DMA_ID_CC3])
 10374              		.loc 1 4712 0
 10375 003a FB68     		ldr	r3, [r7, #12]
 10376 003c 9A6A     		ldr	r2, [r3, #40]
 10377 003e 7B68     		ldr	r3, [r7, #4]
 10378 0040 9A42     		cmp	r2, r3
 10379 0042 03D1     		bne	.L562
4713:Drivers/STM32F4xx_HAL_Driver/Src/stm32f4xx_hal_tim.c ****   {
4714:Drivers/STM32F4xx_HAL_Driver/Src/stm32f4xx_hal_tim.c ****     htim->Channel = HAL_TIM_ACTIVE_CHANNEL_3;
 10380              		.loc 1 4714 0
 10381 0044 FB68     		ldr	r3, [r7, #12]
 10382 0046 0422     		movs	r2, #4
 10383 0048 1A76     		strb	r2, [r3, #24]
 10384 004a 07E0     		b	.L560
 10385              	.L562:
4715:Drivers/STM32F4xx_HAL_Driver/Src/stm32f4xx_hal_tim.c ****   }
4716:Drivers/STM32F4xx_HAL_Driver/Src/stm32f4xx_hal_tim.c ****   else if(hdma == htim->hdma[TIM_DMA_ID_CC4])
 10386              		.loc 1 4716 0
 10387 004c FB68     		ldr	r3, [r7, #12]
 10388 004e DA6A     		ldr	r2, [r3, #44]
 10389 0050 7B68     		ldr	r3, [r7, #4]
 10390 0052 9A42     		cmp	r2, r3
 10391 0054 02D1     		bne	.L560
4717:Drivers/STM32F4xx_HAL_Driver/Src/stm32f4xx_hal_tim.c ****   {
4718:Drivers/STM32F4xx_HAL_Driver/Src/stm32f4xx_hal_tim.c ****     htim->Channel = HAL_TIM_ACTIVE_CHANNEL_4;
 10392              		.loc 1 4718 0
 10393 0056 FB68     		ldr	r3, [r7, #12]
 10394 0058 0822     		movs	r2, #8
 10395 005a 1A76     		strb	r2, [r3, #24]
 10396              	.L560:
4719:Drivers/STM32F4xx_HAL_Driver/Src/stm32f4xx_hal_tim.c ****   }
4720:Drivers/STM32F4xx_HAL_Driver/Src/stm32f4xx_hal_tim.c ****   
4721:Drivers/STM32F4xx_HAL_Driver/Src/stm32f4xx_hal_tim.c ****   HAL_TIM_IC_CaptureCallback(htim); 
 10397              		.loc 1 4721 0
 10398 005c F868     		ldr	r0, [r7, #12]
 10399 005e FFF7FEFF 		bl	HAL_TIM_IC_CaptureCallback
4722:Drivers/STM32F4xx_HAL_Driver/Src/stm32f4xx_hal_tim.c ****   
ARM GAS  /tmp/cc4tSQEQ.s 			page 266


4723:Drivers/STM32F4xx_HAL_Driver/Src/stm32f4xx_hal_tim.c ****   htim->Channel = HAL_TIM_ACTIVE_CHANNEL_CLEARED;
 10400              		.loc 1 4723 0
 10401 0062 FB68     		ldr	r3, [r7, #12]
 10402 0064 0022     		movs	r2, #0
 10403 0066 1A76     		strb	r2, [r3, #24]
4724:Drivers/STM32F4xx_HAL_Driver/Src/stm32f4xx_hal_tim.c **** }
 10404              		.loc 1 4724 0
 10405 0068 00BF     		nop
 10406 006a 1037     		adds	r7, r7, #16
 10407              	.LCFI493:
 10408              		.cfi_def_cfa_offset 8
 10409 006c BD46     		mov	sp, r7
 10410              	.LCFI494:
 10411              		.cfi_def_cfa_register 13
 10412              		@ sp needed
 10413 006e 80BD     		pop	{r7, pc}
 10414              		.cfi_endproc
 10415              	.LFE215:
 10417              		.section	.text.TIM_CCxChannelCmd,"ax",%progbits
 10418              		.align	1
 10419              		.global	TIM_CCxChannelCmd
 10420              		.syntax unified
 10421              		.thumb
 10422              		.thumb_func
 10423              		.fpu fpv4-sp-d16
 10425              	TIM_CCxChannelCmd:
 10426              	.LFB216:
4725:Drivers/STM32F4xx_HAL_Driver/Src/stm32f4xx_hal_tim.c **** 
4726:Drivers/STM32F4xx_HAL_Driver/Src/stm32f4xx_hal_tim.c **** /**
4727:Drivers/STM32F4xx_HAL_Driver/Src/stm32f4xx_hal_tim.c ****   * @brief  Enables or disables the TIM Capture Compare Channel x.
4728:Drivers/STM32F4xx_HAL_Driver/Src/stm32f4xx_hal_tim.c ****   * @param  TIMx to select the TIM peripheral
4729:Drivers/STM32F4xx_HAL_Driver/Src/stm32f4xx_hal_tim.c ****   * @param  Channel specifies the TIM Channel
4730:Drivers/STM32F4xx_HAL_Driver/Src/stm32f4xx_hal_tim.c ****   *          This parameter can be one of the following values:
4731:Drivers/STM32F4xx_HAL_Driver/Src/stm32f4xx_hal_tim.c ****   *            @arg TIM_Channel_1: TIM Channel 1
4732:Drivers/STM32F4xx_HAL_Driver/Src/stm32f4xx_hal_tim.c ****   *            @arg TIM_Channel_2: TIM Channel 2
4733:Drivers/STM32F4xx_HAL_Driver/Src/stm32f4xx_hal_tim.c ****   *            @arg TIM_Channel_3: TIM Channel 3
4734:Drivers/STM32F4xx_HAL_Driver/Src/stm32f4xx_hal_tim.c ****   *            @arg TIM_Channel_4: TIM Channel 4
4735:Drivers/STM32F4xx_HAL_Driver/Src/stm32f4xx_hal_tim.c ****   * @param  ChannelState specifies the TIM Channel CCxE bit new state.
4736:Drivers/STM32F4xx_HAL_Driver/Src/stm32f4xx_hal_tim.c ****   *          This parameter can be: TIM_CCx_ENABLE or TIM_CCx_Disable. 
4737:Drivers/STM32F4xx_HAL_Driver/Src/stm32f4xx_hal_tim.c ****   * @retval None
4738:Drivers/STM32F4xx_HAL_Driver/Src/stm32f4xx_hal_tim.c ****   */
4739:Drivers/STM32F4xx_HAL_Driver/Src/stm32f4xx_hal_tim.c **** void TIM_CCxChannelCmd(TIM_TypeDef* TIMx, uint32_t Channel, uint32_t ChannelState)
4740:Drivers/STM32F4xx_HAL_Driver/Src/stm32f4xx_hal_tim.c **** {
 10427              		.loc 1 4740 0
 10428              		.cfi_startproc
 10429              		@ args = 0, pretend = 0, frame = 24
 10430              		@ frame_needed = 1, uses_anonymous_args = 0
 10431              		@ link register save eliminated.
 10432 0000 80B4     		push	{r7}
 10433              	.LCFI495:
 10434              		.cfi_def_cfa_offset 4
 10435              		.cfi_offset 7, -4
 10436 0002 87B0     		sub	sp, sp, #28
 10437              	.LCFI496:
 10438              		.cfi_def_cfa_offset 32
 10439 0004 00AF     		add	r7, sp, #0
 10440              	.LCFI497:
ARM GAS  /tmp/cc4tSQEQ.s 			page 267


 10441              		.cfi_def_cfa_register 7
 10442 0006 F860     		str	r0, [r7, #12]
 10443 0008 B960     		str	r1, [r7, #8]
 10444 000a 7A60     		str	r2, [r7, #4]
4741:Drivers/STM32F4xx_HAL_Driver/Src/stm32f4xx_hal_tim.c ****   uint32_t tmp = 0U;
 10445              		.loc 1 4741 0
 10446 000c 0023     		movs	r3, #0
 10447 000e 7B61     		str	r3, [r7, #20]
4742:Drivers/STM32F4xx_HAL_Driver/Src/stm32f4xx_hal_tim.c **** 
4743:Drivers/STM32F4xx_HAL_Driver/Src/stm32f4xx_hal_tim.c ****   /* Check the parameters */
4744:Drivers/STM32F4xx_HAL_Driver/Src/stm32f4xx_hal_tim.c ****   assert_param(IS_TIM_CC1_INSTANCE(TIMx)); 
4745:Drivers/STM32F4xx_HAL_Driver/Src/stm32f4xx_hal_tim.c ****   assert_param(IS_TIM_CHANNELS(Channel));
4746:Drivers/STM32F4xx_HAL_Driver/Src/stm32f4xx_hal_tim.c **** 
4747:Drivers/STM32F4xx_HAL_Driver/Src/stm32f4xx_hal_tim.c ****   tmp = TIM_CCER_CC1E << Channel;
 10448              		.loc 1 4747 0
 10449 0010 0122     		movs	r2, #1
 10450 0012 BB68     		ldr	r3, [r7, #8]
 10451 0014 02FA03F3 		lsl	r3, r2, r3
 10452 0018 7B61     		str	r3, [r7, #20]
4748:Drivers/STM32F4xx_HAL_Driver/Src/stm32f4xx_hal_tim.c **** 
4749:Drivers/STM32F4xx_HAL_Driver/Src/stm32f4xx_hal_tim.c ****   /* Reset the CCxE Bit */
4750:Drivers/STM32F4xx_HAL_Driver/Src/stm32f4xx_hal_tim.c ****   TIMx->CCER &= ~tmp;
 10453              		.loc 1 4750 0
 10454 001a FB68     		ldr	r3, [r7, #12]
 10455 001c 1A6A     		ldr	r2, [r3, #32]
 10456 001e 7B69     		ldr	r3, [r7, #20]
 10457 0020 DB43     		mvns	r3, r3
 10458 0022 1A40     		ands	r2, r2, r3
 10459 0024 FB68     		ldr	r3, [r7, #12]
 10460 0026 1A62     		str	r2, [r3, #32]
4751:Drivers/STM32F4xx_HAL_Driver/Src/stm32f4xx_hal_tim.c **** 
4752:Drivers/STM32F4xx_HAL_Driver/Src/stm32f4xx_hal_tim.c ****   /* Set or reset the CCxE Bit */ 
4753:Drivers/STM32F4xx_HAL_Driver/Src/stm32f4xx_hal_tim.c ****   TIMx->CCER |= (uint32_t)(ChannelState << Channel);
 10461              		.loc 1 4753 0
 10462 0028 FB68     		ldr	r3, [r7, #12]
 10463 002a 1A6A     		ldr	r2, [r3, #32]
 10464 002c 7968     		ldr	r1, [r7, #4]
 10465 002e BB68     		ldr	r3, [r7, #8]
 10466 0030 01FA03F3 		lsl	r3, r1, r3
 10467 0034 1A43     		orrs	r2, r2, r3
 10468 0036 FB68     		ldr	r3, [r7, #12]
 10469 0038 1A62     		str	r2, [r3, #32]
4754:Drivers/STM32F4xx_HAL_Driver/Src/stm32f4xx_hal_tim.c **** }
 10470              		.loc 1 4754 0
 10471 003a 00BF     		nop
 10472 003c 1C37     		adds	r7, r7, #28
 10473              	.LCFI498:
 10474              		.cfi_def_cfa_offset 4
 10475 003e BD46     		mov	sp, r7
 10476              	.LCFI499:
 10477              		.cfi_def_cfa_register 13
 10478              		@ sp needed
 10479 0040 5DF8047B 		ldr	r7, [sp], #4
 10480              	.LCFI500:
 10481              		.cfi_restore 7
 10482              		.cfi_def_cfa_offset 0
 10483 0044 7047     		bx	lr
ARM GAS  /tmp/cc4tSQEQ.s 			page 268


 10484              		.cfi_endproc
 10485              	.LFE216:
 10487              		.section	.text.TIM_DMAPeriodElapsedCplt,"ax",%progbits
 10488              		.align	1
 10489              		.syntax unified
 10490              		.thumb
 10491              		.thumb_func
 10492              		.fpu fpv4-sp-d16
 10494              	TIM_DMAPeriodElapsedCplt:
 10495              	.LFB217:
4755:Drivers/STM32F4xx_HAL_Driver/Src/stm32f4xx_hal_tim.c **** 
4756:Drivers/STM32F4xx_HAL_Driver/Src/stm32f4xx_hal_tim.c **** /**
4757:Drivers/STM32F4xx_HAL_Driver/Src/stm32f4xx_hal_tim.c ****   * @brief  TIM DMA Period Elapse complete callback. 
4758:Drivers/STM32F4xx_HAL_Driver/Src/stm32f4xx_hal_tim.c ****   * @param  hdma pointer to a DMA_HandleTypeDef structure that contains
4759:Drivers/STM32F4xx_HAL_Driver/Src/stm32f4xx_hal_tim.c ****   *                the configuration information for the specified DMA module.
4760:Drivers/STM32F4xx_HAL_Driver/Src/stm32f4xx_hal_tim.c ****   * @retval None
4761:Drivers/STM32F4xx_HAL_Driver/Src/stm32f4xx_hal_tim.c ****   */
4762:Drivers/STM32F4xx_HAL_Driver/Src/stm32f4xx_hal_tim.c **** static void TIM_DMAPeriodElapsedCplt(DMA_HandleTypeDef *hdma)
4763:Drivers/STM32F4xx_HAL_Driver/Src/stm32f4xx_hal_tim.c **** {
 10496              		.loc 1 4763 0
 10497              		.cfi_startproc
 10498              		@ args = 0, pretend = 0, frame = 16
 10499              		@ frame_needed = 1, uses_anonymous_args = 0
 10500 0000 80B5     		push	{r7, lr}
 10501              	.LCFI501:
 10502              		.cfi_def_cfa_offset 8
 10503              		.cfi_offset 7, -8
 10504              		.cfi_offset 14, -4
 10505 0002 84B0     		sub	sp, sp, #16
 10506              	.LCFI502:
 10507              		.cfi_def_cfa_offset 24
 10508 0004 00AF     		add	r7, sp, #0
 10509              	.LCFI503:
 10510              		.cfi_def_cfa_register 7
 10511 0006 7860     		str	r0, [r7, #4]
4764:Drivers/STM32F4xx_HAL_Driver/Src/stm32f4xx_hal_tim.c ****   TIM_HandleTypeDef* htim = ( TIM_HandleTypeDef* )((DMA_HandleTypeDef* )hdma)->Parent;
 10512              		.loc 1 4764 0
 10513 0008 7B68     		ldr	r3, [r7, #4]
 10514 000a 9B6B     		ldr	r3, [r3, #56]
 10515 000c FB60     		str	r3, [r7, #12]
4765:Drivers/STM32F4xx_HAL_Driver/Src/stm32f4xx_hal_tim.c ****   
4766:Drivers/STM32F4xx_HAL_Driver/Src/stm32f4xx_hal_tim.c ****   htim->State= HAL_TIM_STATE_READY;
 10516              		.loc 1 4766 0
 10517 000e FB68     		ldr	r3, [r7, #12]
 10518 0010 0122     		movs	r2, #1
 10519 0012 83F83920 		strb	r2, [r3, #57]
4767:Drivers/STM32F4xx_HAL_Driver/Src/stm32f4xx_hal_tim.c ****   
4768:Drivers/STM32F4xx_HAL_Driver/Src/stm32f4xx_hal_tim.c ****   HAL_TIM_PeriodElapsedCallback(htim);
 10520              		.loc 1 4768 0
 10521 0016 F868     		ldr	r0, [r7, #12]
 10522 0018 FFF7FEFF 		bl	HAL_TIM_PeriodElapsedCallback
4769:Drivers/STM32F4xx_HAL_Driver/Src/stm32f4xx_hal_tim.c **** }
 10523              		.loc 1 4769 0
 10524 001c 00BF     		nop
 10525 001e 1037     		adds	r7, r7, #16
 10526              	.LCFI504:
 10527              		.cfi_def_cfa_offset 8
ARM GAS  /tmp/cc4tSQEQ.s 			page 269


 10528 0020 BD46     		mov	sp, r7
 10529              	.LCFI505:
 10530              		.cfi_def_cfa_register 13
 10531              		@ sp needed
 10532 0022 80BD     		pop	{r7, pc}
 10533              		.cfi_endproc
 10534              	.LFE217:
 10536              		.section	.text.TIM_DMATriggerCplt,"ax",%progbits
 10537              		.align	1
 10538              		.syntax unified
 10539              		.thumb
 10540              		.thumb_func
 10541              		.fpu fpv4-sp-d16
 10543              	TIM_DMATriggerCplt:
 10544              	.LFB218:
4770:Drivers/STM32F4xx_HAL_Driver/Src/stm32f4xx_hal_tim.c **** 
4771:Drivers/STM32F4xx_HAL_Driver/Src/stm32f4xx_hal_tim.c **** /**
4772:Drivers/STM32F4xx_HAL_Driver/Src/stm32f4xx_hal_tim.c ****   * @brief  TIM DMA Trigger callback. 
4773:Drivers/STM32F4xx_HAL_Driver/Src/stm32f4xx_hal_tim.c ****   * @param  hdma pointer to a DMA_HandleTypeDef structure that contains
4774:Drivers/STM32F4xx_HAL_Driver/Src/stm32f4xx_hal_tim.c ****   *                the configuration information for the specified DMA module.
4775:Drivers/STM32F4xx_HAL_Driver/Src/stm32f4xx_hal_tim.c ****   * @retval None
4776:Drivers/STM32F4xx_HAL_Driver/Src/stm32f4xx_hal_tim.c ****   */
4777:Drivers/STM32F4xx_HAL_Driver/Src/stm32f4xx_hal_tim.c **** static void TIM_DMATriggerCplt(DMA_HandleTypeDef *hdma)
4778:Drivers/STM32F4xx_HAL_Driver/Src/stm32f4xx_hal_tim.c **** {
 10545              		.loc 1 4778 0
 10546              		.cfi_startproc
 10547              		@ args = 0, pretend = 0, frame = 16
 10548              		@ frame_needed = 1, uses_anonymous_args = 0
 10549 0000 80B5     		push	{r7, lr}
 10550              	.LCFI506:
 10551              		.cfi_def_cfa_offset 8
 10552              		.cfi_offset 7, -8
 10553              		.cfi_offset 14, -4
 10554 0002 84B0     		sub	sp, sp, #16
 10555              	.LCFI507:
 10556              		.cfi_def_cfa_offset 24
 10557 0004 00AF     		add	r7, sp, #0
 10558              	.LCFI508:
 10559              		.cfi_def_cfa_register 7
 10560 0006 7860     		str	r0, [r7, #4]
4779:Drivers/STM32F4xx_HAL_Driver/Src/stm32f4xx_hal_tim.c ****   TIM_HandleTypeDef* htim = ( TIM_HandleTypeDef* )((DMA_HandleTypeDef* )hdma)->Parent;  
 10561              		.loc 1 4779 0
 10562 0008 7B68     		ldr	r3, [r7, #4]
 10563 000a 9B6B     		ldr	r3, [r3, #56]
 10564 000c FB60     		str	r3, [r7, #12]
4780:Drivers/STM32F4xx_HAL_Driver/Src/stm32f4xx_hal_tim.c ****   
4781:Drivers/STM32F4xx_HAL_Driver/Src/stm32f4xx_hal_tim.c ****   htim->State= HAL_TIM_STATE_READY; 
 10565              		.loc 1 4781 0
 10566 000e FB68     		ldr	r3, [r7, #12]
 10567 0010 0122     		movs	r2, #1
 10568 0012 83F83920 		strb	r2, [r3, #57]
4782:Drivers/STM32F4xx_HAL_Driver/Src/stm32f4xx_hal_tim.c ****   
4783:Drivers/STM32F4xx_HAL_Driver/Src/stm32f4xx_hal_tim.c ****   HAL_TIM_TriggerCallback(htim);
 10569              		.loc 1 4783 0
 10570 0016 F868     		ldr	r0, [r7, #12]
 10571 0018 FFF7FEFF 		bl	HAL_TIM_TriggerCallback
4784:Drivers/STM32F4xx_HAL_Driver/Src/stm32f4xx_hal_tim.c **** }
ARM GAS  /tmp/cc4tSQEQ.s 			page 270


 10572              		.loc 1 4784 0
 10573 001c 00BF     		nop
 10574 001e 1037     		adds	r7, r7, #16
 10575              	.LCFI509:
 10576              		.cfi_def_cfa_offset 8
 10577 0020 BD46     		mov	sp, r7
 10578              	.LCFI510:
 10579              		.cfi_def_cfa_register 13
 10580              		@ sp needed
 10581 0022 80BD     		pop	{r7, pc}
 10582              		.cfi_endproc
 10583              	.LFE218:
 10585              		.section	.text.TIM_OC1_SetConfig,"ax",%progbits
 10586              		.align	1
 10587              		.syntax unified
 10588              		.thumb
 10589              		.thumb_func
 10590              		.fpu fpv4-sp-d16
 10592              	TIM_OC1_SetConfig:
 10593              	.LFB219:
4785:Drivers/STM32F4xx_HAL_Driver/Src/stm32f4xx_hal_tim.c **** 
4786:Drivers/STM32F4xx_HAL_Driver/Src/stm32f4xx_hal_tim.c **** /**
4787:Drivers/STM32F4xx_HAL_Driver/Src/stm32f4xx_hal_tim.c ****   * @brief  Time Output Compare 1 configuration
4788:Drivers/STM32F4xx_HAL_Driver/Src/stm32f4xx_hal_tim.c ****   * @param  TIMx to select the TIM peripheral
4789:Drivers/STM32F4xx_HAL_Driver/Src/stm32f4xx_hal_tim.c ****   * @param  OC_Config The output configuration structure
4790:Drivers/STM32F4xx_HAL_Driver/Src/stm32f4xx_hal_tim.c ****   * @retval None
4791:Drivers/STM32F4xx_HAL_Driver/Src/stm32f4xx_hal_tim.c ****   */
4792:Drivers/STM32F4xx_HAL_Driver/Src/stm32f4xx_hal_tim.c **** static void TIM_OC1_SetConfig(TIM_TypeDef *TIMx, TIM_OC_InitTypeDef *OC_Config)
4793:Drivers/STM32F4xx_HAL_Driver/Src/stm32f4xx_hal_tim.c **** {
 10594              		.loc 1 4793 0
 10595              		.cfi_startproc
 10596              		@ args = 0, pretend = 0, frame = 24
 10597              		@ frame_needed = 1, uses_anonymous_args = 0
 10598              		@ link register save eliminated.
 10599 0000 80B4     		push	{r7}
 10600              	.LCFI511:
 10601              		.cfi_def_cfa_offset 4
 10602              		.cfi_offset 7, -4
 10603 0002 87B0     		sub	sp, sp, #28
 10604              	.LCFI512:
 10605              		.cfi_def_cfa_offset 32
 10606 0004 00AF     		add	r7, sp, #0
 10607              	.LCFI513:
 10608              		.cfi_def_cfa_register 7
 10609 0006 7860     		str	r0, [r7, #4]
 10610 0008 3960     		str	r1, [r7]
4794:Drivers/STM32F4xx_HAL_Driver/Src/stm32f4xx_hal_tim.c ****   uint32_t tmpccmrx = 0U;
 10611              		.loc 1 4794 0
 10612 000a 0023     		movs	r3, #0
 10613 000c FB60     		str	r3, [r7, #12]
4795:Drivers/STM32F4xx_HAL_Driver/Src/stm32f4xx_hal_tim.c ****   uint32_t tmpccer = 0U;
 10614              		.loc 1 4795 0
 10615 000e 0023     		movs	r3, #0
 10616 0010 7B61     		str	r3, [r7, #20]
4796:Drivers/STM32F4xx_HAL_Driver/Src/stm32f4xx_hal_tim.c ****   uint32_t tmpcr2 = 0U;  
 10617              		.loc 1 4796 0
 10618 0012 0023     		movs	r3, #0
ARM GAS  /tmp/cc4tSQEQ.s 			page 271


 10619 0014 3B61     		str	r3, [r7, #16]
4797:Drivers/STM32F4xx_HAL_Driver/Src/stm32f4xx_hal_tim.c **** 
4798:Drivers/STM32F4xx_HAL_Driver/Src/stm32f4xx_hal_tim.c ****   /* Disable the Channel 1: Reset the CC1E Bit */
4799:Drivers/STM32F4xx_HAL_Driver/Src/stm32f4xx_hal_tim.c ****   TIMx->CCER &= ~TIM_CCER_CC1E;
 10620              		.loc 1 4799 0
 10621 0016 7B68     		ldr	r3, [r7, #4]
 10622 0018 1B6A     		ldr	r3, [r3, #32]
 10623 001a 23F00102 		bic	r2, r3, #1
 10624 001e 7B68     		ldr	r3, [r7, #4]
 10625 0020 1A62     		str	r2, [r3, #32]
4800:Drivers/STM32F4xx_HAL_Driver/Src/stm32f4xx_hal_tim.c ****   
4801:Drivers/STM32F4xx_HAL_Driver/Src/stm32f4xx_hal_tim.c ****   /* Get the TIMx CCER register value */
4802:Drivers/STM32F4xx_HAL_Driver/Src/stm32f4xx_hal_tim.c ****   tmpccer = TIMx->CCER;
 10626              		.loc 1 4802 0
 10627 0022 7B68     		ldr	r3, [r7, #4]
 10628 0024 1B6A     		ldr	r3, [r3, #32]
 10629 0026 7B61     		str	r3, [r7, #20]
4803:Drivers/STM32F4xx_HAL_Driver/Src/stm32f4xx_hal_tim.c ****   /* Get the TIMx CR2 register value */
4804:Drivers/STM32F4xx_HAL_Driver/Src/stm32f4xx_hal_tim.c ****   tmpcr2 = TIMx->CR2;
 10630              		.loc 1 4804 0
 10631 0028 7B68     		ldr	r3, [r7, #4]
 10632 002a 5B68     		ldr	r3, [r3, #4]
 10633 002c 3B61     		str	r3, [r7, #16]
4805:Drivers/STM32F4xx_HAL_Driver/Src/stm32f4xx_hal_tim.c ****   
4806:Drivers/STM32F4xx_HAL_Driver/Src/stm32f4xx_hal_tim.c ****   /* Get the TIMx CCMR1 register value */
4807:Drivers/STM32F4xx_HAL_Driver/Src/stm32f4xx_hal_tim.c ****   tmpccmrx = TIMx->CCMR1;
 10634              		.loc 1 4807 0
 10635 002e 7B68     		ldr	r3, [r7, #4]
 10636 0030 9B69     		ldr	r3, [r3, #24]
 10637 0032 FB60     		str	r3, [r7, #12]
4808:Drivers/STM32F4xx_HAL_Driver/Src/stm32f4xx_hal_tim.c ****     
4809:Drivers/STM32F4xx_HAL_Driver/Src/stm32f4xx_hal_tim.c ****   /* Reset the Output Compare Mode Bits */
4810:Drivers/STM32F4xx_HAL_Driver/Src/stm32f4xx_hal_tim.c ****   tmpccmrx &= ~TIM_CCMR1_OC1M;
 10638              		.loc 1 4810 0
 10639 0034 FB68     		ldr	r3, [r7, #12]
 10640 0036 23F07003 		bic	r3, r3, #112
 10641 003a FB60     		str	r3, [r7, #12]
4811:Drivers/STM32F4xx_HAL_Driver/Src/stm32f4xx_hal_tim.c ****   tmpccmrx &= ~TIM_CCMR1_CC1S;
 10642              		.loc 1 4811 0
 10643 003c FB68     		ldr	r3, [r7, #12]
 10644 003e 23F00303 		bic	r3, r3, #3
 10645 0042 FB60     		str	r3, [r7, #12]
4812:Drivers/STM32F4xx_HAL_Driver/Src/stm32f4xx_hal_tim.c ****   /* Select the Output Compare Mode */
4813:Drivers/STM32F4xx_HAL_Driver/Src/stm32f4xx_hal_tim.c ****   tmpccmrx |= OC_Config->OCMode;
 10646              		.loc 1 4813 0
 10647 0044 3B68     		ldr	r3, [r7]
 10648 0046 1B68     		ldr	r3, [r3]
 10649 0048 FA68     		ldr	r2, [r7, #12]
 10650 004a 1343     		orrs	r3, r3, r2
 10651 004c FB60     		str	r3, [r7, #12]
4814:Drivers/STM32F4xx_HAL_Driver/Src/stm32f4xx_hal_tim.c ****   
4815:Drivers/STM32F4xx_HAL_Driver/Src/stm32f4xx_hal_tim.c ****   /* Reset the Output Polarity level */
4816:Drivers/STM32F4xx_HAL_Driver/Src/stm32f4xx_hal_tim.c ****   tmpccer &= ~TIM_CCER_CC1P;
 10652              		.loc 1 4816 0
 10653 004e 7B69     		ldr	r3, [r7, #20]
 10654 0050 23F00203 		bic	r3, r3, #2
 10655 0054 7B61     		str	r3, [r7, #20]
ARM GAS  /tmp/cc4tSQEQ.s 			page 272


4817:Drivers/STM32F4xx_HAL_Driver/Src/stm32f4xx_hal_tim.c ****   /* Set the Output Compare Polarity */
4818:Drivers/STM32F4xx_HAL_Driver/Src/stm32f4xx_hal_tim.c ****   tmpccer |= OC_Config->OCPolarity;
 10656              		.loc 1 4818 0
 10657 0056 3B68     		ldr	r3, [r7]
 10658 0058 9B68     		ldr	r3, [r3, #8]
 10659 005a 7A69     		ldr	r2, [r7, #20]
 10660 005c 1343     		orrs	r3, r3, r2
 10661 005e 7B61     		str	r3, [r7, #20]
4819:Drivers/STM32F4xx_HAL_Driver/Src/stm32f4xx_hal_tim.c **** 
4820:Drivers/STM32F4xx_HAL_Driver/Src/stm32f4xx_hal_tim.c ****     
4821:Drivers/STM32F4xx_HAL_Driver/Src/stm32f4xx_hal_tim.c ****   if(IS_TIM_ADVANCED_INSTANCE(TIMx) != RESET)
 10662              		.loc 1 4821 0
 10663 0060 7B68     		ldr	r3, [r7, #4]
 10664 0062 1A4A     		ldr	r2, .L568
 10665 0064 9342     		cmp	r3, r2
 10666 0066 1ED1     		bne	.L567
4822:Drivers/STM32F4xx_HAL_Driver/Src/stm32f4xx_hal_tim.c ****   {   
4823:Drivers/STM32F4xx_HAL_Driver/Src/stm32f4xx_hal_tim.c ****     /* Reset the Output N Polarity level */
4824:Drivers/STM32F4xx_HAL_Driver/Src/stm32f4xx_hal_tim.c ****     tmpccer &= ~TIM_CCER_CC1NP;
 10667              		.loc 1 4824 0
 10668 0068 7B69     		ldr	r3, [r7, #20]
 10669 006a 23F00803 		bic	r3, r3, #8
 10670 006e 7B61     		str	r3, [r7, #20]
4825:Drivers/STM32F4xx_HAL_Driver/Src/stm32f4xx_hal_tim.c ****     /* Set the Output N Polarity */
4826:Drivers/STM32F4xx_HAL_Driver/Src/stm32f4xx_hal_tim.c ****     tmpccer |= OC_Config->OCNPolarity;
 10671              		.loc 1 4826 0
 10672 0070 3B68     		ldr	r3, [r7]
 10673 0072 DB68     		ldr	r3, [r3, #12]
 10674 0074 7A69     		ldr	r2, [r7, #20]
 10675 0076 1343     		orrs	r3, r3, r2
 10676 0078 7B61     		str	r3, [r7, #20]
4827:Drivers/STM32F4xx_HAL_Driver/Src/stm32f4xx_hal_tim.c ****     /* Reset the Output N State */
4828:Drivers/STM32F4xx_HAL_Driver/Src/stm32f4xx_hal_tim.c ****     tmpccer &= ~TIM_CCER_CC1NE;
 10677              		.loc 1 4828 0
 10678 007a 7B69     		ldr	r3, [r7, #20]
 10679 007c 23F00403 		bic	r3, r3, #4
 10680 0080 7B61     		str	r3, [r7, #20]
4829:Drivers/STM32F4xx_HAL_Driver/Src/stm32f4xx_hal_tim.c ****     
4830:Drivers/STM32F4xx_HAL_Driver/Src/stm32f4xx_hal_tim.c ****     /* Reset the Output Compare and Output Compare N IDLE State */
4831:Drivers/STM32F4xx_HAL_Driver/Src/stm32f4xx_hal_tim.c ****     tmpcr2 &= ~TIM_CR2_OIS1;
 10681              		.loc 1 4831 0
 10682 0082 3B69     		ldr	r3, [r7, #16]
 10683 0084 23F48073 		bic	r3, r3, #256
 10684 0088 3B61     		str	r3, [r7, #16]
4832:Drivers/STM32F4xx_HAL_Driver/Src/stm32f4xx_hal_tim.c ****     tmpcr2 &= ~TIM_CR2_OIS1N;
 10685              		.loc 1 4832 0
 10686 008a 3B69     		ldr	r3, [r7, #16]
 10687 008c 23F40073 		bic	r3, r3, #512
 10688 0090 3B61     		str	r3, [r7, #16]
4833:Drivers/STM32F4xx_HAL_Driver/Src/stm32f4xx_hal_tim.c ****     /* Set the Output Idle state */
4834:Drivers/STM32F4xx_HAL_Driver/Src/stm32f4xx_hal_tim.c ****     tmpcr2 |= OC_Config->OCIdleState;
 10689              		.loc 1 4834 0
 10690 0092 3B68     		ldr	r3, [r7]
 10691 0094 5B69     		ldr	r3, [r3, #20]
 10692 0096 3A69     		ldr	r2, [r7, #16]
 10693 0098 1343     		orrs	r3, r3, r2
 10694 009a 3B61     		str	r3, [r7, #16]
ARM GAS  /tmp/cc4tSQEQ.s 			page 273


4835:Drivers/STM32F4xx_HAL_Driver/Src/stm32f4xx_hal_tim.c ****     /* Set the Output N Idle state */
4836:Drivers/STM32F4xx_HAL_Driver/Src/stm32f4xx_hal_tim.c ****     tmpcr2 |= OC_Config->OCNIdleState;
 10695              		.loc 1 4836 0
 10696 009c 3B68     		ldr	r3, [r7]
 10697 009e 9B69     		ldr	r3, [r3, #24]
 10698 00a0 3A69     		ldr	r2, [r7, #16]
 10699 00a2 1343     		orrs	r3, r3, r2
 10700 00a4 3B61     		str	r3, [r7, #16]
 10701              	.L567:
4837:Drivers/STM32F4xx_HAL_Driver/Src/stm32f4xx_hal_tim.c ****   }
4838:Drivers/STM32F4xx_HAL_Driver/Src/stm32f4xx_hal_tim.c ****   /* Write to TIMx CR2 */
4839:Drivers/STM32F4xx_HAL_Driver/Src/stm32f4xx_hal_tim.c ****   TIMx->CR2 = tmpcr2;
 10702              		.loc 1 4839 0
 10703 00a6 7B68     		ldr	r3, [r7, #4]
 10704 00a8 3A69     		ldr	r2, [r7, #16]
 10705 00aa 5A60     		str	r2, [r3, #4]
4840:Drivers/STM32F4xx_HAL_Driver/Src/stm32f4xx_hal_tim.c ****   
4841:Drivers/STM32F4xx_HAL_Driver/Src/stm32f4xx_hal_tim.c ****   /* Write to TIMx CCMR1 */
4842:Drivers/STM32F4xx_HAL_Driver/Src/stm32f4xx_hal_tim.c ****   TIMx->CCMR1 = tmpccmrx;
 10706              		.loc 1 4842 0
 10707 00ac 7B68     		ldr	r3, [r7, #4]
 10708 00ae FA68     		ldr	r2, [r7, #12]
 10709 00b0 9A61     		str	r2, [r3, #24]
4843:Drivers/STM32F4xx_HAL_Driver/Src/stm32f4xx_hal_tim.c ****   
4844:Drivers/STM32F4xx_HAL_Driver/Src/stm32f4xx_hal_tim.c ****   /* Set the Capture Compare Register value */
4845:Drivers/STM32F4xx_HAL_Driver/Src/stm32f4xx_hal_tim.c ****   TIMx->CCR1 = OC_Config->Pulse;
 10710              		.loc 1 4845 0
 10711 00b2 3B68     		ldr	r3, [r7]
 10712 00b4 5A68     		ldr	r2, [r3, #4]
 10713 00b6 7B68     		ldr	r3, [r7, #4]
 10714 00b8 5A63     		str	r2, [r3, #52]
4846:Drivers/STM32F4xx_HAL_Driver/Src/stm32f4xx_hal_tim.c ****   
4847:Drivers/STM32F4xx_HAL_Driver/Src/stm32f4xx_hal_tim.c ****   /* Write to TIMx CCER */
4848:Drivers/STM32F4xx_HAL_Driver/Src/stm32f4xx_hal_tim.c ****   TIMx->CCER = tmpccer;  
 10715              		.loc 1 4848 0
 10716 00ba 7B68     		ldr	r3, [r7, #4]
 10717 00bc 7A69     		ldr	r2, [r7, #20]
 10718 00be 1A62     		str	r2, [r3, #32]
4849:Drivers/STM32F4xx_HAL_Driver/Src/stm32f4xx_hal_tim.c **** } 
 10719              		.loc 1 4849 0
 10720 00c0 00BF     		nop
 10721 00c2 1C37     		adds	r7, r7, #28
 10722              	.LCFI514:
 10723              		.cfi_def_cfa_offset 4
 10724 00c4 BD46     		mov	sp, r7
 10725              	.LCFI515:
 10726              		.cfi_def_cfa_register 13
 10727              		@ sp needed
 10728 00c6 5DF8047B 		ldr	r7, [sp], #4
 10729              	.LCFI516:
 10730              		.cfi_restore 7
 10731              		.cfi_def_cfa_offset 0
 10732 00ca 7047     		bx	lr
 10733              	.L569:
 10734              		.align	2
 10735              	.L568:
 10736 00cc 00000140 		.word	1073807360
ARM GAS  /tmp/cc4tSQEQ.s 			page 274


 10737              		.cfi_endproc
 10738              	.LFE219:
 10740              		.section	.text.TIM_OC3_SetConfig,"ax",%progbits
 10741              		.align	1
 10742              		.syntax unified
 10743              		.thumb
 10744              		.thumb_func
 10745              		.fpu fpv4-sp-d16
 10747              	TIM_OC3_SetConfig:
 10748              	.LFB220:
4850:Drivers/STM32F4xx_HAL_Driver/Src/stm32f4xx_hal_tim.c **** 
4851:Drivers/STM32F4xx_HAL_Driver/Src/stm32f4xx_hal_tim.c **** /**
4852:Drivers/STM32F4xx_HAL_Driver/Src/stm32f4xx_hal_tim.c ****   * @brief  Time Output Compare 3 configuration
4853:Drivers/STM32F4xx_HAL_Driver/Src/stm32f4xx_hal_tim.c ****   * @param  TIMx to select the TIM peripheral
4854:Drivers/STM32F4xx_HAL_Driver/Src/stm32f4xx_hal_tim.c ****   * @param  OC_Config The output configuration structure
4855:Drivers/STM32F4xx_HAL_Driver/Src/stm32f4xx_hal_tim.c ****   * @retval None
4856:Drivers/STM32F4xx_HAL_Driver/Src/stm32f4xx_hal_tim.c ****   */
4857:Drivers/STM32F4xx_HAL_Driver/Src/stm32f4xx_hal_tim.c **** static void TIM_OC3_SetConfig(TIM_TypeDef *TIMx, TIM_OC_InitTypeDef *OC_Config)
4858:Drivers/STM32F4xx_HAL_Driver/Src/stm32f4xx_hal_tim.c **** {
 10749              		.loc 1 4858 0
 10750              		.cfi_startproc
 10751              		@ args = 0, pretend = 0, frame = 24
 10752              		@ frame_needed = 1, uses_anonymous_args = 0
 10753              		@ link register save eliminated.
 10754 0000 80B4     		push	{r7}
 10755              	.LCFI517:
 10756              		.cfi_def_cfa_offset 4
 10757              		.cfi_offset 7, -4
 10758 0002 87B0     		sub	sp, sp, #28
 10759              	.LCFI518:
 10760              		.cfi_def_cfa_offset 32
 10761 0004 00AF     		add	r7, sp, #0
 10762              	.LCFI519:
 10763              		.cfi_def_cfa_register 7
 10764 0006 7860     		str	r0, [r7, #4]
 10765 0008 3960     		str	r1, [r7]
4859:Drivers/STM32F4xx_HAL_Driver/Src/stm32f4xx_hal_tim.c ****   uint32_t tmpccmrx = 0U;
 10766              		.loc 1 4859 0
 10767 000a 0023     		movs	r3, #0
 10768 000c FB60     		str	r3, [r7, #12]
4860:Drivers/STM32F4xx_HAL_Driver/Src/stm32f4xx_hal_tim.c ****   uint32_t tmpccer = 0U;
 10769              		.loc 1 4860 0
 10770 000e 0023     		movs	r3, #0
 10771 0010 7B61     		str	r3, [r7, #20]
4861:Drivers/STM32F4xx_HAL_Driver/Src/stm32f4xx_hal_tim.c ****   uint32_t tmpcr2 = 0U;   
 10772              		.loc 1 4861 0
 10773 0012 0023     		movs	r3, #0
 10774 0014 3B61     		str	r3, [r7, #16]
4862:Drivers/STM32F4xx_HAL_Driver/Src/stm32f4xx_hal_tim.c **** 
4863:Drivers/STM32F4xx_HAL_Driver/Src/stm32f4xx_hal_tim.c ****   /* Disable the Channel 3: Reset the CC2E Bit */
4864:Drivers/STM32F4xx_HAL_Driver/Src/stm32f4xx_hal_tim.c ****   TIMx->CCER &= ~TIM_CCER_CC3E;
 10775              		.loc 1 4864 0
 10776 0016 7B68     		ldr	r3, [r7, #4]
 10777 0018 1B6A     		ldr	r3, [r3, #32]
 10778 001a 23F48072 		bic	r2, r3, #256
 10779 001e 7B68     		ldr	r3, [r7, #4]
 10780 0020 1A62     		str	r2, [r3, #32]
ARM GAS  /tmp/cc4tSQEQ.s 			page 275


4865:Drivers/STM32F4xx_HAL_Driver/Src/stm32f4xx_hal_tim.c ****   
4866:Drivers/STM32F4xx_HAL_Driver/Src/stm32f4xx_hal_tim.c ****   /* Get the TIMx CCER register value */
4867:Drivers/STM32F4xx_HAL_Driver/Src/stm32f4xx_hal_tim.c ****   tmpccer = TIMx->CCER;
 10781              		.loc 1 4867 0
 10782 0022 7B68     		ldr	r3, [r7, #4]
 10783 0024 1B6A     		ldr	r3, [r3, #32]
 10784 0026 7B61     		str	r3, [r7, #20]
4868:Drivers/STM32F4xx_HAL_Driver/Src/stm32f4xx_hal_tim.c ****   /* Get the TIMx CR2 register value */
4869:Drivers/STM32F4xx_HAL_Driver/Src/stm32f4xx_hal_tim.c ****   tmpcr2 = TIMx->CR2;
 10785              		.loc 1 4869 0
 10786 0028 7B68     		ldr	r3, [r7, #4]
 10787 002a 5B68     		ldr	r3, [r3, #4]
 10788 002c 3B61     		str	r3, [r7, #16]
4870:Drivers/STM32F4xx_HAL_Driver/Src/stm32f4xx_hal_tim.c ****   
4871:Drivers/STM32F4xx_HAL_Driver/Src/stm32f4xx_hal_tim.c ****   /* Get the TIMx CCMR2 register value */
4872:Drivers/STM32F4xx_HAL_Driver/Src/stm32f4xx_hal_tim.c ****   tmpccmrx = TIMx->CCMR2;
 10789              		.loc 1 4872 0
 10790 002e 7B68     		ldr	r3, [r7, #4]
 10791 0030 DB69     		ldr	r3, [r3, #28]
 10792 0032 FB60     		str	r3, [r7, #12]
4873:Drivers/STM32F4xx_HAL_Driver/Src/stm32f4xx_hal_tim.c ****     
4874:Drivers/STM32F4xx_HAL_Driver/Src/stm32f4xx_hal_tim.c ****   /* Reset the Output Compare mode and Capture/Compare selection Bits */
4875:Drivers/STM32F4xx_HAL_Driver/Src/stm32f4xx_hal_tim.c ****   tmpccmrx &= ~TIM_CCMR2_OC3M;
 10793              		.loc 1 4875 0
 10794 0034 FB68     		ldr	r3, [r7, #12]
 10795 0036 23F07003 		bic	r3, r3, #112
 10796 003a FB60     		str	r3, [r7, #12]
4876:Drivers/STM32F4xx_HAL_Driver/Src/stm32f4xx_hal_tim.c ****   tmpccmrx &= ~TIM_CCMR2_CC3S;  
 10797              		.loc 1 4876 0
 10798 003c FB68     		ldr	r3, [r7, #12]
 10799 003e 23F00303 		bic	r3, r3, #3
 10800 0042 FB60     		str	r3, [r7, #12]
4877:Drivers/STM32F4xx_HAL_Driver/Src/stm32f4xx_hal_tim.c ****   /* Select the Output Compare Mode */
4878:Drivers/STM32F4xx_HAL_Driver/Src/stm32f4xx_hal_tim.c ****   tmpccmrx |= OC_Config->OCMode;
 10801              		.loc 1 4878 0
 10802 0044 3B68     		ldr	r3, [r7]
 10803 0046 1B68     		ldr	r3, [r3]
 10804 0048 FA68     		ldr	r2, [r7, #12]
 10805 004a 1343     		orrs	r3, r3, r2
 10806 004c FB60     		str	r3, [r7, #12]
4879:Drivers/STM32F4xx_HAL_Driver/Src/stm32f4xx_hal_tim.c ****   
4880:Drivers/STM32F4xx_HAL_Driver/Src/stm32f4xx_hal_tim.c ****   /* Reset the Output Polarity level */
4881:Drivers/STM32F4xx_HAL_Driver/Src/stm32f4xx_hal_tim.c ****   tmpccer &= ~TIM_CCER_CC3P;
 10807              		.loc 1 4881 0
 10808 004e 7B69     		ldr	r3, [r7, #20]
 10809 0050 23F40073 		bic	r3, r3, #512
 10810 0054 7B61     		str	r3, [r7, #20]
4882:Drivers/STM32F4xx_HAL_Driver/Src/stm32f4xx_hal_tim.c ****   /* Set the Output Compare Polarity */
4883:Drivers/STM32F4xx_HAL_Driver/Src/stm32f4xx_hal_tim.c ****   tmpccer |= (OC_Config->OCPolarity << 8U);
 10811              		.loc 1 4883 0
 10812 0056 3B68     		ldr	r3, [r7]
 10813 0058 9B68     		ldr	r3, [r3, #8]
 10814 005a 1B02     		lsls	r3, r3, #8
 10815 005c 7A69     		ldr	r2, [r7, #20]
 10816 005e 1343     		orrs	r3, r3, r2
 10817 0060 7B61     		str	r3, [r7, #20]
4884:Drivers/STM32F4xx_HAL_Driver/Src/stm32f4xx_hal_tim.c ****     
ARM GAS  /tmp/cc4tSQEQ.s 			page 276


4885:Drivers/STM32F4xx_HAL_Driver/Src/stm32f4xx_hal_tim.c ****   if(IS_TIM_ADVANCED_INSTANCE(TIMx) != RESET)
 10818              		.loc 1 4885 0
 10819 0062 7B68     		ldr	r3, [r7, #4]
 10820 0064 1B4A     		ldr	r2, .L572
 10821 0066 9342     		cmp	r3, r2
 10822 0068 21D1     		bne	.L571
4886:Drivers/STM32F4xx_HAL_Driver/Src/stm32f4xx_hal_tim.c ****   {
4887:Drivers/STM32F4xx_HAL_Driver/Src/stm32f4xx_hal_tim.c ****     assert_param(IS_TIM_OCN_POLARITY(OC_Config->OCNPolarity));
4888:Drivers/STM32F4xx_HAL_Driver/Src/stm32f4xx_hal_tim.c ****     assert_param(IS_TIM_OCNIDLE_STATE(OC_Config->OCNIdleState));
4889:Drivers/STM32F4xx_HAL_Driver/Src/stm32f4xx_hal_tim.c ****     assert_param(IS_TIM_OCIDLE_STATE(OC_Config->OCIdleState));
4890:Drivers/STM32F4xx_HAL_Driver/Src/stm32f4xx_hal_tim.c ****     
4891:Drivers/STM32F4xx_HAL_Driver/Src/stm32f4xx_hal_tim.c ****     /* Reset the Output N Polarity level */
4892:Drivers/STM32F4xx_HAL_Driver/Src/stm32f4xx_hal_tim.c ****     tmpccer &= ~TIM_CCER_CC3NP;
 10823              		.loc 1 4892 0
 10824 006a 7B69     		ldr	r3, [r7, #20]
 10825 006c 23F40063 		bic	r3, r3, #2048
 10826 0070 7B61     		str	r3, [r7, #20]
4893:Drivers/STM32F4xx_HAL_Driver/Src/stm32f4xx_hal_tim.c ****     /* Set the Output N Polarity */
4894:Drivers/STM32F4xx_HAL_Driver/Src/stm32f4xx_hal_tim.c ****     tmpccer |= (OC_Config->OCNPolarity << 8U);
 10827              		.loc 1 4894 0
 10828 0072 3B68     		ldr	r3, [r7]
 10829 0074 DB68     		ldr	r3, [r3, #12]
 10830 0076 1B02     		lsls	r3, r3, #8
 10831 0078 7A69     		ldr	r2, [r7, #20]
 10832 007a 1343     		orrs	r3, r3, r2
 10833 007c 7B61     		str	r3, [r7, #20]
4895:Drivers/STM32F4xx_HAL_Driver/Src/stm32f4xx_hal_tim.c ****     /* Reset the Output N State */
4896:Drivers/STM32F4xx_HAL_Driver/Src/stm32f4xx_hal_tim.c ****     tmpccer &= ~TIM_CCER_CC3NE;
 10834              		.loc 1 4896 0
 10835 007e 7B69     		ldr	r3, [r7, #20]
 10836 0080 23F48063 		bic	r3, r3, #1024
 10837 0084 7B61     		str	r3, [r7, #20]
4897:Drivers/STM32F4xx_HAL_Driver/Src/stm32f4xx_hal_tim.c ****     
4898:Drivers/STM32F4xx_HAL_Driver/Src/stm32f4xx_hal_tim.c ****     /* Reset the Output Compare and Output Compare N IDLE State */
4899:Drivers/STM32F4xx_HAL_Driver/Src/stm32f4xx_hal_tim.c ****     tmpcr2 &= ~TIM_CR2_OIS3;
 10838              		.loc 1 4899 0
 10839 0086 3B69     		ldr	r3, [r7, #16]
 10840 0088 23F48053 		bic	r3, r3, #4096
 10841 008c 3B61     		str	r3, [r7, #16]
4900:Drivers/STM32F4xx_HAL_Driver/Src/stm32f4xx_hal_tim.c ****     tmpcr2 &= ~TIM_CR2_OIS3N;
 10842              		.loc 1 4900 0
 10843 008e 3B69     		ldr	r3, [r7, #16]
 10844 0090 23F40053 		bic	r3, r3, #8192
 10845 0094 3B61     		str	r3, [r7, #16]
4901:Drivers/STM32F4xx_HAL_Driver/Src/stm32f4xx_hal_tim.c ****     /* Set the Output Idle state */
4902:Drivers/STM32F4xx_HAL_Driver/Src/stm32f4xx_hal_tim.c ****     tmpcr2 |= (OC_Config->OCIdleState << 4U);
 10846              		.loc 1 4902 0
 10847 0096 3B68     		ldr	r3, [r7]
 10848 0098 5B69     		ldr	r3, [r3, #20]
 10849 009a 1B01     		lsls	r3, r3, #4
 10850 009c 3A69     		ldr	r2, [r7, #16]
 10851 009e 1343     		orrs	r3, r3, r2
 10852 00a0 3B61     		str	r3, [r7, #16]
4903:Drivers/STM32F4xx_HAL_Driver/Src/stm32f4xx_hal_tim.c ****     /* Set the Output N Idle state */
4904:Drivers/STM32F4xx_HAL_Driver/Src/stm32f4xx_hal_tim.c ****     tmpcr2 |= (OC_Config->OCNIdleState << 4U);
 10853              		.loc 1 4904 0
 10854 00a2 3B68     		ldr	r3, [r7]
ARM GAS  /tmp/cc4tSQEQ.s 			page 277


 10855 00a4 9B69     		ldr	r3, [r3, #24]
 10856 00a6 1B01     		lsls	r3, r3, #4
 10857 00a8 3A69     		ldr	r2, [r7, #16]
 10858 00aa 1343     		orrs	r3, r3, r2
 10859 00ac 3B61     		str	r3, [r7, #16]
 10860              	.L571:
4905:Drivers/STM32F4xx_HAL_Driver/Src/stm32f4xx_hal_tim.c ****   }
4906:Drivers/STM32F4xx_HAL_Driver/Src/stm32f4xx_hal_tim.c ****   /* Write to TIMx CR2 */
4907:Drivers/STM32F4xx_HAL_Driver/Src/stm32f4xx_hal_tim.c ****   TIMx->CR2 = tmpcr2;
 10861              		.loc 1 4907 0
 10862 00ae 7B68     		ldr	r3, [r7, #4]
 10863 00b0 3A69     		ldr	r2, [r7, #16]
 10864 00b2 5A60     		str	r2, [r3, #4]
4908:Drivers/STM32F4xx_HAL_Driver/Src/stm32f4xx_hal_tim.c ****   
4909:Drivers/STM32F4xx_HAL_Driver/Src/stm32f4xx_hal_tim.c ****   /* Write to TIMx CCMR2 */
4910:Drivers/STM32F4xx_HAL_Driver/Src/stm32f4xx_hal_tim.c ****   TIMx->CCMR2 = tmpccmrx;
 10865              		.loc 1 4910 0
 10866 00b4 7B68     		ldr	r3, [r7, #4]
 10867 00b6 FA68     		ldr	r2, [r7, #12]
 10868 00b8 DA61     		str	r2, [r3, #28]
4911:Drivers/STM32F4xx_HAL_Driver/Src/stm32f4xx_hal_tim.c ****   
4912:Drivers/STM32F4xx_HAL_Driver/Src/stm32f4xx_hal_tim.c ****   /* Set the Capture Compare Register value */
4913:Drivers/STM32F4xx_HAL_Driver/Src/stm32f4xx_hal_tim.c ****   TIMx->CCR3 = OC_Config->Pulse;
 10869              		.loc 1 4913 0
 10870 00ba 3B68     		ldr	r3, [r7]
 10871 00bc 5A68     		ldr	r2, [r3, #4]
 10872 00be 7B68     		ldr	r3, [r7, #4]
 10873 00c0 DA63     		str	r2, [r3, #60]
4914:Drivers/STM32F4xx_HAL_Driver/Src/stm32f4xx_hal_tim.c ****   
4915:Drivers/STM32F4xx_HAL_Driver/Src/stm32f4xx_hal_tim.c ****   /* Write to TIMx CCER */
4916:Drivers/STM32F4xx_HAL_Driver/Src/stm32f4xx_hal_tim.c ****   TIMx->CCER = tmpccer;
 10874              		.loc 1 4916 0
 10875 00c2 7B68     		ldr	r3, [r7, #4]
 10876 00c4 7A69     		ldr	r2, [r7, #20]
 10877 00c6 1A62     		str	r2, [r3, #32]
4917:Drivers/STM32F4xx_HAL_Driver/Src/stm32f4xx_hal_tim.c **** }
 10878              		.loc 1 4917 0
 10879 00c8 00BF     		nop
 10880 00ca 1C37     		adds	r7, r7, #28
 10881              	.LCFI520:
 10882              		.cfi_def_cfa_offset 4
 10883 00cc BD46     		mov	sp, r7
 10884              	.LCFI521:
 10885              		.cfi_def_cfa_register 13
 10886              		@ sp needed
 10887 00ce 5DF8047B 		ldr	r7, [sp], #4
 10888              	.LCFI522:
 10889              		.cfi_restore 7
 10890              		.cfi_def_cfa_offset 0
 10891 00d2 7047     		bx	lr
 10892              	.L573:
 10893              		.align	2
 10894              	.L572:
 10895 00d4 00000140 		.word	1073807360
 10896              		.cfi_endproc
 10897              	.LFE220:
 10899              		.section	.text.TIM_OC4_SetConfig,"ax",%progbits
ARM GAS  /tmp/cc4tSQEQ.s 			page 278


 10900              		.align	1
 10901              		.syntax unified
 10902              		.thumb
 10903              		.thumb_func
 10904              		.fpu fpv4-sp-d16
 10906              	TIM_OC4_SetConfig:
 10907              	.LFB221:
4918:Drivers/STM32F4xx_HAL_Driver/Src/stm32f4xx_hal_tim.c **** 
4919:Drivers/STM32F4xx_HAL_Driver/Src/stm32f4xx_hal_tim.c **** /**
4920:Drivers/STM32F4xx_HAL_Driver/Src/stm32f4xx_hal_tim.c ****   * @brief  Time Output Compare 4 configuration
4921:Drivers/STM32F4xx_HAL_Driver/Src/stm32f4xx_hal_tim.c ****   * @param  TIMx to select the TIM peripheral
4922:Drivers/STM32F4xx_HAL_Driver/Src/stm32f4xx_hal_tim.c ****   * @param  OC_Config The output configuration structure
4923:Drivers/STM32F4xx_HAL_Driver/Src/stm32f4xx_hal_tim.c ****   * @retval None
4924:Drivers/STM32F4xx_HAL_Driver/Src/stm32f4xx_hal_tim.c ****   */
4925:Drivers/STM32F4xx_HAL_Driver/Src/stm32f4xx_hal_tim.c **** static void TIM_OC4_SetConfig(TIM_TypeDef *TIMx, TIM_OC_InitTypeDef *OC_Config)
4926:Drivers/STM32F4xx_HAL_Driver/Src/stm32f4xx_hal_tim.c **** {
 10908              		.loc 1 4926 0
 10909              		.cfi_startproc
 10910              		@ args = 0, pretend = 0, frame = 24
 10911              		@ frame_needed = 1, uses_anonymous_args = 0
 10912              		@ link register save eliminated.
 10913 0000 80B4     		push	{r7}
 10914              	.LCFI523:
 10915              		.cfi_def_cfa_offset 4
 10916              		.cfi_offset 7, -4
 10917 0002 87B0     		sub	sp, sp, #28
 10918              	.LCFI524:
 10919              		.cfi_def_cfa_offset 32
 10920 0004 00AF     		add	r7, sp, #0
 10921              	.LCFI525:
 10922              		.cfi_def_cfa_register 7
 10923 0006 7860     		str	r0, [r7, #4]
 10924 0008 3960     		str	r1, [r7]
4927:Drivers/STM32F4xx_HAL_Driver/Src/stm32f4xx_hal_tim.c ****   uint32_t tmpccmrx = 0U;
 10925              		.loc 1 4927 0
 10926 000a 0023     		movs	r3, #0
 10927 000c 3B61     		str	r3, [r7, #16]
4928:Drivers/STM32F4xx_HAL_Driver/Src/stm32f4xx_hal_tim.c ****   uint32_t tmpccer = 0U;
 10928              		.loc 1 4928 0
 10929 000e 0023     		movs	r3, #0
 10930 0010 FB60     		str	r3, [r7, #12]
4929:Drivers/STM32F4xx_HAL_Driver/Src/stm32f4xx_hal_tim.c ****   uint32_t tmpcr2 = 0U;
 10931              		.loc 1 4929 0
 10932 0012 0023     		movs	r3, #0
 10933 0014 7B61     		str	r3, [r7, #20]
4930:Drivers/STM32F4xx_HAL_Driver/Src/stm32f4xx_hal_tim.c **** 
4931:Drivers/STM32F4xx_HAL_Driver/Src/stm32f4xx_hal_tim.c ****   /* Disable the Channel 4: Reset the CC4E Bit */
4932:Drivers/STM32F4xx_HAL_Driver/Src/stm32f4xx_hal_tim.c ****   TIMx->CCER &= ~TIM_CCER_CC4E;
 10934              		.loc 1 4932 0
 10935 0016 7B68     		ldr	r3, [r7, #4]
 10936 0018 1B6A     		ldr	r3, [r3, #32]
 10937 001a 23F48052 		bic	r2, r3, #4096
 10938 001e 7B68     		ldr	r3, [r7, #4]
 10939 0020 1A62     		str	r2, [r3, #32]
4933:Drivers/STM32F4xx_HAL_Driver/Src/stm32f4xx_hal_tim.c ****   
4934:Drivers/STM32F4xx_HAL_Driver/Src/stm32f4xx_hal_tim.c ****   /* Get the TIMx CCER register value */
4935:Drivers/STM32F4xx_HAL_Driver/Src/stm32f4xx_hal_tim.c ****   tmpccer = TIMx->CCER;
ARM GAS  /tmp/cc4tSQEQ.s 			page 279


 10940              		.loc 1 4935 0
 10941 0022 7B68     		ldr	r3, [r7, #4]
 10942 0024 1B6A     		ldr	r3, [r3, #32]
 10943 0026 FB60     		str	r3, [r7, #12]
4936:Drivers/STM32F4xx_HAL_Driver/Src/stm32f4xx_hal_tim.c ****   /* Get the TIMx CR2 register value */
4937:Drivers/STM32F4xx_HAL_Driver/Src/stm32f4xx_hal_tim.c ****   tmpcr2 = TIMx->CR2;
 10944              		.loc 1 4937 0
 10945 0028 7B68     		ldr	r3, [r7, #4]
 10946 002a 5B68     		ldr	r3, [r3, #4]
 10947 002c 7B61     		str	r3, [r7, #20]
4938:Drivers/STM32F4xx_HAL_Driver/Src/stm32f4xx_hal_tim.c ****   
4939:Drivers/STM32F4xx_HAL_Driver/Src/stm32f4xx_hal_tim.c ****   /* Get the TIMx CCMR2 register value */
4940:Drivers/STM32F4xx_HAL_Driver/Src/stm32f4xx_hal_tim.c ****   tmpccmrx = TIMx->CCMR2;
 10948              		.loc 1 4940 0
 10949 002e 7B68     		ldr	r3, [r7, #4]
 10950 0030 DB69     		ldr	r3, [r3, #28]
 10951 0032 3B61     		str	r3, [r7, #16]
4941:Drivers/STM32F4xx_HAL_Driver/Src/stm32f4xx_hal_tim.c ****     
4942:Drivers/STM32F4xx_HAL_Driver/Src/stm32f4xx_hal_tim.c ****   /* Reset the Output Compare mode and Capture/Compare selection Bits */
4943:Drivers/STM32F4xx_HAL_Driver/Src/stm32f4xx_hal_tim.c ****   tmpccmrx &= ~TIM_CCMR2_OC4M;
 10952              		.loc 1 4943 0
 10953 0034 3B69     		ldr	r3, [r7, #16]
 10954 0036 23F4E043 		bic	r3, r3, #28672
 10955 003a 3B61     		str	r3, [r7, #16]
4944:Drivers/STM32F4xx_HAL_Driver/Src/stm32f4xx_hal_tim.c ****   tmpccmrx &= ~TIM_CCMR2_CC4S;
 10956              		.loc 1 4944 0
 10957 003c 3B69     		ldr	r3, [r7, #16]
 10958 003e 23F44073 		bic	r3, r3, #768
 10959 0042 3B61     		str	r3, [r7, #16]
4945:Drivers/STM32F4xx_HAL_Driver/Src/stm32f4xx_hal_tim.c ****   
4946:Drivers/STM32F4xx_HAL_Driver/Src/stm32f4xx_hal_tim.c ****   /* Select the Output Compare Mode */
4947:Drivers/STM32F4xx_HAL_Driver/Src/stm32f4xx_hal_tim.c ****   tmpccmrx |= (OC_Config->OCMode << 8U);
 10960              		.loc 1 4947 0
 10961 0044 3B68     		ldr	r3, [r7]
 10962 0046 1B68     		ldr	r3, [r3]
 10963 0048 1B02     		lsls	r3, r3, #8
 10964 004a 3A69     		ldr	r2, [r7, #16]
 10965 004c 1343     		orrs	r3, r3, r2
 10966 004e 3B61     		str	r3, [r7, #16]
4948:Drivers/STM32F4xx_HAL_Driver/Src/stm32f4xx_hal_tim.c ****   
4949:Drivers/STM32F4xx_HAL_Driver/Src/stm32f4xx_hal_tim.c ****   /* Reset the Output Polarity level */
4950:Drivers/STM32F4xx_HAL_Driver/Src/stm32f4xx_hal_tim.c ****   tmpccer &= ~TIM_CCER_CC4P;
 10967              		.loc 1 4950 0
 10968 0050 FB68     		ldr	r3, [r7, #12]
 10969 0052 23F40053 		bic	r3, r3, #8192
 10970 0056 FB60     		str	r3, [r7, #12]
4951:Drivers/STM32F4xx_HAL_Driver/Src/stm32f4xx_hal_tim.c ****   /* Set the Output Compare Polarity */
4952:Drivers/STM32F4xx_HAL_Driver/Src/stm32f4xx_hal_tim.c ****   tmpccer |= (OC_Config->OCPolarity << 12U);
 10971              		.loc 1 4952 0
 10972 0058 3B68     		ldr	r3, [r7]
 10973 005a 9B68     		ldr	r3, [r3, #8]
 10974 005c 1B03     		lsls	r3, r3, #12
 10975 005e FA68     		ldr	r2, [r7, #12]
 10976 0060 1343     		orrs	r3, r3, r2
 10977 0062 FB60     		str	r3, [r7, #12]
4953:Drivers/STM32F4xx_HAL_Driver/Src/stm32f4xx_hal_tim.c ****    
4954:Drivers/STM32F4xx_HAL_Driver/Src/stm32f4xx_hal_tim.c ****   /*if((TIMx == TIM1) || (TIMx == TIM8))*/
ARM GAS  /tmp/cc4tSQEQ.s 			page 280


4955:Drivers/STM32F4xx_HAL_Driver/Src/stm32f4xx_hal_tim.c ****   if(IS_TIM_ADVANCED_INSTANCE(TIMx) != RESET)
 10978              		.loc 1 4955 0
 10979 0064 7B68     		ldr	r3, [r7, #4]
 10980 0066 104A     		ldr	r2, .L576
 10981 0068 9342     		cmp	r3, r2
 10982 006a 09D1     		bne	.L575
4956:Drivers/STM32F4xx_HAL_Driver/Src/stm32f4xx_hal_tim.c ****   {
4957:Drivers/STM32F4xx_HAL_Driver/Src/stm32f4xx_hal_tim.c ****     assert_param(IS_TIM_OCIDLE_STATE(OC_Config->OCIdleState));
4958:Drivers/STM32F4xx_HAL_Driver/Src/stm32f4xx_hal_tim.c ****     /* Reset the Output Compare IDLE State */
4959:Drivers/STM32F4xx_HAL_Driver/Src/stm32f4xx_hal_tim.c ****     tmpcr2 &= ~TIM_CR2_OIS4;
 10983              		.loc 1 4959 0
 10984 006c 7B69     		ldr	r3, [r7, #20]
 10985 006e 23F48043 		bic	r3, r3, #16384
 10986 0072 7B61     		str	r3, [r7, #20]
4960:Drivers/STM32F4xx_HAL_Driver/Src/stm32f4xx_hal_tim.c ****     /* Set the Output Idle state */
4961:Drivers/STM32F4xx_HAL_Driver/Src/stm32f4xx_hal_tim.c ****     tmpcr2 |= (OC_Config->OCIdleState << 6U);
 10987              		.loc 1 4961 0
 10988 0074 3B68     		ldr	r3, [r7]
 10989 0076 5B69     		ldr	r3, [r3, #20]
 10990 0078 9B01     		lsls	r3, r3, #6
 10991 007a 7A69     		ldr	r2, [r7, #20]
 10992 007c 1343     		orrs	r3, r3, r2
 10993 007e 7B61     		str	r3, [r7, #20]
 10994              	.L575:
4962:Drivers/STM32F4xx_HAL_Driver/Src/stm32f4xx_hal_tim.c ****   }
4963:Drivers/STM32F4xx_HAL_Driver/Src/stm32f4xx_hal_tim.c ****   /* Write to TIMx CR2 */
4964:Drivers/STM32F4xx_HAL_Driver/Src/stm32f4xx_hal_tim.c ****   TIMx->CR2 = tmpcr2;
 10995              		.loc 1 4964 0
 10996 0080 7B68     		ldr	r3, [r7, #4]
 10997 0082 7A69     		ldr	r2, [r7, #20]
 10998 0084 5A60     		str	r2, [r3, #4]
4965:Drivers/STM32F4xx_HAL_Driver/Src/stm32f4xx_hal_tim.c ****   
4966:Drivers/STM32F4xx_HAL_Driver/Src/stm32f4xx_hal_tim.c ****   /* Write to TIMx CCMR2 */  
4967:Drivers/STM32F4xx_HAL_Driver/Src/stm32f4xx_hal_tim.c ****   TIMx->CCMR2 = tmpccmrx;
 10999              		.loc 1 4967 0
 11000 0086 7B68     		ldr	r3, [r7, #4]
 11001 0088 3A69     		ldr	r2, [r7, #16]
 11002 008a DA61     		str	r2, [r3, #28]
4968:Drivers/STM32F4xx_HAL_Driver/Src/stm32f4xx_hal_tim.c ****     
4969:Drivers/STM32F4xx_HAL_Driver/Src/stm32f4xx_hal_tim.c ****   /* Set the Capture Compare Register value */
4970:Drivers/STM32F4xx_HAL_Driver/Src/stm32f4xx_hal_tim.c ****   TIMx->CCR4 = OC_Config->Pulse;
 11003              		.loc 1 4970 0
 11004 008c 3B68     		ldr	r3, [r7]
 11005 008e 5A68     		ldr	r2, [r3, #4]
 11006 0090 7B68     		ldr	r3, [r7, #4]
 11007 0092 1A64     		str	r2, [r3, #64]
4971:Drivers/STM32F4xx_HAL_Driver/Src/stm32f4xx_hal_tim.c ****   
4972:Drivers/STM32F4xx_HAL_Driver/Src/stm32f4xx_hal_tim.c ****   /* Write to TIMx CCER */
4973:Drivers/STM32F4xx_HAL_Driver/Src/stm32f4xx_hal_tim.c ****   TIMx->CCER = tmpccer;
 11008              		.loc 1 4973 0
 11009 0094 7B68     		ldr	r3, [r7, #4]
 11010 0096 FA68     		ldr	r2, [r7, #12]
 11011 0098 1A62     		str	r2, [r3, #32]
4974:Drivers/STM32F4xx_HAL_Driver/Src/stm32f4xx_hal_tim.c **** }
 11012              		.loc 1 4974 0
 11013 009a 00BF     		nop
 11014 009c 1C37     		adds	r7, r7, #28
ARM GAS  /tmp/cc4tSQEQ.s 			page 281


 11015              	.LCFI526:
 11016              		.cfi_def_cfa_offset 4
 11017 009e BD46     		mov	sp, r7
 11018              	.LCFI527:
 11019              		.cfi_def_cfa_register 13
 11020              		@ sp needed
 11021 00a0 5DF8047B 		ldr	r7, [sp], #4
 11022              	.LCFI528:
 11023              		.cfi_restore 7
 11024              		.cfi_def_cfa_offset 0
 11025 00a4 7047     		bx	lr
 11026              	.L577:
 11027 00a6 00BF     		.align	2
 11028              	.L576:
 11029 00a8 00000140 		.word	1073807360
 11030              		.cfi_endproc
 11031              	.LFE221:
 11033              		.section	.text.TIM_SlaveTimer_SetConfig,"ax",%progbits
 11034              		.align	1
 11035              		.syntax unified
 11036              		.thumb
 11037              		.thumb_func
 11038              		.fpu fpv4-sp-d16
 11040              	TIM_SlaveTimer_SetConfig:
 11041              	.LFB222:
4975:Drivers/STM32F4xx_HAL_Driver/Src/stm32f4xx_hal_tim.c **** 
4976:Drivers/STM32F4xx_HAL_Driver/Src/stm32f4xx_hal_tim.c **** /**
4977:Drivers/STM32F4xx_HAL_Driver/Src/stm32f4xx_hal_tim.c ****   * @brief  Time Output Compare 4 configuration
4978:Drivers/STM32F4xx_HAL_Driver/Src/stm32f4xx_hal_tim.c ****   * @param  htim pointer to a TIM_HandleTypeDef structure that contains
4979:Drivers/STM32F4xx_HAL_Driver/Src/stm32f4xx_hal_tim.c ****   *                the configuration information for TIM module.
4980:Drivers/STM32F4xx_HAL_Driver/Src/stm32f4xx_hal_tim.c ****   * @param  sSlaveConfig The slave configuration structure
4981:Drivers/STM32F4xx_HAL_Driver/Src/stm32f4xx_hal_tim.c ****   * @retval None
4982:Drivers/STM32F4xx_HAL_Driver/Src/stm32f4xx_hal_tim.c ****   */
4983:Drivers/STM32F4xx_HAL_Driver/Src/stm32f4xx_hal_tim.c **** static void TIM_SlaveTimer_SetConfig(TIM_HandleTypeDef *htim,
4984:Drivers/STM32F4xx_HAL_Driver/Src/stm32f4xx_hal_tim.c ****                               TIM_SlaveConfigTypeDef * sSlaveConfig)
4985:Drivers/STM32F4xx_HAL_Driver/Src/stm32f4xx_hal_tim.c **** {
 11042              		.loc 1 4985 0
 11043              		.cfi_startproc
 11044              		@ args = 0, pretend = 0, frame = 24
 11045              		@ frame_needed = 1, uses_anonymous_args = 0
 11046 0000 80B5     		push	{r7, lr}
 11047              	.LCFI529:
 11048              		.cfi_def_cfa_offset 8
 11049              		.cfi_offset 7, -8
 11050              		.cfi_offset 14, -4
 11051 0002 86B0     		sub	sp, sp, #24
 11052              	.LCFI530:
 11053              		.cfi_def_cfa_offset 32
 11054 0004 00AF     		add	r7, sp, #0
 11055              	.LCFI531:
 11056              		.cfi_def_cfa_register 7
 11057 0006 7860     		str	r0, [r7, #4]
 11058 0008 3960     		str	r1, [r7]
4986:Drivers/STM32F4xx_HAL_Driver/Src/stm32f4xx_hal_tim.c ****   uint32_t tmpsmcr = 0U;
 11059              		.loc 1 4986 0
 11060 000a 0023     		movs	r3, #0
 11061 000c 7B61     		str	r3, [r7, #20]
ARM GAS  /tmp/cc4tSQEQ.s 			page 282


4987:Drivers/STM32F4xx_HAL_Driver/Src/stm32f4xx_hal_tim.c ****   uint32_t tmpccmr1 = 0U;
 11062              		.loc 1 4987 0
 11063 000e 0023     		movs	r3, #0
 11064 0010 3B61     		str	r3, [r7, #16]
4988:Drivers/STM32F4xx_HAL_Driver/Src/stm32f4xx_hal_tim.c ****   uint32_t tmpccer = 0U;
 11065              		.loc 1 4988 0
 11066 0012 0023     		movs	r3, #0
 11067 0014 FB60     		str	r3, [r7, #12]
4989:Drivers/STM32F4xx_HAL_Driver/Src/stm32f4xx_hal_tim.c **** 
4990:Drivers/STM32F4xx_HAL_Driver/Src/stm32f4xx_hal_tim.c ****  /* Get the TIMx SMCR register value */
4991:Drivers/STM32F4xx_HAL_Driver/Src/stm32f4xx_hal_tim.c ****   tmpsmcr = htim->Instance->SMCR;
 11068              		.loc 1 4991 0
 11069 0016 7B68     		ldr	r3, [r7, #4]
 11070 0018 1B68     		ldr	r3, [r3]
 11071 001a 9B68     		ldr	r3, [r3, #8]
 11072 001c 7B61     		str	r3, [r7, #20]
4992:Drivers/STM32F4xx_HAL_Driver/Src/stm32f4xx_hal_tim.c **** 
4993:Drivers/STM32F4xx_HAL_Driver/Src/stm32f4xx_hal_tim.c ****   /* Reset the Trigger Selection Bits */
4994:Drivers/STM32F4xx_HAL_Driver/Src/stm32f4xx_hal_tim.c ****   tmpsmcr &= ~TIM_SMCR_TS;
 11073              		.loc 1 4994 0
 11074 001e 7B69     		ldr	r3, [r7, #20]
 11075 0020 23F07003 		bic	r3, r3, #112
 11076 0024 7B61     		str	r3, [r7, #20]
4995:Drivers/STM32F4xx_HAL_Driver/Src/stm32f4xx_hal_tim.c ****   /* Set the Input Trigger source */
4996:Drivers/STM32F4xx_HAL_Driver/Src/stm32f4xx_hal_tim.c ****   tmpsmcr |= sSlaveConfig->InputTrigger;
 11077              		.loc 1 4996 0
 11078 0026 3B68     		ldr	r3, [r7]
 11079 0028 5B68     		ldr	r3, [r3, #4]
 11080 002a 7A69     		ldr	r2, [r7, #20]
 11081 002c 1343     		orrs	r3, r3, r2
 11082 002e 7B61     		str	r3, [r7, #20]
4997:Drivers/STM32F4xx_HAL_Driver/Src/stm32f4xx_hal_tim.c **** 
4998:Drivers/STM32F4xx_HAL_Driver/Src/stm32f4xx_hal_tim.c ****   /* Reset the slave mode Bits */
4999:Drivers/STM32F4xx_HAL_Driver/Src/stm32f4xx_hal_tim.c ****   tmpsmcr &= ~TIM_SMCR_SMS;
 11083              		.loc 1 4999 0
 11084 0030 7B69     		ldr	r3, [r7, #20]
 11085 0032 23F00703 		bic	r3, r3, #7
 11086 0036 7B61     		str	r3, [r7, #20]
5000:Drivers/STM32F4xx_HAL_Driver/Src/stm32f4xx_hal_tim.c ****   /* Set the slave mode */
5001:Drivers/STM32F4xx_HAL_Driver/Src/stm32f4xx_hal_tim.c ****   tmpsmcr |= sSlaveConfig->SlaveMode;
 11087              		.loc 1 5001 0
 11088 0038 3B68     		ldr	r3, [r7]
 11089 003a 1B68     		ldr	r3, [r3]
 11090 003c 7A69     		ldr	r2, [r7, #20]
 11091 003e 1343     		orrs	r3, r3, r2
 11092 0040 7B61     		str	r3, [r7, #20]
5002:Drivers/STM32F4xx_HAL_Driver/Src/stm32f4xx_hal_tim.c **** 
5003:Drivers/STM32F4xx_HAL_Driver/Src/stm32f4xx_hal_tim.c ****   /* Write to TIMx SMCR */
5004:Drivers/STM32F4xx_HAL_Driver/Src/stm32f4xx_hal_tim.c ****   htim->Instance->SMCR = tmpsmcr;
 11093              		.loc 1 5004 0
 11094 0042 7B68     		ldr	r3, [r7, #4]
 11095 0044 1B68     		ldr	r3, [r3]
 11096 0046 7A69     		ldr	r2, [r7, #20]
 11097 0048 9A60     		str	r2, [r3, #8]
5005:Drivers/STM32F4xx_HAL_Driver/Src/stm32f4xx_hal_tim.c ****   
5006:Drivers/STM32F4xx_HAL_Driver/Src/stm32f4xx_hal_tim.c ****   /* Configure the trigger prescaler, filter, and polarity */
5007:Drivers/STM32F4xx_HAL_Driver/Src/stm32f4xx_hal_tim.c ****   switch (sSlaveConfig->InputTrigger)
ARM GAS  /tmp/cc4tSQEQ.s 			page 283


 11098              		.loc 1 5007 0
 11099 004a 3B68     		ldr	r3, [r7]
 11100 004c 5B68     		ldr	r3, [r3, #4]
 11101 004e 302B     		cmp	r3, #48
 11102 0050 56D0     		beq	.L591
 11103 0052 302B     		cmp	r3, #48
 11104 0054 06D8     		bhi	.L581
 11105 0056 102B     		cmp	r3, #16
 11106 0058 54D0     		beq	.L592
 11107 005a 202B     		cmp	r3, #32
 11108 005c 54D0     		beq	.L593
 11109 005e 002B     		cmp	r3, #0
 11110 0060 54D0     		beq	.L594
5008:Drivers/STM32F4xx_HAL_Driver/Src/stm32f4xx_hal_tim.c ****   {
5009:Drivers/STM32F4xx_HAL_Driver/Src/stm32f4xx_hal_tim.c ****   case TIM_TS_ETRF:
5010:Drivers/STM32F4xx_HAL_Driver/Src/stm32f4xx_hal_tim.c ****     {
5011:Drivers/STM32F4xx_HAL_Driver/Src/stm32f4xx_hal_tim.c ****       /* Check the parameters */
5012:Drivers/STM32F4xx_HAL_Driver/Src/stm32f4xx_hal_tim.c ****       assert_param(IS_TIM_ETR_INSTANCE(htim->Instance));
5013:Drivers/STM32F4xx_HAL_Driver/Src/stm32f4xx_hal_tim.c ****       assert_param(IS_TIM_TRIGGERPRESCALER(sSlaveConfig->TriggerPrescaler));
5014:Drivers/STM32F4xx_HAL_Driver/Src/stm32f4xx_hal_tim.c ****       assert_param(IS_TIM_TRIGGERPOLARITY(sSlaveConfig->TriggerPolarity));
5015:Drivers/STM32F4xx_HAL_Driver/Src/stm32f4xx_hal_tim.c ****       assert_param(IS_TIM_TRIGGERFILTER(sSlaveConfig->TriggerFilter));
5016:Drivers/STM32F4xx_HAL_Driver/Src/stm32f4xx_hal_tim.c ****       /* Configure the ETR Trigger source */
5017:Drivers/STM32F4xx_HAL_Driver/Src/stm32f4xx_hal_tim.c ****       TIM_ETR_SetConfig(htim->Instance, 
5018:Drivers/STM32F4xx_HAL_Driver/Src/stm32f4xx_hal_tim.c ****                         sSlaveConfig->TriggerPrescaler, 
5019:Drivers/STM32F4xx_HAL_Driver/Src/stm32f4xx_hal_tim.c ****                         sSlaveConfig->TriggerPolarity, 
5020:Drivers/STM32F4xx_HAL_Driver/Src/stm32f4xx_hal_tim.c ****                         sSlaveConfig->TriggerFilter);
5021:Drivers/STM32F4xx_HAL_Driver/Src/stm32f4xx_hal_tim.c ****     }
5022:Drivers/STM32F4xx_HAL_Driver/Src/stm32f4xx_hal_tim.c ****     break;
5023:Drivers/STM32F4xx_HAL_Driver/Src/stm32f4xx_hal_tim.c ****     
5024:Drivers/STM32F4xx_HAL_Driver/Src/stm32f4xx_hal_tim.c ****   case TIM_TS_TI1F_ED:
5025:Drivers/STM32F4xx_HAL_Driver/Src/stm32f4xx_hal_tim.c ****     {
5026:Drivers/STM32F4xx_HAL_Driver/Src/stm32f4xx_hal_tim.c ****       /* Check the parameters */
5027:Drivers/STM32F4xx_HAL_Driver/Src/stm32f4xx_hal_tim.c ****       assert_param(IS_TIM_CC1_INSTANCE(htim->Instance));
5028:Drivers/STM32F4xx_HAL_Driver/Src/stm32f4xx_hal_tim.c ****       assert_param(IS_TIM_TRIGGERFILTER(sSlaveConfig->TriggerFilter));
5029:Drivers/STM32F4xx_HAL_Driver/Src/stm32f4xx_hal_tim.c ****       
5030:Drivers/STM32F4xx_HAL_Driver/Src/stm32f4xx_hal_tim.c ****       /* Disable the Channel 1: Reset the CC1E Bit */
5031:Drivers/STM32F4xx_HAL_Driver/Src/stm32f4xx_hal_tim.c ****       tmpccer = htim->Instance->CCER;
5032:Drivers/STM32F4xx_HAL_Driver/Src/stm32f4xx_hal_tim.c ****       htim->Instance->CCER &= ~TIM_CCER_CC1E;
5033:Drivers/STM32F4xx_HAL_Driver/Src/stm32f4xx_hal_tim.c ****       tmpccmr1 = htim->Instance->CCMR1;    
5034:Drivers/STM32F4xx_HAL_Driver/Src/stm32f4xx_hal_tim.c ****       
5035:Drivers/STM32F4xx_HAL_Driver/Src/stm32f4xx_hal_tim.c ****       /* Set the filter */
5036:Drivers/STM32F4xx_HAL_Driver/Src/stm32f4xx_hal_tim.c ****       tmpccmr1 &= ~TIM_CCMR1_IC1F;
5037:Drivers/STM32F4xx_HAL_Driver/Src/stm32f4xx_hal_tim.c ****       tmpccmr1 |= ((sSlaveConfig->TriggerFilter) << 4U);
5038:Drivers/STM32F4xx_HAL_Driver/Src/stm32f4xx_hal_tim.c ****       
5039:Drivers/STM32F4xx_HAL_Driver/Src/stm32f4xx_hal_tim.c ****       /* Write to TIMx CCMR1 and CCER registers */
5040:Drivers/STM32F4xx_HAL_Driver/Src/stm32f4xx_hal_tim.c ****       htim->Instance->CCMR1 = tmpccmr1;
5041:Drivers/STM32F4xx_HAL_Driver/Src/stm32f4xx_hal_tim.c ****       htim->Instance->CCER = tmpccer;                               
5042:Drivers/STM32F4xx_HAL_Driver/Src/stm32f4xx_hal_tim.c ****                                
5043:Drivers/STM32F4xx_HAL_Driver/Src/stm32f4xx_hal_tim.c ****     }
5044:Drivers/STM32F4xx_HAL_Driver/Src/stm32f4xx_hal_tim.c ****     break;
5045:Drivers/STM32F4xx_HAL_Driver/Src/stm32f4xx_hal_tim.c ****     
5046:Drivers/STM32F4xx_HAL_Driver/Src/stm32f4xx_hal_tim.c ****   case TIM_TS_TI1FP1:
5047:Drivers/STM32F4xx_HAL_Driver/Src/stm32f4xx_hal_tim.c ****     {
5048:Drivers/STM32F4xx_HAL_Driver/Src/stm32f4xx_hal_tim.c ****       /* Check the parameters */
5049:Drivers/STM32F4xx_HAL_Driver/Src/stm32f4xx_hal_tim.c ****       assert_param(IS_TIM_CC1_INSTANCE(htim->Instance));
5050:Drivers/STM32F4xx_HAL_Driver/Src/stm32f4xx_hal_tim.c ****       assert_param(IS_TIM_TRIGGERPOLARITY(sSlaveConfig->TriggerPolarity));
5051:Drivers/STM32F4xx_HAL_Driver/Src/stm32f4xx_hal_tim.c ****       assert_param(IS_TIM_TRIGGERFILTER(sSlaveConfig->TriggerFilter));
ARM GAS  /tmp/cc4tSQEQ.s 			page 284


5052:Drivers/STM32F4xx_HAL_Driver/Src/stm32f4xx_hal_tim.c **** 
5053:Drivers/STM32F4xx_HAL_Driver/Src/stm32f4xx_hal_tim.c ****       /* Configure TI1 Filter and Polarity */
5054:Drivers/STM32F4xx_HAL_Driver/Src/stm32f4xx_hal_tim.c ****       TIM_TI1_ConfigInputStage(htim->Instance,
5055:Drivers/STM32F4xx_HAL_Driver/Src/stm32f4xx_hal_tim.c ****                                sSlaveConfig->TriggerPolarity,
5056:Drivers/STM32F4xx_HAL_Driver/Src/stm32f4xx_hal_tim.c ****                                sSlaveConfig->TriggerFilter);
5057:Drivers/STM32F4xx_HAL_Driver/Src/stm32f4xx_hal_tim.c ****     }
5058:Drivers/STM32F4xx_HAL_Driver/Src/stm32f4xx_hal_tim.c ****     break;
5059:Drivers/STM32F4xx_HAL_Driver/Src/stm32f4xx_hal_tim.c ****     
5060:Drivers/STM32F4xx_HAL_Driver/Src/stm32f4xx_hal_tim.c ****   case TIM_TS_TI2FP2:
5061:Drivers/STM32F4xx_HAL_Driver/Src/stm32f4xx_hal_tim.c ****     {
5062:Drivers/STM32F4xx_HAL_Driver/Src/stm32f4xx_hal_tim.c ****       /* Check the parameters */
5063:Drivers/STM32F4xx_HAL_Driver/Src/stm32f4xx_hal_tim.c ****       assert_param(IS_TIM_CC2_INSTANCE(htim->Instance));
5064:Drivers/STM32F4xx_HAL_Driver/Src/stm32f4xx_hal_tim.c ****       assert_param(IS_TIM_TRIGGERPOLARITY(sSlaveConfig->TriggerPolarity));
5065:Drivers/STM32F4xx_HAL_Driver/Src/stm32f4xx_hal_tim.c ****       assert_param(IS_TIM_TRIGGERFILTER(sSlaveConfig->TriggerFilter));
5066:Drivers/STM32F4xx_HAL_Driver/Src/stm32f4xx_hal_tim.c ****       
5067:Drivers/STM32F4xx_HAL_Driver/Src/stm32f4xx_hal_tim.c ****       /* Configure TI2 Filter and Polarity */
5068:Drivers/STM32F4xx_HAL_Driver/Src/stm32f4xx_hal_tim.c ****       TIM_TI2_ConfigInputStage(htim->Instance,
5069:Drivers/STM32F4xx_HAL_Driver/Src/stm32f4xx_hal_tim.c ****                                 sSlaveConfig->TriggerPolarity,
5070:Drivers/STM32F4xx_HAL_Driver/Src/stm32f4xx_hal_tim.c ****                                 sSlaveConfig->TriggerFilter);
5071:Drivers/STM32F4xx_HAL_Driver/Src/stm32f4xx_hal_tim.c ****     }
5072:Drivers/STM32F4xx_HAL_Driver/Src/stm32f4xx_hal_tim.c ****     break;
5073:Drivers/STM32F4xx_HAL_Driver/Src/stm32f4xx_hal_tim.c ****     
5074:Drivers/STM32F4xx_HAL_Driver/Src/stm32f4xx_hal_tim.c ****   case TIM_TS_ITR0:
5075:Drivers/STM32F4xx_HAL_Driver/Src/stm32f4xx_hal_tim.c ****     {
5076:Drivers/STM32F4xx_HAL_Driver/Src/stm32f4xx_hal_tim.c ****       /* Check the parameter */
5077:Drivers/STM32F4xx_HAL_Driver/Src/stm32f4xx_hal_tim.c ****       assert_param(IS_TIM_CC2_INSTANCE(htim->Instance));
5078:Drivers/STM32F4xx_HAL_Driver/Src/stm32f4xx_hal_tim.c ****     }
5079:Drivers/STM32F4xx_HAL_Driver/Src/stm32f4xx_hal_tim.c ****     break;
5080:Drivers/STM32F4xx_HAL_Driver/Src/stm32f4xx_hal_tim.c ****     
5081:Drivers/STM32F4xx_HAL_Driver/Src/stm32f4xx_hal_tim.c ****   case TIM_TS_ITR1:
5082:Drivers/STM32F4xx_HAL_Driver/Src/stm32f4xx_hal_tim.c ****     {
5083:Drivers/STM32F4xx_HAL_Driver/Src/stm32f4xx_hal_tim.c ****       /* Check the parameter */
5084:Drivers/STM32F4xx_HAL_Driver/Src/stm32f4xx_hal_tim.c ****       assert_param(IS_TIM_CC2_INSTANCE(htim->Instance));
5085:Drivers/STM32F4xx_HAL_Driver/Src/stm32f4xx_hal_tim.c ****     }
5086:Drivers/STM32F4xx_HAL_Driver/Src/stm32f4xx_hal_tim.c ****     break;
5087:Drivers/STM32F4xx_HAL_Driver/Src/stm32f4xx_hal_tim.c ****     
5088:Drivers/STM32F4xx_HAL_Driver/Src/stm32f4xx_hal_tim.c ****   case TIM_TS_ITR2:
5089:Drivers/STM32F4xx_HAL_Driver/Src/stm32f4xx_hal_tim.c ****     {
5090:Drivers/STM32F4xx_HAL_Driver/Src/stm32f4xx_hal_tim.c ****       /* Check the parameter */
5091:Drivers/STM32F4xx_HAL_Driver/Src/stm32f4xx_hal_tim.c ****       assert_param(IS_TIM_CC2_INSTANCE(htim->Instance));
5092:Drivers/STM32F4xx_HAL_Driver/Src/stm32f4xx_hal_tim.c ****     }
5093:Drivers/STM32F4xx_HAL_Driver/Src/stm32f4xx_hal_tim.c ****     break;
5094:Drivers/STM32F4xx_HAL_Driver/Src/stm32f4xx_hal_tim.c ****     
5095:Drivers/STM32F4xx_HAL_Driver/Src/stm32f4xx_hal_tim.c ****   case TIM_TS_ITR3:
5096:Drivers/STM32F4xx_HAL_Driver/Src/stm32f4xx_hal_tim.c ****     {
5097:Drivers/STM32F4xx_HAL_Driver/Src/stm32f4xx_hal_tim.c ****       /* Check the parameter */
5098:Drivers/STM32F4xx_HAL_Driver/Src/stm32f4xx_hal_tim.c ****       assert_param(IS_TIM_CC2_INSTANCE(htim->Instance));
5099:Drivers/STM32F4xx_HAL_Driver/Src/stm32f4xx_hal_tim.c ****     }
5100:Drivers/STM32F4xx_HAL_Driver/Src/stm32f4xx_hal_tim.c ****     break;
5101:Drivers/STM32F4xx_HAL_Driver/Src/stm32f4xx_hal_tim.c ****        
5102:Drivers/STM32F4xx_HAL_Driver/Src/stm32f4xx_hal_tim.c ****   default:
5103:Drivers/STM32F4xx_HAL_Driver/Src/stm32f4xx_hal_tim.c ****     break;
 11111              		.loc 1 5103 0
 11112 0062 54E0     		b	.L590
 11113              	.L581:
5007:Drivers/STM32F4xx_HAL_Driver/Src/stm32f4xx_hal_tim.c ****   {
 11114              		.loc 1 5007 0
ARM GAS  /tmp/cc4tSQEQ.s 			page 285


 11115 0064 502B     		cmp	r3, #80
 11116 0066 37D0     		beq	.L585
 11117 0068 502B     		cmp	r3, #80
 11118 006a 02D8     		bhi	.L586
 11119 006c 402B     		cmp	r3, #64
 11120 006e 10D0     		beq	.L587
 11121              		.loc 1 5103 0
 11122 0070 4DE0     		b	.L590
 11123              	.L586:
5007:Drivers/STM32F4xx_HAL_Driver/Src/stm32f4xx_hal_tim.c ****   {
 11124              		.loc 1 5007 0
 11125 0072 602B     		cmp	r3, #96
 11126 0074 3AD0     		beq	.L588
 11127 0076 702B     		cmp	r3, #112
 11128 0078 00D0     		beq	.L589
 11129              		.loc 1 5103 0
 11130 007a 48E0     		b	.L590
 11131              	.L589:
5017:Drivers/STM32F4xx_HAL_Driver/Src/stm32f4xx_hal_tim.c ****                         sSlaveConfig->TriggerPrescaler, 
 11132              		.loc 1 5017 0
 11133 007c 7B68     		ldr	r3, [r7, #4]
 11134 007e 1868     		ldr	r0, [r3]
 11135 0080 3B68     		ldr	r3, [r7]
 11136 0082 D968     		ldr	r1, [r3, #12]
 11137 0084 3B68     		ldr	r3, [r7]
 11138 0086 9A68     		ldr	r2, [r3, #8]
 11139 0088 3B68     		ldr	r3, [r7]
 11140 008a 1B69     		ldr	r3, [r3, #16]
 11141 008c FFF7FEFF 		bl	TIM_ETR_SetConfig
5022:Drivers/STM32F4xx_HAL_Driver/Src/stm32f4xx_hal_tim.c ****     
 11142              		.loc 1 5022 0
 11143 0090 3DE0     		b	.L590
 11144              	.L587:
5031:Drivers/STM32F4xx_HAL_Driver/Src/stm32f4xx_hal_tim.c ****       htim->Instance->CCER &= ~TIM_CCER_CC1E;
 11145              		.loc 1 5031 0
 11146 0092 7B68     		ldr	r3, [r7, #4]
 11147 0094 1B68     		ldr	r3, [r3]
 11148 0096 1B6A     		ldr	r3, [r3, #32]
 11149 0098 FB60     		str	r3, [r7, #12]
5032:Drivers/STM32F4xx_HAL_Driver/Src/stm32f4xx_hal_tim.c ****       tmpccmr1 = htim->Instance->CCMR1;    
 11150              		.loc 1 5032 0
 11151 009a 7B68     		ldr	r3, [r7, #4]
 11152 009c 1B68     		ldr	r3, [r3]
 11153 009e 7A68     		ldr	r2, [r7, #4]
 11154 00a0 1268     		ldr	r2, [r2]
 11155 00a2 126A     		ldr	r2, [r2, #32]
 11156 00a4 22F00102 		bic	r2, r2, #1
 11157 00a8 1A62     		str	r2, [r3, #32]
5033:Drivers/STM32F4xx_HAL_Driver/Src/stm32f4xx_hal_tim.c ****       
 11158              		.loc 1 5033 0
 11159 00aa 7B68     		ldr	r3, [r7, #4]
 11160 00ac 1B68     		ldr	r3, [r3]
 11161 00ae 9B69     		ldr	r3, [r3, #24]
 11162 00b0 3B61     		str	r3, [r7, #16]
5036:Drivers/STM32F4xx_HAL_Driver/Src/stm32f4xx_hal_tim.c ****       tmpccmr1 |= ((sSlaveConfig->TriggerFilter) << 4U);
 11163              		.loc 1 5036 0
 11164 00b2 3B69     		ldr	r3, [r7, #16]
ARM GAS  /tmp/cc4tSQEQ.s 			page 286


 11165 00b4 23F0F003 		bic	r3, r3, #240
 11166 00b8 3B61     		str	r3, [r7, #16]
5037:Drivers/STM32F4xx_HAL_Driver/Src/stm32f4xx_hal_tim.c ****       
 11167              		.loc 1 5037 0
 11168 00ba 3B68     		ldr	r3, [r7]
 11169 00bc 1B69     		ldr	r3, [r3, #16]
 11170 00be 1B01     		lsls	r3, r3, #4
 11171 00c0 3A69     		ldr	r2, [r7, #16]
 11172 00c2 1343     		orrs	r3, r3, r2
 11173 00c4 3B61     		str	r3, [r7, #16]
5040:Drivers/STM32F4xx_HAL_Driver/Src/stm32f4xx_hal_tim.c ****       htim->Instance->CCER = tmpccer;                               
 11174              		.loc 1 5040 0
 11175 00c6 7B68     		ldr	r3, [r7, #4]
 11176 00c8 1B68     		ldr	r3, [r3]
 11177 00ca 3A69     		ldr	r2, [r7, #16]
 11178 00cc 9A61     		str	r2, [r3, #24]
5041:Drivers/STM32F4xx_HAL_Driver/Src/stm32f4xx_hal_tim.c ****                                
 11179              		.loc 1 5041 0
 11180 00ce 7B68     		ldr	r3, [r7, #4]
 11181 00d0 1B68     		ldr	r3, [r3]
 11182 00d2 FA68     		ldr	r2, [r7, #12]
 11183 00d4 1A62     		str	r2, [r3, #32]
5044:Drivers/STM32F4xx_HAL_Driver/Src/stm32f4xx_hal_tim.c ****     
 11184              		.loc 1 5044 0
 11185 00d6 1AE0     		b	.L590
 11186              	.L585:
5054:Drivers/STM32F4xx_HAL_Driver/Src/stm32f4xx_hal_tim.c ****                                sSlaveConfig->TriggerPolarity,
 11187              		.loc 1 5054 0
 11188 00d8 7B68     		ldr	r3, [r7, #4]
 11189 00da 1868     		ldr	r0, [r3]
 11190 00dc 3B68     		ldr	r3, [r7]
 11191 00de 9968     		ldr	r1, [r3, #8]
 11192 00e0 3B68     		ldr	r3, [r7]
 11193 00e2 1B69     		ldr	r3, [r3, #16]
 11194 00e4 1A46     		mov	r2, r3
 11195 00e6 FFF7FEFF 		bl	TIM_TI1_ConfigInputStage
5058:Drivers/STM32F4xx_HAL_Driver/Src/stm32f4xx_hal_tim.c ****     
 11196              		.loc 1 5058 0
 11197 00ea 10E0     		b	.L590
 11198              	.L588:
5068:Drivers/STM32F4xx_HAL_Driver/Src/stm32f4xx_hal_tim.c ****                                 sSlaveConfig->TriggerPolarity,
 11199              		.loc 1 5068 0
 11200 00ec 7B68     		ldr	r3, [r7, #4]
 11201 00ee 1868     		ldr	r0, [r3]
 11202 00f0 3B68     		ldr	r3, [r7]
 11203 00f2 9968     		ldr	r1, [r3, #8]
 11204 00f4 3B68     		ldr	r3, [r7]
 11205 00f6 1B69     		ldr	r3, [r3, #16]
 11206 00f8 1A46     		mov	r2, r3
 11207 00fa FFF7FEFF 		bl	TIM_TI2_ConfigInputStage
5072:Drivers/STM32F4xx_HAL_Driver/Src/stm32f4xx_hal_tim.c ****     
 11208              		.loc 1 5072 0
 11209 00fe 06E0     		b	.L590
 11210              	.L591:
5100:Drivers/STM32F4xx_HAL_Driver/Src/stm32f4xx_hal_tim.c ****        
 11211              		.loc 1 5100 0
 11212 0100 00BF     		nop
ARM GAS  /tmp/cc4tSQEQ.s 			page 287


 11213 0102 04E0     		b	.L590
 11214              	.L592:
5086:Drivers/STM32F4xx_HAL_Driver/Src/stm32f4xx_hal_tim.c ****     
 11215              		.loc 1 5086 0
 11216 0104 00BF     		nop
 11217 0106 02E0     		b	.L590
 11218              	.L593:
5093:Drivers/STM32F4xx_HAL_Driver/Src/stm32f4xx_hal_tim.c ****     
 11219              		.loc 1 5093 0
 11220 0108 00BF     		nop
 11221 010a 00E0     		b	.L590
 11222              	.L594:
5079:Drivers/STM32F4xx_HAL_Driver/Src/stm32f4xx_hal_tim.c ****     
 11223              		.loc 1 5079 0
 11224 010c 00BF     		nop
 11225              	.L590:
5104:Drivers/STM32F4xx_HAL_Driver/Src/stm32f4xx_hal_tim.c ****   }
5105:Drivers/STM32F4xx_HAL_Driver/Src/stm32f4xx_hal_tim.c **** }
 11226              		.loc 1 5105 0
 11227 010e 00BF     		nop
 11228 0110 1837     		adds	r7, r7, #24
 11229              	.LCFI532:
 11230              		.cfi_def_cfa_offset 8
 11231 0112 BD46     		mov	sp, r7
 11232              	.LCFI533:
 11233              		.cfi_def_cfa_register 13
 11234              		@ sp needed
 11235 0114 80BD     		pop	{r7, pc}
 11236              		.cfi_endproc
 11237              	.LFE222:
 11239              		.section	.text.TIM_TI1_ConfigInputStage,"ax",%progbits
 11240              		.align	1
 11241              		.syntax unified
 11242              		.thumb
 11243              		.thumb_func
 11244              		.fpu fpv4-sp-d16
 11246              	TIM_TI1_ConfigInputStage:
 11247              	.LFB223:
5106:Drivers/STM32F4xx_HAL_Driver/Src/stm32f4xx_hal_tim.c **** 
5107:Drivers/STM32F4xx_HAL_Driver/Src/stm32f4xx_hal_tim.c **** 
5108:Drivers/STM32F4xx_HAL_Driver/Src/stm32f4xx_hal_tim.c **** /**
5109:Drivers/STM32F4xx_HAL_Driver/Src/stm32f4xx_hal_tim.c ****   * @brief  Configure the Polarity and Filter for TI1.
5110:Drivers/STM32F4xx_HAL_Driver/Src/stm32f4xx_hal_tim.c ****   * @param  TIMx to select the TIM peripheral.
5111:Drivers/STM32F4xx_HAL_Driver/Src/stm32f4xx_hal_tim.c ****   * @param  TIM_ICPolarity  The Input Polarity.
5112:Drivers/STM32F4xx_HAL_Driver/Src/stm32f4xx_hal_tim.c ****   *          This parameter can be one of the following values:
5113:Drivers/STM32F4xx_HAL_Driver/Src/stm32f4xx_hal_tim.c ****   *            @arg TIM_ICPolarity_Rising
5114:Drivers/STM32F4xx_HAL_Driver/Src/stm32f4xx_hal_tim.c ****   *            @arg TIM_ICPolarity_Falling
5115:Drivers/STM32F4xx_HAL_Driver/Src/stm32f4xx_hal_tim.c ****   *            @arg TIM_ICPolarity_BothEdge
5116:Drivers/STM32F4xx_HAL_Driver/Src/stm32f4xx_hal_tim.c ****   * @param  TIM_ICFilter Specifies the Input Capture Filter.
5117:Drivers/STM32F4xx_HAL_Driver/Src/stm32f4xx_hal_tim.c ****   *          This parameter must be a value between 0x00 and 0x0F.
5118:Drivers/STM32F4xx_HAL_Driver/Src/stm32f4xx_hal_tim.c ****   * @retval None
5119:Drivers/STM32F4xx_HAL_Driver/Src/stm32f4xx_hal_tim.c ****   */
5120:Drivers/STM32F4xx_HAL_Driver/Src/stm32f4xx_hal_tim.c **** static void TIM_TI1_ConfigInputStage(TIM_TypeDef *TIMx, uint32_t TIM_ICPolarity, uint32_t TIM_ICFil
5121:Drivers/STM32F4xx_HAL_Driver/Src/stm32f4xx_hal_tim.c **** {
 11248              		.loc 1 5121 0
 11249              		.cfi_startproc
 11250              		@ args = 0, pretend = 0, frame = 24
ARM GAS  /tmp/cc4tSQEQ.s 			page 288


 11251              		@ frame_needed = 1, uses_anonymous_args = 0
 11252              		@ link register save eliminated.
 11253 0000 80B4     		push	{r7}
 11254              	.LCFI534:
 11255              		.cfi_def_cfa_offset 4
 11256              		.cfi_offset 7, -4
 11257 0002 87B0     		sub	sp, sp, #28
 11258              	.LCFI535:
 11259              		.cfi_def_cfa_offset 32
 11260 0004 00AF     		add	r7, sp, #0
 11261              	.LCFI536:
 11262              		.cfi_def_cfa_register 7
 11263 0006 F860     		str	r0, [r7, #12]
 11264 0008 B960     		str	r1, [r7, #8]
 11265 000a 7A60     		str	r2, [r7, #4]
5122:Drivers/STM32F4xx_HAL_Driver/Src/stm32f4xx_hal_tim.c ****   uint32_t tmpccmr1 = 0U;
 11266              		.loc 1 5122 0
 11267 000c 0023     		movs	r3, #0
 11268 000e 7B61     		str	r3, [r7, #20]
5123:Drivers/STM32F4xx_HAL_Driver/Src/stm32f4xx_hal_tim.c ****   uint32_t tmpccer = 0U;
 11269              		.loc 1 5123 0
 11270 0010 0023     		movs	r3, #0
 11271 0012 3B61     		str	r3, [r7, #16]
5124:Drivers/STM32F4xx_HAL_Driver/Src/stm32f4xx_hal_tim.c ****   
5125:Drivers/STM32F4xx_HAL_Driver/Src/stm32f4xx_hal_tim.c ****   /* Disable the Channel 1: Reset the CC1E Bit */
5126:Drivers/STM32F4xx_HAL_Driver/Src/stm32f4xx_hal_tim.c ****   tmpccer = TIMx->CCER;
 11272              		.loc 1 5126 0
 11273 0014 FB68     		ldr	r3, [r7, #12]
 11274 0016 1B6A     		ldr	r3, [r3, #32]
 11275 0018 3B61     		str	r3, [r7, #16]
5127:Drivers/STM32F4xx_HAL_Driver/Src/stm32f4xx_hal_tim.c ****   TIMx->CCER &= ~TIM_CCER_CC1E;
 11276              		.loc 1 5127 0
 11277 001a FB68     		ldr	r3, [r7, #12]
 11278 001c 1B6A     		ldr	r3, [r3, #32]
 11279 001e 23F00102 		bic	r2, r3, #1
 11280 0022 FB68     		ldr	r3, [r7, #12]
 11281 0024 1A62     		str	r2, [r3, #32]
5128:Drivers/STM32F4xx_HAL_Driver/Src/stm32f4xx_hal_tim.c ****   tmpccmr1 = TIMx->CCMR1;    
 11282              		.loc 1 5128 0
 11283 0026 FB68     		ldr	r3, [r7, #12]
 11284 0028 9B69     		ldr	r3, [r3, #24]
 11285 002a 7B61     		str	r3, [r7, #20]
5129:Drivers/STM32F4xx_HAL_Driver/Src/stm32f4xx_hal_tim.c ****   
5130:Drivers/STM32F4xx_HAL_Driver/Src/stm32f4xx_hal_tim.c ****   /* Set the filter */
5131:Drivers/STM32F4xx_HAL_Driver/Src/stm32f4xx_hal_tim.c ****   tmpccmr1 &= ~TIM_CCMR1_IC1F;
 11286              		.loc 1 5131 0
 11287 002c 7B69     		ldr	r3, [r7, #20]
 11288 002e 23F0F003 		bic	r3, r3, #240
 11289 0032 7B61     		str	r3, [r7, #20]
5132:Drivers/STM32F4xx_HAL_Driver/Src/stm32f4xx_hal_tim.c ****   tmpccmr1 |= (TIM_ICFilter << 4U);
 11290              		.loc 1 5132 0
 11291 0034 7B68     		ldr	r3, [r7, #4]
 11292 0036 1B01     		lsls	r3, r3, #4
 11293 0038 7A69     		ldr	r2, [r7, #20]
 11294 003a 1343     		orrs	r3, r3, r2
 11295 003c 7B61     		str	r3, [r7, #20]
5133:Drivers/STM32F4xx_HAL_Driver/Src/stm32f4xx_hal_tim.c ****   
ARM GAS  /tmp/cc4tSQEQ.s 			page 289


5134:Drivers/STM32F4xx_HAL_Driver/Src/stm32f4xx_hal_tim.c ****   /* Select the Polarity and set the CC1E Bit */
5135:Drivers/STM32F4xx_HAL_Driver/Src/stm32f4xx_hal_tim.c ****   tmpccer &= ~(TIM_CCER_CC1P | TIM_CCER_CC1NP);
 11296              		.loc 1 5135 0
 11297 003e 3B69     		ldr	r3, [r7, #16]
 11298 0040 23F00A03 		bic	r3, r3, #10
 11299 0044 3B61     		str	r3, [r7, #16]
5136:Drivers/STM32F4xx_HAL_Driver/Src/stm32f4xx_hal_tim.c ****   tmpccer |= TIM_ICPolarity;
 11300              		.loc 1 5136 0
 11301 0046 3A69     		ldr	r2, [r7, #16]
 11302 0048 BB68     		ldr	r3, [r7, #8]
 11303 004a 1343     		orrs	r3, r3, r2
 11304 004c 3B61     		str	r3, [r7, #16]
5137:Drivers/STM32F4xx_HAL_Driver/Src/stm32f4xx_hal_tim.c ****   
5138:Drivers/STM32F4xx_HAL_Driver/Src/stm32f4xx_hal_tim.c ****   /* Write to TIMx CCMR1 and CCER registers */
5139:Drivers/STM32F4xx_HAL_Driver/Src/stm32f4xx_hal_tim.c ****   TIMx->CCMR1 = tmpccmr1;
 11305              		.loc 1 5139 0
 11306 004e FB68     		ldr	r3, [r7, #12]
 11307 0050 7A69     		ldr	r2, [r7, #20]
 11308 0052 9A61     		str	r2, [r3, #24]
5140:Drivers/STM32F4xx_HAL_Driver/Src/stm32f4xx_hal_tim.c ****   TIMx->CCER = tmpccer;
 11309              		.loc 1 5140 0
 11310 0054 FB68     		ldr	r3, [r7, #12]
 11311 0056 3A69     		ldr	r2, [r7, #16]
 11312 0058 1A62     		str	r2, [r3, #32]
5141:Drivers/STM32F4xx_HAL_Driver/Src/stm32f4xx_hal_tim.c **** }
 11313              		.loc 1 5141 0
 11314 005a 00BF     		nop
 11315 005c 1C37     		adds	r7, r7, #28
 11316              	.LCFI537:
 11317              		.cfi_def_cfa_offset 4
 11318 005e BD46     		mov	sp, r7
 11319              	.LCFI538:
 11320              		.cfi_def_cfa_register 13
 11321              		@ sp needed
 11322 0060 5DF8047B 		ldr	r7, [sp], #4
 11323              	.LCFI539:
 11324              		.cfi_restore 7
 11325              		.cfi_def_cfa_offset 0
 11326 0064 7047     		bx	lr
 11327              		.cfi_endproc
 11328              	.LFE223:
 11330              		.section	.text.TIM_TI2_SetConfig,"ax",%progbits
 11331              		.align	1
 11332              		.syntax unified
 11333              		.thumb
 11334              		.thumb_func
 11335              		.fpu fpv4-sp-d16
 11337              	TIM_TI2_SetConfig:
 11338              	.LFB224:
5142:Drivers/STM32F4xx_HAL_Driver/Src/stm32f4xx_hal_tim.c **** 
5143:Drivers/STM32F4xx_HAL_Driver/Src/stm32f4xx_hal_tim.c **** /**
5144:Drivers/STM32F4xx_HAL_Driver/Src/stm32f4xx_hal_tim.c ****   * @brief  Configure the TI2 as Input.
5145:Drivers/STM32F4xx_HAL_Driver/Src/stm32f4xx_hal_tim.c ****   * @param  TIMx to select the TIM peripheral
5146:Drivers/STM32F4xx_HAL_Driver/Src/stm32f4xx_hal_tim.c ****   * @param  TIM_ICPolarity  The Input Polarity.
5147:Drivers/STM32F4xx_HAL_Driver/Src/stm32f4xx_hal_tim.c ****   *          This parameter can be one of the following values:
5148:Drivers/STM32F4xx_HAL_Driver/Src/stm32f4xx_hal_tim.c ****   *            @arg TIM_ICPolarity_Rising
5149:Drivers/STM32F4xx_HAL_Driver/Src/stm32f4xx_hal_tim.c ****   *            @arg TIM_ICPolarity_Falling
ARM GAS  /tmp/cc4tSQEQ.s 			page 290


5150:Drivers/STM32F4xx_HAL_Driver/Src/stm32f4xx_hal_tim.c ****   *            @arg TIM_ICPolarity_BothEdge   
5151:Drivers/STM32F4xx_HAL_Driver/Src/stm32f4xx_hal_tim.c ****   * @param  TIM_ICSelection specifies the input to be used.
5152:Drivers/STM32F4xx_HAL_Driver/Src/stm32f4xx_hal_tim.c ****   *          This parameter can be one of the following values:
5153:Drivers/STM32F4xx_HAL_Driver/Src/stm32f4xx_hal_tim.c ****   *            @arg TIM_ICSelection_DirectTI: TIM Input 2 is selected to be connected to IC2.
5154:Drivers/STM32F4xx_HAL_Driver/Src/stm32f4xx_hal_tim.c ****   *            @arg TIM_ICSelection_IndirectTI: TIM Input 2 is selected to be connected to IC1.
5155:Drivers/STM32F4xx_HAL_Driver/Src/stm32f4xx_hal_tim.c ****   *            @arg TIM_ICSelection_TRC: TIM Input 2 is selected to be connected to TRC.
5156:Drivers/STM32F4xx_HAL_Driver/Src/stm32f4xx_hal_tim.c ****   * @param  TIM_ICFilter Specifies the Input Capture Filter.
5157:Drivers/STM32F4xx_HAL_Driver/Src/stm32f4xx_hal_tim.c ****   *          This parameter must be a value between 0x00 and 0x0F.
5158:Drivers/STM32F4xx_HAL_Driver/Src/stm32f4xx_hal_tim.c ****   * @note TIM_ICFilter and TIM_ICPolarity are not used in INDIRECT mode as TI1FP2 
5159:Drivers/STM32F4xx_HAL_Driver/Src/stm32f4xx_hal_tim.c ****   *       (on channel1 path) is used as the input signal. Therefore CCMR1 must be 
5160:Drivers/STM32F4xx_HAL_Driver/Src/stm32f4xx_hal_tim.c ****   *        protected against un-initialized filter and polarity values.
5161:Drivers/STM32F4xx_HAL_Driver/Src/stm32f4xx_hal_tim.c ****   * @retval None
5162:Drivers/STM32F4xx_HAL_Driver/Src/stm32f4xx_hal_tim.c ****   */
5163:Drivers/STM32F4xx_HAL_Driver/Src/stm32f4xx_hal_tim.c **** static void TIM_TI2_SetConfig(TIM_TypeDef *TIMx, uint32_t TIM_ICPolarity, uint32_t TIM_ICSelection,
5164:Drivers/STM32F4xx_HAL_Driver/Src/stm32f4xx_hal_tim.c ****                        uint32_t TIM_ICFilter)
5165:Drivers/STM32F4xx_HAL_Driver/Src/stm32f4xx_hal_tim.c **** {
 11339              		.loc 1 5165 0
 11340              		.cfi_startproc
 11341              		@ args = 0, pretend = 0, frame = 24
 11342              		@ frame_needed = 1, uses_anonymous_args = 0
 11343              		@ link register save eliminated.
 11344 0000 80B4     		push	{r7}
 11345              	.LCFI540:
 11346              		.cfi_def_cfa_offset 4
 11347              		.cfi_offset 7, -4
 11348 0002 87B0     		sub	sp, sp, #28
 11349              	.LCFI541:
 11350              		.cfi_def_cfa_offset 32
 11351 0004 00AF     		add	r7, sp, #0
 11352              	.LCFI542:
 11353              		.cfi_def_cfa_register 7
 11354 0006 F860     		str	r0, [r7, #12]
 11355 0008 B960     		str	r1, [r7, #8]
 11356 000a 7A60     		str	r2, [r7, #4]
 11357 000c 3B60     		str	r3, [r7]
5166:Drivers/STM32F4xx_HAL_Driver/Src/stm32f4xx_hal_tim.c ****   uint32_t tmpccmr1 = 0U;
 11358              		.loc 1 5166 0
 11359 000e 0023     		movs	r3, #0
 11360 0010 7B61     		str	r3, [r7, #20]
5167:Drivers/STM32F4xx_HAL_Driver/Src/stm32f4xx_hal_tim.c ****   uint32_t tmpccer = 0U;
 11361              		.loc 1 5167 0
 11362 0012 0023     		movs	r3, #0
 11363 0014 3B61     		str	r3, [r7, #16]
5168:Drivers/STM32F4xx_HAL_Driver/Src/stm32f4xx_hal_tim.c **** 
5169:Drivers/STM32F4xx_HAL_Driver/Src/stm32f4xx_hal_tim.c ****   /* Disable the Channel 2: Reset the CC2E Bit */
5170:Drivers/STM32F4xx_HAL_Driver/Src/stm32f4xx_hal_tim.c ****   TIMx->CCER &= ~TIM_CCER_CC2E;
 11364              		.loc 1 5170 0
 11365 0016 FB68     		ldr	r3, [r7, #12]
 11366 0018 1B6A     		ldr	r3, [r3, #32]
 11367 001a 23F01002 		bic	r2, r3, #16
 11368 001e FB68     		ldr	r3, [r7, #12]
 11369 0020 1A62     		str	r2, [r3, #32]
5171:Drivers/STM32F4xx_HAL_Driver/Src/stm32f4xx_hal_tim.c ****   tmpccmr1 = TIMx->CCMR1;
 11370              		.loc 1 5171 0
 11371 0022 FB68     		ldr	r3, [r7, #12]
 11372 0024 9B69     		ldr	r3, [r3, #24]
 11373 0026 7B61     		str	r3, [r7, #20]
ARM GAS  /tmp/cc4tSQEQ.s 			page 291


5172:Drivers/STM32F4xx_HAL_Driver/Src/stm32f4xx_hal_tim.c ****   tmpccer = TIMx->CCER;
 11374              		.loc 1 5172 0
 11375 0028 FB68     		ldr	r3, [r7, #12]
 11376 002a 1B6A     		ldr	r3, [r3, #32]
 11377 002c 3B61     		str	r3, [r7, #16]
5173:Drivers/STM32F4xx_HAL_Driver/Src/stm32f4xx_hal_tim.c ****   
5174:Drivers/STM32F4xx_HAL_Driver/Src/stm32f4xx_hal_tim.c ****   /* Select the Input */
5175:Drivers/STM32F4xx_HAL_Driver/Src/stm32f4xx_hal_tim.c ****   tmpccmr1 &= ~TIM_CCMR1_CC2S;
 11378              		.loc 1 5175 0
 11379 002e 7B69     		ldr	r3, [r7, #20]
 11380 0030 23F44073 		bic	r3, r3, #768
 11381 0034 7B61     		str	r3, [r7, #20]
5176:Drivers/STM32F4xx_HAL_Driver/Src/stm32f4xx_hal_tim.c ****   tmpccmr1 |= (TIM_ICSelection << 8U);
 11382              		.loc 1 5176 0
 11383 0036 7B68     		ldr	r3, [r7, #4]
 11384 0038 1B02     		lsls	r3, r3, #8
 11385 003a 7A69     		ldr	r2, [r7, #20]
 11386 003c 1343     		orrs	r3, r3, r2
 11387 003e 7B61     		str	r3, [r7, #20]
5177:Drivers/STM32F4xx_HAL_Driver/Src/stm32f4xx_hal_tim.c ****   
5178:Drivers/STM32F4xx_HAL_Driver/Src/stm32f4xx_hal_tim.c ****   /* Set the filter */
5179:Drivers/STM32F4xx_HAL_Driver/Src/stm32f4xx_hal_tim.c ****   tmpccmr1 &= ~TIM_CCMR1_IC2F;
 11388              		.loc 1 5179 0
 11389 0040 7B69     		ldr	r3, [r7, #20]
 11390 0042 23F47043 		bic	r3, r3, #61440
 11391 0046 7B61     		str	r3, [r7, #20]
5180:Drivers/STM32F4xx_HAL_Driver/Src/stm32f4xx_hal_tim.c ****   tmpccmr1 |= ((TIM_ICFilter << 12U) & TIM_CCMR1_IC2F);
 11392              		.loc 1 5180 0
 11393 0048 3B68     		ldr	r3, [r7]
 11394 004a 1B03     		lsls	r3, r3, #12
 11395 004c 9BB2     		uxth	r3, r3
 11396 004e 7A69     		ldr	r2, [r7, #20]
 11397 0050 1343     		orrs	r3, r3, r2
 11398 0052 7B61     		str	r3, [r7, #20]
5181:Drivers/STM32F4xx_HAL_Driver/Src/stm32f4xx_hal_tim.c **** 
5182:Drivers/STM32F4xx_HAL_Driver/Src/stm32f4xx_hal_tim.c ****   /* Select the Polarity and set the CC2E Bit */
5183:Drivers/STM32F4xx_HAL_Driver/Src/stm32f4xx_hal_tim.c ****   tmpccer &= ~(TIM_CCER_CC2P | TIM_CCER_CC2NP);
 11399              		.loc 1 5183 0
 11400 0054 3B69     		ldr	r3, [r7, #16]
 11401 0056 23F0A003 		bic	r3, r3, #160
 11402 005a 3B61     		str	r3, [r7, #16]
5184:Drivers/STM32F4xx_HAL_Driver/Src/stm32f4xx_hal_tim.c ****   tmpccer |= ((TIM_ICPolarity << 4U) & (TIM_CCER_CC2P | TIM_CCER_CC2NP));
 11403              		.loc 1 5184 0
 11404 005c BB68     		ldr	r3, [r7, #8]
 11405 005e 1B01     		lsls	r3, r3, #4
 11406 0060 03F0A003 		and	r3, r3, #160
 11407 0064 3A69     		ldr	r2, [r7, #16]
 11408 0066 1343     		orrs	r3, r3, r2
 11409 0068 3B61     		str	r3, [r7, #16]
5185:Drivers/STM32F4xx_HAL_Driver/Src/stm32f4xx_hal_tim.c **** 
5186:Drivers/STM32F4xx_HAL_Driver/Src/stm32f4xx_hal_tim.c ****   /* Write to TIMx CCMR1 and CCER registers */
5187:Drivers/STM32F4xx_HAL_Driver/Src/stm32f4xx_hal_tim.c ****   TIMx->CCMR1 = tmpccmr1 ;
 11410              		.loc 1 5187 0
 11411 006a FB68     		ldr	r3, [r7, #12]
 11412 006c 7A69     		ldr	r2, [r7, #20]
 11413 006e 9A61     		str	r2, [r3, #24]
5188:Drivers/STM32F4xx_HAL_Driver/Src/stm32f4xx_hal_tim.c ****   TIMx->CCER = tmpccer;
ARM GAS  /tmp/cc4tSQEQ.s 			page 292


 11414              		.loc 1 5188 0
 11415 0070 FB68     		ldr	r3, [r7, #12]
 11416 0072 3A69     		ldr	r2, [r7, #16]
 11417 0074 1A62     		str	r2, [r3, #32]
5189:Drivers/STM32F4xx_HAL_Driver/Src/stm32f4xx_hal_tim.c **** }
 11418              		.loc 1 5189 0
 11419 0076 00BF     		nop
 11420 0078 1C37     		adds	r7, r7, #28
 11421              	.LCFI543:
 11422              		.cfi_def_cfa_offset 4
 11423 007a BD46     		mov	sp, r7
 11424              	.LCFI544:
 11425              		.cfi_def_cfa_register 13
 11426              		@ sp needed
 11427 007c 5DF8047B 		ldr	r7, [sp], #4
 11428              	.LCFI545:
 11429              		.cfi_restore 7
 11430              		.cfi_def_cfa_offset 0
 11431 0080 7047     		bx	lr
 11432              		.cfi_endproc
 11433              	.LFE224:
 11435              		.section	.text.TIM_TI2_ConfigInputStage,"ax",%progbits
 11436              		.align	1
 11437              		.syntax unified
 11438              		.thumb
 11439              		.thumb_func
 11440              		.fpu fpv4-sp-d16
 11442              	TIM_TI2_ConfigInputStage:
 11443              	.LFB225:
5190:Drivers/STM32F4xx_HAL_Driver/Src/stm32f4xx_hal_tim.c **** 
5191:Drivers/STM32F4xx_HAL_Driver/Src/stm32f4xx_hal_tim.c **** /**
5192:Drivers/STM32F4xx_HAL_Driver/Src/stm32f4xx_hal_tim.c ****   * @brief  Configure the Polarity and Filter for TI2.
5193:Drivers/STM32F4xx_HAL_Driver/Src/stm32f4xx_hal_tim.c ****   * @param  TIMx to select the TIM peripheral.
5194:Drivers/STM32F4xx_HAL_Driver/Src/stm32f4xx_hal_tim.c ****   * @param  TIM_ICPolarity  The Input Polarity.
5195:Drivers/STM32F4xx_HAL_Driver/Src/stm32f4xx_hal_tim.c ****   *          This parameter can be one of the following values:
5196:Drivers/STM32F4xx_HAL_Driver/Src/stm32f4xx_hal_tim.c ****   *            @arg TIM_ICPolarity_Rising
5197:Drivers/STM32F4xx_HAL_Driver/Src/stm32f4xx_hal_tim.c ****   *            @arg TIM_ICPolarity_Falling
5198:Drivers/STM32F4xx_HAL_Driver/Src/stm32f4xx_hal_tim.c ****   *            @arg TIM_ICPolarity_BothEdge
5199:Drivers/STM32F4xx_HAL_Driver/Src/stm32f4xx_hal_tim.c ****   * @param  TIM_ICFilter Specifies the Input Capture Filter.
5200:Drivers/STM32F4xx_HAL_Driver/Src/stm32f4xx_hal_tim.c ****   *          This parameter must be a value between 0x00 and 0x0F.
5201:Drivers/STM32F4xx_HAL_Driver/Src/stm32f4xx_hal_tim.c ****   * @retval None
5202:Drivers/STM32F4xx_HAL_Driver/Src/stm32f4xx_hal_tim.c ****   */
5203:Drivers/STM32F4xx_HAL_Driver/Src/stm32f4xx_hal_tim.c **** static void TIM_TI2_ConfigInputStage(TIM_TypeDef *TIMx, uint32_t TIM_ICPolarity, uint32_t TIM_ICFil
5204:Drivers/STM32F4xx_HAL_Driver/Src/stm32f4xx_hal_tim.c **** {
 11444              		.loc 1 5204 0
 11445              		.cfi_startproc
 11446              		@ args = 0, pretend = 0, frame = 24
 11447              		@ frame_needed = 1, uses_anonymous_args = 0
 11448              		@ link register save eliminated.
 11449 0000 80B4     		push	{r7}
 11450              	.LCFI546:
 11451              		.cfi_def_cfa_offset 4
 11452              		.cfi_offset 7, -4
 11453 0002 87B0     		sub	sp, sp, #28
 11454              	.LCFI547:
 11455              		.cfi_def_cfa_offset 32
 11456 0004 00AF     		add	r7, sp, #0
ARM GAS  /tmp/cc4tSQEQ.s 			page 293


 11457              	.LCFI548:
 11458              		.cfi_def_cfa_register 7
 11459 0006 F860     		str	r0, [r7, #12]
 11460 0008 B960     		str	r1, [r7, #8]
 11461 000a 7A60     		str	r2, [r7, #4]
5205:Drivers/STM32F4xx_HAL_Driver/Src/stm32f4xx_hal_tim.c ****   uint32_t tmpccmr1 = 0U;
 11462              		.loc 1 5205 0
 11463 000c 0023     		movs	r3, #0
 11464 000e 7B61     		str	r3, [r7, #20]
5206:Drivers/STM32F4xx_HAL_Driver/Src/stm32f4xx_hal_tim.c ****   uint32_t tmpccer = 0U;
 11465              		.loc 1 5206 0
 11466 0010 0023     		movs	r3, #0
 11467 0012 3B61     		str	r3, [r7, #16]
5207:Drivers/STM32F4xx_HAL_Driver/Src/stm32f4xx_hal_tim.c ****   
5208:Drivers/STM32F4xx_HAL_Driver/Src/stm32f4xx_hal_tim.c ****   /* Disable the Channel 2: Reset the CC2E Bit */
5209:Drivers/STM32F4xx_HAL_Driver/Src/stm32f4xx_hal_tim.c ****   TIMx->CCER &= ~TIM_CCER_CC2E;
 11468              		.loc 1 5209 0
 11469 0014 FB68     		ldr	r3, [r7, #12]
 11470 0016 1B6A     		ldr	r3, [r3, #32]
 11471 0018 23F01002 		bic	r2, r3, #16
 11472 001c FB68     		ldr	r3, [r7, #12]
 11473 001e 1A62     		str	r2, [r3, #32]
5210:Drivers/STM32F4xx_HAL_Driver/Src/stm32f4xx_hal_tim.c ****   tmpccmr1 = TIMx->CCMR1;
 11474              		.loc 1 5210 0
 11475 0020 FB68     		ldr	r3, [r7, #12]
 11476 0022 9B69     		ldr	r3, [r3, #24]
 11477 0024 7B61     		str	r3, [r7, #20]
5211:Drivers/STM32F4xx_HAL_Driver/Src/stm32f4xx_hal_tim.c ****   tmpccer = TIMx->CCER;
 11478              		.loc 1 5211 0
 11479 0026 FB68     		ldr	r3, [r7, #12]
 11480 0028 1B6A     		ldr	r3, [r3, #32]
 11481 002a 3B61     		str	r3, [r7, #16]
5212:Drivers/STM32F4xx_HAL_Driver/Src/stm32f4xx_hal_tim.c ****   
5213:Drivers/STM32F4xx_HAL_Driver/Src/stm32f4xx_hal_tim.c ****   /* Set the filter */
5214:Drivers/STM32F4xx_HAL_Driver/Src/stm32f4xx_hal_tim.c ****   tmpccmr1 &= ~TIM_CCMR1_IC2F;
 11482              		.loc 1 5214 0
 11483 002c 7B69     		ldr	r3, [r7, #20]
 11484 002e 23F47043 		bic	r3, r3, #61440
 11485 0032 7B61     		str	r3, [r7, #20]
5215:Drivers/STM32F4xx_HAL_Driver/Src/stm32f4xx_hal_tim.c ****   tmpccmr1 |= (TIM_ICFilter << 12U);
 11486              		.loc 1 5215 0
 11487 0034 7B68     		ldr	r3, [r7, #4]
 11488 0036 1B03     		lsls	r3, r3, #12
 11489 0038 7A69     		ldr	r2, [r7, #20]
 11490 003a 1343     		orrs	r3, r3, r2
 11491 003c 7B61     		str	r3, [r7, #20]
5216:Drivers/STM32F4xx_HAL_Driver/Src/stm32f4xx_hal_tim.c **** 
5217:Drivers/STM32F4xx_HAL_Driver/Src/stm32f4xx_hal_tim.c ****   /* Select the Polarity and set the CC2E Bit */
5218:Drivers/STM32F4xx_HAL_Driver/Src/stm32f4xx_hal_tim.c ****   tmpccer &= ~(TIM_CCER_CC2P | TIM_CCER_CC2NP);
 11492              		.loc 1 5218 0
 11493 003e 3B69     		ldr	r3, [r7, #16]
 11494 0040 23F0A003 		bic	r3, r3, #160
 11495 0044 3B61     		str	r3, [r7, #16]
5219:Drivers/STM32F4xx_HAL_Driver/Src/stm32f4xx_hal_tim.c ****   tmpccer |= (TIM_ICPolarity << 4U);
 11496              		.loc 1 5219 0
 11497 0046 BB68     		ldr	r3, [r7, #8]
 11498 0048 1B01     		lsls	r3, r3, #4
ARM GAS  /tmp/cc4tSQEQ.s 			page 294


 11499 004a 3A69     		ldr	r2, [r7, #16]
 11500 004c 1343     		orrs	r3, r3, r2
 11501 004e 3B61     		str	r3, [r7, #16]
5220:Drivers/STM32F4xx_HAL_Driver/Src/stm32f4xx_hal_tim.c **** 
5221:Drivers/STM32F4xx_HAL_Driver/Src/stm32f4xx_hal_tim.c ****   /* Write to TIMx CCMR1 and CCER registers */
5222:Drivers/STM32F4xx_HAL_Driver/Src/stm32f4xx_hal_tim.c ****   TIMx->CCMR1 = tmpccmr1 ;
 11502              		.loc 1 5222 0
 11503 0050 FB68     		ldr	r3, [r7, #12]
 11504 0052 7A69     		ldr	r2, [r7, #20]
 11505 0054 9A61     		str	r2, [r3, #24]
5223:Drivers/STM32F4xx_HAL_Driver/Src/stm32f4xx_hal_tim.c ****   TIMx->CCER = tmpccer;
 11506              		.loc 1 5223 0
 11507 0056 FB68     		ldr	r3, [r7, #12]
 11508 0058 3A69     		ldr	r2, [r7, #16]
 11509 005a 1A62     		str	r2, [r3, #32]
5224:Drivers/STM32F4xx_HAL_Driver/Src/stm32f4xx_hal_tim.c **** }
 11510              		.loc 1 5224 0
 11511 005c 00BF     		nop
 11512 005e 1C37     		adds	r7, r7, #28
 11513              	.LCFI549:
 11514              		.cfi_def_cfa_offset 4
 11515 0060 BD46     		mov	sp, r7
 11516              	.LCFI550:
 11517              		.cfi_def_cfa_register 13
 11518              		@ sp needed
 11519 0062 5DF8047B 		ldr	r7, [sp], #4
 11520              	.LCFI551:
 11521              		.cfi_restore 7
 11522              		.cfi_def_cfa_offset 0
 11523 0066 7047     		bx	lr
 11524              		.cfi_endproc
 11525              	.LFE225:
 11527              		.section	.text.TIM_TI3_SetConfig,"ax",%progbits
 11528              		.align	1
 11529              		.syntax unified
 11530              		.thumb
 11531              		.thumb_func
 11532              		.fpu fpv4-sp-d16
 11534              	TIM_TI3_SetConfig:
 11535              	.LFB226:
5225:Drivers/STM32F4xx_HAL_Driver/Src/stm32f4xx_hal_tim.c **** 
5226:Drivers/STM32F4xx_HAL_Driver/Src/stm32f4xx_hal_tim.c **** /**
5227:Drivers/STM32F4xx_HAL_Driver/Src/stm32f4xx_hal_tim.c ****   * @brief  Configure the TI3 as Input.
5228:Drivers/STM32F4xx_HAL_Driver/Src/stm32f4xx_hal_tim.c ****   * @param  TIMx to select the TIM peripheral
5229:Drivers/STM32F4xx_HAL_Driver/Src/stm32f4xx_hal_tim.c ****   * @param  TIM_ICPolarity  The Input Polarity.
5230:Drivers/STM32F4xx_HAL_Driver/Src/stm32f4xx_hal_tim.c ****   *          This parameter can be one of the following values:
5231:Drivers/STM32F4xx_HAL_Driver/Src/stm32f4xx_hal_tim.c ****   *            @arg TIM_ICPolarity_Rising
5232:Drivers/STM32F4xx_HAL_Driver/Src/stm32f4xx_hal_tim.c ****   *            @arg TIM_ICPolarity_Falling
5233:Drivers/STM32F4xx_HAL_Driver/Src/stm32f4xx_hal_tim.c ****   *            @arg TIM_ICPolarity_BothEdge         
5234:Drivers/STM32F4xx_HAL_Driver/Src/stm32f4xx_hal_tim.c ****   * @param  TIM_ICSelection specifies the input to be used.
5235:Drivers/STM32F4xx_HAL_Driver/Src/stm32f4xx_hal_tim.c ****   *          This parameter can be one of the following values:
5236:Drivers/STM32F4xx_HAL_Driver/Src/stm32f4xx_hal_tim.c ****   *            @arg TIM_ICSelection_DirectTI: TIM Input 3 is selected to be connected to IC3.
5237:Drivers/STM32F4xx_HAL_Driver/Src/stm32f4xx_hal_tim.c ****   *            @arg TIM_ICSelection_IndirectTI: TIM Input 3 is selected to be connected to IC4.
5238:Drivers/STM32F4xx_HAL_Driver/Src/stm32f4xx_hal_tim.c ****   *            @arg TIM_ICSelection_TRC: TIM Input 3 is selected to be connected to TRC.
5239:Drivers/STM32F4xx_HAL_Driver/Src/stm32f4xx_hal_tim.c ****   * @param  TIM_ICFilter Specifies the Input Capture Filter.
5240:Drivers/STM32F4xx_HAL_Driver/Src/stm32f4xx_hal_tim.c ****   *          This parameter must be a value between 0x00 and 0x0F.
5241:Drivers/STM32F4xx_HAL_Driver/Src/stm32f4xx_hal_tim.c ****   * @note TIM_ICFilter and TIM_ICPolarity are not used in INDIRECT mode as TI4FP3 
ARM GAS  /tmp/cc4tSQEQ.s 			page 295


5242:Drivers/STM32F4xx_HAL_Driver/Src/stm32f4xx_hal_tim.c ****   *       (on channel4 path) is used as the input signal. Therefore CCMR2 must be 
5243:Drivers/STM32F4xx_HAL_Driver/Src/stm32f4xx_hal_tim.c ****   *        protected against un-initialized filter and polarity values.
5244:Drivers/STM32F4xx_HAL_Driver/Src/stm32f4xx_hal_tim.c ****   * @retval None
5245:Drivers/STM32F4xx_HAL_Driver/Src/stm32f4xx_hal_tim.c ****   */
5246:Drivers/STM32F4xx_HAL_Driver/Src/stm32f4xx_hal_tim.c **** static void TIM_TI3_SetConfig(TIM_TypeDef *TIMx, uint32_t TIM_ICPolarity, uint32_t TIM_ICSelection,
5247:Drivers/STM32F4xx_HAL_Driver/Src/stm32f4xx_hal_tim.c ****                        uint32_t TIM_ICFilter)
5248:Drivers/STM32F4xx_HAL_Driver/Src/stm32f4xx_hal_tim.c **** {
 11536              		.loc 1 5248 0
 11537              		.cfi_startproc
 11538              		@ args = 0, pretend = 0, frame = 24
 11539              		@ frame_needed = 1, uses_anonymous_args = 0
 11540              		@ link register save eliminated.
 11541 0000 80B4     		push	{r7}
 11542              	.LCFI552:
 11543              		.cfi_def_cfa_offset 4
 11544              		.cfi_offset 7, -4
 11545 0002 87B0     		sub	sp, sp, #28
 11546              	.LCFI553:
 11547              		.cfi_def_cfa_offset 32
 11548 0004 00AF     		add	r7, sp, #0
 11549              	.LCFI554:
 11550              		.cfi_def_cfa_register 7
 11551 0006 F860     		str	r0, [r7, #12]
 11552 0008 B960     		str	r1, [r7, #8]
 11553 000a 7A60     		str	r2, [r7, #4]
 11554 000c 3B60     		str	r3, [r7]
5249:Drivers/STM32F4xx_HAL_Driver/Src/stm32f4xx_hal_tim.c ****   uint32_t tmpccmr2 = 0U;
 11555              		.loc 1 5249 0
 11556 000e 0023     		movs	r3, #0
 11557 0010 7B61     		str	r3, [r7, #20]
5250:Drivers/STM32F4xx_HAL_Driver/Src/stm32f4xx_hal_tim.c ****   uint32_t tmpccer = 0U;
 11558              		.loc 1 5250 0
 11559 0012 0023     		movs	r3, #0
 11560 0014 3B61     		str	r3, [r7, #16]
5251:Drivers/STM32F4xx_HAL_Driver/Src/stm32f4xx_hal_tim.c **** 
5252:Drivers/STM32F4xx_HAL_Driver/Src/stm32f4xx_hal_tim.c ****   /* Disable the Channel 3: Reset the CC3E Bit */
5253:Drivers/STM32F4xx_HAL_Driver/Src/stm32f4xx_hal_tim.c ****   TIMx->CCER &= ~TIM_CCER_CC3E;
 11561              		.loc 1 5253 0
 11562 0016 FB68     		ldr	r3, [r7, #12]
 11563 0018 1B6A     		ldr	r3, [r3, #32]
 11564 001a 23F48072 		bic	r2, r3, #256
 11565 001e FB68     		ldr	r3, [r7, #12]
 11566 0020 1A62     		str	r2, [r3, #32]
5254:Drivers/STM32F4xx_HAL_Driver/Src/stm32f4xx_hal_tim.c ****   tmpccmr2 = TIMx->CCMR2;
 11567              		.loc 1 5254 0
 11568 0022 FB68     		ldr	r3, [r7, #12]
 11569 0024 DB69     		ldr	r3, [r3, #28]
 11570 0026 7B61     		str	r3, [r7, #20]
5255:Drivers/STM32F4xx_HAL_Driver/Src/stm32f4xx_hal_tim.c ****   tmpccer = TIMx->CCER;
 11571              		.loc 1 5255 0
 11572 0028 FB68     		ldr	r3, [r7, #12]
 11573 002a 1B6A     		ldr	r3, [r3, #32]
 11574 002c 3B61     		str	r3, [r7, #16]
5256:Drivers/STM32F4xx_HAL_Driver/Src/stm32f4xx_hal_tim.c **** 
5257:Drivers/STM32F4xx_HAL_Driver/Src/stm32f4xx_hal_tim.c ****   /* Select the Input */
5258:Drivers/STM32F4xx_HAL_Driver/Src/stm32f4xx_hal_tim.c ****   tmpccmr2 &= ~TIM_CCMR2_CC3S;
 11575              		.loc 1 5258 0
ARM GAS  /tmp/cc4tSQEQ.s 			page 296


 11576 002e 7B69     		ldr	r3, [r7, #20]
 11577 0030 23F00303 		bic	r3, r3, #3
 11578 0034 7B61     		str	r3, [r7, #20]
5259:Drivers/STM32F4xx_HAL_Driver/Src/stm32f4xx_hal_tim.c ****   tmpccmr2 |= TIM_ICSelection;
 11579              		.loc 1 5259 0
 11580 0036 7A69     		ldr	r2, [r7, #20]
 11581 0038 7B68     		ldr	r3, [r7, #4]
 11582 003a 1343     		orrs	r3, r3, r2
 11583 003c 7B61     		str	r3, [r7, #20]
5260:Drivers/STM32F4xx_HAL_Driver/Src/stm32f4xx_hal_tim.c **** 
5261:Drivers/STM32F4xx_HAL_Driver/Src/stm32f4xx_hal_tim.c ****   /* Set the filter */
5262:Drivers/STM32F4xx_HAL_Driver/Src/stm32f4xx_hal_tim.c ****   tmpccmr2 &= ~TIM_CCMR2_IC3F;
 11584              		.loc 1 5262 0
 11585 003e 7B69     		ldr	r3, [r7, #20]
 11586 0040 23F0F003 		bic	r3, r3, #240
 11587 0044 7B61     		str	r3, [r7, #20]
5263:Drivers/STM32F4xx_HAL_Driver/Src/stm32f4xx_hal_tim.c ****   tmpccmr2 |= ((TIM_ICFilter << 4U) & TIM_CCMR2_IC3F);
 11588              		.loc 1 5263 0
 11589 0046 3B68     		ldr	r3, [r7]
 11590 0048 1B01     		lsls	r3, r3, #4
 11591 004a DBB2     		uxtb	r3, r3
 11592 004c 7A69     		ldr	r2, [r7, #20]
 11593 004e 1343     		orrs	r3, r3, r2
 11594 0050 7B61     		str	r3, [r7, #20]
5264:Drivers/STM32F4xx_HAL_Driver/Src/stm32f4xx_hal_tim.c **** 
5265:Drivers/STM32F4xx_HAL_Driver/Src/stm32f4xx_hal_tim.c ****   /* Select the Polarity and set the CC3E Bit */
5266:Drivers/STM32F4xx_HAL_Driver/Src/stm32f4xx_hal_tim.c ****   tmpccer &= ~(TIM_CCER_CC3P | TIM_CCER_CC3NP);
 11595              		.loc 1 5266 0
 11596 0052 3B69     		ldr	r3, [r7, #16]
 11597 0054 23F42063 		bic	r3, r3, #2560
 11598 0058 3B61     		str	r3, [r7, #16]
5267:Drivers/STM32F4xx_HAL_Driver/Src/stm32f4xx_hal_tim.c ****   tmpccer |= ((TIM_ICPolarity << 8U) & (TIM_CCER_CC3P | TIM_CCER_CC3NP));
 11599              		.loc 1 5267 0
 11600 005a BB68     		ldr	r3, [r7, #8]
 11601 005c 1B02     		lsls	r3, r3, #8
 11602 005e 03F42063 		and	r3, r3, #2560
 11603 0062 3A69     		ldr	r2, [r7, #16]
 11604 0064 1343     		orrs	r3, r3, r2
 11605 0066 3B61     		str	r3, [r7, #16]
5268:Drivers/STM32F4xx_HAL_Driver/Src/stm32f4xx_hal_tim.c **** 
5269:Drivers/STM32F4xx_HAL_Driver/Src/stm32f4xx_hal_tim.c ****   /* Write to TIMx CCMR2 and CCER registers */
5270:Drivers/STM32F4xx_HAL_Driver/Src/stm32f4xx_hal_tim.c ****   TIMx->CCMR2 = tmpccmr2;
 11606              		.loc 1 5270 0
 11607 0068 FB68     		ldr	r3, [r7, #12]
 11608 006a 7A69     		ldr	r2, [r7, #20]
 11609 006c DA61     		str	r2, [r3, #28]
5271:Drivers/STM32F4xx_HAL_Driver/Src/stm32f4xx_hal_tim.c ****   TIMx->CCER = tmpccer;
 11610              		.loc 1 5271 0
 11611 006e FB68     		ldr	r3, [r7, #12]
 11612 0070 3A69     		ldr	r2, [r7, #16]
 11613 0072 1A62     		str	r2, [r3, #32]
5272:Drivers/STM32F4xx_HAL_Driver/Src/stm32f4xx_hal_tim.c **** }
 11614              		.loc 1 5272 0
 11615 0074 00BF     		nop
 11616 0076 1C37     		adds	r7, r7, #28
 11617              	.LCFI555:
 11618              		.cfi_def_cfa_offset 4
ARM GAS  /tmp/cc4tSQEQ.s 			page 297


 11619 0078 BD46     		mov	sp, r7
 11620              	.LCFI556:
 11621              		.cfi_def_cfa_register 13
 11622              		@ sp needed
 11623 007a 5DF8047B 		ldr	r7, [sp], #4
 11624              	.LCFI557:
 11625              		.cfi_restore 7
 11626              		.cfi_def_cfa_offset 0
 11627 007e 7047     		bx	lr
 11628              		.cfi_endproc
 11629              	.LFE226:
 11631              		.section	.text.TIM_TI4_SetConfig,"ax",%progbits
 11632              		.align	1
 11633              		.syntax unified
 11634              		.thumb
 11635              		.thumb_func
 11636              		.fpu fpv4-sp-d16
 11638              	TIM_TI4_SetConfig:
 11639              	.LFB227:
5273:Drivers/STM32F4xx_HAL_Driver/Src/stm32f4xx_hal_tim.c **** 
5274:Drivers/STM32F4xx_HAL_Driver/Src/stm32f4xx_hal_tim.c **** /**
5275:Drivers/STM32F4xx_HAL_Driver/Src/stm32f4xx_hal_tim.c ****   * @brief  Configure the TI4 as Input.
5276:Drivers/STM32F4xx_HAL_Driver/Src/stm32f4xx_hal_tim.c ****   * @param  TIMx to select the TIM peripheral
5277:Drivers/STM32F4xx_HAL_Driver/Src/stm32f4xx_hal_tim.c ****   * @param  TIM_ICPolarity  The Input Polarity.
5278:Drivers/STM32F4xx_HAL_Driver/Src/stm32f4xx_hal_tim.c ****   *          This parameter can be one of the following values:
5279:Drivers/STM32F4xx_HAL_Driver/Src/stm32f4xx_hal_tim.c ****   *            @arg TIM_ICPolarity_Rising
5280:Drivers/STM32F4xx_HAL_Driver/Src/stm32f4xx_hal_tim.c ****   *            @arg TIM_ICPolarity_Falling
5281:Drivers/STM32F4xx_HAL_Driver/Src/stm32f4xx_hal_tim.c ****   *            @arg TIM_ICPolarity_BothEdge     
5282:Drivers/STM32F4xx_HAL_Driver/Src/stm32f4xx_hal_tim.c ****   * @param  TIM_ICSelection specifies the input to be used.
5283:Drivers/STM32F4xx_HAL_Driver/Src/stm32f4xx_hal_tim.c ****   *          This parameter can be one of the following values:
5284:Drivers/STM32F4xx_HAL_Driver/Src/stm32f4xx_hal_tim.c ****   *            @arg TIM_ICSelection_DirectTI: TIM Input 4 is selected to be connected to IC4.
5285:Drivers/STM32F4xx_HAL_Driver/Src/stm32f4xx_hal_tim.c ****   *            @arg TIM_ICSelection_IndirectTI: TIM Input 4 is selected to be connected to IC3.
5286:Drivers/STM32F4xx_HAL_Driver/Src/stm32f4xx_hal_tim.c ****   *            @arg TIM_ICSelection_TRC: TIM Input 4 is selected to be connected to TRC.
5287:Drivers/STM32F4xx_HAL_Driver/Src/stm32f4xx_hal_tim.c ****   * @param  TIM_ICFilter Specifies the Input Capture Filter.
5288:Drivers/STM32F4xx_HAL_Driver/Src/stm32f4xx_hal_tim.c ****   *          This parameter must be a value between 0x00 and 0x0F.
5289:Drivers/STM32F4xx_HAL_Driver/Src/stm32f4xx_hal_tim.c ****   * @note TIM_ICFilter and TIM_ICPolarity are not used in INDIRECT mode as TI3FP4 
5290:Drivers/STM32F4xx_HAL_Driver/Src/stm32f4xx_hal_tim.c ****   *       (on channel3 path) is used as the input signal. Therefore CCMR2 must be 
5291:Drivers/STM32F4xx_HAL_Driver/Src/stm32f4xx_hal_tim.c ****   *        protected against un-initialized filter and polarity values.
5292:Drivers/STM32F4xx_HAL_Driver/Src/stm32f4xx_hal_tim.c ****   * @retval None
5293:Drivers/STM32F4xx_HAL_Driver/Src/stm32f4xx_hal_tim.c ****   */
5294:Drivers/STM32F4xx_HAL_Driver/Src/stm32f4xx_hal_tim.c **** static void TIM_TI4_SetConfig(TIM_TypeDef *TIMx, uint32_t TIM_ICPolarity, uint32_t TIM_ICSelection,
5295:Drivers/STM32F4xx_HAL_Driver/Src/stm32f4xx_hal_tim.c ****                        uint32_t TIM_ICFilter)
5296:Drivers/STM32F4xx_HAL_Driver/Src/stm32f4xx_hal_tim.c **** {
 11640              		.loc 1 5296 0
 11641              		.cfi_startproc
 11642              		@ args = 0, pretend = 0, frame = 24
 11643              		@ frame_needed = 1, uses_anonymous_args = 0
 11644              		@ link register save eliminated.
 11645 0000 80B4     		push	{r7}
 11646              	.LCFI558:
 11647              		.cfi_def_cfa_offset 4
 11648              		.cfi_offset 7, -4
 11649 0002 87B0     		sub	sp, sp, #28
 11650              	.LCFI559:
 11651              		.cfi_def_cfa_offset 32
 11652 0004 00AF     		add	r7, sp, #0
 11653              	.LCFI560:
ARM GAS  /tmp/cc4tSQEQ.s 			page 298


 11654              		.cfi_def_cfa_register 7
 11655 0006 F860     		str	r0, [r7, #12]
 11656 0008 B960     		str	r1, [r7, #8]
 11657 000a 7A60     		str	r2, [r7, #4]
 11658 000c 3B60     		str	r3, [r7]
5297:Drivers/STM32F4xx_HAL_Driver/Src/stm32f4xx_hal_tim.c ****   uint32_t tmpccmr2 = 0U;
 11659              		.loc 1 5297 0
 11660 000e 0023     		movs	r3, #0
 11661 0010 7B61     		str	r3, [r7, #20]
5298:Drivers/STM32F4xx_HAL_Driver/Src/stm32f4xx_hal_tim.c ****   uint32_t tmpccer = 0U;
 11662              		.loc 1 5298 0
 11663 0012 0023     		movs	r3, #0
 11664 0014 3B61     		str	r3, [r7, #16]
5299:Drivers/STM32F4xx_HAL_Driver/Src/stm32f4xx_hal_tim.c **** 
5300:Drivers/STM32F4xx_HAL_Driver/Src/stm32f4xx_hal_tim.c ****   /* Disable the Channel 4: Reset the CC4E Bit */
5301:Drivers/STM32F4xx_HAL_Driver/Src/stm32f4xx_hal_tim.c ****   TIMx->CCER &= ~TIM_CCER_CC4E;
 11665              		.loc 1 5301 0
 11666 0016 FB68     		ldr	r3, [r7, #12]
 11667 0018 1B6A     		ldr	r3, [r3, #32]
 11668 001a 23F48052 		bic	r2, r3, #4096
 11669 001e FB68     		ldr	r3, [r7, #12]
 11670 0020 1A62     		str	r2, [r3, #32]
5302:Drivers/STM32F4xx_HAL_Driver/Src/stm32f4xx_hal_tim.c ****   tmpccmr2 = TIMx->CCMR2;
 11671              		.loc 1 5302 0
 11672 0022 FB68     		ldr	r3, [r7, #12]
 11673 0024 DB69     		ldr	r3, [r3, #28]
 11674 0026 7B61     		str	r3, [r7, #20]
5303:Drivers/STM32F4xx_HAL_Driver/Src/stm32f4xx_hal_tim.c ****   tmpccer = TIMx->CCER;
 11675              		.loc 1 5303 0
 11676 0028 FB68     		ldr	r3, [r7, #12]
 11677 002a 1B6A     		ldr	r3, [r3, #32]
 11678 002c 3B61     		str	r3, [r7, #16]
5304:Drivers/STM32F4xx_HAL_Driver/Src/stm32f4xx_hal_tim.c **** 
5305:Drivers/STM32F4xx_HAL_Driver/Src/stm32f4xx_hal_tim.c ****   /* Select the Input */
5306:Drivers/STM32F4xx_HAL_Driver/Src/stm32f4xx_hal_tim.c ****   tmpccmr2 &= ~TIM_CCMR2_CC4S;
 11679              		.loc 1 5306 0
 11680 002e 7B69     		ldr	r3, [r7, #20]
 11681 0030 23F44073 		bic	r3, r3, #768
 11682 0034 7B61     		str	r3, [r7, #20]
5307:Drivers/STM32F4xx_HAL_Driver/Src/stm32f4xx_hal_tim.c ****   tmpccmr2 |= (TIM_ICSelection << 8U);
 11683              		.loc 1 5307 0
 11684 0036 7B68     		ldr	r3, [r7, #4]
 11685 0038 1B02     		lsls	r3, r3, #8
 11686 003a 7A69     		ldr	r2, [r7, #20]
 11687 003c 1343     		orrs	r3, r3, r2
 11688 003e 7B61     		str	r3, [r7, #20]
5308:Drivers/STM32F4xx_HAL_Driver/Src/stm32f4xx_hal_tim.c **** 
5309:Drivers/STM32F4xx_HAL_Driver/Src/stm32f4xx_hal_tim.c ****   /* Set the filter */
5310:Drivers/STM32F4xx_HAL_Driver/Src/stm32f4xx_hal_tim.c ****   tmpccmr2 &= ~TIM_CCMR2_IC4F;
 11689              		.loc 1 5310 0
 11690 0040 7B69     		ldr	r3, [r7, #20]
 11691 0042 23F47043 		bic	r3, r3, #61440
 11692 0046 7B61     		str	r3, [r7, #20]
5311:Drivers/STM32F4xx_HAL_Driver/Src/stm32f4xx_hal_tim.c ****   tmpccmr2 |= ((TIM_ICFilter << 12U) & TIM_CCMR2_IC4F);
 11693              		.loc 1 5311 0
 11694 0048 3B68     		ldr	r3, [r7]
 11695 004a 1B03     		lsls	r3, r3, #12
ARM GAS  /tmp/cc4tSQEQ.s 			page 299


 11696 004c 9BB2     		uxth	r3, r3
 11697 004e 7A69     		ldr	r2, [r7, #20]
 11698 0050 1343     		orrs	r3, r3, r2
 11699 0052 7B61     		str	r3, [r7, #20]
5312:Drivers/STM32F4xx_HAL_Driver/Src/stm32f4xx_hal_tim.c **** 
5313:Drivers/STM32F4xx_HAL_Driver/Src/stm32f4xx_hal_tim.c ****   /* Select the Polarity and set the CC4E Bit */
5314:Drivers/STM32F4xx_HAL_Driver/Src/stm32f4xx_hal_tim.c ****   tmpccer &= ~(TIM_CCER_CC4P | TIM_CCER_CC4NP);
 11700              		.loc 1 5314 0
 11701 0054 3B69     		ldr	r3, [r7, #16]
 11702 0056 23F42043 		bic	r3, r3, #40960
 11703 005a 3B61     		str	r3, [r7, #16]
5315:Drivers/STM32F4xx_HAL_Driver/Src/stm32f4xx_hal_tim.c ****   tmpccer |= ((TIM_ICPolarity << 12U) & (TIM_CCER_CC4P | TIM_CCER_CC4NP));
 11704              		.loc 1 5315 0
 11705 005c BB68     		ldr	r3, [r7, #8]
 11706 005e 1B03     		lsls	r3, r3, #12
 11707 0060 03F42043 		and	r3, r3, #40960
 11708 0064 3A69     		ldr	r2, [r7, #16]
 11709 0066 1343     		orrs	r3, r3, r2
 11710 0068 3B61     		str	r3, [r7, #16]
5316:Drivers/STM32F4xx_HAL_Driver/Src/stm32f4xx_hal_tim.c **** 
5317:Drivers/STM32F4xx_HAL_Driver/Src/stm32f4xx_hal_tim.c ****   /* Write to TIMx CCMR2 and CCER registers */
5318:Drivers/STM32F4xx_HAL_Driver/Src/stm32f4xx_hal_tim.c ****   TIMx->CCMR2 = tmpccmr2;
 11711              		.loc 1 5318 0
 11712 006a FB68     		ldr	r3, [r7, #12]
 11713 006c 7A69     		ldr	r2, [r7, #20]
 11714 006e DA61     		str	r2, [r3, #28]
5319:Drivers/STM32F4xx_HAL_Driver/Src/stm32f4xx_hal_tim.c ****   TIMx->CCER = tmpccer ;
 11715              		.loc 1 5319 0
 11716 0070 FB68     		ldr	r3, [r7, #12]
 11717 0072 3A69     		ldr	r2, [r7, #16]
 11718 0074 1A62     		str	r2, [r3, #32]
5320:Drivers/STM32F4xx_HAL_Driver/Src/stm32f4xx_hal_tim.c **** }
 11719              		.loc 1 5320 0
 11720 0076 00BF     		nop
 11721 0078 1C37     		adds	r7, r7, #28
 11722              	.LCFI561:
 11723              		.cfi_def_cfa_offset 4
 11724 007a BD46     		mov	sp, r7
 11725              	.LCFI562:
 11726              		.cfi_def_cfa_register 13
 11727              		@ sp needed
 11728 007c 5DF8047B 		ldr	r7, [sp], #4
 11729              	.LCFI563:
 11730              		.cfi_restore 7
 11731              		.cfi_def_cfa_offset 0
 11732 0080 7047     		bx	lr
 11733              		.cfi_endproc
 11734              	.LFE227:
 11736              		.section	.text.TIM_ITRx_SetConfig,"ax",%progbits
 11737              		.align	1
 11738              		.syntax unified
 11739              		.thumb
 11740              		.thumb_func
 11741              		.fpu fpv4-sp-d16
 11743              	TIM_ITRx_SetConfig:
 11744              	.LFB228:
5321:Drivers/STM32F4xx_HAL_Driver/Src/stm32f4xx_hal_tim.c **** 
ARM GAS  /tmp/cc4tSQEQ.s 			page 300


5322:Drivers/STM32F4xx_HAL_Driver/Src/stm32f4xx_hal_tim.c **** /**
5323:Drivers/STM32F4xx_HAL_Driver/Src/stm32f4xx_hal_tim.c ****   * @brief  Selects the Input Trigger source
5324:Drivers/STM32F4xx_HAL_Driver/Src/stm32f4xx_hal_tim.c ****   * @param  TIMx to select the TIM peripheral
5325:Drivers/STM32F4xx_HAL_Driver/Src/stm32f4xx_hal_tim.c ****   * @param  TIM_ITRx The Input Trigger source.
5326:Drivers/STM32F4xx_HAL_Driver/Src/stm32f4xx_hal_tim.c ****   *          This parameter can be one of the following values:
5327:Drivers/STM32F4xx_HAL_Driver/Src/stm32f4xx_hal_tim.c ****   *            @arg TIM_TS_ITR0: Internal Trigger 0
5328:Drivers/STM32F4xx_HAL_Driver/Src/stm32f4xx_hal_tim.c ****   *            @arg TIM_TS_ITR1: Internal Trigger 1
5329:Drivers/STM32F4xx_HAL_Driver/Src/stm32f4xx_hal_tim.c ****   *            @arg TIM_TS_ITR2: Internal Trigger 2
5330:Drivers/STM32F4xx_HAL_Driver/Src/stm32f4xx_hal_tim.c ****   *            @arg TIM_TS_ITR3: Internal Trigger 3
5331:Drivers/STM32F4xx_HAL_Driver/Src/stm32f4xx_hal_tim.c ****   *            @arg TIM_TS_TI1F_ED: TI1 Edge Detector
5332:Drivers/STM32F4xx_HAL_Driver/Src/stm32f4xx_hal_tim.c ****   *            @arg TIM_TS_TI1FP1: Filtered Timer Input 1
5333:Drivers/STM32F4xx_HAL_Driver/Src/stm32f4xx_hal_tim.c ****   *            @arg TIM_TS_TI2FP2: Filtered Timer Input 2
5334:Drivers/STM32F4xx_HAL_Driver/Src/stm32f4xx_hal_tim.c ****   *            @arg TIM_TS_ETRF: External Trigger input
5335:Drivers/STM32F4xx_HAL_Driver/Src/stm32f4xx_hal_tim.c ****   * @retval None
5336:Drivers/STM32F4xx_HAL_Driver/Src/stm32f4xx_hal_tim.c ****   */
5337:Drivers/STM32F4xx_HAL_Driver/Src/stm32f4xx_hal_tim.c **** static void TIM_ITRx_SetConfig(TIM_TypeDef *TIMx, uint16_t TIM_ITRx)
5338:Drivers/STM32F4xx_HAL_Driver/Src/stm32f4xx_hal_tim.c **** {
 11745              		.loc 1 5338 0
 11746              		.cfi_startproc
 11747              		@ args = 0, pretend = 0, frame = 16
 11748              		@ frame_needed = 1, uses_anonymous_args = 0
 11749              		@ link register save eliminated.
 11750 0000 80B4     		push	{r7}
 11751              	.LCFI564:
 11752              		.cfi_def_cfa_offset 4
 11753              		.cfi_offset 7, -4
 11754 0002 85B0     		sub	sp, sp, #20
 11755              	.LCFI565:
 11756              		.cfi_def_cfa_offset 24
 11757 0004 00AF     		add	r7, sp, #0
 11758              	.LCFI566:
 11759              		.cfi_def_cfa_register 7
 11760 0006 7860     		str	r0, [r7, #4]
 11761 0008 0B46     		mov	r3, r1
 11762 000a 7B80     		strh	r3, [r7, #2]	@ movhi
5339:Drivers/STM32F4xx_HAL_Driver/Src/stm32f4xx_hal_tim.c ****   uint32_t tmpsmcr = 0U;
 11763              		.loc 1 5339 0
 11764 000c 0023     		movs	r3, #0
 11765 000e FB60     		str	r3, [r7, #12]
5340:Drivers/STM32F4xx_HAL_Driver/Src/stm32f4xx_hal_tim.c ****   
5341:Drivers/STM32F4xx_HAL_Driver/Src/stm32f4xx_hal_tim.c ****    /* Get the TIMx SMCR register value */
5342:Drivers/STM32F4xx_HAL_Driver/Src/stm32f4xx_hal_tim.c ****    tmpsmcr = TIMx->SMCR;
 11766              		.loc 1 5342 0
 11767 0010 7B68     		ldr	r3, [r7, #4]
 11768 0012 9B68     		ldr	r3, [r3, #8]
 11769 0014 FB60     		str	r3, [r7, #12]
5343:Drivers/STM32F4xx_HAL_Driver/Src/stm32f4xx_hal_tim.c ****    /* Reset the TS Bits */
5344:Drivers/STM32F4xx_HAL_Driver/Src/stm32f4xx_hal_tim.c ****    tmpsmcr &= ~TIM_SMCR_TS;
 11770              		.loc 1 5344 0
 11771 0016 FB68     		ldr	r3, [r7, #12]
 11772 0018 23F07003 		bic	r3, r3, #112
 11773 001c FB60     		str	r3, [r7, #12]
5345:Drivers/STM32F4xx_HAL_Driver/Src/stm32f4xx_hal_tim.c ****    /* Set the Input Trigger source and the slave mode*/
5346:Drivers/STM32F4xx_HAL_Driver/Src/stm32f4xx_hal_tim.c ****    tmpsmcr |= TIM_ITRx | TIM_SLAVEMODE_EXTERNAL1;
 11774              		.loc 1 5346 0
 11775 001e 7B88     		ldrh	r3, [r7, #2]	@ movhi
 11776 0020 43F00703 		orr	r3, r3, #7
ARM GAS  /tmp/cc4tSQEQ.s 			page 301


 11777 0024 9BB2     		uxth	r3, r3
 11778 0026 1A46     		mov	r2, r3
 11779 0028 FB68     		ldr	r3, [r7, #12]
 11780 002a 1343     		orrs	r3, r3, r2
 11781 002c FB60     		str	r3, [r7, #12]
5347:Drivers/STM32F4xx_HAL_Driver/Src/stm32f4xx_hal_tim.c ****    /* Write to TIMx SMCR */
5348:Drivers/STM32F4xx_HAL_Driver/Src/stm32f4xx_hal_tim.c ****    TIMx->SMCR = tmpsmcr;
 11782              		.loc 1 5348 0
 11783 002e 7B68     		ldr	r3, [r7, #4]
 11784 0030 FA68     		ldr	r2, [r7, #12]
 11785 0032 9A60     		str	r2, [r3, #8]
5349:Drivers/STM32F4xx_HAL_Driver/Src/stm32f4xx_hal_tim.c **** }
 11786              		.loc 1 5349 0
 11787 0034 00BF     		nop
 11788 0036 1437     		adds	r7, r7, #20
 11789              	.LCFI567:
 11790              		.cfi_def_cfa_offset 4
 11791 0038 BD46     		mov	sp, r7
 11792              	.LCFI568:
 11793              		.cfi_def_cfa_register 13
 11794              		@ sp needed
 11795 003a 5DF8047B 		ldr	r7, [sp], #4
 11796              	.LCFI569:
 11797              		.cfi_restore 7
 11798              		.cfi_def_cfa_offset 0
 11799 003e 7047     		bx	lr
 11800              		.cfi_endproc
 11801              	.LFE228:
 11803              		.section	.text.TIM_ETR_SetConfig,"ax",%progbits
 11804              		.align	1
 11805              		.syntax unified
 11806              		.thumb
 11807              		.thumb_func
 11808              		.fpu fpv4-sp-d16
 11810              	TIM_ETR_SetConfig:
 11811              	.LFB229:
5350:Drivers/STM32F4xx_HAL_Driver/Src/stm32f4xx_hal_tim.c **** 
5351:Drivers/STM32F4xx_HAL_Driver/Src/stm32f4xx_hal_tim.c **** /**
5352:Drivers/STM32F4xx_HAL_Driver/Src/stm32f4xx_hal_tim.c ****   * @brief  Configures the TIMx External Trigger (ETR).
5353:Drivers/STM32F4xx_HAL_Driver/Src/stm32f4xx_hal_tim.c ****   * @param  TIMx to select the TIM peripheral
5354:Drivers/STM32F4xx_HAL_Driver/Src/stm32f4xx_hal_tim.c ****   * @param  TIM_ExtTRGPrescaler The external Trigger Prescaler.
5355:Drivers/STM32F4xx_HAL_Driver/Src/stm32f4xx_hal_tim.c ****   *          This parameter can be one of the following values:
5356:Drivers/STM32F4xx_HAL_Driver/Src/stm32f4xx_hal_tim.c ****   *            @arg TIM_ETRPRESCALER_DIV1 : ETRP Prescaler OFF.
5357:Drivers/STM32F4xx_HAL_Driver/Src/stm32f4xx_hal_tim.c ****   *            @arg TIM_ETRPRESCALER_DIV2 : ETRP frequency divided by 2.
5358:Drivers/STM32F4xx_HAL_Driver/Src/stm32f4xx_hal_tim.c ****   *            @arg TIM_ETRPRESCALER_DIV4 : ETRP frequency divided by 4.
5359:Drivers/STM32F4xx_HAL_Driver/Src/stm32f4xx_hal_tim.c ****   *            @arg TIM_ETRPRESCALER_DIV8 : ETRP frequency divided by 8.
5360:Drivers/STM32F4xx_HAL_Driver/Src/stm32f4xx_hal_tim.c ****   * @param  TIM_ExtTRGPolarity The external Trigger Polarity.
5361:Drivers/STM32F4xx_HAL_Driver/Src/stm32f4xx_hal_tim.c ****   *          This parameter can be one of the following values:
5362:Drivers/STM32F4xx_HAL_Driver/Src/stm32f4xx_hal_tim.c ****   *            @arg TIM_ETRPOLARITY_INVERTED : active low or falling edge active.
5363:Drivers/STM32F4xx_HAL_Driver/Src/stm32f4xx_hal_tim.c ****   *            @arg TIM_ETRPOLARITY_NONINVERTED : active high or rising edge active.
5364:Drivers/STM32F4xx_HAL_Driver/Src/stm32f4xx_hal_tim.c ****   * @param  ExtTRGFilter External Trigger Filter.
5365:Drivers/STM32F4xx_HAL_Driver/Src/stm32f4xx_hal_tim.c ****   *          This parameter must be a value between 0x00 and 0x0F
5366:Drivers/STM32F4xx_HAL_Driver/Src/stm32f4xx_hal_tim.c ****   * @retval None
5367:Drivers/STM32F4xx_HAL_Driver/Src/stm32f4xx_hal_tim.c ****   */
5368:Drivers/STM32F4xx_HAL_Driver/Src/stm32f4xx_hal_tim.c **** static void TIM_ETR_SetConfig(TIM_TypeDef* TIMx, uint32_t TIM_ExtTRGPrescaler,
5369:Drivers/STM32F4xx_HAL_Driver/Src/stm32f4xx_hal_tim.c ****                        uint32_t TIM_ExtTRGPolarity, uint32_t ExtTRGFilter)
5370:Drivers/STM32F4xx_HAL_Driver/Src/stm32f4xx_hal_tim.c **** {
ARM GAS  /tmp/cc4tSQEQ.s 			page 302


 11812              		.loc 1 5370 0
 11813              		.cfi_startproc
 11814              		@ args = 0, pretend = 0, frame = 24
 11815              		@ frame_needed = 1, uses_anonymous_args = 0
 11816              		@ link register save eliminated.
 11817 0000 80B4     		push	{r7}
 11818              	.LCFI570:
 11819              		.cfi_def_cfa_offset 4
 11820              		.cfi_offset 7, -4
 11821 0002 87B0     		sub	sp, sp, #28
 11822              	.LCFI571:
 11823              		.cfi_def_cfa_offset 32
 11824 0004 00AF     		add	r7, sp, #0
 11825              	.LCFI572:
 11826              		.cfi_def_cfa_register 7
 11827 0006 F860     		str	r0, [r7, #12]
 11828 0008 B960     		str	r1, [r7, #8]
 11829 000a 7A60     		str	r2, [r7, #4]
 11830 000c 3B60     		str	r3, [r7]
5371:Drivers/STM32F4xx_HAL_Driver/Src/stm32f4xx_hal_tim.c ****   uint32_t tmpsmcr = 0U;
 11831              		.loc 1 5371 0
 11832 000e 0023     		movs	r3, #0
 11833 0010 7B61     		str	r3, [r7, #20]
5372:Drivers/STM32F4xx_HAL_Driver/Src/stm32f4xx_hal_tim.c **** 
5373:Drivers/STM32F4xx_HAL_Driver/Src/stm32f4xx_hal_tim.c ****   tmpsmcr = TIMx->SMCR;
 11834              		.loc 1 5373 0
 11835 0012 FB68     		ldr	r3, [r7, #12]
 11836 0014 9B68     		ldr	r3, [r3, #8]
 11837 0016 7B61     		str	r3, [r7, #20]
5374:Drivers/STM32F4xx_HAL_Driver/Src/stm32f4xx_hal_tim.c **** 
5375:Drivers/STM32F4xx_HAL_Driver/Src/stm32f4xx_hal_tim.c ****   /* Reset the ETR Bits */
5376:Drivers/STM32F4xx_HAL_Driver/Src/stm32f4xx_hal_tim.c ****   tmpsmcr &= ~(TIM_SMCR_ETF | TIM_SMCR_ETPS | TIM_SMCR_ECE | TIM_SMCR_ETP);
 11838              		.loc 1 5376 0
 11839 0018 7B69     		ldr	r3, [r7, #20]
 11840 001a 23F47F43 		bic	r3, r3, #65280
 11841 001e 7B61     		str	r3, [r7, #20]
5377:Drivers/STM32F4xx_HAL_Driver/Src/stm32f4xx_hal_tim.c **** 
5378:Drivers/STM32F4xx_HAL_Driver/Src/stm32f4xx_hal_tim.c ****   /* Set the Prescaler, the Filter value and the Polarity */
5379:Drivers/STM32F4xx_HAL_Driver/Src/stm32f4xx_hal_tim.c ****   tmpsmcr |= (uint32_t)(TIM_ExtTRGPrescaler | (TIM_ExtTRGPolarity | (ExtTRGFilter << 8)));
 11842              		.loc 1 5379 0
 11843 0020 3B68     		ldr	r3, [r7]
 11844 0022 1A02     		lsls	r2, r3, #8
 11845 0024 7B68     		ldr	r3, [r7, #4]
 11846 0026 1A43     		orrs	r2, r2, r3
 11847 0028 BB68     		ldr	r3, [r7, #8]
 11848 002a 1343     		orrs	r3, r3, r2
 11849 002c 7A69     		ldr	r2, [r7, #20]
 11850 002e 1343     		orrs	r3, r3, r2
 11851 0030 7B61     		str	r3, [r7, #20]
5380:Drivers/STM32F4xx_HAL_Driver/Src/stm32f4xx_hal_tim.c **** 
5381:Drivers/STM32F4xx_HAL_Driver/Src/stm32f4xx_hal_tim.c ****   /* Write to TIMx SMCR */
5382:Drivers/STM32F4xx_HAL_Driver/Src/stm32f4xx_hal_tim.c ****   TIMx->SMCR = tmpsmcr;
 11852              		.loc 1 5382 0
 11853 0032 FB68     		ldr	r3, [r7, #12]
 11854 0034 7A69     		ldr	r2, [r7, #20]
 11855 0036 9A60     		str	r2, [r3, #8]
5383:Drivers/STM32F4xx_HAL_Driver/Src/stm32f4xx_hal_tim.c **** } 
ARM GAS  /tmp/cc4tSQEQ.s 			page 303


 11856              		.loc 1 5383 0
 11857 0038 00BF     		nop
 11858 003a 1C37     		adds	r7, r7, #28
 11859              	.LCFI573:
 11860              		.cfi_def_cfa_offset 4
 11861 003c BD46     		mov	sp, r7
 11862              	.LCFI574:
 11863              		.cfi_def_cfa_register 13
 11864              		@ sp needed
 11865 003e 5DF8047B 		ldr	r7, [sp], #4
 11866              	.LCFI575:
 11867              		.cfi_restore 7
 11868              		.cfi_def_cfa_offset 0
 11869 0042 7047     		bx	lr
 11870              		.cfi_endproc
 11871              	.LFE229:
 11873              		.text
 11874              	.Letext0:
 11875              		.file 2 "/opt/gcc4mbed/gcc-arm-none-eabi/arm-none-eabi/include/machine/_default_types.h"
 11876              		.file 3 "/opt/gcc4mbed/gcc-arm-none-eabi/arm-none-eabi/include/sys/_stdint.h"
 11877              		.file 4 "Drivers/CMSIS/Include/core_cm4.h"
 11878              		.file 5 "Drivers/CMSIS/Device/ST/STM32F4xx/Include/system_stm32f4xx.h"
 11879              		.file 6 "Drivers/CMSIS/Device/ST/STM32F4xx/Include/stm32f411xe.h"
 11880              		.file 7 "/opt/gcc4mbed/gcc-arm-none-eabi/arm-none-eabi/include/sys/lock.h"
 11881              		.file 8 "/opt/gcc4mbed/gcc-arm-none-eabi/arm-none-eabi/include/sys/_types.h"
 11882              		.file 9 "/opt/gcc4mbed/gcc-arm-none-eabi/lib/gcc/arm-none-eabi/6.3.1/include/stddef.h"
 11883              		.file 10 "/opt/gcc4mbed/gcc-arm-none-eabi/arm-none-eabi/include/sys/reent.h"
 11884              		.file 11 "Drivers/CMSIS/Device/ST/STM32F4xx/Include/stm32f4xx.h"
 11885              		.file 12 "Drivers/STM32F4xx_HAL_Driver/Inc/stm32f4xx_hal_def.h"
 11886              		.file 13 "Drivers/STM32F4xx_HAL_Driver/Inc/stm32f4xx_hal_dma.h"
 11887              		.file 14 "Drivers/STM32F4xx_HAL_Driver/Inc/stm32f4xx_hal_tim.h"
ARM GAS  /tmp/cc4tSQEQ.s 			page 304


DEFINED SYMBOLS
                            *ABS*:0000000000000000 stm32f4xx_hal_tim.c
     /tmp/cc4tSQEQ.s:18     .text.HAL_TIM_Base_Init:0000000000000000 $t
     /tmp/cc4tSQEQ.s:25     .text.HAL_TIM_Base_Init:0000000000000000 HAL_TIM_Base_Init
     /tmp/cc4tSQEQ.s:187    .text.HAL_TIM_Base_MspInit:0000000000000000 HAL_TIM_Base_MspInit
     /tmp/cc4tSQEQ.s:9652   .text.TIM_Base_SetConfig:0000000000000000 TIM_Base_SetConfig
     /tmp/cc4tSQEQ.s:99     .text.HAL_TIM_Base_DeInit:0000000000000000 $t
     /tmp/cc4tSQEQ.s:106    .text.HAL_TIM_Base_DeInit:0000000000000000 HAL_TIM_Base_DeInit
     /tmp/cc4tSQEQ.s:230    .text.HAL_TIM_Base_MspDeInit:0000000000000000 HAL_TIM_Base_MspDeInit
     /tmp/cc4tSQEQ.s:180    .text.HAL_TIM_Base_MspInit:0000000000000000 $t
     /tmp/cc4tSQEQ.s:223    .text.HAL_TIM_Base_MspDeInit:0000000000000000 $t
     /tmp/cc4tSQEQ.s:266    .text.HAL_TIM_Base_Start:0000000000000000 $t
     /tmp/cc4tSQEQ.s:273    .text.HAL_TIM_Base_Start:0000000000000000 HAL_TIM_Base_Start
     /tmp/cc4tSQEQ.s:327    .text.HAL_TIM_Base_Stop:0000000000000000 $t
     /tmp/cc4tSQEQ.s:334    .text.HAL_TIM_Base_Stop:0000000000000000 HAL_TIM_Base_Stop
     /tmp/cc4tSQEQ.s:405    .text.HAL_TIM_Base_Start_IT:0000000000000000 $t
     /tmp/cc4tSQEQ.s:412    .text.HAL_TIM_Base_Start_IT:0000000000000000 HAL_TIM_Base_Start_IT
     /tmp/cc4tSQEQ.s:466    .text.HAL_TIM_Base_Stop_IT:0000000000000000 $t
     /tmp/cc4tSQEQ.s:473    .text.HAL_TIM_Base_Stop_IT:0000000000000000 HAL_TIM_Base_Stop_IT
     /tmp/cc4tSQEQ.s:544    .text.HAL_TIM_Base_Start_DMA:0000000000000000 $t
     /tmp/cc4tSQEQ.s:551    .text.HAL_TIM_Base_Start_DMA:0000000000000000 HAL_TIM_Base_Start_DMA
     /tmp/cc4tSQEQ.s:657    .text.HAL_TIM_Base_Start_DMA:0000000000000090 $d
     /tmp/cc4tSQEQ.s:10494  .text.TIM_DMAPeriodElapsedCplt:0000000000000000 TIM_DMAPeriodElapsedCplt
     /tmp/cc4tSQEQ.s:10274  .text.TIM_DMAError:0000000000000000 TIM_DMAError
     /tmp/cc4tSQEQ.s:663    .text.HAL_TIM_Base_Stop_DMA:0000000000000000 $t
     /tmp/cc4tSQEQ.s:670    .text.HAL_TIM_Base_Stop_DMA:0000000000000000 HAL_TIM_Base_Stop_DMA
     /tmp/cc4tSQEQ.s:745    .text.HAL_TIM_OC_Init:0000000000000000 $t
     /tmp/cc4tSQEQ.s:752    .text.HAL_TIM_OC_Init:0000000000000000 HAL_TIM_OC_Init
     /tmp/cc4tSQEQ.s:913    .text.HAL_TIM_OC_MspInit:0000000000000000 HAL_TIM_OC_MspInit
     /tmp/cc4tSQEQ.s:825    .text.HAL_TIM_OC_DeInit:0000000000000000 $t
     /tmp/cc4tSQEQ.s:832    .text.HAL_TIM_OC_DeInit:0000000000000000 HAL_TIM_OC_DeInit
     /tmp/cc4tSQEQ.s:956    .text.HAL_TIM_OC_MspDeInit:0000000000000000 HAL_TIM_OC_MspDeInit
     /tmp/cc4tSQEQ.s:906    .text.HAL_TIM_OC_MspInit:0000000000000000 $t
     /tmp/cc4tSQEQ.s:949    .text.HAL_TIM_OC_MspDeInit:0000000000000000 $t
     /tmp/cc4tSQEQ.s:992    .text.HAL_TIM_OC_Start:0000000000000000 $t
     /tmp/cc4tSQEQ.s:999    .text.HAL_TIM_OC_Start:0000000000000000 HAL_TIM_OC_Start
     /tmp/cc4tSQEQ.s:10425  .text.TIM_CCxChannelCmd:0000000000000000 TIM_CCxChannelCmd
     /tmp/cc4tSQEQ.s:1063   .text.HAL_TIM_OC_Start:000000000000004c $d
     /tmp/cc4tSQEQ.s:1068   .text.HAL_TIM_OC_Stop:0000000000000000 $t
     /tmp/cc4tSQEQ.s:1075   .text.HAL_TIM_OC_Stop:0000000000000000 HAL_TIM_OC_Stop
     /tmp/cc4tSQEQ.s:1172   .text.HAL_TIM_OC_Stop:000000000000008c $d
     /tmp/cc4tSQEQ.s:1177   .text.HAL_TIM_OC_Start_IT:0000000000000000 $t
     /tmp/cc4tSQEQ.s:1184   .text.HAL_TIM_OC_Start_IT:0000000000000000 HAL_TIM_OC_Start_IT
     /tmp/cc4tSQEQ.s:1211   .text.HAL_TIM_OC_Start_IT:0000000000000018 $d
     /tmp/cc4tSQEQ.s:1224   .text.HAL_TIM_OC_Start_IT:000000000000004c $t
     /tmp/cc4tSQEQ.s:1318   .text.HAL_TIM_OC_Start_IT:00000000000000d8 $d
     /tmp/cc4tSQEQ.s:1323   .text.HAL_TIM_OC_Stop_IT:0000000000000000 $t
     /tmp/cc4tSQEQ.s:1330   .text.HAL_TIM_OC_Stop_IT:0000000000000000 HAL_TIM_OC_Stop_IT
     /tmp/cc4tSQEQ.s:1357   .text.HAL_TIM_OC_Stop_IT:0000000000000018 $d
     /tmp/cc4tSQEQ.s:1370   .text.HAL_TIM_OC_Stop_IT:000000000000004c $t
     /tmp/cc4tSQEQ.s:1497   .text.HAL_TIM_OC_Stop_IT:0000000000000118 $d
     /tmp/cc4tSQEQ.s:1502   .text.HAL_TIM_OC_Start_DMA:0000000000000000 $t
     /tmp/cc4tSQEQ.s:1509   .text.HAL_TIM_OC_Start_DMA:0000000000000000 HAL_TIM_OC_Start_DMA
     /tmp/cc4tSQEQ.s:1571   .text.HAL_TIM_OC_Start_DMA:0000000000000050 $d
     /tmp/cc4tSQEQ.s:1584   .text.HAL_TIM_OC_Start_DMA:0000000000000084 $t
     /tmp/cc4tSQEQ.s:1759   .text.HAL_TIM_OC_Start_DMA:00000000000001a0 $d
     /tmp/cc4tSQEQ.s:10173  .text.TIM_DMADelayPulseCplt:0000000000000000 TIM_DMADelayPulseCplt
ARM GAS  /tmp/cc4tSQEQ.s 			page 305


     /tmp/cc4tSQEQ.s:1766   .text.HAL_TIM_OC_Stop_DMA:0000000000000000 $t
     /tmp/cc4tSQEQ.s:1773   .text.HAL_TIM_OC_Stop_DMA:0000000000000000 HAL_TIM_OC_Stop_DMA
     /tmp/cc4tSQEQ.s:1800   .text.HAL_TIM_OC_Stop_DMA:0000000000000018 $d
     /tmp/cc4tSQEQ.s:1813   .text.HAL_TIM_OC_Stop_DMA:000000000000004c $t
     /tmp/cc4tSQEQ.s:1944   .text.HAL_TIM_OC_Stop_DMA:0000000000000120 $d
     /tmp/cc4tSQEQ.s:1949   .text.HAL_TIM_PWM_Init:0000000000000000 $t
     /tmp/cc4tSQEQ.s:1956   .text.HAL_TIM_PWM_Init:0000000000000000 HAL_TIM_PWM_Init
     /tmp/cc4tSQEQ.s:2117   .text.HAL_TIM_PWM_MspInit:0000000000000000 HAL_TIM_PWM_MspInit
     /tmp/cc4tSQEQ.s:2029   .text.HAL_TIM_PWM_DeInit:0000000000000000 $t
     /tmp/cc4tSQEQ.s:2036   .text.HAL_TIM_PWM_DeInit:0000000000000000 HAL_TIM_PWM_DeInit
     /tmp/cc4tSQEQ.s:2160   .text.HAL_TIM_PWM_MspDeInit:0000000000000000 HAL_TIM_PWM_MspDeInit
     /tmp/cc4tSQEQ.s:2110   .text.HAL_TIM_PWM_MspInit:0000000000000000 $t
     /tmp/cc4tSQEQ.s:2153   .text.HAL_TIM_PWM_MspDeInit:0000000000000000 $t
     /tmp/cc4tSQEQ.s:2196   .text.HAL_TIM_PWM_Start:0000000000000000 $t
     /tmp/cc4tSQEQ.s:2203   .text.HAL_TIM_PWM_Start:0000000000000000 HAL_TIM_PWM_Start
     /tmp/cc4tSQEQ.s:2267   .text.HAL_TIM_PWM_Start:000000000000004c $d
     /tmp/cc4tSQEQ.s:2272   .text.HAL_TIM_PWM_Stop:0000000000000000 $t
     /tmp/cc4tSQEQ.s:2279   .text.HAL_TIM_PWM_Stop:0000000000000000 HAL_TIM_PWM_Stop
     /tmp/cc4tSQEQ.s:2380   .text.HAL_TIM_PWM_Stop:0000000000000094 $d
     /tmp/cc4tSQEQ.s:2385   .text.HAL_TIM_PWM_Start_IT:0000000000000000 $t
     /tmp/cc4tSQEQ.s:2392   .text.HAL_TIM_PWM_Start_IT:0000000000000000 HAL_TIM_PWM_Start_IT
     /tmp/cc4tSQEQ.s:2419   .text.HAL_TIM_PWM_Start_IT:0000000000000018 $d
     /tmp/cc4tSQEQ.s:2432   .text.HAL_TIM_PWM_Start_IT:000000000000004c $t
     /tmp/cc4tSQEQ.s:2526   .text.HAL_TIM_PWM_Start_IT:00000000000000d8 $d
     /tmp/cc4tSQEQ.s:2531   .text.HAL_TIM_PWM_Stop_IT:0000000000000000 $t
     /tmp/cc4tSQEQ.s:2538   .text.HAL_TIM_PWM_Stop_IT:0000000000000000 HAL_TIM_PWM_Stop_IT
     /tmp/cc4tSQEQ.s:2565   .text.HAL_TIM_PWM_Stop_IT:0000000000000018 $d
     /tmp/cc4tSQEQ.s:2578   .text.HAL_TIM_PWM_Stop_IT:000000000000004c $t
     /tmp/cc4tSQEQ.s:2705   .text.HAL_TIM_PWM_Stop_IT:0000000000000118 $d
     /tmp/cc4tSQEQ.s:2710   .text.HAL_TIM_PWM_Start_DMA:0000000000000000 $t
     /tmp/cc4tSQEQ.s:2717   .text.HAL_TIM_PWM_Start_DMA:0000000000000000 HAL_TIM_PWM_Start_DMA
     /tmp/cc4tSQEQ.s:2779   .text.HAL_TIM_PWM_Start_DMA:0000000000000050 $d
     /tmp/cc4tSQEQ.s:2792   .text.HAL_TIM_PWM_Start_DMA:0000000000000084 $t
     /tmp/cc4tSQEQ.s:2967   .text.HAL_TIM_PWM_Start_DMA:00000000000001a0 $d
     /tmp/cc4tSQEQ.s:2974   .text.HAL_TIM_PWM_Stop_DMA:0000000000000000 $t
     /tmp/cc4tSQEQ.s:2981   .text.HAL_TIM_PWM_Stop_DMA:0000000000000000 HAL_TIM_PWM_Stop_DMA
     /tmp/cc4tSQEQ.s:3008   .text.HAL_TIM_PWM_Stop_DMA:0000000000000018 $d
     /tmp/cc4tSQEQ.s:3021   .text.HAL_TIM_PWM_Stop_DMA:000000000000004c $t
     /tmp/cc4tSQEQ.s:3152   .text.HAL_TIM_PWM_Stop_DMA:0000000000000120 $d
     /tmp/cc4tSQEQ.s:3157   .text.HAL_TIM_IC_Init:0000000000000000 $t
     /tmp/cc4tSQEQ.s:3164   .text.HAL_TIM_IC_Init:0000000000000000 HAL_TIM_IC_Init
     /tmp/cc4tSQEQ.s:3325   .text.HAL_TIM_IC_MspInit:0000000000000000 HAL_TIM_IC_MspInit
     /tmp/cc4tSQEQ.s:3237   .text.HAL_TIM_IC_DeInit:0000000000000000 $t
     /tmp/cc4tSQEQ.s:3244   .text.HAL_TIM_IC_DeInit:0000000000000000 HAL_TIM_IC_DeInit
     /tmp/cc4tSQEQ.s:3368   .text.HAL_TIM_IC_MspDeInit:0000000000000000 HAL_TIM_IC_MspDeInit
     /tmp/cc4tSQEQ.s:3318   .text.HAL_TIM_IC_MspInit:0000000000000000 $t
     /tmp/cc4tSQEQ.s:3361   .text.HAL_TIM_IC_MspDeInit:0000000000000000 $t
     /tmp/cc4tSQEQ.s:3404   .text.HAL_TIM_IC_Start:0000000000000000 $t
     /tmp/cc4tSQEQ.s:3411   .text.HAL_TIM_IC_Start:0000000000000000 HAL_TIM_IC_Start
     /tmp/cc4tSQEQ.s:3461   .text.HAL_TIM_IC_Stop:0000000000000000 $t
     /tmp/cc4tSQEQ.s:3468   .text.HAL_TIM_IC_Stop:0000000000000000 HAL_TIM_IC_Stop
     /tmp/cc4tSQEQ.s:3535   .text.HAL_TIM_IC_Start_IT:0000000000000000 $t
     /tmp/cc4tSQEQ.s:3542   .text.HAL_TIM_IC_Start_IT:0000000000000000 HAL_TIM_IC_Start_IT
     /tmp/cc4tSQEQ.s:3569   .text.HAL_TIM_IC_Start_IT:0000000000000018 $d
     /tmp/cc4tSQEQ.s:3582   .text.HAL_TIM_IC_Start_IT:000000000000004c $t
     /tmp/cc4tSQEQ.s:3662   .text.HAL_TIM_IC_Stop_IT:0000000000000000 $t
     /tmp/cc4tSQEQ.s:3669   .text.HAL_TIM_IC_Stop_IT:0000000000000000 HAL_TIM_IC_Stop_IT
ARM GAS  /tmp/cc4tSQEQ.s 			page 306


     /tmp/cc4tSQEQ.s:3696   .text.HAL_TIM_IC_Stop_IT:0000000000000018 $d
     /tmp/cc4tSQEQ.s:3709   .text.HAL_TIM_IC_Stop_IT:000000000000004c $t
     /tmp/cc4tSQEQ.s:3806   .text.HAL_TIM_IC_Start_DMA:0000000000000000 $t
     /tmp/cc4tSQEQ.s:3813   .text.HAL_TIM_IC_Start_DMA:0000000000000000 HAL_TIM_IC_Start_DMA
     /tmp/cc4tSQEQ.s:3875   .text.HAL_TIM_IC_Start_DMA:0000000000000050 $d
     /tmp/cc4tSQEQ.s:3888   .text.HAL_TIM_IC_Start_DMA:0000000000000084 $t
     /tmp/cc4tSQEQ.s:4048   .text.HAL_TIM_IC_Start_DMA:0000000000000188 $d
     /tmp/cc4tSQEQ.s:10324  .text.TIM_DMACaptureCplt:0000000000000000 TIM_DMACaptureCplt
     /tmp/cc4tSQEQ.s:4054   .text.HAL_TIM_IC_Stop_DMA:0000000000000000 $t
     /tmp/cc4tSQEQ.s:4061   .text.HAL_TIM_IC_Stop_DMA:0000000000000000 HAL_TIM_IC_Stop_DMA
     /tmp/cc4tSQEQ.s:4088   .text.HAL_TIM_IC_Stop_DMA:0000000000000018 $d
     /tmp/cc4tSQEQ.s:4101   .text.HAL_TIM_IC_Stop_DMA:000000000000004c $t
     /tmp/cc4tSQEQ.s:4202   .text.HAL_TIM_OnePulse_Init:0000000000000000 $t
     /tmp/cc4tSQEQ.s:4209   .text.HAL_TIM_OnePulse_Init:0000000000000000 HAL_TIM_OnePulse_Init
     /tmp/cc4tSQEQ.s:4388   .text.HAL_TIM_OnePulse_MspInit:0000000000000000 HAL_TIM_OnePulse_MspInit
     /tmp/cc4tSQEQ.s:4300   .text.HAL_TIM_OnePulse_DeInit:0000000000000000 $t
     /tmp/cc4tSQEQ.s:4307   .text.HAL_TIM_OnePulse_DeInit:0000000000000000 HAL_TIM_OnePulse_DeInit
     /tmp/cc4tSQEQ.s:4431   .text.HAL_TIM_OnePulse_MspDeInit:0000000000000000 HAL_TIM_OnePulse_MspDeInit
     /tmp/cc4tSQEQ.s:4381   .text.HAL_TIM_OnePulse_MspInit:0000000000000000 $t
     /tmp/cc4tSQEQ.s:4424   .text.HAL_TIM_OnePulse_MspDeInit:0000000000000000 $t
     /tmp/cc4tSQEQ.s:4467   .text.HAL_TIM_OnePulse_Start:0000000000000000 $t
     /tmp/cc4tSQEQ.s:4474   .text.HAL_TIM_OnePulse_Start:0000000000000000 HAL_TIM_OnePulse_Start
     /tmp/cc4tSQEQ.s:4537   .text.HAL_TIM_OnePulse_Start:000000000000004c $d
     /tmp/cc4tSQEQ.s:4542   .text.HAL_TIM_OnePulse_Stop:0000000000000000 $t
     /tmp/cc4tSQEQ.s:4549   .text.HAL_TIM_OnePulse_Stop:0000000000000000 HAL_TIM_OnePulse_Stop
     /tmp/cc4tSQEQ.s:4653   .text.HAL_TIM_OnePulse_Stop:000000000000009c $d
     /tmp/cc4tSQEQ.s:4658   .text.HAL_TIM_OnePulse_Start_IT:0000000000000000 $t
     /tmp/cc4tSQEQ.s:4665   .text.HAL_TIM_OnePulse_Start_IT:0000000000000000 HAL_TIM_OnePulse_Start_IT
     /tmp/cc4tSQEQ.s:4744   .text.HAL_TIM_OnePulse_Start_IT:000000000000006c $d
     /tmp/cc4tSQEQ.s:4749   .text.HAL_TIM_OnePulse_Stop_IT:0000000000000000 $t
     /tmp/cc4tSQEQ.s:4756   .text.HAL_TIM_OnePulse_Stop_IT:0000000000000000 HAL_TIM_OnePulse_Stop_IT
     /tmp/cc4tSQEQ.s:4876   .text.HAL_TIM_OnePulse_Stop_IT:00000000000000bc $d
     /tmp/cc4tSQEQ.s:4881   .text.HAL_TIM_Encoder_Init:0000000000000000 $t
     /tmp/cc4tSQEQ.s:4888   .text.HAL_TIM_Encoder_Init:0000000000000000 HAL_TIM_Encoder_Init
     /tmp/cc4tSQEQ.s:5167   .text.HAL_TIM_Encoder_MspInit:0000000000000000 HAL_TIM_Encoder_MspInit
     /tmp/cc4tSQEQ.s:5079   .text.HAL_TIM_Encoder_DeInit:0000000000000000 $t
     /tmp/cc4tSQEQ.s:5086   .text.HAL_TIM_Encoder_DeInit:0000000000000000 HAL_TIM_Encoder_DeInit
     /tmp/cc4tSQEQ.s:5210   .text.HAL_TIM_Encoder_MspDeInit:0000000000000000 HAL_TIM_Encoder_MspDeInit
     /tmp/cc4tSQEQ.s:5160   .text.HAL_TIM_Encoder_MspInit:0000000000000000 $t
     /tmp/cc4tSQEQ.s:5203   .text.HAL_TIM_Encoder_MspDeInit:0000000000000000 $t
     /tmp/cc4tSQEQ.s:5246   .text.HAL_TIM_Encoder_Start:0000000000000000 $t
     /tmp/cc4tSQEQ.s:5253   .text.HAL_TIM_Encoder_Start:0000000000000000 HAL_TIM_Encoder_Start
     /tmp/cc4tSQEQ.s:5341   .text.HAL_TIM_Encoder_Stop:0000000000000000 $t
     /tmp/cc4tSQEQ.s:5348   .text.HAL_TIM_Encoder_Stop:0000000000000000 HAL_TIM_Encoder_Stop
     /tmp/cc4tSQEQ.s:5453   .text.HAL_TIM_Encoder_Start_IT:0000000000000000 $t
     /tmp/cc4tSQEQ.s:5460   .text.HAL_TIM_Encoder_Start_IT:0000000000000000 HAL_TIM_Encoder_Start_IT
     /tmp/cc4tSQEQ.s:5580   .text.HAL_TIM_Encoder_Stop_IT:0000000000000000 $t
     /tmp/cc4tSQEQ.s:5587   .text.HAL_TIM_Encoder_Stop_IT:0000000000000000 HAL_TIM_Encoder_Stop_IT
     /tmp/cc4tSQEQ.s:5724   .text.HAL_TIM_Encoder_Start_DMA:0000000000000000 $t
     /tmp/cc4tSQEQ.s:5731   .text.HAL_TIM_Encoder_Start_DMA:0000000000000000 HAL_TIM_Encoder_Start_DMA
     /tmp/cc4tSQEQ.s:5990   .text.HAL_TIM_Encoder_Start_DMA:00000000000001a0 $d
     /tmp/cc4tSQEQ.s:5996   .text.HAL_TIM_Encoder_Stop_DMA:0000000000000000 $t
     /tmp/cc4tSQEQ.s:6003   .text.HAL_TIM_Encoder_Stop_DMA:0000000000000000 HAL_TIM_Encoder_Stop_DMA
     /tmp/cc4tSQEQ.s:6140   .text.HAL_TIM_IRQHandler:0000000000000000 $t
     /tmp/cc4tSQEQ.s:6147   .text.HAL_TIM_IRQHandler:0000000000000000 HAL_TIM_IRQHandler
     /tmp/cc4tSQEQ.s:9198   .text.HAL_TIM_IC_CaptureCallback:0000000000000000 HAL_TIM_IC_CaptureCallback
     /tmp/cc4tSQEQ.s:9155   .text.HAL_TIM_OC_DelayElapsedCallback:0000000000000000 HAL_TIM_OC_DelayElapsedCallback
ARM GAS  /tmp/cc4tSQEQ.s 			page 307


     /tmp/cc4tSQEQ.s:9241   .text.HAL_TIM_PWM_PulseFinishedCallback:0000000000000000 HAL_TIM_PWM_PulseFinishedCallback
     /tmp/cc4tSQEQ.s:9112   .text.HAL_TIM_PeriodElapsedCallback:0000000000000000 HAL_TIM_PeriodElapsedCallback
     /tmp/cc4tSQEQ.s:9284   .text.HAL_TIM_TriggerCallback:0000000000000000 HAL_TIM_TriggerCallback
     /tmp/cc4tSQEQ.s:6459   .text.HAL_TIM_OC_ConfigChannel:0000000000000000 $t
     /tmp/cc4tSQEQ.s:6466   .text.HAL_TIM_OC_ConfigChannel:0000000000000000 HAL_TIM_OC_ConfigChannel
     /tmp/cc4tSQEQ.s:6511   .text.HAL_TIM_OC_ConfigChannel:0000000000000038 $d
     /tmp/cc4tSQEQ.s:6524   .text.HAL_TIM_OC_ConfigChannel:000000000000006c $t
     /tmp/cc4tSQEQ.s:10592  .text.TIM_OC1_SetConfig:0000000000000000 TIM_OC1_SetConfig
     /tmp/cc4tSQEQ.s:10012  .text.TIM_OC2_SetConfig:0000000000000000 TIM_OC2_SetConfig
     /tmp/cc4tSQEQ.s:10747  .text.TIM_OC3_SetConfig:0000000000000000 TIM_OC3_SetConfig
     /tmp/cc4tSQEQ.s:10906  .text.TIM_OC4_SetConfig:0000000000000000 TIM_OC4_SetConfig
     /tmp/cc4tSQEQ.s:6590   .text.HAL_TIM_IC_ConfigChannel:0000000000000000 $t
     /tmp/cc4tSQEQ.s:6597   .text.HAL_TIM_IC_ConfigChannel:0000000000000000 HAL_TIM_IC_ConfigChannel
     /tmp/cc4tSQEQ.s:9849   .text.TIM_TI1_SetConfig:0000000000000000 TIM_TI1_SetConfig
     /tmp/cc4tSQEQ.s:11337  .text.TIM_TI2_SetConfig:0000000000000000 TIM_TI2_SetConfig
     /tmp/cc4tSQEQ.s:11534  .text.TIM_TI3_SetConfig:0000000000000000 TIM_TI3_SetConfig
     /tmp/cc4tSQEQ.s:11638  .text.TIM_TI4_SetConfig:0000000000000000 TIM_TI4_SetConfig
     /tmp/cc4tSQEQ.s:6792   .text.HAL_TIM_PWM_ConfigChannel:0000000000000000 $t
     /tmp/cc4tSQEQ.s:6799   .text.HAL_TIM_PWM_ConfigChannel:0000000000000000 HAL_TIM_PWM_ConfigChannel
     /tmp/cc4tSQEQ.s:6844   .text.HAL_TIM_PWM_ConfigChannel:0000000000000038 $d
     /tmp/cc4tSQEQ.s:6857   .text.HAL_TIM_PWM_ConfigChannel:000000000000006c $t
     /tmp/cc4tSQEQ.s:7029   .text.HAL_TIM_OnePulse_ConfigChannel:0000000000000000 $t
     /tmp/cc4tSQEQ.s:7036   .text.HAL_TIM_OnePulse_ConfigChannel:0000000000000000 HAL_TIM_OnePulse_ConfigChannel
     /tmp/cc4tSQEQ.s:7276   .text.HAL_TIM_DMABurst_WriteStart:0000000000000000 $t
     /tmp/cc4tSQEQ.s:7283   .text.HAL_TIM_DMABurst_WriteStart:0000000000000000 HAL_TIM_DMABurst_WriteStart
     /tmp/cc4tSQEQ.s:7573   .text.HAL_TIM_DMABurst_WriteStart:00000000000001d0 $d
     /tmp/cc4tSQEQ.s:10543  .text.TIM_DMATriggerCplt:0000000000000000 TIM_DMATriggerCplt
     /tmp/cc4tSQEQ.s:7582   .text.HAL_TIM_DMABurst_WriteStop:0000000000000000 $t
     /tmp/cc4tSQEQ.s:7589   .text.HAL_TIM_DMABurst_WriteStop:0000000000000000 HAL_TIM_DMABurst_WriteStop
     /tmp/cc4tSQEQ.s:7715   .text.HAL_TIM_DMABurst_ReadStart:0000000000000000 $t
     /tmp/cc4tSQEQ.s:7722   .text.HAL_TIM_DMABurst_ReadStart:0000000000000000 HAL_TIM_DMABurst_ReadStart
     /tmp/cc4tSQEQ.s:8012   .text.HAL_TIM_DMABurst_ReadStart:00000000000001d0 $d
     /tmp/cc4tSQEQ.s:8021   .text.HAL_TIM_DMABurst_ReadStop:0000000000000000 $t
     /tmp/cc4tSQEQ.s:8028   .text.HAL_TIM_DMABurst_ReadStop:0000000000000000 HAL_TIM_DMABurst_ReadStop
     /tmp/cc4tSQEQ.s:8154   .text.HAL_TIM_GenerateEvent:0000000000000000 $t
     /tmp/cc4tSQEQ.s:8161   .text.HAL_TIM_GenerateEvent:0000000000000000 HAL_TIM_GenerateEvent
     /tmp/cc4tSQEQ.s:8231   .text.HAL_TIM_ConfigOCrefClear:0000000000000000 $t
     /tmp/cc4tSQEQ.s:8238   .text.HAL_TIM_ConfigOCrefClear:0000000000000000 HAL_TIM_ConfigOCrefClear
     /tmp/cc4tSQEQ.s:11810  .text.TIM_ETR_SetConfig:0000000000000000 TIM_ETR_SetConfig
     /tmp/cc4tSQEQ.s:8299   .text.HAL_TIM_ConfigOCrefClear:0000000000000054 $d
     /tmp/cc4tSQEQ.s:8312   .text.HAL_TIM_ConfigOCrefClear:0000000000000088 $t
     /tmp/cc4tSQEQ.s:8450   .text.HAL_TIM_ConfigClockSource:0000000000000000 $t
     /tmp/cc4tSQEQ.s:8457   .text.HAL_TIM_ConfigClockSource:0000000000000000 HAL_TIM_ConfigClockSource
     /tmp/cc4tSQEQ.s:11246  .text.TIM_TI1_ConfigInputStage:0000000000000000 TIM_TI1_ConfigInputStage
     /tmp/cc4tSQEQ.s:11743  .text.TIM_ITRx_SetConfig:0000000000000000 TIM_ITRx_SetConfig
     /tmp/cc4tSQEQ.s:11442  .text.TIM_TI2_ConfigInputStage:0000000000000000 TIM_TI2_ConfigInputStage
     /tmp/cc4tSQEQ.s:8736   .text.HAL_TIM_ConfigTI1Input:0000000000000000 $t
     /tmp/cc4tSQEQ.s:8743   .text.HAL_TIM_ConfigTI1Input:0000000000000000 HAL_TIM_ConfigTI1Input
     /tmp/cc4tSQEQ.s:8804   .text.HAL_TIM_SlaveConfigSynchronization:0000000000000000 $t
     /tmp/cc4tSQEQ.s:8811   .text.HAL_TIM_SlaveConfigSynchronization:0000000000000000 HAL_TIM_SlaveConfigSynchronization
     /tmp/cc4tSQEQ.s:11040  .text.TIM_SlaveTimer_SetConfig:0000000000000000 TIM_SlaveTimer_SetConfig
     /tmp/cc4tSQEQ.s:8892   .text.HAL_TIM_SlaveConfigSynchronization_IT:0000000000000000 $t
     /tmp/cc4tSQEQ.s:8899   .text.HAL_TIM_SlaveConfigSynchronization_IT:0000000000000000 HAL_TIM_SlaveConfigSynchronization_IT
     /tmp/cc4tSQEQ.s:8980   .text.HAL_TIM_ReadCapturedValue:0000000000000000 $t
     /tmp/cc4tSQEQ.s:8987   .text.HAL_TIM_ReadCapturedValue:0000000000000000 HAL_TIM_ReadCapturedValue
     /tmp/cc4tSQEQ.s:9030   .text.HAL_TIM_ReadCapturedValue:0000000000000030 $d
     /tmp/cc4tSQEQ.s:9043   .text.HAL_TIM_ReadCapturedValue:0000000000000064 $t
ARM GAS  /tmp/cc4tSQEQ.s 			page 308


     /tmp/cc4tSQEQ.s:9105   .text.HAL_TIM_PeriodElapsedCallback:0000000000000000 $t
     /tmp/cc4tSQEQ.s:9148   .text.HAL_TIM_OC_DelayElapsedCallback:0000000000000000 $t
     /tmp/cc4tSQEQ.s:9191   .text.HAL_TIM_IC_CaptureCallback:0000000000000000 $t
     /tmp/cc4tSQEQ.s:9234   .text.HAL_TIM_PWM_PulseFinishedCallback:0000000000000000 $t
     /tmp/cc4tSQEQ.s:9277   .text.HAL_TIM_TriggerCallback:0000000000000000 $t
     /tmp/cc4tSQEQ.s:9320   .text.HAL_TIM_ErrorCallback:0000000000000000 $t
     /tmp/cc4tSQEQ.s:9327   .text.HAL_TIM_ErrorCallback:0000000000000000 HAL_TIM_ErrorCallback
     /tmp/cc4tSQEQ.s:9363   .text.HAL_TIM_Base_GetState:0000000000000000 $t
     /tmp/cc4tSQEQ.s:9370   .text.HAL_TIM_Base_GetState:0000000000000000 HAL_TIM_Base_GetState
     /tmp/cc4tSQEQ.s:9410   .text.HAL_TIM_OC_GetState:0000000000000000 $t
     /tmp/cc4tSQEQ.s:9417   .text.HAL_TIM_OC_GetState:0000000000000000 HAL_TIM_OC_GetState
     /tmp/cc4tSQEQ.s:9457   .text.HAL_TIM_PWM_GetState:0000000000000000 $t
     /tmp/cc4tSQEQ.s:9464   .text.HAL_TIM_PWM_GetState:0000000000000000 HAL_TIM_PWM_GetState
     /tmp/cc4tSQEQ.s:9504   .text.HAL_TIM_IC_GetState:0000000000000000 $t
     /tmp/cc4tSQEQ.s:9511   .text.HAL_TIM_IC_GetState:0000000000000000 HAL_TIM_IC_GetState
     /tmp/cc4tSQEQ.s:9551   .text.HAL_TIM_OnePulse_GetState:0000000000000000 $t
     /tmp/cc4tSQEQ.s:9558   .text.HAL_TIM_OnePulse_GetState:0000000000000000 HAL_TIM_OnePulse_GetState
     /tmp/cc4tSQEQ.s:9598   .text.HAL_TIM_Encoder_GetState:0000000000000000 $t
     /tmp/cc4tSQEQ.s:9605   .text.HAL_TIM_Encoder_GetState:0000000000000000 HAL_TIM_Encoder_GetState
     /tmp/cc4tSQEQ.s:9645   .text.TIM_Base_SetConfig:0000000000000000 $t
     /tmp/cc4tSQEQ.s:9831   .text.TIM_Base_SetConfig:00000000000000ec $d
     /tmp/cc4tSQEQ.s:9842   .text.TIM_TI1_SetConfig:0000000000000000 $t
     /tmp/cc4tSQEQ.s:9996   .text.TIM_TI1_SetConfig:00000000000000cc $d
     /tmp/cc4tSQEQ.s:10005  .text.TIM_OC2_SetConfig:0000000000000000 $t
     /tmp/cc4tSQEQ.s:10161  .text.TIM_OC2_SetConfig:00000000000000d8 $d
     /tmp/cc4tSQEQ.s:10166  .text.TIM_DMADelayPulseCplt:0000000000000000 $t
     /tmp/cc4tSQEQ.s:10267  .text.TIM_DMAError:0000000000000000 $t
     /tmp/cc4tSQEQ.s:10317  .text.TIM_DMACaptureCplt:0000000000000000 $t
     /tmp/cc4tSQEQ.s:10418  .text.TIM_CCxChannelCmd:0000000000000000 $t
     /tmp/cc4tSQEQ.s:10488  .text.TIM_DMAPeriodElapsedCplt:0000000000000000 $t
     /tmp/cc4tSQEQ.s:10537  .text.TIM_DMATriggerCplt:0000000000000000 $t
     /tmp/cc4tSQEQ.s:10586  .text.TIM_OC1_SetConfig:0000000000000000 $t
     /tmp/cc4tSQEQ.s:10736  .text.TIM_OC1_SetConfig:00000000000000cc $d
     /tmp/cc4tSQEQ.s:10741  .text.TIM_OC3_SetConfig:0000000000000000 $t
     /tmp/cc4tSQEQ.s:10895  .text.TIM_OC3_SetConfig:00000000000000d4 $d
     /tmp/cc4tSQEQ.s:10900  .text.TIM_OC4_SetConfig:0000000000000000 $t
     /tmp/cc4tSQEQ.s:11029  .text.TIM_OC4_SetConfig:00000000000000a8 $d
     /tmp/cc4tSQEQ.s:11034  .text.TIM_SlaveTimer_SetConfig:0000000000000000 $t
     /tmp/cc4tSQEQ.s:11240  .text.TIM_TI1_ConfigInputStage:0000000000000000 $t
     /tmp/cc4tSQEQ.s:11331  .text.TIM_TI2_SetConfig:0000000000000000 $t
     /tmp/cc4tSQEQ.s:11436  .text.TIM_TI2_ConfigInputStage:0000000000000000 $t
     /tmp/cc4tSQEQ.s:11528  .text.TIM_TI3_SetConfig:0000000000000000 $t
     /tmp/cc4tSQEQ.s:11632  .text.TIM_TI4_SetConfig:0000000000000000 $t
     /tmp/cc4tSQEQ.s:11737  .text.TIM_ITRx_SetConfig:0000000000000000 $t
     /tmp/cc4tSQEQ.s:11804  .text.TIM_ETR_SetConfig:0000000000000000 $t
                     .debug_frame:0000000000000010 $d

UNDEFINED SYMBOLS
HAL_DMA_Start_IT
HAL_TIMEx_BreakCallback
HAL_TIMEx_CommutationCallback
TIMEx_DMACommutationCplt
HAL_DMA_Abort
