ARM GAS  /tmp/cc4tSQEQ.s 			page 1


   1              		.cpu cortex-m4
   2              		.eabi_attribute 27, 1
   3              		.eabi_attribute 28, 1
   4              		.eabi_attribute 20, 1
   5              		.eabi_attribute 21, 1
   6              		.eabi_attribute 23, 3
   7              		.eabi_attribute 24, 1
   8              		.eabi_attribute 25, 1
   9              		.eabi_attribute 26, 1
  10              		.eabi_attribute 30, 6
  11              		.eabi_attribute 34, 1
  12              		.eabi_attribute 18, 4
  13              		.file	"stm32f4xx_hal_tim.c"
  14              		.text
  15              	.Ltext0:
  16              		.cfi_sections	.debug_frame
  17              		.section	.text.HAL_TIM_Base_Init,"ax",%progbits
  18              		.align	1
  19              		.global	HAL_TIM_Base_Init
  20              		.syntax unified
  21              		.thumb
  22              		.thumb_func
  23              		.fpu fpv4-sp-d16
  25              	HAL_TIM_Base_Init:
  26              	.LFB124:
  27              		.file 1 "Drivers/STM32F4xx_HAL_Driver/Src/stm32f4xx_hal_tim.c"
   1:Drivers/STM32F4xx_HAL_Driver/Src/stm32f4xx_hal_tim.c **** /**
   2:Drivers/STM32F4xx_HAL_Driver/Src/stm32f4xx_hal_tim.c ****   ******************************************************************************
   3:Drivers/STM32F4xx_HAL_Driver/Src/stm32f4xx_hal_tim.c ****   * @file    stm32f4xx_hal_tim.c
   4:Drivers/STM32F4xx_HAL_Driver/Src/stm32f4xx_hal_tim.c ****   * @author  MCD Application Team
   5:Drivers/STM32F4xx_HAL_Driver/Src/stm32f4xx_hal_tim.c ****   * @brief   TIM HAL module driver.
   6:Drivers/STM32F4xx_HAL_Driver/Src/stm32f4xx_hal_tim.c ****   *          This file provides firmware functions to manage the following 
   7:Drivers/STM32F4xx_HAL_Driver/Src/stm32f4xx_hal_tim.c ****   *          functionalities of the Timer (TIM) peripheral:
   8:Drivers/STM32F4xx_HAL_Driver/Src/stm32f4xx_hal_tim.c ****   *           + Time Base Initialization
   9:Drivers/STM32F4xx_HAL_Driver/Src/stm32f4xx_hal_tim.c ****   *           + Time Base Start
  10:Drivers/STM32F4xx_HAL_Driver/Src/stm32f4xx_hal_tim.c ****   *           + Time Base Start Interruption
  11:Drivers/STM32F4xx_HAL_Driver/Src/stm32f4xx_hal_tim.c ****   *           + Time Base Start DMA
  12:Drivers/STM32F4xx_HAL_Driver/Src/stm32f4xx_hal_tim.c ****   *           + Time Output Compare/PWM Initialization
  13:Drivers/STM32F4xx_HAL_Driver/Src/stm32f4xx_hal_tim.c ****   *           + Time Output Compare/PWM Channel Configuration
  14:Drivers/STM32F4xx_HAL_Driver/Src/stm32f4xx_hal_tim.c ****   *           + Time Output Compare/PWM  Start
  15:Drivers/STM32F4xx_HAL_Driver/Src/stm32f4xx_hal_tim.c ****   *           + Time Output Compare/PWM  Start Interruption
  16:Drivers/STM32F4xx_HAL_Driver/Src/stm32f4xx_hal_tim.c ****   *           + Time Output Compare/PWM Start DMA
  17:Drivers/STM32F4xx_HAL_Driver/Src/stm32f4xx_hal_tim.c ****   *           + Time Input Capture Initialization
  18:Drivers/STM32F4xx_HAL_Driver/Src/stm32f4xx_hal_tim.c ****   *           + Time Input Capture Channel Configuration
  19:Drivers/STM32F4xx_HAL_Driver/Src/stm32f4xx_hal_tim.c ****   *           + Time Input Capture Start
  20:Drivers/STM32F4xx_HAL_Driver/Src/stm32f4xx_hal_tim.c ****   *           + Time Input Capture Start Interruption 
  21:Drivers/STM32F4xx_HAL_Driver/Src/stm32f4xx_hal_tim.c ****   *           + Time Input Capture Start DMA
  22:Drivers/STM32F4xx_HAL_Driver/Src/stm32f4xx_hal_tim.c ****   *           + Time One Pulse Initialization
  23:Drivers/STM32F4xx_HAL_Driver/Src/stm32f4xx_hal_tim.c ****   *           + Time One Pulse Channel Configuration
  24:Drivers/STM32F4xx_HAL_Driver/Src/stm32f4xx_hal_tim.c ****   *           + Time One Pulse Start 
  25:Drivers/STM32F4xx_HAL_Driver/Src/stm32f4xx_hal_tim.c ****   *           + Time Encoder Interface Initialization
  26:Drivers/STM32F4xx_HAL_Driver/Src/stm32f4xx_hal_tim.c ****   *           + Time Encoder Interface Start
  27:Drivers/STM32F4xx_HAL_Driver/Src/stm32f4xx_hal_tim.c ****   *           + Time Encoder Interface Start Interruption
  28:Drivers/STM32F4xx_HAL_Driver/Src/stm32f4xx_hal_tim.c ****   *           + Time Encoder Interface Start DMA
  29:Drivers/STM32F4xx_HAL_Driver/Src/stm32f4xx_hal_tim.c ****   *           + Commutation Event configuration with Interruption and DMA
  30:Drivers/STM32F4xx_HAL_Driver/Src/stm32f4xx_hal_tim.c ****   *           + Time OCRef clear configuration
  31:Drivers/STM32F4xx_HAL_Driver/Src/stm32f4xx_hal_tim.c ****   *           + Time External Clock configuration
ARM GAS  /tmp/cc4tSQEQ.s 			page 2


  32:Drivers/STM32F4xx_HAL_Driver/Src/stm32f4xx_hal_tim.c ****   @verbatim 
  33:Drivers/STM32F4xx_HAL_Driver/Src/stm32f4xx_hal_tim.c ****   ==============================================================================
  34:Drivers/STM32F4xx_HAL_Driver/Src/stm32f4xx_hal_tim.c ****                       ##### TIMER Generic features #####
  35:Drivers/STM32F4xx_HAL_Driver/Src/stm32f4xx_hal_tim.c ****   ==============================================================================
  36:Drivers/STM32F4xx_HAL_Driver/Src/stm32f4xx_hal_tim.c ****   [..] The Timer features include: 
  37:Drivers/STM32F4xx_HAL_Driver/Src/stm32f4xx_hal_tim.c ****        (#) 16-bit up, down, up/down auto-reload counter.
  38:Drivers/STM32F4xx_HAL_Driver/Src/stm32f4xx_hal_tim.c ****        (#) 16-bit programmable prescaler allowing dividing (also on the fly) the 
  39:Drivers/STM32F4xx_HAL_Driver/Src/stm32f4xx_hal_tim.c ****            counter clock frequency either by any factor between 1 and 65536.
  40:Drivers/STM32F4xx_HAL_Driver/Src/stm32f4xx_hal_tim.c ****        (#) Up to 4 independent channels for:
  41:Drivers/STM32F4xx_HAL_Driver/Src/stm32f4xx_hal_tim.c ****            (++) Input Capture
  42:Drivers/STM32F4xx_HAL_Driver/Src/stm32f4xx_hal_tim.c ****            (++) Output Compare
  43:Drivers/STM32F4xx_HAL_Driver/Src/stm32f4xx_hal_tim.c ****            (++) PWM generation (Edge and Center-aligned Mode)
  44:Drivers/STM32F4xx_HAL_Driver/Src/stm32f4xx_hal_tim.c ****            (++) One-pulse mode output               
  45:Drivers/STM32F4xx_HAL_Driver/Src/stm32f4xx_hal_tim.c ****    
  46:Drivers/STM32F4xx_HAL_Driver/Src/stm32f4xx_hal_tim.c ****                         ##### How to use this driver #####
  47:Drivers/STM32F4xx_HAL_Driver/Src/stm32f4xx_hal_tim.c ****   ==============================================================================
  48:Drivers/STM32F4xx_HAL_Driver/Src/stm32f4xx_hal_tim.c ****     [..]
  49:Drivers/STM32F4xx_HAL_Driver/Src/stm32f4xx_hal_tim.c ****      (#) Initialize the TIM low level resources by implementing the following functions 
  50:Drivers/STM32F4xx_HAL_Driver/Src/stm32f4xx_hal_tim.c ****          depending from feature used :
  51:Drivers/STM32F4xx_HAL_Driver/Src/stm32f4xx_hal_tim.c ****            (++) Time Base : HAL_TIM_Base_MspInit() 
  52:Drivers/STM32F4xx_HAL_Driver/Src/stm32f4xx_hal_tim.c ****            (++) Input Capture : HAL_TIM_IC_MspInit()
  53:Drivers/STM32F4xx_HAL_Driver/Src/stm32f4xx_hal_tim.c ****            (++) Output Compare : HAL_TIM_OC_MspInit()
  54:Drivers/STM32F4xx_HAL_Driver/Src/stm32f4xx_hal_tim.c ****            (++) PWM generation : HAL_TIM_PWM_MspInit()
  55:Drivers/STM32F4xx_HAL_Driver/Src/stm32f4xx_hal_tim.c ****            (++) One-pulse mode output : HAL_TIM_OnePulse_MspInit()
  56:Drivers/STM32F4xx_HAL_Driver/Src/stm32f4xx_hal_tim.c ****            (++) Encoder mode output : HAL_TIM_Encoder_MspInit()
  57:Drivers/STM32F4xx_HAL_Driver/Src/stm32f4xx_hal_tim.c ****            
  58:Drivers/STM32F4xx_HAL_Driver/Src/stm32f4xx_hal_tim.c ****      (#) Initialize the TIM low level resources :
  59:Drivers/STM32F4xx_HAL_Driver/Src/stm32f4xx_hal_tim.c ****         (##) Enable the TIM interface clock using __TIMx_CLK_ENABLE(); 
  60:Drivers/STM32F4xx_HAL_Driver/Src/stm32f4xx_hal_tim.c ****         (##) TIM pins configuration
  61:Drivers/STM32F4xx_HAL_Driver/Src/stm32f4xx_hal_tim.c ****             (+++) Enable the clock for the TIM GPIOs using the following function:
  62:Drivers/STM32F4xx_HAL_Driver/Src/stm32f4xx_hal_tim.c ****                  __GPIOx_CLK_ENABLE();   
  63:Drivers/STM32F4xx_HAL_Driver/Src/stm32f4xx_hal_tim.c ****             (+++) Configure these TIM pins in Alternate function mode using HAL_GPIO_Init();  
  64:Drivers/STM32F4xx_HAL_Driver/Src/stm32f4xx_hal_tim.c **** 
  65:Drivers/STM32F4xx_HAL_Driver/Src/stm32f4xx_hal_tim.c ****      (#) The external Clock can be configured, if needed (the default clock is the 
  66:Drivers/STM32F4xx_HAL_Driver/Src/stm32f4xx_hal_tim.c ****          internal clock from the APBx), using the following function:
  67:Drivers/STM32F4xx_HAL_Driver/Src/stm32f4xx_hal_tim.c ****          HAL_TIM_ConfigClockSource, the clock configuration should be done before 
  68:Drivers/STM32F4xx_HAL_Driver/Src/stm32f4xx_hal_tim.c ****          any start function.
  69:Drivers/STM32F4xx_HAL_Driver/Src/stm32f4xx_hal_tim.c ****   
  70:Drivers/STM32F4xx_HAL_Driver/Src/stm32f4xx_hal_tim.c ****      (#) Configure the TIM in the desired functioning mode using one of the 
  71:Drivers/STM32F4xx_HAL_Driver/Src/stm32f4xx_hal_tim.c ****          initialization function of this driver:
  72:Drivers/STM32F4xx_HAL_Driver/Src/stm32f4xx_hal_tim.c ****          (++) HAL_TIM_Base_Init: to use the Timer to generate a simple time base
  73:Drivers/STM32F4xx_HAL_Driver/Src/stm32f4xx_hal_tim.c ****          (++) HAL_TIM_OC_Init and HAL_TIM_OC_ConfigChannel: to use the Timer to generate an 
  74:Drivers/STM32F4xx_HAL_Driver/Src/stm32f4xx_hal_tim.c ****               Output Compare signal.
  75:Drivers/STM32F4xx_HAL_Driver/Src/stm32f4xx_hal_tim.c ****          (++) HAL_TIM_PWM_Init and HAL_TIM_PWM_ConfigChannel: to use the Timer to generate a 
  76:Drivers/STM32F4xx_HAL_Driver/Src/stm32f4xx_hal_tim.c ****               PWM signal.
  77:Drivers/STM32F4xx_HAL_Driver/Src/stm32f4xx_hal_tim.c ****          (++) HAL_TIM_IC_Init and HAL_TIM_IC_ConfigChannel: to use the Timer to measure an 
  78:Drivers/STM32F4xx_HAL_Driver/Src/stm32f4xx_hal_tim.c ****               external signal.
  79:Drivers/STM32F4xx_HAL_Driver/Src/stm32f4xx_hal_tim.c ****          (++) HAL_TIM_OnePulse_Init and HAL_TIM_OnePulse_ConfigChannel: to use the Timer 
  80:Drivers/STM32F4xx_HAL_Driver/Src/stm32f4xx_hal_tim.c ****               in One Pulse Mode.
  81:Drivers/STM32F4xx_HAL_Driver/Src/stm32f4xx_hal_tim.c ****          (++) HAL_TIM_Encoder_Init: to use the Timer Encoder Interface.
  82:Drivers/STM32F4xx_HAL_Driver/Src/stm32f4xx_hal_tim.c ****          
  83:Drivers/STM32F4xx_HAL_Driver/Src/stm32f4xx_hal_tim.c ****      (#) Activate the TIM peripheral using one of the start functions depending from the feature us
  84:Drivers/STM32F4xx_HAL_Driver/Src/stm32f4xx_hal_tim.c ****            (++) Time Base : HAL_TIM_Base_Start(), HAL_TIM_Base_Start_DMA(), HAL_TIM_Base_Start_IT()
  85:Drivers/STM32F4xx_HAL_Driver/Src/stm32f4xx_hal_tim.c ****            (++) Input Capture :  HAL_TIM_IC_Start(), HAL_TIM_IC_Start_DMA(), HAL_TIM_IC_Start_IT()
  86:Drivers/STM32F4xx_HAL_Driver/Src/stm32f4xx_hal_tim.c ****            (++) Output Compare : HAL_TIM_OC_Start(), HAL_TIM_OC_Start_DMA(), HAL_TIM_OC_Start_IT()
  87:Drivers/STM32F4xx_HAL_Driver/Src/stm32f4xx_hal_tim.c ****            (++) PWM generation : HAL_TIM_PWM_Start(), HAL_TIM_PWM_Start_DMA(), HAL_TIM_PWM_Start_IT
  88:Drivers/STM32F4xx_HAL_Driver/Src/stm32f4xx_hal_tim.c ****            (++) One-pulse mode output : HAL_TIM_OnePulse_Start(), HAL_TIM_OnePulse_Start_IT()
ARM GAS  /tmp/cc4tSQEQ.s 			page 3


  89:Drivers/STM32F4xx_HAL_Driver/Src/stm32f4xx_hal_tim.c ****            (++) Encoder mode output : HAL_TIM_Encoder_Start(), HAL_TIM_Encoder_Start_DMA(), HAL_TIM
  90:Drivers/STM32F4xx_HAL_Driver/Src/stm32f4xx_hal_tim.c **** 
  91:Drivers/STM32F4xx_HAL_Driver/Src/stm32f4xx_hal_tim.c ****      (#) The DMA Burst is managed with the two following functions:
  92:Drivers/STM32F4xx_HAL_Driver/Src/stm32f4xx_hal_tim.c ****          HAL_TIM_DMABurst_WriteStart()
  93:Drivers/STM32F4xx_HAL_Driver/Src/stm32f4xx_hal_tim.c ****          HAL_TIM_DMABurst_ReadStart()
  94:Drivers/STM32F4xx_HAL_Driver/Src/stm32f4xx_hal_tim.c ****   
  95:Drivers/STM32F4xx_HAL_Driver/Src/stm32f4xx_hal_tim.c ****   @endverbatim
  96:Drivers/STM32F4xx_HAL_Driver/Src/stm32f4xx_hal_tim.c ****   ******************************************************************************
  97:Drivers/STM32F4xx_HAL_Driver/Src/stm32f4xx_hal_tim.c ****   * @attention
  98:Drivers/STM32F4xx_HAL_Driver/Src/stm32f4xx_hal_tim.c ****   *
  99:Drivers/STM32F4xx_HAL_Driver/Src/stm32f4xx_hal_tim.c ****   * <h2><center>&copy; COPYRIGHT(c) 2017 STMicroelectronics</center></h2>
 100:Drivers/STM32F4xx_HAL_Driver/Src/stm32f4xx_hal_tim.c ****   *
 101:Drivers/STM32F4xx_HAL_Driver/Src/stm32f4xx_hal_tim.c ****   * Redistribution and use in source and binary forms, with or without modification,
 102:Drivers/STM32F4xx_HAL_Driver/Src/stm32f4xx_hal_tim.c ****   * are permitted provided that the following conditions are met:
 103:Drivers/STM32F4xx_HAL_Driver/Src/stm32f4xx_hal_tim.c ****   *   1. Redistributions of source code must retain the above copyright notice,
 104:Drivers/STM32F4xx_HAL_Driver/Src/stm32f4xx_hal_tim.c ****   *      this list of conditions and the following disclaimer.
 105:Drivers/STM32F4xx_HAL_Driver/Src/stm32f4xx_hal_tim.c ****   *   2. Redistributions in binary form must reproduce the above copyright notice,
 106:Drivers/STM32F4xx_HAL_Driver/Src/stm32f4xx_hal_tim.c ****   *      this list of conditions and the following disclaimer in the documentation
 107:Drivers/STM32F4xx_HAL_Driver/Src/stm32f4xx_hal_tim.c ****   *      and/or other materials provided with the distribution.
 108:Drivers/STM32F4xx_HAL_Driver/Src/stm32f4xx_hal_tim.c ****   *   3. Neither the name of STMicroelectronics nor the names of its contributors
 109:Drivers/STM32F4xx_HAL_Driver/Src/stm32f4xx_hal_tim.c ****   *      may be used to endorse or promote products derived from this software
 110:Drivers/STM32F4xx_HAL_Driver/Src/stm32f4xx_hal_tim.c ****   *      without specific prior written permission.
 111:Drivers/STM32F4xx_HAL_Driver/Src/stm32f4xx_hal_tim.c ****   *
 112:Drivers/STM32F4xx_HAL_Driver/Src/stm32f4xx_hal_tim.c ****   * THIS SOFTWARE IS PROVIDED BY THE COPYRIGHT HOLDERS AND CONTRIBUTORS "AS IS"
 113:Drivers/STM32F4xx_HAL_Driver/Src/stm32f4xx_hal_tim.c ****   * AND ANY EXPRESS OR IMPLIED WARRANTIES, INCLUDING, BUT NOT LIMITED TO, THE
 114:Drivers/STM32F4xx_HAL_Driver/Src/stm32f4xx_hal_tim.c ****   * IMPLIED WARRANTIES OF MERCHANTABILITY AND FITNESS FOR A PARTICULAR PURPOSE ARE
 115:Drivers/STM32F4xx_HAL_Driver/Src/stm32f4xx_hal_tim.c ****   * DISCLAIMED. IN NO EVENT SHALL THE COPYRIGHT HOLDER OR CONTRIBUTORS BE LIABLE
 116:Drivers/STM32F4xx_HAL_Driver/Src/stm32f4xx_hal_tim.c ****   * FOR ANY DIRECT, INDIRECT, INCIDENTAL, SPECIAL, EXEMPLARY, OR CONSEQUENTIAL
 117:Drivers/STM32F4xx_HAL_Driver/Src/stm32f4xx_hal_tim.c ****   * DAMAGES (INCLUDING, BUT NOT LIMITED TO, PROCUREMENT OF SUBSTITUTE GOODS OR
 118:Drivers/STM32F4xx_HAL_Driver/Src/stm32f4xx_hal_tim.c ****   * SERVICES; LOSS OF USE, DATA, OR PROFITS; OR BUSINESS INTERRUPTION) HOWEVER
 119:Drivers/STM32F4xx_HAL_Driver/Src/stm32f4xx_hal_tim.c ****   * CAUSED AND ON ANY THEORY OF LIABILITY, WHETHER IN CONTRACT, STRICT LIABILITY,
 120:Drivers/STM32F4xx_HAL_Driver/Src/stm32f4xx_hal_tim.c ****   * OR TORT (INCLUDING NEGLIGENCE OR OTHERWISE) ARISING IN ANY WAY OUT OF THE USE
 121:Drivers/STM32F4xx_HAL_Driver/Src/stm32f4xx_hal_tim.c ****   * OF THIS SOFTWARE, EVEN IF ADVISED OF THE POSSIBILITY OF SUCH DAMAGE.
 122:Drivers/STM32F4xx_HAL_Driver/Src/stm32f4xx_hal_tim.c ****   *
 123:Drivers/STM32F4xx_HAL_Driver/Src/stm32f4xx_hal_tim.c ****   ******************************************************************************
 124:Drivers/STM32F4xx_HAL_Driver/Src/stm32f4xx_hal_tim.c ****   */ 
 125:Drivers/STM32F4xx_HAL_Driver/Src/stm32f4xx_hal_tim.c **** 
 126:Drivers/STM32F4xx_HAL_Driver/Src/stm32f4xx_hal_tim.c **** /* Includes ------------------------------------------------------------------*/
 127:Drivers/STM32F4xx_HAL_Driver/Src/stm32f4xx_hal_tim.c **** #include "stm32f4xx_hal.h"
 128:Drivers/STM32F4xx_HAL_Driver/Src/stm32f4xx_hal_tim.c **** 
 129:Drivers/STM32F4xx_HAL_Driver/Src/stm32f4xx_hal_tim.c **** /** @addtogroup STM32F4xx_HAL_Driver
 130:Drivers/STM32F4xx_HAL_Driver/Src/stm32f4xx_hal_tim.c ****   * @{
 131:Drivers/STM32F4xx_HAL_Driver/Src/stm32f4xx_hal_tim.c ****   */
 132:Drivers/STM32F4xx_HAL_Driver/Src/stm32f4xx_hal_tim.c **** 
 133:Drivers/STM32F4xx_HAL_Driver/Src/stm32f4xx_hal_tim.c **** /** @defgroup TIM TIM
 134:Drivers/STM32F4xx_HAL_Driver/Src/stm32f4xx_hal_tim.c ****   * @brief TIM HAL module driver
 135:Drivers/STM32F4xx_HAL_Driver/Src/stm32f4xx_hal_tim.c ****   * @{
 136:Drivers/STM32F4xx_HAL_Driver/Src/stm32f4xx_hal_tim.c ****   */
 137:Drivers/STM32F4xx_HAL_Driver/Src/stm32f4xx_hal_tim.c **** 
 138:Drivers/STM32F4xx_HAL_Driver/Src/stm32f4xx_hal_tim.c **** #ifdef HAL_TIM_MODULE_ENABLED
 139:Drivers/STM32F4xx_HAL_Driver/Src/stm32f4xx_hal_tim.c **** 
 140:Drivers/STM32F4xx_HAL_Driver/Src/stm32f4xx_hal_tim.c **** /* Private typedef -----------------------------------------------------------*/
 141:Drivers/STM32F4xx_HAL_Driver/Src/stm32f4xx_hal_tim.c **** /* Private define ------------------------------------------------------------*/
 142:Drivers/STM32F4xx_HAL_Driver/Src/stm32f4xx_hal_tim.c **** /* Private macro -------------------------------------------------------------*/
 143:Drivers/STM32F4xx_HAL_Driver/Src/stm32f4xx_hal_tim.c **** /* Private variables ---------------------------------------------------------*/
 144:Drivers/STM32F4xx_HAL_Driver/Src/stm32f4xx_hal_tim.c **** /** @addtogroup TIM_Private_Functions
 145:Drivers/STM32F4xx_HAL_Driver/Src/stm32f4xx_hal_tim.c ****   * @{
ARM GAS  /tmp/cc4tSQEQ.s 			page 4


 146:Drivers/STM32F4xx_HAL_Driver/Src/stm32f4xx_hal_tim.c ****   */
 147:Drivers/STM32F4xx_HAL_Driver/Src/stm32f4xx_hal_tim.c **** /* Private function prototypes -----------------------------------------------*/
 148:Drivers/STM32F4xx_HAL_Driver/Src/stm32f4xx_hal_tim.c **** static void TIM_OC1_SetConfig(TIM_TypeDef *TIMx, TIM_OC_InitTypeDef *OC_Config);
 149:Drivers/STM32F4xx_HAL_Driver/Src/stm32f4xx_hal_tim.c **** static void TIM_OC3_SetConfig(TIM_TypeDef *TIMx, TIM_OC_InitTypeDef *OC_Config);
 150:Drivers/STM32F4xx_HAL_Driver/Src/stm32f4xx_hal_tim.c **** static void TIM_OC4_SetConfig(TIM_TypeDef *TIMx, TIM_OC_InitTypeDef *OC_Config);
 151:Drivers/STM32F4xx_HAL_Driver/Src/stm32f4xx_hal_tim.c **** 
 152:Drivers/STM32F4xx_HAL_Driver/Src/stm32f4xx_hal_tim.c **** static void TIM_TI1_ConfigInputStage(TIM_TypeDef *TIMx, uint32_t TIM_ICPolarity, uint32_t TIM_ICFil
 153:Drivers/STM32F4xx_HAL_Driver/Src/stm32f4xx_hal_tim.c **** static void TIM_TI2_SetConfig(TIM_TypeDef *TIMx, uint32_t TIM_ICPolarity, uint32_t TIM_ICSelection,
 154:Drivers/STM32F4xx_HAL_Driver/Src/stm32f4xx_hal_tim.c ****                        uint32_t TIM_ICFilter);
 155:Drivers/STM32F4xx_HAL_Driver/Src/stm32f4xx_hal_tim.c **** static void TIM_TI2_ConfigInputStage(TIM_TypeDef *TIMx, uint32_t TIM_ICPolarity, uint32_t TIM_ICFil
 156:Drivers/STM32F4xx_HAL_Driver/Src/stm32f4xx_hal_tim.c **** static void TIM_TI3_SetConfig(TIM_TypeDef *TIMx, uint32_t TIM_ICPolarity, uint32_t TIM_ICSelection,
 157:Drivers/STM32F4xx_HAL_Driver/Src/stm32f4xx_hal_tim.c ****                        uint32_t TIM_ICFilter);
 158:Drivers/STM32F4xx_HAL_Driver/Src/stm32f4xx_hal_tim.c **** static void TIM_TI4_SetConfig(TIM_TypeDef *TIMx, uint32_t TIM_ICPolarity, uint32_t TIM_ICSelection,
 159:Drivers/STM32F4xx_HAL_Driver/Src/stm32f4xx_hal_tim.c ****                        uint32_t TIM_ICFilter);
 160:Drivers/STM32F4xx_HAL_Driver/Src/stm32f4xx_hal_tim.c **** 
 161:Drivers/STM32F4xx_HAL_Driver/Src/stm32f4xx_hal_tim.c **** static void TIM_ETR_SetConfig(TIM_TypeDef* TIMx, uint32_t TIM_ExtTRGPrescaler,
 162:Drivers/STM32F4xx_HAL_Driver/Src/stm32f4xx_hal_tim.c ****                        uint32_t TIM_ExtTRGPolarity, uint32_t ExtTRGFilter);
 163:Drivers/STM32F4xx_HAL_Driver/Src/stm32f4xx_hal_tim.c **** 
 164:Drivers/STM32F4xx_HAL_Driver/Src/stm32f4xx_hal_tim.c **** static void TIM_ITRx_SetConfig(TIM_TypeDef* TIMx, uint16_t TIM_ITRx);
 165:Drivers/STM32F4xx_HAL_Driver/Src/stm32f4xx_hal_tim.c **** static void TIM_DMAPeriodElapsedCplt(DMA_HandleTypeDef *hdma);
 166:Drivers/STM32F4xx_HAL_Driver/Src/stm32f4xx_hal_tim.c **** static void TIM_DMATriggerCplt(DMA_HandleTypeDef *hdma);
 167:Drivers/STM32F4xx_HAL_Driver/Src/stm32f4xx_hal_tim.c **** static void TIM_SlaveTimer_SetConfig(TIM_HandleTypeDef *htim,
 168:Drivers/STM32F4xx_HAL_Driver/Src/stm32f4xx_hal_tim.c ****                                      TIM_SlaveConfigTypeDef * sSlaveConfig);
 169:Drivers/STM32F4xx_HAL_Driver/Src/stm32f4xx_hal_tim.c **** /**
 170:Drivers/STM32F4xx_HAL_Driver/Src/stm32f4xx_hal_tim.c ****   * @}
 171:Drivers/STM32F4xx_HAL_Driver/Src/stm32f4xx_hal_tim.c ****   */
 172:Drivers/STM32F4xx_HAL_Driver/Src/stm32f4xx_hal_tim.c ****   
 173:Drivers/STM32F4xx_HAL_Driver/Src/stm32f4xx_hal_tim.c **** /* Exported functions --------------------------------------------------------*/
 174:Drivers/STM32F4xx_HAL_Driver/Src/stm32f4xx_hal_tim.c **** /** @defgroup TIM_Exported_Functions TIM Exported Functions
 175:Drivers/STM32F4xx_HAL_Driver/Src/stm32f4xx_hal_tim.c ****   * @{
 176:Drivers/STM32F4xx_HAL_Driver/Src/stm32f4xx_hal_tim.c ****   */
 177:Drivers/STM32F4xx_HAL_Driver/Src/stm32f4xx_hal_tim.c **** 
 178:Drivers/STM32F4xx_HAL_Driver/Src/stm32f4xx_hal_tim.c **** /** @defgroup TIM_Exported_Functions_Group1 Time Base functions 
 179:Drivers/STM32F4xx_HAL_Driver/Src/stm32f4xx_hal_tim.c ****  *  @brief    Time Base functions 
 180:Drivers/STM32F4xx_HAL_Driver/Src/stm32f4xx_hal_tim.c ****  *
 181:Drivers/STM32F4xx_HAL_Driver/Src/stm32f4xx_hal_tim.c **** @verbatim    
 182:Drivers/STM32F4xx_HAL_Driver/Src/stm32f4xx_hal_tim.c ****   ==============================================================================
 183:Drivers/STM32F4xx_HAL_Driver/Src/stm32f4xx_hal_tim.c ****               ##### Time Base functions #####
 184:Drivers/STM32F4xx_HAL_Driver/Src/stm32f4xx_hal_tim.c ****   ==============================================================================
 185:Drivers/STM32F4xx_HAL_Driver/Src/stm32f4xx_hal_tim.c ****   [..]  
 186:Drivers/STM32F4xx_HAL_Driver/Src/stm32f4xx_hal_tim.c ****     This section provides functions allowing to:
 187:Drivers/STM32F4xx_HAL_Driver/Src/stm32f4xx_hal_tim.c ****     (+) Initialize and configure the TIM base. 
 188:Drivers/STM32F4xx_HAL_Driver/Src/stm32f4xx_hal_tim.c ****     (+) De-initialize the TIM base.
 189:Drivers/STM32F4xx_HAL_Driver/Src/stm32f4xx_hal_tim.c ****     (+) Start the Time Base.
 190:Drivers/STM32F4xx_HAL_Driver/Src/stm32f4xx_hal_tim.c ****     (+) Stop the Time Base.
 191:Drivers/STM32F4xx_HAL_Driver/Src/stm32f4xx_hal_tim.c ****     (+) Start the Time Base and enable interrupt.
 192:Drivers/STM32F4xx_HAL_Driver/Src/stm32f4xx_hal_tim.c ****     (+) Stop the Time Base and disable interrupt.
 193:Drivers/STM32F4xx_HAL_Driver/Src/stm32f4xx_hal_tim.c ****     (+) Start the Time Base and enable DMA transfer.
 194:Drivers/STM32F4xx_HAL_Driver/Src/stm32f4xx_hal_tim.c ****     (+) Stop the Time Base and disable DMA transfer.
 195:Drivers/STM32F4xx_HAL_Driver/Src/stm32f4xx_hal_tim.c ****  
 196:Drivers/STM32F4xx_HAL_Driver/Src/stm32f4xx_hal_tim.c **** @endverbatim
 197:Drivers/STM32F4xx_HAL_Driver/Src/stm32f4xx_hal_tim.c ****   * @{
 198:Drivers/STM32F4xx_HAL_Driver/Src/stm32f4xx_hal_tim.c ****   */
 199:Drivers/STM32F4xx_HAL_Driver/Src/stm32f4xx_hal_tim.c **** /**
 200:Drivers/STM32F4xx_HAL_Driver/Src/stm32f4xx_hal_tim.c ****   * @brief  Initializes the TIM Time base Unit according to the specified
 201:Drivers/STM32F4xx_HAL_Driver/Src/stm32f4xx_hal_tim.c ****   *         parameters in the TIM_HandleTypeDef and create the associated handle.
 202:Drivers/STM32F4xx_HAL_Driver/Src/stm32f4xx_hal_tim.c ****   * @param  htim pointer to a TIM_HandleTypeDef structure that contains
ARM GAS  /tmp/cc4tSQEQ.s 			page 5


 203:Drivers/STM32F4xx_HAL_Driver/Src/stm32f4xx_hal_tim.c ****   *                the configuration information for TIM module.
 204:Drivers/STM32F4xx_HAL_Driver/Src/stm32f4xx_hal_tim.c ****   * @retval HAL status
 205:Drivers/STM32F4xx_HAL_Driver/Src/stm32f4xx_hal_tim.c ****   */
 206:Drivers/STM32F4xx_HAL_Driver/Src/stm32f4xx_hal_tim.c **** HAL_StatusTypeDef HAL_TIM_Base_Init(TIM_HandleTypeDef *htim)
 207:Drivers/STM32F4xx_HAL_Driver/Src/stm32f4xx_hal_tim.c **** { 
  28              		.loc 1 207 0
  29              		.cfi_startproc
  30              		@ args = 0, pretend = 0, frame = 8
  31              		@ frame_needed = 1, uses_anonymous_args = 0
  32 0000 80B5     		push	{r7, lr}
  33              	.LCFI0:
  34              		.cfi_def_cfa_offset 8
  35              		.cfi_offset 7, -8
  36              		.cfi_offset 14, -4
  37 0002 82B0     		sub	sp, sp, #8
  38              	.LCFI1:
  39              		.cfi_def_cfa_offset 16
  40 0004 00AF     		add	r7, sp, #0
  41              	.LCFI2:
  42              		.cfi_def_cfa_register 7
  43 0006 7860     		str	r0, [r7, #4]
 208:Drivers/STM32F4xx_HAL_Driver/Src/stm32f4xx_hal_tim.c ****   /* Check the TIM handle allocation */
 209:Drivers/STM32F4xx_HAL_Driver/Src/stm32f4xx_hal_tim.c ****   if(htim == NULL)
  44              		.loc 1 209 0
  45 0008 7B68     		ldr	r3, [r7, #4]
  46 000a 002B     		cmp	r3, #0
  47 000c 01D1     		bne	.L2
 210:Drivers/STM32F4xx_HAL_Driver/Src/stm32f4xx_hal_tim.c ****   {
 211:Drivers/STM32F4xx_HAL_Driver/Src/stm32f4xx_hal_tim.c ****     return HAL_ERROR;
  48              		.loc 1 211 0
  49 000e 0123     		movs	r3, #1
  50 0010 1DE0     		b	.L3
  51              	.L2:
 212:Drivers/STM32F4xx_HAL_Driver/Src/stm32f4xx_hal_tim.c ****   }
 213:Drivers/STM32F4xx_HAL_Driver/Src/stm32f4xx_hal_tim.c ****   
 214:Drivers/STM32F4xx_HAL_Driver/Src/stm32f4xx_hal_tim.c ****   /* Check the parameters */
 215:Drivers/STM32F4xx_HAL_Driver/Src/stm32f4xx_hal_tim.c ****   assert_param(IS_TIM_INSTANCE(htim->Instance)); 
 216:Drivers/STM32F4xx_HAL_Driver/Src/stm32f4xx_hal_tim.c ****   assert_param(IS_TIM_COUNTER_MODE(htim->Init.CounterMode));
 217:Drivers/STM32F4xx_HAL_Driver/Src/stm32f4xx_hal_tim.c ****   assert_param(IS_TIM_CLOCKDIVISION_DIV(htim->Init.ClockDivision));
 218:Drivers/STM32F4xx_HAL_Driver/Src/stm32f4xx_hal_tim.c ****   
 219:Drivers/STM32F4xx_HAL_Driver/Src/stm32f4xx_hal_tim.c ****   if(htim->State == HAL_TIM_STATE_RESET)
  52              		.loc 1 219 0
  53 0012 7B68     		ldr	r3, [r7, #4]
  54 0014 93F83930 		ldrb	r3, [r3, #57]
  55 0018 DBB2     		uxtb	r3, r3
  56 001a 002B     		cmp	r3, #0
  57 001c 06D1     		bne	.L4
 220:Drivers/STM32F4xx_HAL_Driver/Src/stm32f4xx_hal_tim.c ****   {  
 221:Drivers/STM32F4xx_HAL_Driver/Src/stm32f4xx_hal_tim.c ****     /* Allocate lock resource and initialize it */
 222:Drivers/STM32F4xx_HAL_Driver/Src/stm32f4xx_hal_tim.c ****     htim->Lock = HAL_UNLOCKED;
  58              		.loc 1 222 0
  59 001e 7B68     		ldr	r3, [r7, #4]
  60 0020 0022     		movs	r2, #0
  61 0022 83F83820 		strb	r2, [r3, #56]
 223:Drivers/STM32F4xx_HAL_Driver/Src/stm32f4xx_hal_tim.c ****     /* Init the low level hardware : GPIO, CLOCK, NVIC */
 224:Drivers/STM32F4xx_HAL_Driver/Src/stm32f4xx_hal_tim.c ****     HAL_TIM_Base_MspInit(htim);
  62              		.loc 1 224 0
ARM GAS  /tmp/cc4tSQEQ.s 			page 6


  63 0026 7868     		ldr	r0, [r7, #4]
  64 0028 FFF7FEFF 		bl	HAL_TIM_Base_MspInit
  65              	.L4:
 225:Drivers/STM32F4xx_HAL_Driver/Src/stm32f4xx_hal_tim.c ****   }
 226:Drivers/STM32F4xx_HAL_Driver/Src/stm32f4xx_hal_tim.c ****   
 227:Drivers/STM32F4xx_HAL_Driver/Src/stm32f4xx_hal_tim.c ****   /* Set the TIM state */
 228:Drivers/STM32F4xx_HAL_Driver/Src/stm32f4xx_hal_tim.c ****   htim->State= HAL_TIM_STATE_BUSY;
  66              		.loc 1 228 0
  67 002c 7B68     		ldr	r3, [r7, #4]
  68 002e 0222     		movs	r2, #2
  69 0030 83F83920 		strb	r2, [r3, #57]
 229:Drivers/STM32F4xx_HAL_Driver/Src/stm32f4xx_hal_tim.c ****   
 230:Drivers/STM32F4xx_HAL_Driver/Src/stm32f4xx_hal_tim.c ****   /* Set the Time Base configuration */
 231:Drivers/STM32F4xx_HAL_Driver/Src/stm32f4xx_hal_tim.c ****   TIM_Base_SetConfig(htim->Instance, &htim->Init); 
  70              		.loc 1 231 0
  71 0034 7B68     		ldr	r3, [r7, #4]
  72 0036 1A68     		ldr	r2, [r3]
  73 0038 7B68     		ldr	r3, [r7, #4]
  74 003a 0433     		adds	r3, r3, #4
  75 003c 1946     		mov	r1, r3
  76 003e 1046     		mov	r0, r2
  77 0040 FFF7FEFF 		bl	TIM_Base_SetConfig
 232:Drivers/STM32F4xx_HAL_Driver/Src/stm32f4xx_hal_tim.c ****   
 233:Drivers/STM32F4xx_HAL_Driver/Src/stm32f4xx_hal_tim.c ****   /* Initialize the TIM state*/
 234:Drivers/STM32F4xx_HAL_Driver/Src/stm32f4xx_hal_tim.c ****   htim->State= HAL_TIM_STATE_READY;
  78              		.loc 1 234 0
  79 0044 7B68     		ldr	r3, [r7, #4]
  80 0046 0122     		movs	r2, #1
  81 0048 83F83920 		strb	r2, [r3, #57]
 235:Drivers/STM32F4xx_HAL_Driver/Src/stm32f4xx_hal_tim.c ****   
 236:Drivers/STM32F4xx_HAL_Driver/Src/stm32f4xx_hal_tim.c ****   return HAL_OK;
  82              		.loc 1 236 0
  83 004c 0023     		movs	r3, #0
  84              	.L3:
 237:Drivers/STM32F4xx_HAL_Driver/Src/stm32f4xx_hal_tim.c **** }
  85              		.loc 1 237 0
  86 004e 1846     		mov	r0, r3
  87 0050 0837     		adds	r7, r7, #8
  88              	.LCFI3:
  89              		.cfi_def_cfa_offset 8
  90 0052 BD46     		mov	sp, r7
  91              	.LCFI4:
  92              		.cfi_def_cfa_register 13
  93              		@ sp needed
  94 0054 80BD     		pop	{r7, pc}
  95              		.cfi_endproc
  96              	.LFE124:
  98              		.section	.text.HAL_TIM_Base_DeInit,"ax",%progbits
  99              		.align	1
 100              		.global	HAL_TIM_Base_DeInit
 101              		.syntax unified
 102              		.thumb
 103              		.thumb_func
 104              		.fpu fpv4-sp-d16
 106              	HAL_TIM_Base_DeInit:
 107              	.LFB125:
 238:Drivers/STM32F4xx_HAL_Driver/Src/stm32f4xx_hal_tim.c **** 
ARM GAS  /tmp/cc4tSQEQ.s 			page 7


 239:Drivers/STM32F4xx_HAL_Driver/Src/stm32f4xx_hal_tim.c **** /**
 240:Drivers/STM32F4xx_HAL_Driver/Src/stm32f4xx_hal_tim.c ****   * @brief  DeInitializes the TIM Base peripheral 
 241:Drivers/STM32F4xx_HAL_Driver/Src/stm32f4xx_hal_tim.c ****   * @param  htim pointer to a TIM_HandleTypeDef structure that contains
 242:Drivers/STM32F4xx_HAL_Driver/Src/stm32f4xx_hal_tim.c ****   *                the configuration information for TIM module.
 243:Drivers/STM32F4xx_HAL_Driver/Src/stm32f4xx_hal_tim.c ****   * @retval HAL status
 244:Drivers/STM32F4xx_HAL_Driver/Src/stm32f4xx_hal_tim.c ****   */
 245:Drivers/STM32F4xx_HAL_Driver/Src/stm32f4xx_hal_tim.c **** HAL_StatusTypeDef HAL_TIM_Base_DeInit(TIM_HandleTypeDef *htim)
 246:Drivers/STM32F4xx_HAL_Driver/Src/stm32f4xx_hal_tim.c **** {  
 108              		.loc 1 246 0
 109              		.cfi_startproc
 110              		@ args = 0, pretend = 0, frame = 8
 111              		@ frame_needed = 1, uses_anonymous_args = 0
 112 0000 80B5     		push	{r7, lr}
 113              	.LCFI5:
 114              		.cfi_def_cfa_offset 8
 115              		.cfi_offset 7, -8
 116              		.cfi_offset 14, -4
 117 0002 82B0     		sub	sp, sp, #8
 118              	.LCFI6:
 119              		.cfi_def_cfa_offset 16
 120 0004 00AF     		add	r7, sp, #0
 121              	.LCFI7:
 122              		.cfi_def_cfa_register 7
 123 0006 7860     		str	r0, [r7, #4]
 247:Drivers/STM32F4xx_HAL_Driver/Src/stm32f4xx_hal_tim.c ****   /* Check the parameters */
 248:Drivers/STM32F4xx_HAL_Driver/Src/stm32f4xx_hal_tim.c ****   assert_param(IS_TIM_INSTANCE(htim->Instance));
 249:Drivers/STM32F4xx_HAL_Driver/Src/stm32f4xx_hal_tim.c **** 
 250:Drivers/STM32F4xx_HAL_Driver/Src/stm32f4xx_hal_tim.c ****   htim->State = HAL_TIM_STATE_BUSY;
 124              		.loc 1 250 0
 125 0008 7B68     		ldr	r3, [r7, #4]
 126 000a 0222     		movs	r2, #2
 127 000c 83F83920 		strb	r2, [r3, #57]
 251:Drivers/STM32F4xx_HAL_Driver/Src/stm32f4xx_hal_tim.c ****    
 252:Drivers/STM32F4xx_HAL_Driver/Src/stm32f4xx_hal_tim.c ****   /* Disable the TIM Peripheral Clock */
 253:Drivers/STM32F4xx_HAL_Driver/Src/stm32f4xx_hal_tim.c ****   __HAL_TIM_DISABLE(htim);
 128              		.loc 1 253 0
 129 0010 7B68     		ldr	r3, [r7, #4]
 130 0012 1B68     		ldr	r3, [r3]
 131 0014 1A6A     		ldr	r2, [r3, #32]
 132 0016 41F21113 		movw	r3, #4369
 133 001a 1340     		ands	r3, r3, r2
 134 001c 002B     		cmp	r3, #0
 135 001e 0FD1     		bne	.L6
 136              		.loc 1 253 0 is_stmt 0 discriminator 1
 137 0020 7B68     		ldr	r3, [r7, #4]
 138 0022 1B68     		ldr	r3, [r3]
 139 0024 1A6A     		ldr	r2, [r3, #32]
 140 0026 40F24443 		movw	r3, #1092
 141 002a 1340     		ands	r3, r3, r2
 142 002c 002B     		cmp	r3, #0
 143 002e 07D1     		bne	.L6
 144              		.loc 1 253 0 discriminator 2
 145 0030 7B68     		ldr	r3, [r7, #4]
 146 0032 1B68     		ldr	r3, [r3]
 147 0034 7A68     		ldr	r2, [r7, #4]
 148 0036 1268     		ldr	r2, [r2]
 149 0038 1268     		ldr	r2, [r2]
ARM GAS  /tmp/cc4tSQEQ.s 			page 8


 150 003a 22F00102 		bic	r2, r2, #1
 151 003e 1A60     		str	r2, [r3]
 152              	.L6:
 254:Drivers/STM32F4xx_HAL_Driver/Src/stm32f4xx_hal_tim.c ****     
 255:Drivers/STM32F4xx_HAL_Driver/Src/stm32f4xx_hal_tim.c ****   /* DeInit the low level hardware: GPIO, CLOCK, NVIC */
 256:Drivers/STM32F4xx_HAL_Driver/Src/stm32f4xx_hal_tim.c ****   HAL_TIM_Base_MspDeInit(htim);
 153              		.loc 1 256 0 is_stmt 1
 154 0040 7868     		ldr	r0, [r7, #4]
 155 0042 FFF7FEFF 		bl	HAL_TIM_Base_MspDeInit
 257:Drivers/STM32F4xx_HAL_Driver/Src/stm32f4xx_hal_tim.c ****   
 258:Drivers/STM32F4xx_HAL_Driver/Src/stm32f4xx_hal_tim.c ****   /* Change TIM state */  
 259:Drivers/STM32F4xx_HAL_Driver/Src/stm32f4xx_hal_tim.c ****   htim->State = HAL_TIM_STATE_RESET; 
 156              		.loc 1 259 0
 157 0046 7B68     		ldr	r3, [r7, #4]
 158 0048 0022     		movs	r2, #0
 159 004a 83F83920 		strb	r2, [r3, #57]
 260:Drivers/STM32F4xx_HAL_Driver/Src/stm32f4xx_hal_tim.c ****   
 261:Drivers/STM32F4xx_HAL_Driver/Src/stm32f4xx_hal_tim.c ****   /* Release Lock */
 262:Drivers/STM32F4xx_HAL_Driver/Src/stm32f4xx_hal_tim.c ****   __HAL_UNLOCK(htim);
 160              		.loc 1 262 0
 161 004e 7B68     		ldr	r3, [r7, #4]
 162 0050 0022     		movs	r2, #0
 163 0052 83F83820 		strb	r2, [r3, #56]
 263:Drivers/STM32F4xx_HAL_Driver/Src/stm32f4xx_hal_tim.c **** 
 264:Drivers/STM32F4xx_HAL_Driver/Src/stm32f4xx_hal_tim.c ****   return HAL_OK;
 164              		.loc 1 264 0
 165 0056 0023     		movs	r3, #0
 265:Drivers/STM32F4xx_HAL_Driver/Src/stm32f4xx_hal_tim.c **** }
 166              		.loc 1 265 0
 167 0058 1846     		mov	r0, r3
 168 005a 0837     		adds	r7, r7, #8
 169              	.LCFI8:
 170              		.cfi_def_cfa_offset 8
 171 005c BD46     		mov	sp, r7
 172              	.LCFI9:
 173              		.cfi_def_cfa_register 13
 174              		@ sp needed
 175 005e 80BD     		pop	{r7, pc}
 176              		.cfi_endproc
 177              	.LFE125:
 179              		.section	.text.HAL_TIM_Base_MspInit,"ax",%progbits
 180              		.align	1
 181              		.weak	HAL_TIM_Base_MspInit
 182              		.syntax unified
 183              		.thumb
 184              		.thumb_func
 185              		.fpu fpv4-sp-d16
 187              	HAL_TIM_Base_MspInit:
 188              	.LFB126:
 266:Drivers/STM32F4xx_HAL_Driver/Src/stm32f4xx_hal_tim.c **** 
 267:Drivers/STM32F4xx_HAL_Driver/Src/stm32f4xx_hal_tim.c **** /**
 268:Drivers/STM32F4xx_HAL_Driver/Src/stm32f4xx_hal_tim.c ****   * @brief  Initializes the TIM Base MSP.
 269:Drivers/STM32F4xx_HAL_Driver/Src/stm32f4xx_hal_tim.c ****   * @param  htim pointer to a TIM_HandleTypeDef structure that contains
 270:Drivers/STM32F4xx_HAL_Driver/Src/stm32f4xx_hal_tim.c ****   *                the configuration information for TIM module.
 271:Drivers/STM32F4xx_HAL_Driver/Src/stm32f4xx_hal_tim.c ****   * @retval None
 272:Drivers/STM32F4xx_HAL_Driver/Src/stm32f4xx_hal_tim.c ****   */
 273:Drivers/STM32F4xx_HAL_Driver/Src/stm32f4xx_hal_tim.c **** __weak void HAL_TIM_Base_MspInit(TIM_HandleTypeDef *htim)
ARM GAS  /tmp/cc4tSQEQ.s 			page 9


 274:Drivers/STM32F4xx_HAL_Driver/Src/stm32f4xx_hal_tim.c **** {
 189              		.loc 1 274 0
 190              		.cfi_startproc
 191              		@ args = 0, pretend = 0, frame = 8
 192              		@ frame_needed = 1, uses_anonymous_args = 0
 193              		@ link register save eliminated.
 194 0000 80B4     		push	{r7}
 195              	.LCFI10:
 196              		.cfi_def_cfa_offset 4
 197              		.cfi_offset 7, -4
 198 0002 83B0     		sub	sp, sp, #12
 199              	.LCFI11:
 200              		.cfi_def_cfa_offset 16
 201 0004 00AF     		add	r7, sp, #0
 202              	.LCFI12:
 203              		.cfi_def_cfa_register 7
 204 0006 7860     		str	r0, [r7, #4]
 275:Drivers/STM32F4xx_HAL_Driver/Src/stm32f4xx_hal_tim.c ****   /* Prevent unused argument(s) compilation warning */
 276:Drivers/STM32F4xx_HAL_Driver/Src/stm32f4xx_hal_tim.c ****   UNUSED(htim);
 277:Drivers/STM32F4xx_HAL_Driver/Src/stm32f4xx_hal_tim.c ****   /* NOTE : This function Should not be modified, when the callback is needed,
 278:Drivers/STM32F4xx_HAL_Driver/Src/stm32f4xx_hal_tim.c ****             the HAL_TIM_Base_MspInit could be implemented in the user file
 279:Drivers/STM32F4xx_HAL_Driver/Src/stm32f4xx_hal_tim.c ****    */
 280:Drivers/STM32F4xx_HAL_Driver/Src/stm32f4xx_hal_tim.c **** }
 205              		.loc 1 280 0
 206 0008 00BF     		nop
 207 000a 0C37     		adds	r7, r7, #12
 208              	.LCFI13:
 209              		.cfi_def_cfa_offset 4
 210 000c BD46     		mov	sp, r7
 211              	.LCFI14:
 212              		.cfi_def_cfa_register 13
 213              		@ sp needed
 214 000e 5DF8047B 		ldr	r7, [sp], #4
 215              	.LCFI15:
 216              		.cfi_restore 7
 217              		.cfi_def_cfa_offset 0
 218 0012 7047     		bx	lr
 219              		.cfi_endproc
 220              	.LFE126:
 222              		.section	.text.HAL_TIM_Base_MspDeInit,"ax",%progbits
 223              		.align	1
 224              		.weak	HAL_TIM_Base_MspDeInit
 225              		.syntax unified
 226              		.thumb
 227              		.thumb_func
 228              		.fpu fpv4-sp-d16
 230              	HAL_TIM_Base_MspDeInit:
 231              	.LFB127:
 281:Drivers/STM32F4xx_HAL_Driver/Src/stm32f4xx_hal_tim.c **** 
 282:Drivers/STM32F4xx_HAL_Driver/Src/stm32f4xx_hal_tim.c **** /**
 283:Drivers/STM32F4xx_HAL_Driver/Src/stm32f4xx_hal_tim.c ****   * @brief  DeInitializes TIM Base MSP.
 284:Drivers/STM32F4xx_HAL_Driver/Src/stm32f4xx_hal_tim.c ****   * @param  htim pointer to a TIM_HandleTypeDef structure that contains
 285:Drivers/STM32F4xx_HAL_Driver/Src/stm32f4xx_hal_tim.c ****   *                the configuration information for TIM module.
 286:Drivers/STM32F4xx_HAL_Driver/Src/stm32f4xx_hal_tim.c ****   * @retval None
 287:Drivers/STM32F4xx_HAL_Driver/Src/stm32f4xx_hal_tim.c ****   */
 288:Drivers/STM32F4xx_HAL_Driver/Src/stm32f4xx_hal_tim.c **** __weak void HAL_TIM_Base_MspDeInit(TIM_HandleTypeDef *htim)
 289:Drivers/STM32F4xx_HAL_Driver/Src/stm32f4xx_hal_tim.c **** {
ARM GAS  /tmp/cc4tSQEQ.s 			page 10


 232              		.loc 1 289 0
 233              		.cfi_startproc
 234              		@ args = 0, pretend = 0, frame = 8
 235              		@ frame_needed = 1, uses_anonymous_args = 0
 236              		@ link register save eliminated.
 237 0000 80B4     		push	{r7}
 238              	.LCFI16:
 239              		.cfi_def_cfa_offset 4
 240              		.cfi_offset 7, -4
 241 0002 83B0     		sub	sp, sp, #12
 242              	.LCFI17:
 243              		.cfi_def_cfa_offset 16
 244 0004 00AF     		add	r7, sp, #0
 245              	.LCFI18:
 246              		.cfi_def_cfa_register 7
 247 0006 7860     		str	r0, [r7, #4]
 290:Drivers/STM32F4xx_HAL_Driver/Src/stm32f4xx_hal_tim.c ****   /* Prevent unused argument(s) compilation warning */
 291:Drivers/STM32F4xx_HAL_Driver/Src/stm32f4xx_hal_tim.c ****   UNUSED(htim);
 292:Drivers/STM32F4xx_HAL_Driver/Src/stm32f4xx_hal_tim.c ****   /* NOTE : This function Should not be modified, when the callback is needed,
 293:Drivers/STM32F4xx_HAL_Driver/Src/stm32f4xx_hal_tim.c ****             the HAL_TIM_Base_MspDeInit could be implemented in the user file
 294:Drivers/STM32F4xx_HAL_Driver/Src/stm32f4xx_hal_tim.c ****    */
 295:Drivers/STM32F4xx_HAL_Driver/Src/stm32f4xx_hal_tim.c **** }
 248              		.loc 1 295 0
 249 0008 00BF     		nop
 250 000a 0C37     		adds	r7, r7, #12
 251              	.LCFI19:
 252              		.cfi_def_cfa_offset 4
 253 000c BD46     		mov	sp, r7
 254              	.LCFI20:
 255              		.cfi_def_cfa_register 13
 256              		@ sp needed
 257 000e 5DF8047B 		ldr	r7, [sp], #4
 258              	.LCFI21:
 259              		.cfi_restore 7
 260              		.cfi_def_cfa_offset 0
 261 0012 7047     		bx	lr
 262              		.cfi_endproc
 263              	.LFE127:
 265              		.section	.text.HAL_TIM_Base_Start,"ax",%progbits
 266              		.align	1
 267              		.global	HAL_TIM_Base_Start
 268              		.syntax unified
 269              		.thumb
 270              		.thumb_func
 271              		.fpu fpv4-sp-d16
 273              	HAL_TIM_Base_Start:
 274              	.LFB128:
 296:Drivers/STM32F4xx_HAL_Driver/Src/stm32f4xx_hal_tim.c **** 
 297:Drivers/STM32F4xx_HAL_Driver/Src/stm32f4xx_hal_tim.c **** /**
 298:Drivers/STM32F4xx_HAL_Driver/Src/stm32f4xx_hal_tim.c ****   * @brief  Starts the TIM Base generation.
 299:Drivers/STM32F4xx_HAL_Driver/Src/stm32f4xx_hal_tim.c ****   * @param  htim pointer to a TIM_HandleTypeDef structure that contains
 300:Drivers/STM32F4xx_HAL_Driver/Src/stm32f4xx_hal_tim.c ****   *                the configuration information for TIM module.
 301:Drivers/STM32F4xx_HAL_Driver/Src/stm32f4xx_hal_tim.c ****   * @retval HAL status
 302:Drivers/STM32F4xx_HAL_Driver/Src/stm32f4xx_hal_tim.c ****   */
 303:Drivers/STM32F4xx_HAL_Driver/Src/stm32f4xx_hal_tim.c **** HAL_StatusTypeDef HAL_TIM_Base_Start(TIM_HandleTypeDef *htim)
 304:Drivers/STM32F4xx_HAL_Driver/Src/stm32f4xx_hal_tim.c **** {
 275              		.loc 1 304 0
ARM GAS  /tmp/cc4tSQEQ.s 			page 11


 276              		.cfi_startproc
 277              		@ args = 0, pretend = 0, frame = 8
 278              		@ frame_needed = 1, uses_anonymous_args = 0
 279              		@ link register save eliminated.
 280 0000 80B4     		push	{r7}
 281              	.LCFI22:
 282              		.cfi_def_cfa_offset 4
 283              		.cfi_offset 7, -4
 284 0002 83B0     		sub	sp, sp, #12
 285              	.LCFI23:
 286              		.cfi_def_cfa_offset 16
 287 0004 00AF     		add	r7, sp, #0
 288              	.LCFI24:
 289              		.cfi_def_cfa_register 7
 290 0006 7860     		str	r0, [r7, #4]
 305:Drivers/STM32F4xx_HAL_Driver/Src/stm32f4xx_hal_tim.c ****   /* Check the parameters */
 306:Drivers/STM32F4xx_HAL_Driver/Src/stm32f4xx_hal_tim.c ****   assert_param(IS_TIM_INSTANCE(htim->Instance));
 307:Drivers/STM32F4xx_HAL_Driver/Src/stm32f4xx_hal_tim.c ****   
 308:Drivers/STM32F4xx_HAL_Driver/Src/stm32f4xx_hal_tim.c ****   /* Set the TIM state */
 309:Drivers/STM32F4xx_HAL_Driver/Src/stm32f4xx_hal_tim.c ****   htim->State= HAL_TIM_STATE_BUSY;
 291              		.loc 1 309 0
 292 0008 7B68     		ldr	r3, [r7, #4]
 293 000a 0222     		movs	r2, #2
 294 000c 83F83920 		strb	r2, [r3, #57]
 310:Drivers/STM32F4xx_HAL_Driver/Src/stm32f4xx_hal_tim.c ****   
 311:Drivers/STM32F4xx_HAL_Driver/Src/stm32f4xx_hal_tim.c ****   /* Enable the Peripheral */
 312:Drivers/STM32F4xx_HAL_Driver/Src/stm32f4xx_hal_tim.c ****   __HAL_TIM_ENABLE(htim);
 295              		.loc 1 312 0
 296 0010 7B68     		ldr	r3, [r7, #4]
 297 0012 1B68     		ldr	r3, [r3]
 298 0014 7A68     		ldr	r2, [r7, #4]
 299 0016 1268     		ldr	r2, [r2]
 300 0018 1268     		ldr	r2, [r2]
 301 001a 42F00102 		orr	r2, r2, #1
 302 001e 1A60     		str	r2, [r3]
 313:Drivers/STM32F4xx_HAL_Driver/Src/stm32f4xx_hal_tim.c ****   
 314:Drivers/STM32F4xx_HAL_Driver/Src/stm32f4xx_hal_tim.c ****   /* Change the TIM state*/
 315:Drivers/STM32F4xx_HAL_Driver/Src/stm32f4xx_hal_tim.c ****   htim->State= HAL_TIM_STATE_READY;
 303              		.loc 1 315 0
 304 0020 7B68     		ldr	r3, [r7, #4]
 305 0022 0122     		movs	r2, #1
 306 0024 83F83920 		strb	r2, [r3, #57]
 316:Drivers/STM32F4xx_HAL_Driver/Src/stm32f4xx_hal_tim.c ****   
 317:Drivers/STM32F4xx_HAL_Driver/Src/stm32f4xx_hal_tim.c ****   /* Return function status */
 318:Drivers/STM32F4xx_HAL_Driver/Src/stm32f4xx_hal_tim.c ****   return HAL_OK;
 307              		.loc 1 318 0
 308 0028 0023     		movs	r3, #0
 319:Drivers/STM32F4xx_HAL_Driver/Src/stm32f4xx_hal_tim.c **** }
 309              		.loc 1 319 0
 310 002a 1846     		mov	r0, r3
 311 002c 0C37     		adds	r7, r7, #12
 312              	.LCFI25:
 313              		.cfi_def_cfa_offset 4
 314 002e BD46     		mov	sp, r7
 315              	.LCFI26:
 316              		.cfi_def_cfa_register 13
 317              		@ sp needed
ARM GAS  /tmp/cc4tSQEQ.s 			page 12


 318 0030 5DF8047B 		ldr	r7, [sp], #4
 319              	.LCFI27:
 320              		.cfi_restore 7
 321              		.cfi_def_cfa_offset 0
 322 0034 7047     		bx	lr
 323              		.cfi_endproc
 324              	.LFE128:
 326              		.section	.text.HAL_TIM_Base_Stop,"ax",%progbits
 327              		.align	1
 328              		.global	HAL_TIM_Base_Stop
 329              		.syntax unified
 330              		.thumb
 331              		.thumb_func
 332              		.fpu fpv4-sp-d16
 334              	HAL_TIM_Base_Stop:
 335              	.LFB129:
 320:Drivers/STM32F4xx_HAL_Driver/Src/stm32f4xx_hal_tim.c **** 
 321:Drivers/STM32F4xx_HAL_Driver/Src/stm32f4xx_hal_tim.c **** /**
 322:Drivers/STM32F4xx_HAL_Driver/Src/stm32f4xx_hal_tim.c ****   * @brief  Stops the TIM Base generation.
 323:Drivers/STM32F4xx_HAL_Driver/Src/stm32f4xx_hal_tim.c ****   * @param  htim pointer to a TIM_HandleTypeDef structure that contains
 324:Drivers/STM32F4xx_HAL_Driver/Src/stm32f4xx_hal_tim.c ****   *                the configuration information for TIM module.
 325:Drivers/STM32F4xx_HAL_Driver/Src/stm32f4xx_hal_tim.c ****   * @retval HAL status
 326:Drivers/STM32F4xx_HAL_Driver/Src/stm32f4xx_hal_tim.c ****   */
 327:Drivers/STM32F4xx_HAL_Driver/Src/stm32f4xx_hal_tim.c **** HAL_StatusTypeDef HAL_TIM_Base_Stop(TIM_HandleTypeDef *htim)
 328:Drivers/STM32F4xx_HAL_Driver/Src/stm32f4xx_hal_tim.c **** {
 336              		.loc 1 328 0
 337              		.cfi_startproc
 338              		@ args = 0, pretend = 0, frame = 8
 339              		@ frame_needed = 1, uses_anonymous_args = 0
 340              		@ link register save eliminated.
 341 0000 80B4     		push	{r7}
 342              	.LCFI28:
 343              		.cfi_def_cfa_offset 4
 344              		.cfi_offset 7, -4
 345 0002 83B0     		sub	sp, sp, #12
 346              	.LCFI29:
 347              		.cfi_def_cfa_offset 16
 348 0004 00AF     		add	r7, sp, #0
 349              	.LCFI30:
 350              		.cfi_def_cfa_register 7
 351 0006 7860     		str	r0, [r7, #4]
 329:Drivers/STM32F4xx_HAL_Driver/Src/stm32f4xx_hal_tim.c ****   /* Check the parameters */
 330:Drivers/STM32F4xx_HAL_Driver/Src/stm32f4xx_hal_tim.c ****   assert_param(IS_TIM_INSTANCE(htim->Instance));
 331:Drivers/STM32F4xx_HAL_Driver/Src/stm32f4xx_hal_tim.c ****   
 332:Drivers/STM32F4xx_HAL_Driver/Src/stm32f4xx_hal_tim.c ****   /* Set the TIM state */
 333:Drivers/STM32F4xx_HAL_Driver/Src/stm32f4xx_hal_tim.c ****   htim->State= HAL_TIM_STATE_BUSY;
 352              		.loc 1 333 0
 353 0008 7B68     		ldr	r3, [r7, #4]
 354 000a 0222     		movs	r2, #2
 355 000c 83F83920 		strb	r2, [r3, #57]
 334:Drivers/STM32F4xx_HAL_Driver/Src/stm32f4xx_hal_tim.c ****   
 335:Drivers/STM32F4xx_HAL_Driver/Src/stm32f4xx_hal_tim.c ****   /* Disable the Peripheral */
 336:Drivers/STM32F4xx_HAL_Driver/Src/stm32f4xx_hal_tim.c ****   __HAL_TIM_DISABLE(htim);
 356              		.loc 1 336 0
 357 0010 7B68     		ldr	r3, [r7, #4]
 358 0012 1B68     		ldr	r3, [r3]
 359 0014 1A6A     		ldr	r2, [r3, #32]
ARM GAS  /tmp/cc4tSQEQ.s 			page 13


 360 0016 41F21113 		movw	r3, #4369
 361 001a 1340     		ands	r3, r3, r2
 362 001c 002B     		cmp	r3, #0
 363 001e 0FD1     		bne	.L13
 364              		.loc 1 336 0 is_stmt 0 discriminator 1
 365 0020 7B68     		ldr	r3, [r7, #4]
 366 0022 1B68     		ldr	r3, [r3]
 367 0024 1A6A     		ldr	r2, [r3, #32]
 368 0026 40F24443 		movw	r3, #1092
 369 002a 1340     		ands	r3, r3, r2
 370 002c 002B     		cmp	r3, #0
 371 002e 07D1     		bne	.L13
 372              		.loc 1 336 0 discriminator 2
 373 0030 7B68     		ldr	r3, [r7, #4]
 374 0032 1B68     		ldr	r3, [r3]
 375 0034 7A68     		ldr	r2, [r7, #4]
 376 0036 1268     		ldr	r2, [r2]
 377 0038 1268     		ldr	r2, [r2]
 378 003a 22F00102 		bic	r2, r2, #1
 379 003e 1A60     		str	r2, [r3]
 380              	.L13:
 337:Drivers/STM32F4xx_HAL_Driver/Src/stm32f4xx_hal_tim.c ****   
 338:Drivers/STM32F4xx_HAL_Driver/Src/stm32f4xx_hal_tim.c ****   /* Change the TIM state*/
 339:Drivers/STM32F4xx_HAL_Driver/Src/stm32f4xx_hal_tim.c ****   htim->State= HAL_TIM_STATE_READY;
 381              		.loc 1 339 0 is_stmt 1
 382 0040 7B68     		ldr	r3, [r7, #4]
 383 0042 0122     		movs	r2, #1
 384 0044 83F83920 		strb	r2, [r3, #57]
 340:Drivers/STM32F4xx_HAL_Driver/Src/stm32f4xx_hal_tim.c ****   
 341:Drivers/STM32F4xx_HAL_Driver/Src/stm32f4xx_hal_tim.c ****   /* Return function status */
 342:Drivers/STM32F4xx_HAL_Driver/Src/stm32f4xx_hal_tim.c ****   return HAL_OK;
 385              		.loc 1 342 0
 386 0048 0023     		movs	r3, #0
 343:Drivers/STM32F4xx_HAL_Driver/Src/stm32f4xx_hal_tim.c **** }
 387              		.loc 1 343 0
 388 004a 1846     		mov	r0, r3
 389 004c 0C37     		adds	r7, r7, #12
 390              	.LCFI31:
 391              		.cfi_def_cfa_offset 4
 392 004e BD46     		mov	sp, r7
 393              	.LCFI32:
 394              		.cfi_def_cfa_register 13
 395              		@ sp needed
 396 0050 5DF8047B 		ldr	r7, [sp], #4
 397              	.LCFI33:
 398              		.cfi_restore 7
 399              		.cfi_def_cfa_offset 0
 400 0054 7047     		bx	lr
 401              		.cfi_endproc
 402              	.LFE129:
 404              		.section	.text.HAL_TIM_Base_Start_IT,"ax",%progbits
 405              		.align	1
 406              		.global	HAL_TIM_Base_Start_IT
 407              		.syntax unified
 408              		.thumb
 409              		.thumb_func
 410              		.fpu fpv4-sp-d16
ARM GAS  /tmp/cc4tSQEQ.s 			page 14


 412              	HAL_TIM_Base_Start_IT:
 413              	.LFB130:
 344:Drivers/STM32F4xx_HAL_Driver/Src/stm32f4xx_hal_tim.c **** 
 345:Drivers/STM32F4xx_HAL_Driver/Src/stm32f4xx_hal_tim.c **** /**
 346:Drivers/STM32F4xx_HAL_Driver/Src/stm32f4xx_hal_tim.c ****   * @brief  Starts the TIM Base generation in interrupt mode.
 347:Drivers/STM32F4xx_HAL_Driver/Src/stm32f4xx_hal_tim.c ****   * @param  htim pointer to a TIM_HandleTypeDef structure that contains
 348:Drivers/STM32F4xx_HAL_Driver/Src/stm32f4xx_hal_tim.c ****   *                the configuration information for TIM module.
 349:Drivers/STM32F4xx_HAL_Driver/Src/stm32f4xx_hal_tim.c ****   * @retval HAL status
 350:Drivers/STM32F4xx_HAL_Driver/Src/stm32f4xx_hal_tim.c ****   */
 351:Drivers/STM32F4xx_HAL_Driver/Src/stm32f4xx_hal_tim.c **** HAL_StatusTypeDef HAL_TIM_Base_Start_IT(TIM_HandleTypeDef *htim)
 352:Drivers/STM32F4xx_HAL_Driver/Src/stm32f4xx_hal_tim.c **** {
 414              		.loc 1 352 0
 415              		.cfi_startproc
 416              		@ args = 0, pretend = 0, frame = 8
 417              		@ frame_needed = 1, uses_anonymous_args = 0
 418              		@ link register save eliminated.
 419 0000 80B4     		push	{r7}
 420              	.LCFI34:
 421              		.cfi_def_cfa_offset 4
 422              		.cfi_offset 7, -4
 423 0002 83B0     		sub	sp, sp, #12
 424              	.LCFI35:
 425              		.cfi_def_cfa_offset 16
 426 0004 00AF     		add	r7, sp, #0
 427              	.LCFI36:
 428              		.cfi_def_cfa_register 7
 429 0006 7860     		str	r0, [r7, #4]
 353:Drivers/STM32F4xx_HAL_Driver/Src/stm32f4xx_hal_tim.c ****   /* Check the parameters */
 354:Drivers/STM32F4xx_HAL_Driver/Src/stm32f4xx_hal_tim.c ****   assert_param(IS_TIM_INSTANCE(htim->Instance));
 355:Drivers/STM32F4xx_HAL_Driver/Src/stm32f4xx_hal_tim.c ****   
 356:Drivers/STM32F4xx_HAL_Driver/Src/stm32f4xx_hal_tim.c ****   /* Enable the TIM Update interrupt */
 357:Drivers/STM32F4xx_HAL_Driver/Src/stm32f4xx_hal_tim.c ****   __HAL_TIM_ENABLE_IT(htim, TIM_IT_UPDATE);
 430              		.loc 1 357 0
 431 0008 7B68     		ldr	r3, [r7, #4]
 432 000a 1B68     		ldr	r3, [r3]
 433 000c 7A68     		ldr	r2, [r7, #4]
 434 000e 1268     		ldr	r2, [r2]
 435 0010 D268     		ldr	r2, [r2, #12]
 436 0012 42F00102 		orr	r2, r2, #1
 437 0016 DA60     		str	r2, [r3, #12]
 358:Drivers/STM32F4xx_HAL_Driver/Src/stm32f4xx_hal_tim.c ****       
 359:Drivers/STM32F4xx_HAL_Driver/Src/stm32f4xx_hal_tim.c ****   /* Enable the Peripheral */
 360:Drivers/STM32F4xx_HAL_Driver/Src/stm32f4xx_hal_tim.c ****   __HAL_TIM_ENABLE(htim);
 438              		.loc 1 360 0
 439 0018 7B68     		ldr	r3, [r7, #4]
 440 001a 1B68     		ldr	r3, [r3]
 441 001c 7A68     		ldr	r2, [r7, #4]
 442 001e 1268     		ldr	r2, [r2]
 443 0020 1268     		ldr	r2, [r2]
 444 0022 42F00102 		orr	r2, r2, #1
 445 0026 1A60     		str	r2, [r3]
 361:Drivers/STM32F4xx_HAL_Driver/Src/stm32f4xx_hal_tim.c ****       
 362:Drivers/STM32F4xx_HAL_Driver/Src/stm32f4xx_hal_tim.c ****   /* Return function status */
 363:Drivers/STM32F4xx_HAL_Driver/Src/stm32f4xx_hal_tim.c ****   return HAL_OK;
 446              		.loc 1 363 0
 447 0028 0023     		movs	r3, #0
 364:Drivers/STM32F4xx_HAL_Driver/Src/stm32f4xx_hal_tim.c **** }
ARM GAS  /tmp/cc4tSQEQ.s 			page 15


 448              		.loc 1 364 0
 449 002a 1846     		mov	r0, r3
 450 002c 0C37     		adds	r7, r7, #12
 451              	.LCFI37:
 452              		.cfi_def_cfa_offset 4
 453 002e BD46     		mov	sp, r7
 454              	.LCFI38:
 455              		.cfi_def_cfa_register 13
 456              		@ sp needed
 457 0030 5DF8047B 		ldr	r7, [sp], #4
 458              	.LCFI39:
 459              		.cfi_restore 7
 460              		.cfi_def_cfa_offset 0
 461 0034 7047     		bx	lr
 462              		.cfi_endproc
 463              	.LFE130:
 465              		.section	.text.HAL_TIM_Base_Stop_IT,"ax",%progbits
 466              		.align	1
 467              		.global	HAL_TIM_Base_Stop_IT
 468              		.syntax unified
 469              		.thumb
 470              		.thumb_func
 471              		.fpu fpv4-sp-d16
 473              	HAL_TIM_Base_Stop_IT:
 474              	.LFB131:
 365:Drivers/STM32F4xx_HAL_Driver/Src/stm32f4xx_hal_tim.c **** 
 366:Drivers/STM32F4xx_HAL_Driver/Src/stm32f4xx_hal_tim.c **** /**
 367:Drivers/STM32F4xx_HAL_Driver/Src/stm32f4xx_hal_tim.c ****   * @brief  Stops the TIM Base generation in interrupt mode.
 368:Drivers/STM32F4xx_HAL_Driver/Src/stm32f4xx_hal_tim.c ****   * @param  htim pointer to a TIM_HandleTypeDef structure that contains
 369:Drivers/STM32F4xx_HAL_Driver/Src/stm32f4xx_hal_tim.c ****   *                the configuration information for TIM module.
 370:Drivers/STM32F4xx_HAL_Driver/Src/stm32f4xx_hal_tim.c ****   * @retval HAL status
 371:Drivers/STM32F4xx_HAL_Driver/Src/stm32f4xx_hal_tim.c ****   */
 372:Drivers/STM32F4xx_HAL_Driver/Src/stm32f4xx_hal_tim.c **** HAL_StatusTypeDef HAL_TIM_Base_Stop_IT(TIM_HandleTypeDef *htim)
 373:Drivers/STM32F4xx_HAL_Driver/Src/stm32f4xx_hal_tim.c **** {
 475              		.loc 1 373 0
 476              		.cfi_startproc
 477              		@ args = 0, pretend = 0, frame = 8
 478              		@ frame_needed = 1, uses_anonymous_args = 0
 479              		@ link register save eliminated.
 480 0000 80B4     		push	{r7}
 481              	.LCFI40:
 482              		.cfi_def_cfa_offset 4
 483              		.cfi_offset 7, -4
 484 0002 83B0     		sub	sp, sp, #12
 485              	.LCFI41:
 486              		.cfi_def_cfa_offset 16
 487 0004 00AF     		add	r7, sp, #0
 488              	.LCFI42:
 489              		.cfi_def_cfa_register 7
 490 0006 7860     		str	r0, [r7, #4]
 374:Drivers/STM32F4xx_HAL_Driver/Src/stm32f4xx_hal_tim.c ****   /* Check the parameters */
 375:Drivers/STM32F4xx_HAL_Driver/Src/stm32f4xx_hal_tim.c ****   assert_param(IS_TIM_INSTANCE(htim->Instance));
 376:Drivers/STM32F4xx_HAL_Driver/Src/stm32f4xx_hal_tim.c ****   /* Disable the TIM Update interrupt */
 377:Drivers/STM32F4xx_HAL_Driver/Src/stm32f4xx_hal_tim.c ****   __HAL_TIM_DISABLE_IT(htim, TIM_IT_UPDATE);
 491              		.loc 1 377 0
 492 0008 7B68     		ldr	r3, [r7, #4]
 493 000a 1B68     		ldr	r3, [r3]
ARM GAS  /tmp/cc4tSQEQ.s 			page 16


 494 000c 7A68     		ldr	r2, [r7, #4]
 495 000e 1268     		ldr	r2, [r2]
 496 0010 D268     		ldr	r2, [r2, #12]
 497 0012 22F00102 		bic	r2, r2, #1
 498 0016 DA60     		str	r2, [r3, #12]
 378:Drivers/STM32F4xx_HAL_Driver/Src/stm32f4xx_hal_tim.c ****       
 379:Drivers/STM32F4xx_HAL_Driver/Src/stm32f4xx_hal_tim.c ****   /* Disable the Peripheral */
 380:Drivers/STM32F4xx_HAL_Driver/Src/stm32f4xx_hal_tim.c ****   __HAL_TIM_DISABLE(htim);
 499              		.loc 1 380 0
 500 0018 7B68     		ldr	r3, [r7, #4]
 501 001a 1B68     		ldr	r3, [r3]
 502 001c 1A6A     		ldr	r2, [r3, #32]
 503 001e 41F21113 		movw	r3, #4369
 504 0022 1340     		ands	r3, r3, r2
 505 0024 002B     		cmp	r3, #0
 506 0026 0FD1     		bne	.L18
 507              		.loc 1 380 0 is_stmt 0 discriminator 1
 508 0028 7B68     		ldr	r3, [r7, #4]
 509 002a 1B68     		ldr	r3, [r3]
 510 002c 1A6A     		ldr	r2, [r3, #32]
 511 002e 40F24443 		movw	r3, #1092
 512 0032 1340     		ands	r3, r3, r2
 513 0034 002B     		cmp	r3, #0
 514 0036 07D1     		bne	.L18
 515              		.loc 1 380 0 discriminator 2
 516 0038 7B68     		ldr	r3, [r7, #4]
 517 003a 1B68     		ldr	r3, [r3]
 518 003c 7A68     		ldr	r2, [r7, #4]
 519 003e 1268     		ldr	r2, [r2]
 520 0040 1268     		ldr	r2, [r2]
 521 0042 22F00102 		bic	r2, r2, #1
 522 0046 1A60     		str	r2, [r3]
 523              	.L18:
 381:Drivers/STM32F4xx_HAL_Driver/Src/stm32f4xx_hal_tim.c ****     
 382:Drivers/STM32F4xx_HAL_Driver/Src/stm32f4xx_hal_tim.c ****   /* Return function status */
 383:Drivers/STM32F4xx_HAL_Driver/Src/stm32f4xx_hal_tim.c ****   return HAL_OK;
 524              		.loc 1 383 0 is_stmt 1
 525 0048 0023     		movs	r3, #0
 384:Drivers/STM32F4xx_HAL_Driver/Src/stm32f4xx_hal_tim.c **** }
 526              		.loc 1 384 0
 527 004a 1846     		mov	r0, r3
 528 004c 0C37     		adds	r7, r7, #12
 529              	.LCFI43:
 530              		.cfi_def_cfa_offset 4
 531 004e BD46     		mov	sp, r7
 532              	.LCFI44:
 533              		.cfi_def_cfa_register 13
 534              		@ sp needed
 535 0050 5DF8047B 		ldr	r7, [sp], #4
 536              	.LCFI45:
 537              		.cfi_restore 7
 538              		.cfi_def_cfa_offset 0
 539 0054 7047     		bx	lr
 540              		.cfi_endproc
 541              	.LFE131:
 543              		.section	.text.HAL_TIM_Base_Start_DMA,"ax",%progbits
 544              		.align	1
ARM GAS  /tmp/cc4tSQEQ.s 			page 17


 545              		.global	HAL_TIM_Base_Start_DMA
 546              		.syntax unified
 547              		.thumb
 548              		.thumb_func
 549              		.fpu fpv4-sp-d16
 551              	HAL_TIM_Base_Start_DMA:
 552              	.LFB132:
 385:Drivers/STM32F4xx_HAL_Driver/Src/stm32f4xx_hal_tim.c **** 
 386:Drivers/STM32F4xx_HAL_Driver/Src/stm32f4xx_hal_tim.c **** /**
 387:Drivers/STM32F4xx_HAL_Driver/Src/stm32f4xx_hal_tim.c ****   * @brief  Starts the TIM Base generation in DMA mode.
 388:Drivers/STM32F4xx_HAL_Driver/Src/stm32f4xx_hal_tim.c ****   * @param  htim pointer to a TIM_HandleTypeDef structure that contains
 389:Drivers/STM32F4xx_HAL_Driver/Src/stm32f4xx_hal_tim.c ****   *                the configuration information for TIM module.
 390:Drivers/STM32F4xx_HAL_Driver/Src/stm32f4xx_hal_tim.c ****   * @param  pData The source Buffer address.
 391:Drivers/STM32F4xx_HAL_Driver/Src/stm32f4xx_hal_tim.c ****   * @param  Length The length of data to be transferred from memory to peripheral.
 392:Drivers/STM32F4xx_HAL_Driver/Src/stm32f4xx_hal_tim.c ****   * @retval HAL status
 393:Drivers/STM32F4xx_HAL_Driver/Src/stm32f4xx_hal_tim.c ****   */
 394:Drivers/STM32F4xx_HAL_Driver/Src/stm32f4xx_hal_tim.c **** HAL_StatusTypeDef HAL_TIM_Base_Start_DMA(TIM_HandleTypeDef *htim, uint32_t *pData, uint16_t Length)
 395:Drivers/STM32F4xx_HAL_Driver/Src/stm32f4xx_hal_tim.c **** {
 553              		.loc 1 395 0
 554              		.cfi_startproc
 555              		@ args = 0, pretend = 0, frame = 16
 556              		@ frame_needed = 1, uses_anonymous_args = 0
 557 0000 80B5     		push	{r7, lr}
 558              	.LCFI46:
 559              		.cfi_def_cfa_offset 8
 560              		.cfi_offset 7, -8
 561              		.cfi_offset 14, -4
 562 0002 84B0     		sub	sp, sp, #16
 563              	.LCFI47:
 564              		.cfi_def_cfa_offset 24
 565 0004 00AF     		add	r7, sp, #0
 566              	.LCFI48:
 567              		.cfi_def_cfa_register 7
 568 0006 F860     		str	r0, [r7, #12]
 569 0008 B960     		str	r1, [r7, #8]
 570 000a 1346     		mov	r3, r2
 571 000c FB80     		strh	r3, [r7, #6]	@ movhi
 396:Drivers/STM32F4xx_HAL_Driver/Src/stm32f4xx_hal_tim.c ****   /* Check the parameters */
 397:Drivers/STM32F4xx_HAL_Driver/Src/stm32f4xx_hal_tim.c ****   assert_param(IS_TIM_DMA_INSTANCE(htim->Instance)); 
 398:Drivers/STM32F4xx_HAL_Driver/Src/stm32f4xx_hal_tim.c ****   
 399:Drivers/STM32F4xx_HAL_Driver/Src/stm32f4xx_hal_tim.c ****   if((htim->State == HAL_TIM_STATE_BUSY))
 572              		.loc 1 399 0
 573 000e FB68     		ldr	r3, [r7, #12]
 574 0010 93F83930 		ldrb	r3, [r3, #57]
 575 0014 DBB2     		uxtb	r3, r3
 576 0016 022B     		cmp	r3, #2
 577 0018 01D1     		bne	.L21
 400:Drivers/STM32F4xx_HAL_Driver/Src/stm32f4xx_hal_tim.c ****   {
 401:Drivers/STM32F4xx_HAL_Driver/Src/stm32f4xx_hal_tim.c ****      return HAL_BUSY;
 578              		.loc 1 401 0
 579 001a 0223     		movs	r3, #2
 580 001c 34E0     		b	.L22
 581              	.L21:
 402:Drivers/STM32F4xx_HAL_Driver/Src/stm32f4xx_hal_tim.c ****   }
 403:Drivers/STM32F4xx_HAL_Driver/Src/stm32f4xx_hal_tim.c ****   else if((htim->State == HAL_TIM_STATE_READY))
 582              		.loc 1 403 0
 583 001e FB68     		ldr	r3, [r7, #12]
ARM GAS  /tmp/cc4tSQEQ.s 			page 18


 584 0020 93F83930 		ldrb	r3, [r3, #57]
 585 0024 DBB2     		uxtb	r3, r3
 586 0026 012B     		cmp	r3, #1
 587 0028 0BD1     		bne	.L23
 404:Drivers/STM32F4xx_HAL_Driver/Src/stm32f4xx_hal_tim.c ****   {
 405:Drivers/STM32F4xx_HAL_Driver/Src/stm32f4xx_hal_tim.c ****     if((pData == 0U) && (Length > 0)) 
 588              		.loc 1 405 0
 589 002a BB68     		ldr	r3, [r7, #8]
 590 002c 002B     		cmp	r3, #0
 591 002e 04D1     		bne	.L24
 592              		.loc 1 405 0 is_stmt 0 discriminator 1
 593 0030 FB88     		ldrh	r3, [r7, #6]
 594 0032 002B     		cmp	r3, #0
 595 0034 01D0     		beq	.L24
 406:Drivers/STM32F4xx_HAL_Driver/Src/stm32f4xx_hal_tim.c ****     {
 407:Drivers/STM32F4xx_HAL_Driver/Src/stm32f4xx_hal_tim.c ****       return HAL_ERROR;                                    
 596              		.loc 1 407 0 is_stmt 1
 597 0036 0123     		movs	r3, #1
 598 0038 26E0     		b	.L22
 599              	.L24:
 408:Drivers/STM32F4xx_HAL_Driver/Src/stm32f4xx_hal_tim.c ****     }
 409:Drivers/STM32F4xx_HAL_Driver/Src/stm32f4xx_hal_tim.c ****     else
 410:Drivers/STM32F4xx_HAL_Driver/Src/stm32f4xx_hal_tim.c ****     {
 411:Drivers/STM32F4xx_HAL_Driver/Src/stm32f4xx_hal_tim.c ****       htim->State = HAL_TIM_STATE_BUSY;
 600              		.loc 1 411 0
 601 003a FB68     		ldr	r3, [r7, #12]
 602 003c 0222     		movs	r2, #2
 603 003e 83F83920 		strb	r2, [r3, #57]
 604              	.L23:
 412:Drivers/STM32F4xx_HAL_Driver/Src/stm32f4xx_hal_tim.c ****     }
 413:Drivers/STM32F4xx_HAL_Driver/Src/stm32f4xx_hal_tim.c ****   }  
 414:Drivers/STM32F4xx_HAL_Driver/Src/stm32f4xx_hal_tim.c ****   /* Set the DMA Period elapsed callback */
 415:Drivers/STM32F4xx_HAL_Driver/Src/stm32f4xx_hal_tim.c ****   htim->hdma[TIM_DMA_ID_UPDATE]->XferCpltCallback = TIM_DMAPeriodElapsedCplt;
 605              		.loc 1 415 0
 606 0042 FB68     		ldr	r3, [r7, #12]
 607 0044 DB69     		ldr	r3, [r3, #28]
 608 0046 124A     		ldr	r2, .L25
 609 0048 DA63     		str	r2, [r3, #60]
 416:Drivers/STM32F4xx_HAL_Driver/Src/stm32f4xx_hal_tim.c ****      
 417:Drivers/STM32F4xx_HAL_Driver/Src/stm32f4xx_hal_tim.c ****   /* Set the DMA error callback */
 418:Drivers/STM32F4xx_HAL_Driver/Src/stm32f4xx_hal_tim.c ****   htim->hdma[TIM_DMA_ID_UPDATE]->XferErrorCallback = TIM_DMAError ;
 610              		.loc 1 418 0
 611 004a FB68     		ldr	r3, [r7, #12]
 612 004c DB69     		ldr	r3, [r3, #28]
 613 004e 114A     		ldr	r2, .L25+4
 614 0050 DA64     		str	r2, [r3, #76]
 419:Drivers/STM32F4xx_HAL_Driver/Src/stm32f4xx_hal_tim.c ****   
 420:Drivers/STM32F4xx_HAL_Driver/Src/stm32f4xx_hal_tim.c ****   /* Enable the DMA Stream */
 421:Drivers/STM32F4xx_HAL_Driver/Src/stm32f4xx_hal_tim.c ****   HAL_DMA_Start_IT(htim->hdma[TIM_DMA_ID_UPDATE], (uint32_t)pData, (uint32_t)&htim->Instance->ARR, 
 615              		.loc 1 421 0
 616 0052 FB68     		ldr	r3, [r7, #12]
 617 0054 D869     		ldr	r0, [r3, #28]
 618 0056 B968     		ldr	r1, [r7, #8]
 619 0058 FB68     		ldr	r3, [r7, #12]
 620 005a 1B68     		ldr	r3, [r3]
 621 005c 2C33     		adds	r3, r3, #44
 622 005e 1A46     		mov	r2, r3
ARM GAS  /tmp/cc4tSQEQ.s 			page 19


 623 0060 FB88     		ldrh	r3, [r7, #6]
 624 0062 FFF7FEFF 		bl	HAL_DMA_Start_IT
 422:Drivers/STM32F4xx_HAL_Driver/Src/stm32f4xx_hal_tim.c ****   
 423:Drivers/STM32F4xx_HAL_Driver/Src/stm32f4xx_hal_tim.c ****   /* Enable the TIM Update DMA request */
 424:Drivers/STM32F4xx_HAL_Driver/Src/stm32f4xx_hal_tim.c ****   __HAL_TIM_ENABLE_DMA(htim, TIM_DMA_UPDATE);
 625              		.loc 1 424 0
 626 0066 FB68     		ldr	r3, [r7, #12]
 627 0068 1B68     		ldr	r3, [r3]
 628 006a FA68     		ldr	r2, [r7, #12]
 629 006c 1268     		ldr	r2, [r2]
 630 006e D268     		ldr	r2, [r2, #12]
 631 0070 42F48072 		orr	r2, r2, #256
 632 0074 DA60     		str	r2, [r3, #12]
 425:Drivers/STM32F4xx_HAL_Driver/Src/stm32f4xx_hal_tim.c **** 
 426:Drivers/STM32F4xx_HAL_Driver/Src/stm32f4xx_hal_tim.c ****   /* Enable the Peripheral */
 427:Drivers/STM32F4xx_HAL_Driver/Src/stm32f4xx_hal_tim.c ****   __HAL_TIM_ENABLE(htim);  
 633              		.loc 1 427 0
 634 0076 FB68     		ldr	r3, [r7, #12]
 635 0078 1B68     		ldr	r3, [r3]
 636 007a FA68     		ldr	r2, [r7, #12]
 637 007c 1268     		ldr	r2, [r2]
 638 007e 1268     		ldr	r2, [r2]
 639 0080 42F00102 		orr	r2, r2, #1
 640 0084 1A60     		str	r2, [r3]
 428:Drivers/STM32F4xx_HAL_Driver/Src/stm32f4xx_hal_tim.c ****   
 429:Drivers/STM32F4xx_HAL_Driver/Src/stm32f4xx_hal_tim.c ****   /* Return function status */
 430:Drivers/STM32F4xx_HAL_Driver/Src/stm32f4xx_hal_tim.c ****   return HAL_OK;
 641              		.loc 1 430 0
 642 0086 0023     		movs	r3, #0
 643              	.L22:
 431:Drivers/STM32F4xx_HAL_Driver/Src/stm32f4xx_hal_tim.c **** }
 644              		.loc 1 431 0
 645 0088 1846     		mov	r0, r3
 646 008a 1037     		adds	r7, r7, #16
 647              	.LCFI49:
 648              		.cfi_def_cfa_offset 8
 649 008c BD46     		mov	sp, r7
 650              	.LCFI50:
 651              		.cfi_def_cfa_register 13
 652              		@ sp needed
 653 008e 80BD     		pop	{r7, pc}
 654              	.L26:
 655              		.align	2
 656              	.L25:
 657 0090 00000000 		.word	TIM_DMAPeriodElapsedCplt
 658 0094 00000000 		.word	TIM_DMAError
 659              		.cfi_endproc
 660              	.LFE132:
 662              		.section	.text.HAL_TIM_Base_Stop_DMA,"ax",%progbits
 663              		.align	1
 664              		.global	HAL_TIM_Base_Stop_DMA
 665              		.syntax unified
 666              		.thumb
 667              		.thumb_func
 668              		.fpu fpv4-sp-d16
 670              	HAL_TIM_Base_Stop_DMA:
 671              	.LFB133:
ARM GAS  /tmp/cc4tSQEQ.s 			page 20


 432:Drivers/STM32F4xx_HAL_Driver/Src/stm32f4xx_hal_tim.c **** 
 433:Drivers/STM32F4xx_HAL_Driver/Src/stm32f4xx_hal_tim.c **** /**
 434:Drivers/STM32F4xx_HAL_Driver/Src/stm32f4xx_hal_tim.c ****   * @brief  Stops the TIM Base generation in DMA mode.
 435:Drivers/STM32F4xx_HAL_Driver/Src/stm32f4xx_hal_tim.c ****   * @param  htim pointer to a TIM_HandleTypeDef structure that contains
 436:Drivers/STM32F4xx_HAL_Driver/Src/stm32f4xx_hal_tim.c ****   *                the configuration information for TIM module.
 437:Drivers/STM32F4xx_HAL_Driver/Src/stm32f4xx_hal_tim.c ****   * @retval HAL status
 438:Drivers/STM32F4xx_HAL_Driver/Src/stm32f4xx_hal_tim.c ****   */
 439:Drivers/STM32F4xx_HAL_Driver/Src/stm32f4xx_hal_tim.c **** HAL_StatusTypeDef HAL_TIM_Base_Stop_DMA(TIM_HandleTypeDef *htim)
 440:Drivers/STM32F4xx_HAL_Driver/Src/stm32f4xx_hal_tim.c **** {
 672              		.loc 1 440 0
 673              		.cfi_startproc
 674              		@ args = 0, pretend = 0, frame = 8
 675              		@ frame_needed = 1, uses_anonymous_args = 0
 676              		@ link register save eliminated.
 677 0000 80B4     		push	{r7}
 678              	.LCFI51:
 679              		.cfi_def_cfa_offset 4
 680              		.cfi_offset 7, -4
 681 0002 83B0     		sub	sp, sp, #12
 682              	.LCFI52:
 683              		.cfi_def_cfa_offset 16
 684 0004 00AF     		add	r7, sp, #0
 685              	.LCFI53:
 686              		.cfi_def_cfa_register 7
 687 0006 7860     		str	r0, [r7, #4]
 441:Drivers/STM32F4xx_HAL_Driver/Src/stm32f4xx_hal_tim.c ****   /* Check the parameters */
 442:Drivers/STM32F4xx_HAL_Driver/Src/stm32f4xx_hal_tim.c ****   assert_param(IS_TIM_DMA_INSTANCE(htim->Instance));
 443:Drivers/STM32F4xx_HAL_Driver/Src/stm32f4xx_hal_tim.c ****   
 444:Drivers/STM32F4xx_HAL_Driver/Src/stm32f4xx_hal_tim.c ****   /* Disable the TIM Update DMA request */
 445:Drivers/STM32F4xx_HAL_Driver/Src/stm32f4xx_hal_tim.c ****   __HAL_TIM_DISABLE_DMA(htim, TIM_DMA_UPDATE);
 688              		.loc 1 445 0
 689 0008 7B68     		ldr	r3, [r7, #4]
 690 000a 1B68     		ldr	r3, [r3]
 691 000c 7A68     		ldr	r2, [r7, #4]
 692 000e 1268     		ldr	r2, [r2]
 693 0010 D268     		ldr	r2, [r2, #12]
 694 0012 22F48072 		bic	r2, r2, #256
 695 0016 DA60     		str	r2, [r3, #12]
 446:Drivers/STM32F4xx_HAL_Driver/Src/stm32f4xx_hal_tim.c ****       
 447:Drivers/STM32F4xx_HAL_Driver/Src/stm32f4xx_hal_tim.c ****   /* Disable the Peripheral */
 448:Drivers/STM32F4xx_HAL_Driver/Src/stm32f4xx_hal_tim.c ****   __HAL_TIM_DISABLE(htim);
 696              		.loc 1 448 0
 697 0018 7B68     		ldr	r3, [r7, #4]
 698 001a 1B68     		ldr	r3, [r3]
 699 001c 1A6A     		ldr	r2, [r3, #32]
 700 001e 41F21113 		movw	r3, #4369
 701 0022 1340     		ands	r3, r3, r2
 702 0024 002B     		cmp	r3, #0
 703 0026 0FD1     		bne	.L28
 704              		.loc 1 448 0 is_stmt 0 discriminator 1
 705 0028 7B68     		ldr	r3, [r7, #4]
 706 002a 1B68     		ldr	r3, [r3]
 707 002c 1A6A     		ldr	r2, [r3, #32]
 708 002e 40F24443 		movw	r3, #1092
 709 0032 1340     		ands	r3, r3, r2
 710 0034 002B     		cmp	r3, #0
 711 0036 07D1     		bne	.L28
ARM GAS  /tmp/cc4tSQEQ.s 			page 21


 712              		.loc 1 448 0 discriminator 2
 713 0038 7B68     		ldr	r3, [r7, #4]
 714 003a 1B68     		ldr	r3, [r3]
 715 003c 7A68     		ldr	r2, [r7, #4]
 716 003e 1268     		ldr	r2, [r2]
 717 0040 1268     		ldr	r2, [r2]
 718 0042 22F00102 		bic	r2, r2, #1
 719 0046 1A60     		str	r2, [r3]
 720              	.L28:
 449:Drivers/STM32F4xx_HAL_Driver/Src/stm32f4xx_hal_tim.c ****     
 450:Drivers/STM32F4xx_HAL_Driver/Src/stm32f4xx_hal_tim.c ****   /* Change the htim state */
 451:Drivers/STM32F4xx_HAL_Driver/Src/stm32f4xx_hal_tim.c ****   htim->State = HAL_TIM_STATE_READY;
 721              		.loc 1 451 0 is_stmt 1
 722 0048 7B68     		ldr	r3, [r7, #4]
 723 004a 0122     		movs	r2, #1
 724 004c 83F83920 		strb	r2, [r3, #57]
 452:Drivers/STM32F4xx_HAL_Driver/Src/stm32f4xx_hal_tim.c ****       
 453:Drivers/STM32F4xx_HAL_Driver/Src/stm32f4xx_hal_tim.c ****   /* Return function status */
 454:Drivers/STM32F4xx_HAL_Driver/Src/stm32f4xx_hal_tim.c ****   return HAL_OK;
 725              		.loc 1 454 0
 726 0050 0023     		movs	r3, #0
 455:Drivers/STM32F4xx_HAL_Driver/Src/stm32f4xx_hal_tim.c **** }
 727              		.loc 1 455 0
 728 0052 1846     		mov	r0, r3
 729 0054 0C37     		adds	r7, r7, #12
 730              	.LCFI54:
 731              		.cfi_def_cfa_offset 4
 732 0056 BD46     		mov	sp, r7
 733              	.LCFI55:
 734              		.cfi_def_cfa_register 13
 735              		@ sp needed
 736 0058 5DF8047B 		ldr	r7, [sp], #4
 737              	.LCFI56:
 738              		.cfi_restore 7
 739              		.cfi_def_cfa_offset 0
 740 005c 7047     		bx	lr
 741              		.cfi_endproc
 742              	.LFE133:
 744              		.section	.text.HAL_TIM_OC_Init,"ax",%progbits
 745              		.align	1
 746              		.global	HAL_TIM_OC_Init
 747              		.syntax unified
 748              		.thumb
 749              		.thumb_func
 750              		.fpu fpv4-sp-d16
 752              	HAL_TIM_OC_Init:
 753              	.LFB134:
 456:Drivers/STM32F4xx_HAL_Driver/Src/stm32f4xx_hal_tim.c **** /**
 457:Drivers/STM32F4xx_HAL_Driver/Src/stm32f4xx_hal_tim.c ****   * @}
 458:Drivers/STM32F4xx_HAL_Driver/Src/stm32f4xx_hal_tim.c ****   */
 459:Drivers/STM32F4xx_HAL_Driver/Src/stm32f4xx_hal_tim.c ****   
 460:Drivers/STM32F4xx_HAL_Driver/Src/stm32f4xx_hal_tim.c **** /** @defgroup TIM_Exported_Functions_Group2 Time Output Compare functions 
 461:Drivers/STM32F4xx_HAL_Driver/Src/stm32f4xx_hal_tim.c ****  *  @brief    Time Output Compare functions 
 462:Drivers/STM32F4xx_HAL_Driver/Src/stm32f4xx_hal_tim.c ****  *
 463:Drivers/STM32F4xx_HAL_Driver/Src/stm32f4xx_hal_tim.c **** @verbatim    
 464:Drivers/STM32F4xx_HAL_Driver/Src/stm32f4xx_hal_tim.c ****   ==============================================================================
 465:Drivers/STM32F4xx_HAL_Driver/Src/stm32f4xx_hal_tim.c ****                   ##### Time Output Compare functions #####
ARM GAS  /tmp/cc4tSQEQ.s 			page 22


 466:Drivers/STM32F4xx_HAL_Driver/Src/stm32f4xx_hal_tim.c ****   ==============================================================================
 467:Drivers/STM32F4xx_HAL_Driver/Src/stm32f4xx_hal_tim.c ****   [..]
 468:Drivers/STM32F4xx_HAL_Driver/Src/stm32f4xx_hal_tim.c ****     This section provides functions allowing to:
 469:Drivers/STM32F4xx_HAL_Driver/Src/stm32f4xx_hal_tim.c ****     (+) Initialize and configure the TIM Output Compare. 
 470:Drivers/STM32F4xx_HAL_Driver/Src/stm32f4xx_hal_tim.c ****     (+) De-initialize the TIM Output Compare.
 471:Drivers/STM32F4xx_HAL_Driver/Src/stm32f4xx_hal_tim.c ****     (+) Start the Time Output Compare.
 472:Drivers/STM32F4xx_HAL_Driver/Src/stm32f4xx_hal_tim.c ****     (+) Stop the Time Output Compare.
 473:Drivers/STM32F4xx_HAL_Driver/Src/stm32f4xx_hal_tim.c ****     (+) Start the Time Output Compare and enable interrupt.
 474:Drivers/STM32F4xx_HAL_Driver/Src/stm32f4xx_hal_tim.c ****     (+) Stop the Time Output Compare and disable interrupt.
 475:Drivers/STM32F4xx_HAL_Driver/Src/stm32f4xx_hal_tim.c ****     (+) Start the Time Output Compare and enable DMA transfer.
 476:Drivers/STM32F4xx_HAL_Driver/Src/stm32f4xx_hal_tim.c ****     (+) Stop the Time Output Compare and disable DMA transfer.
 477:Drivers/STM32F4xx_HAL_Driver/Src/stm32f4xx_hal_tim.c ****  
 478:Drivers/STM32F4xx_HAL_Driver/Src/stm32f4xx_hal_tim.c **** @endverbatim
 479:Drivers/STM32F4xx_HAL_Driver/Src/stm32f4xx_hal_tim.c ****   * @{
 480:Drivers/STM32F4xx_HAL_Driver/Src/stm32f4xx_hal_tim.c ****   */
 481:Drivers/STM32F4xx_HAL_Driver/Src/stm32f4xx_hal_tim.c **** /**
 482:Drivers/STM32F4xx_HAL_Driver/Src/stm32f4xx_hal_tim.c ****   * @brief  Initializes the TIM Output Compare according to the specified
 483:Drivers/STM32F4xx_HAL_Driver/Src/stm32f4xx_hal_tim.c ****   *         parameters in the TIM_HandleTypeDef and create the associated handle.
 484:Drivers/STM32F4xx_HAL_Driver/Src/stm32f4xx_hal_tim.c ****   * @param  htim pointer to a TIM_HandleTypeDef structure that contains
 485:Drivers/STM32F4xx_HAL_Driver/Src/stm32f4xx_hal_tim.c ****   *                the configuration information for TIM module.
 486:Drivers/STM32F4xx_HAL_Driver/Src/stm32f4xx_hal_tim.c ****   * @retval HAL status
 487:Drivers/STM32F4xx_HAL_Driver/Src/stm32f4xx_hal_tim.c ****   */
 488:Drivers/STM32F4xx_HAL_Driver/Src/stm32f4xx_hal_tim.c **** HAL_StatusTypeDef HAL_TIM_OC_Init(TIM_HandleTypeDef* htim)
 489:Drivers/STM32F4xx_HAL_Driver/Src/stm32f4xx_hal_tim.c **** {
 754              		.loc 1 489 0
 755              		.cfi_startproc
 756              		@ args = 0, pretend = 0, frame = 8
 757              		@ frame_needed = 1, uses_anonymous_args = 0
 758 0000 80B5     		push	{r7, lr}
 759              	.LCFI57:
 760              		.cfi_def_cfa_offset 8
 761              		.cfi_offset 7, -8
 762              		.cfi_offset 14, -4
 763 0002 82B0     		sub	sp, sp, #8
 764              	.LCFI58:
 765              		.cfi_def_cfa_offset 16
 766 0004 00AF     		add	r7, sp, #0
 767              	.LCFI59:
 768              		.cfi_def_cfa_register 7
 769 0006 7860     		str	r0, [r7, #4]
 490:Drivers/STM32F4xx_HAL_Driver/Src/stm32f4xx_hal_tim.c ****   /* Check the TIM handle allocation */
 491:Drivers/STM32F4xx_HAL_Driver/Src/stm32f4xx_hal_tim.c ****   if(htim == NULL)
 770              		.loc 1 491 0
 771 0008 7B68     		ldr	r3, [r7, #4]
 772 000a 002B     		cmp	r3, #0
 773 000c 01D1     		bne	.L31
 492:Drivers/STM32F4xx_HAL_Driver/Src/stm32f4xx_hal_tim.c ****   {
 493:Drivers/STM32F4xx_HAL_Driver/Src/stm32f4xx_hal_tim.c ****     return HAL_ERROR;
 774              		.loc 1 493 0
 775 000e 0123     		movs	r3, #1
 776 0010 1DE0     		b	.L32
 777              	.L31:
 494:Drivers/STM32F4xx_HAL_Driver/Src/stm32f4xx_hal_tim.c ****   }
 495:Drivers/STM32F4xx_HAL_Driver/Src/stm32f4xx_hal_tim.c **** 
 496:Drivers/STM32F4xx_HAL_Driver/Src/stm32f4xx_hal_tim.c ****   /* Check the parameters */
 497:Drivers/STM32F4xx_HAL_Driver/Src/stm32f4xx_hal_tim.c ****   assert_param(IS_TIM_INSTANCE(htim->Instance));
 498:Drivers/STM32F4xx_HAL_Driver/Src/stm32f4xx_hal_tim.c ****   assert_param(IS_TIM_COUNTER_MODE(htim->Init.CounterMode));
ARM GAS  /tmp/cc4tSQEQ.s 			page 23


 499:Drivers/STM32F4xx_HAL_Driver/Src/stm32f4xx_hal_tim.c ****   assert_param(IS_TIM_CLOCKDIVISION_DIV(htim->Init.ClockDivision));
 500:Drivers/STM32F4xx_HAL_Driver/Src/stm32f4xx_hal_tim.c ****  
 501:Drivers/STM32F4xx_HAL_Driver/Src/stm32f4xx_hal_tim.c ****   if(htim->State == HAL_TIM_STATE_RESET)
 778              		.loc 1 501 0
 779 0012 7B68     		ldr	r3, [r7, #4]
 780 0014 93F83930 		ldrb	r3, [r3, #57]
 781 0018 DBB2     		uxtb	r3, r3
 782 001a 002B     		cmp	r3, #0
 783 001c 06D1     		bne	.L33
 502:Drivers/STM32F4xx_HAL_Driver/Src/stm32f4xx_hal_tim.c ****   { 
 503:Drivers/STM32F4xx_HAL_Driver/Src/stm32f4xx_hal_tim.c ****     /* Allocate lock resource and initialize it */
 504:Drivers/STM32F4xx_HAL_Driver/Src/stm32f4xx_hal_tim.c ****     htim->Lock = HAL_UNLOCKED;
 784              		.loc 1 504 0
 785 001e 7B68     		ldr	r3, [r7, #4]
 786 0020 0022     		movs	r2, #0
 787 0022 83F83820 		strb	r2, [r3, #56]
 505:Drivers/STM32F4xx_HAL_Driver/Src/stm32f4xx_hal_tim.c ****     /* Init the low level hardware : GPIO, CLOCK, NVIC and DMA */
 506:Drivers/STM32F4xx_HAL_Driver/Src/stm32f4xx_hal_tim.c ****     HAL_TIM_OC_MspInit(htim);
 788              		.loc 1 506 0
 789 0026 7868     		ldr	r0, [r7, #4]
 790 0028 FFF7FEFF 		bl	HAL_TIM_OC_MspInit
 791              	.L33:
 507:Drivers/STM32F4xx_HAL_Driver/Src/stm32f4xx_hal_tim.c ****   }
 508:Drivers/STM32F4xx_HAL_Driver/Src/stm32f4xx_hal_tim.c ****   
 509:Drivers/STM32F4xx_HAL_Driver/Src/stm32f4xx_hal_tim.c ****   /* Set the TIM state */
 510:Drivers/STM32F4xx_HAL_Driver/Src/stm32f4xx_hal_tim.c ****   htim->State= HAL_TIM_STATE_BUSY;
 792              		.loc 1 510 0
 793 002c 7B68     		ldr	r3, [r7, #4]
 794 002e 0222     		movs	r2, #2
 795 0030 83F83920 		strb	r2, [r3, #57]
 511:Drivers/STM32F4xx_HAL_Driver/Src/stm32f4xx_hal_tim.c ****   
 512:Drivers/STM32F4xx_HAL_Driver/Src/stm32f4xx_hal_tim.c ****   /* Init the base time for the Output Compare */  
 513:Drivers/STM32F4xx_HAL_Driver/Src/stm32f4xx_hal_tim.c ****   TIM_Base_SetConfig(htim->Instance,  &htim->Init); 
 796              		.loc 1 513 0
 797 0034 7B68     		ldr	r3, [r7, #4]
 798 0036 1A68     		ldr	r2, [r3]
 799 0038 7B68     		ldr	r3, [r7, #4]
 800 003a 0433     		adds	r3, r3, #4
 801 003c 1946     		mov	r1, r3
 802 003e 1046     		mov	r0, r2
 803 0040 FFF7FEFF 		bl	TIM_Base_SetConfig
 514:Drivers/STM32F4xx_HAL_Driver/Src/stm32f4xx_hal_tim.c ****   
 515:Drivers/STM32F4xx_HAL_Driver/Src/stm32f4xx_hal_tim.c ****   /* Initialize the TIM state*/
 516:Drivers/STM32F4xx_HAL_Driver/Src/stm32f4xx_hal_tim.c ****   htim->State= HAL_TIM_STATE_READY;
 804              		.loc 1 516 0
 805 0044 7B68     		ldr	r3, [r7, #4]
 806 0046 0122     		movs	r2, #1
 807 0048 83F83920 		strb	r2, [r3, #57]
 517:Drivers/STM32F4xx_HAL_Driver/Src/stm32f4xx_hal_tim.c ****   
 518:Drivers/STM32F4xx_HAL_Driver/Src/stm32f4xx_hal_tim.c ****   return HAL_OK;
 808              		.loc 1 518 0
 809 004c 0023     		movs	r3, #0
 810              	.L32:
 519:Drivers/STM32F4xx_HAL_Driver/Src/stm32f4xx_hal_tim.c **** }
 811              		.loc 1 519 0
 812 004e 1846     		mov	r0, r3
 813 0050 0837     		adds	r7, r7, #8
ARM GAS  /tmp/cc4tSQEQ.s 			page 24


 814              	.LCFI60:
 815              		.cfi_def_cfa_offset 8
 816 0052 BD46     		mov	sp, r7
 817              	.LCFI61:
 818              		.cfi_def_cfa_register 13
 819              		@ sp needed
 820 0054 80BD     		pop	{r7, pc}
 821              		.cfi_endproc
 822              	.LFE134:
 824              		.section	.text.HAL_TIM_OC_DeInit,"ax",%progbits
 825              		.align	1
 826              		.global	HAL_TIM_OC_DeInit
 827              		.syntax unified
 828              		.thumb
 829              		.thumb_func
 830              		.fpu fpv4-sp-d16
 832              	HAL_TIM_OC_DeInit:
 833              	.LFB135:
 520:Drivers/STM32F4xx_HAL_Driver/Src/stm32f4xx_hal_tim.c **** 
 521:Drivers/STM32F4xx_HAL_Driver/Src/stm32f4xx_hal_tim.c **** /**
 522:Drivers/STM32F4xx_HAL_Driver/Src/stm32f4xx_hal_tim.c ****   * @brief  DeInitializes the TIM peripheral 
 523:Drivers/STM32F4xx_HAL_Driver/Src/stm32f4xx_hal_tim.c ****   * @param  htim pointer to a TIM_HandleTypeDef structure that contains
 524:Drivers/STM32F4xx_HAL_Driver/Src/stm32f4xx_hal_tim.c ****   *                the configuration information for TIM module.
 525:Drivers/STM32F4xx_HAL_Driver/Src/stm32f4xx_hal_tim.c ****   * @retval HAL status
 526:Drivers/STM32F4xx_HAL_Driver/Src/stm32f4xx_hal_tim.c ****   */
 527:Drivers/STM32F4xx_HAL_Driver/Src/stm32f4xx_hal_tim.c **** HAL_StatusTypeDef HAL_TIM_OC_DeInit(TIM_HandleTypeDef *htim)
 528:Drivers/STM32F4xx_HAL_Driver/Src/stm32f4xx_hal_tim.c **** {
 834              		.loc 1 528 0
 835              		.cfi_startproc
 836              		@ args = 0, pretend = 0, frame = 8
 837              		@ frame_needed = 1, uses_anonymous_args = 0
 838 0000 80B5     		push	{r7, lr}
 839              	.LCFI62:
 840              		.cfi_def_cfa_offset 8
 841              		.cfi_offset 7, -8
 842              		.cfi_offset 14, -4
 843 0002 82B0     		sub	sp, sp, #8
 844              	.LCFI63:
 845              		.cfi_def_cfa_offset 16
 846 0004 00AF     		add	r7, sp, #0
 847              	.LCFI64:
 848              		.cfi_def_cfa_register 7
 849 0006 7860     		str	r0, [r7, #4]
 529:Drivers/STM32F4xx_HAL_Driver/Src/stm32f4xx_hal_tim.c ****   /* Check the parameters */
 530:Drivers/STM32F4xx_HAL_Driver/Src/stm32f4xx_hal_tim.c ****   assert_param(IS_TIM_INSTANCE(htim->Instance));
 531:Drivers/STM32F4xx_HAL_Driver/Src/stm32f4xx_hal_tim.c ****   
 532:Drivers/STM32F4xx_HAL_Driver/Src/stm32f4xx_hal_tim.c ****    htim->State = HAL_TIM_STATE_BUSY;
 850              		.loc 1 532 0
 851 0008 7B68     		ldr	r3, [r7, #4]
 852 000a 0222     		movs	r2, #2
 853 000c 83F83920 		strb	r2, [r3, #57]
 533:Drivers/STM32F4xx_HAL_Driver/Src/stm32f4xx_hal_tim.c ****    
 534:Drivers/STM32F4xx_HAL_Driver/Src/stm32f4xx_hal_tim.c ****   /* Disable the TIM Peripheral Clock */
 535:Drivers/STM32F4xx_HAL_Driver/Src/stm32f4xx_hal_tim.c ****   __HAL_TIM_DISABLE(htim);
 854              		.loc 1 535 0
 855 0010 7B68     		ldr	r3, [r7, #4]
 856 0012 1B68     		ldr	r3, [r3]
ARM GAS  /tmp/cc4tSQEQ.s 			page 25


 857 0014 1A6A     		ldr	r2, [r3, #32]
 858 0016 41F21113 		movw	r3, #4369
 859 001a 1340     		ands	r3, r3, r2
 860 001c 002B     		cmp	r3, #0
 861 001e 0FD1     		bne	.L35
 862              		.loc 1 535 0 is_stmt 0 discriminator 1
 863 0020 7B68     		ldr	r3, [r7, #4]
 864 0022 1B68     		ldr	r3, [r3]
 865 0024 1A6A     		ldr	r2, [r3, #32]
 866 0026 40F24443 		movw	r3, #1092
 867 002a 1340     		ands	r3, r3, r2
 868 002c 002B     		cmp	r3, #0
 869 002e 07D1     		bne	.L35
 870              		.loc 1 535 0 discriminator 2
 871 0030 7B68     		ldr	r3, [r7, #4]
 872 0032 1B68     		ldr	r3, [r3]
 873 0034 7A68     		ldr	r2, [r7, #4]
 874 0036 1268     		ldr	r2, [r2]
 875 0038 1268     		ldr	r2, [r2]
 876 003a 22F00102 		bic	r2, r2, #1
 877 003e 1A60     		str	r2, [r3]
 878              	.L35:
 536:Drivers/STM32F4xx_HAL_Driver/Src/stm32f4xx_hal_tim.c ****   
 537:Drivers/STM32F4xx_HAL_Driver/Src/stm32f4xx_hal_tim.c ****   /* DeInit the low level hardware: GPIO, CLOCK, NVIC and DMA */
 538:Drivers/STM32F4xx_HAL_Driver/Src/stm32f4xx_hal_tim.c ****   HAL_TIM_OC_MspDeInit(htim);
 879              		.loc 1 538 0 is_stmt 1
 880 0040 7868     		ldr	r0, [r7, #4]
 881 0042 FFF7FEFF 		bl	HAL_TIM_OC_MspDeInit
 539:Drivers/STM32F4xx_HAL_Driver/Src/stm32f4xx_hal_tim.c ****     
 540:Drivers/STM32F4xx_HAL_Driver/Src/stm32f4xx_hal_tim.c ****   /* Change TIM state */  
 541:Drivers/STM32F4xx_HAL_Driver/Src/stm32f4xx_hal_tim.c ****   htim->State = HAL_TIM_STATE_RESET; 
 882              		.loc 1 541 0
 883 0046 7B68     		ldr	r3, [r7, #4]
 884 0048 0022     		movs	r2, #0
 885 004a 83F83920 		strb	r2, [r3, #57]
 542:Drivers/STM32F4xx_HAL_Driver/Src/stm32f4xx_hal_tim.c **** 
 543:Drivers/STM32F4xx_HAL_Driver/Src/stm32f4xx_hal_tim.c ****   /* Release Lock */
 544:Drivers/STM32F4xx_HAL_Driver/Src/stm32f4xx_hal_tim.c ****   __HAL_UNLOCK(htim);
 886              		.loc 1 544 0
 887 004e 7B68     		ldr	r3, [r7, #4]
 888 0050 0022     		movs	r2, #0
 889 0052 83F83820 		strb	r2, [r3, #56]
 545:Drivers/STM32F4xx_HAL_Driver/Src/stm32f4xx_hal_tim.c **** 
 546:Drivers/STM32F4xx_HAL_Driver/Src/stm32f4xx_hal_tim.c ****   return HAL_OK;
 890              		.loc 1 546 0
 891 0056 0023     		movs	r3, #0
 547:Drivers/STM32F4xx_HAL_Driver/Src/stm32f4xx_hal_tim.c **** }
 892              		.loc 1 547 0
 893 0058 1846     		mov	r0, r3
 894 005a 0837     		adds	r7, r7, #8
 895              	.LCFI65:
 896              		.cfi_def_cfa_offset 8
 897 005c BD46     		mov	sp, r7
 898              	.LCFI66:
 899              		.cfi_def_cfa_register 13
 900              		@ sp needed
 901 005e 80BD     		pop	{r7, pc}
ARM GAS  /tmp/cc4tSQEQ.s 			page 26


 902              		.cfi_endproc
 903              	.LFE135:
 905              		.section	.text.HAL_TIM_OC_MspInit,"ax",%progbits
 906              		.align	1
 907              		.weak	HAL_TIM_OC_MspInit
 908              		.syntax unified
 909              		.thumb
 910              		.thumb_func
 911              		.fpu fpv4-sp-d16
 913              	HAL_TIM_OC_MspInit:
 914              	.LFB136:
 548:Drivers/STM32F4xx_HAL_Driver/Src/stm32f4xx_hal_tim.c **** 
 549:Drivers/STM32F4xx_HAL_Driver/Src/stm32f4xx_hal_tim.c **** /**
 550:Drivers/STM32F4xx_HAL_Driver/Src/stm32f4xx_hal_tim.c ****   * @brief  Initializes the TIM Output Compare MSP.
 551:Drivers/STM32F4xx_HAL_Driver/Src/stm32f4xx_hal_tim.c ****   * @param  htim pointer to a TIM_HandleTypeDef structure that contains
 552:Drivers/STM32F4xx_HAL_Driver/Src/stm32f4xx_hal_tim.c ****   *                the configuration information for TIM module.
 553:Drivers/STM32F4xx_HAL_Driver/Src/stm32f4xx_hal_tim.c ****   * @retval None
 554:Drivers/STM32F4xx_HAL_Driver/Src/stm32f4xx_hal_tim.c ****   */
 555:Drivers/STM32F4xx_HAL_Driver/Src/stm32f4xx_hal_tim.c **** __weak void HAL_TIM_OC_MspInit(TIM_HandleTypeDef *htim)
 556:Drivers/STM32F4xx_HAL_Driver/Src/stm32f4xx_hal_tim.c **** {
 915              		.loc 1 556 0
 916              		.cfi_startproc
 917              		@ args = 0, pretend = 0, frame = 8
 918              		@ frame_needed = 1, uses_anonymous_args = 0
 919              		@ link register save eliminated.
 920 0000 80B4     		push	{r7}
 921              	.LCFI67:
 922              		.cfi_def_cfa_offset 4
 923              		.cfi_offset 7, -4
 924 0002 83B0     		sub	sp, sp, #12
 925              	.LCFI68:
 926              		.cfi_def_cfa_offset 16
 927 0004 00AF     		add	r7, sp, #0
 928              	.LCFI69:
 929              		.cfi_def_cfa_register 7
 930 0006 7860     		str	r0, [r7, #4]
 557:Drivers/STM32F4xx_HAL_Driver/Src/stm32f4xx_hal_tim.c ****   /* Prevent unused argument(s) compilation warning */
 558:Drivers/STM32F4xx_HAL_Driver/Src/stm32f4xx_hal_tim.c ****   UNUSED(htim);
 559:Drivers/STM32F4xx_HAL_Driver/Src/stm32f4xx_hal_tim.c ****   /* NOTE : This function Should not be modified, when the callback is needed,
 560:Drivers/STM32F4xx_HAL_Driver/Src/stm32f4xx_hal_tim.c ****             the HAL_TIM_OC_MspInit could be implemented in the user file
 561:Drivers/STM32F4xx_HAL_Driver/Src/stm32f4xx_hal_tim.c ****    */
 562:Drivers/STM32F4xx_HAL_Driver/Src/stm32f4xx_hal_tim.c **** }
 931              		.loc 1 562 0
 932 0008 00BF     		nop
 933 000a 0C37     		adds	r7, r7, #12
 934              	.LCFI70:
 935              		.cfi_def_cfa_offset 4
 936 000c BD46     		mov	sp, r7
 937              	.LCFI71:
 938              		.cfi_def_cfa_register 13
 939              		@ sp needed
 940 000e 5DF8047B 		ldr	r7, [sp], #4
 941              	.LCFI72:
 942              		.cfi_restore 7
 943              		.cfi_def_cfa_offset 0
 944 0012 7047     		bx	lr
 945              		.cfi_endproc
ARM GAS  /tmp/cc4tSQEQ.s 			page 27


 946              	.LFE136:
 948              		.section	.text.HAL_TIM_OC_MspDeInit,"ax",%progbits
 949              		.align	1
 950              		.weak	HAL_TIM_OC_MspDeInit
 951              		.syntax unified
 952              		.thumb
 953              		.thumb_func
 954              		.fpu fpv4-sp-d16
 956              	HAL_TIM_OC_MspDeInit:
 957              	.LFB137:
 563:Drivers/STM32F4xx_HAL_Driver/Src/stm32f4xx_hal_tim.c **** 
 564:Drivers/STM32F4xx_HAL_Driver/Src/stm32f4xx_hal_tim.c **** /**
 565:Drivers/STM32F4xx_HAL_Driver/Src/stm32f4xx_hal_tim.c ****   * @brief  DeInitializes TIM Output Compare MSP.
 566:Drivers/STM32F4xx_HAL_Driver/Src/stm32f4xx_hal_tim.c ****   * @param  htim pointer to a TIM_HandleTypeDef structure that contains
 567:Drivers/STM32F4xx_HAL_Driver/Src/stm32f4xx_hal_tim.c ****   *                the configuration information for TIM module.
 568:Drivers/STM32F4xx_HAL_Driver/Src/stm32f4xx_hal_tim.c ****   * @retval None
 569:Drivers/STM32F4xx_HAL_Driver/Src/stm32f4xx_hal_tim.c ****   */
 570:Drivers/STM32F4xx_HAL_Driver/Src/stm32f4xx_hal_tim.c **** __weak void HAL_TIM_OC_MspDeInit(TIM_HandleTypeDef *htim)
 571:Drivers/STM32F4xx_HAL_Driver/Src/stm32f4xx_hal_tim.c **** {
 958              		.loc 1 571 0
 959              		.cfi_startproc
 960              		@ args = 0, pretend = 0, frame = 8
 961              		@ frame_needed = 1, uses_anonymous_args = 0
 962              		@ link register save eliminated.
 963 0000 80B4     		push	{r7}
 964              	.LCFI73:
 965              		.cfi_def_cfa_offset 4
 966              		.cfi_offset 7, -4
 967 0002 83B0     		sub	sp, sp, #12
 968              	.LCFI74:
 969              		.cfi_def_cfa_offset 16
 970 0004 00AF     		add	r7, sp, #0
 971              	.LCFI75:
 972              		.cfi_def_cfa_register 7
 973 0006 7860     		str	r0, [r7, #4]
 572:Drivers/STM32F4xx_HAL_Driver/Src/stm32f4xx_hal_tim.c ****   /* Prevent unused argument(s) compilation warning */
 573:Drivers/STM32F4xx_HAL_Driver/Src/stm32f4xx_hal_tim.c ****   UNUSED(htim);
 574:Drivers/STM32F4xx_HAL_Driver/Src/stm32f4xx_hal_tim.c ****   /* NOTE : This function Should not be modified, when the callback is needed,
 575:Drivers/STM32F4xx_HAL_Driver/Src/stm32f4xx_hal_tim.c ****             the HAL_TIM_OC_MspDeInit could be implemented in the user file
 576:Drivers/STM32F4xx_HAL_Driver/Src/stm32f4xx_hal_tim.c ****    */
 577:Drivers/STM32F4xx_HAL_Driver/Src/stm32f4xx_hal_tim.c **** }
 974              		.loc 1 577 0
 975 0008 00BF     		nop
 976 000a 0C37     		adds	r7, r7, #12
 977              	.LCFI76:
 978              		.cfi_def_cfa_offset 4
 979 000c BD46     		mov	sp, r7
 980              	.LCFI77:
 981              		.cfi_def_cfa_register 13
 982              		@ sp needed
 983 000e 5DF8047B 		ldr	r7, [sp], #4
 984              	.LCFI78:
 985              		.cfi_restore 7
 986              		.cfi_def_cfa_offset 0
 987 0012 7047     		bx	lr
 988              		.cfi_endproc
 989              	.LFE137:
ARM GAS  /tmp/cc4tSQEQ.s 			page 28


 991              		.section	.text.HAL_TIM_OC_Start,"ax",%progbits
 992              		.align	1
 993              		.global	HAL_TIM_OC_Start
 994              		.syntax unified
 995              		.thumb
 996              		.thumb_func
 997              		.fpu fpv4-sp-d16
 999              	HAL_TIM_OC_Start:
 1000              	.LFB138:
 578:Drivers/STM32F4xx_HAL_Driver/Src/stm32f4xx_hal_tim.c **** 
 579:Drivers/STM32F4xx_HAL_Driver/Src/stm32f4xx_hal_tim.c **** /**
 580:Drivers/STM32F4xx_HAL_Driver/Src/stm32f4xx_hal_tim.c ****   * @brief  Starts the TIM Output Compare signal generation.
 581:Drivers/STM32F4xx_HAL_Driver/Src/stm32f4xx_hal_tim.c ****   * @param  htim pointer to a TIM_HandleTypeDef structure that contains
 582:Drivers/STM32F4xx_HAL_Driver/Src/stm32f4xx_hal_tim.c ****   *                the configuration information for TIM module.  
 583:Drivers/STM32F4xx_HAL_Driver/Src/stm32f4xx_hal_tim.c ****   * @param  Channel TIM Channel to be enabled.
 584:Drivers/STM32F4xx_HAL_Driver/Src/stm32f4xx_hal_tim.c ****   *          This parameter can be one of the following values:
 585:Drivers/STM32F4xx_HAL_Driver/Src/stm32f4xx_hal_tim.c ****   *            @arg TIM_CHANNEL_1: TIM Channel 1 selected
 586:Drivers/STM32F4xx_HAL_Driver/Src/stm32f4xx_hal_tim.c ****   *            @arg TIM_CHANNEL_2: TIM Channel 2 selected
 587:Drivers/STM32F4xx_HAL_Driver/Src/stm32f4xx_hal_tim.c ****   *            @arg TIM_CHANNEL_3: TIM Channel 3 selected
 588:Drivers/STM32F4xx_HAL_Driver/Src/stm32f4xx_hal_tim.c ****   *            @arg TIM_CHANNEL_4: TIM Channel 4 selected   
 589:Drivers/STM32F4xx_HAL_Driver/Src/stm32f4xx_hal_tim.c ****   * @retval HAL status
 590:Drivers/STM32F4xx_HAL_Driver/Src/stm32f4xx_hal_tim.c ****   */
 591:Drivers/STM32F4xx_HAL_Driver/Src/stm32f4xx_hal_tim.c **** HAL_StatusTypeDef HAL_TIM_OC_Start(TIM_HandleTypeDef *htim, uint32_t Channel)
 592:Drivers/STM32F4xx_HAL_Driver/Src/stm32f4xx_hal_tim.c **** {
 1001              		.loc 1 592 0
 1002              		.cfi_startproc
 1003              		@ args = 0, pretend = 0, frame = 8
 1004              		@ frame_needed = 1, uses_anonymous_args = 0
 1005 0000 80B5     		push	{r7, lr}
 1006              	.LCFI79:
 1007              		.cfi_def_cfa_offset 8
 1008              		.cfi_offset 7, -8
 1009              		.cfi_offset 14, -4
 1010 0002 82B0     		sub	sp, sp, #8
 1011              	.LCFI80:
 1012              		.cfi_def_cfa_offset 16
 1013 0004 00AF     		add	r7, sp, #0
 1014              	.LCFI81:
 1015              		.cfi_def_cfa_register 7
 1016 0006 7860     		str	r0, [r7, #4]
 1017 0008 3960     		str	r1, [r7]
 593:Drivers/STM32F4xx_HAL_Driver/Src/stm32f4xx_hal_tim.c ****   /* Check the parameters */
 594:Drivers/STM32F4xx_HAL_Driver/Src/stm32f4xx_hal_tim.c ****   assert_param(IS_TIM_CCX_INSTANCE(htim->Instance, Channel));
 595:Drivers/STM32F4xx_HAL_Driver/Src/stm32f4xx_hal_tim.c ****   
 596:Drivers/STM32F4xx_HAL_Driver/Src/stm32f4xx_hal_tim.c ****   /* Enable the Output compare channel */
 597:Drivers/STM32F4xx_HAL_Driver/Src/stm32f4xx_hal_tim.c ****   TIM_CCxChannelCmd(htim->Instance, Channel, TIM_CCx_ENABLE);
 1018              		.loc 1 597 0
 1019 000a 7B68     		ldr	r3, [r7, #4]
 1020 000c 1B68     		ldr	r3, [r3]
 1021 000e 0122     		movs	r2, #1
 1022 0010 3968     		ldr	r1, [r7]
 1023 0012 1846     		mov	r0, r3
 1024 0014 FFF7FEFF 		bl	TIM_CCxChannelCmd
 598:Drivers/STM32F4xx_HAL_Driver/Src/stm32f4xx_hal_tim.c ****   
 599:Drivers/STM32F4xx_HAL_Driver/Src/stm32f4xx_hal_tim.c ****   if(IS_TIM_ADVANCED_INSTANCE(htim->Instance) != RESET)  
 1025              		.loc 1 599 0
 1026 0018 7B68     		ldr	r3, [r7, #4]
ARM GAS  /tmp/cc4tSQEQ.s 			page 29


 1027 001a 1B68     		ldr	r3, [r3]
 1028 001c 0B4A     		ldr	r2, .L42
 1029 001e 9342     		cmp	r3, r2
 1030 0020 07D1     		bne	.L40
 600:Drivers/STM32F4xx_HAL_Driver/Src/stm32f4xx_hal_tim.c ****   {
 601:Drivers/STM32F4xx_HAL_Driver/Src/stm32f4xx_hal_tim.c ****     /* Enable the main output */
 602:Drivers/STM32F4xx_HAL_Driver/Src/stm32f4xx_hal_tim.c ****     __HAL_TIM_MOE_ENABLE(htim);
 1031              		.loc 1 602 0
 1032 0022 7B68     		ldr	r3, [r7, #4]
 1033 0024 1B68     		ldr	r3, [r3]
 1034 0026 7A68     		ldr	r2, [r7, #4]
 1035 0028 1268     		ldr	r2, [r2]
 1036 002a 526C     		ldr	r2, [r2, #68]
 1037 002c 42F40042 		orr	r2, r2, #32768
 1038 0030 5A64     		str	r2, [r3, #68]
 1039              	.L40:
 603:Drivers/STM32F4xx_HAL_Driver/Src/stm32f4xx_hal_tim.c ****   }
 604:Drivers/STM32F4xx_HAL_Driver/Src/stm32f4xx_hal_tim.c ****   
 605:Drivers/STM32F4xx_HAL_Driver/Src/stm32f4xx_hal_tim.c ****   /* Enable the Peripheral */
 606:Drivers/STM32F4xx_HAL_Driver/Src/stm32f4xx_hal_tim.c ****   __HAL_TIM_ENABLE(htim); 
 1040              		.loc 1 606 0
 1041 0032 7B68     		ldr	r3, [r7, #4]
 1042 0034 1B68     		ldr	r3, [r3]
 1043 0036 7A68     		ldr	r2, [r7, #4]
 1044 0038 1268     		ldr	r2, [r2]
 1045 003a 1268     		ldr	r2, [r2]
 1046 003c 42F00102 		orr	r2, r2, #1
 1047 0040 1A60     		str	r2, [r3]
 607:Drivers/STM32F4xx_HAL_Driver/Src/stm32f4xx_hal_tim.c ****   
 608:Drivers/STM32F4xx_HAL_Driver/Src/stm32f4xx_hal_tim.c ****   /* Return function status */
 609:Drivers/STM32F4xx_HAL_Driver/Src/stm32f4xx_hal_tim.c ****   return HAL_OK;
 1048              		.loc 1 609 0
 1049 0042 0023     		movs	r3, #0
 610:Drivers/STM32F4xx_HAL_Driver/Src/stm32f4xx_hal_tim.c **** }
 1050              		.loc 1 610 0
 1051 0044 1846     		mov	r0, r3
 1052 0046 0837     		adds	r7, r7, #8
 1053              	.LCFI82:
 1054              		.cfi_def_cfa_offset 8
 1055 0048 BD46     		mov	sp, r7
 1056              	.LCFI83:
 1057              		.cfi_def_cfa_register 13
 1058              		@ sp needed
 1059 004a 80BD     		pop	{r7, pc}
 1060              	.L43:
 1061              		.align	2
 1062              	.L42:
 1063 004c 00000140 		.word	1073807360
 1064              		.cfi_endproc
 1065              	.LFE138:
 1067              		.section	.text.HAL_TIM_OC_Stop,"ax",%progbits
 1068              		.align	1
 1069              		.global	HAL_TIM_OC_Stop
 1070              		.syntax unified
 1071              		.thumb
 1072              		.thumb_func
 1073              		.fpu fpv4-sp-d16
ARM GAS  /tmp/cc4tSQEQ.s 			page 30


 1075              	HAL_TIM_OC_Stop:
 1076              	.LFB139:
 611:Drivers/STM32F4xx_HAL_Driver/Src/stm32f4xx_hal_tim.c **** 
 612:Drivers/STM32F4xx_HAL_Driver/Src/stm32f4xx_hal_tim.c **** /**
 613:Drivers/STM32F4xx_HAL_Driver/Src/stm32f4xx_hal_tim.c ****   * @brief  Stops the TIM Output Compare signal generation.
 614:Drivers/STM32F4xx_HAL_Driver/Src/stm32f4xx_hal_tim.c ****   * @param  htim pointer to a TIM_HandleTypeDef structure that contains
 615:Drivers/STM32F4xx_HAL_Driver/Src/stm32f4xx_hal_tim.c ****   *                the configuration information for TIM module.
 616:Drivers/STM32F4xx_HAL_Driver/Src/stm32f4xx_hal_tim.c ****   * @param  Channel TIM Channel to be disabled.
 617:Drivers/STM32F4xx_HAL_Driver/Src/stm32f4xx_hal_tim.c ****   *          This parameter can be one of the following values:
 618:Drivers/STM32F4xx_HAL_Driver/Src/stm32f4xx_hal_tim.c ****   *            @arg TIM_CHANNEL_1: TIM Channel 1 selected
 619:Drivers/STM32F4xx_HAL_Driver/Src/stm32f4xx_hal_tim.c ****   *            @arg TIM_CHANNEL_2: TIM Channel 2 selected
 620:Drivers/STM32F4xx_HAL_Driver/Src/stm32f4xx_hal_tim.c ****   *            @arg TIM_CHANNEL_3: TIM Channel 3 selected
 621:Drivers/STM32F4xx_HAL_Driver/Src/stm32f4xx_hal_tim.c ****   *            @arg TIM_CHANNEL_4: TIM Channel 4 selected
 622:Drivers/STM32F4xx_HAL_Driver/Src/stm32f4xx_hal_tim.c ****   * @retval HAL status
 623:Drivers/STM32F4xx_HAL_Driver/Src/stm32f4xx_hal_tim.c ****   */
 624:Drivers/STM32F4xx_HAL_Driver/Src/stm32f4xx_hal_tim.c **** HAL_StatusTypeDef HAL_TIM_OC_Stop(TIM_HandleTypeDef *htim, uint32_t Channel)
 625:Drivers/STM32F4xx_HAL_Driver/Src/stm32f4xx_hal_tim.c **** {
 1077              		.loc 1 625 0
 1078              		.cfi_startproc
 1079              		@ args = 0, pretend = 0, frame = 8
 1080              		@ frame_needed = 1, uses_anonymous_args = 0
 1081 0000 80B5     		push	{r7, lr}
 1082              	.LCFI84:
 1083              		.cfi_def_cfa_offset 8
 1084              		.cfi_offset 7, -8
 1085              		.cfi_offset 14, -4
 1086 0002 82B0     		sub	sp, sp, #8
 1087              	.LCFI85:
 1088              		.cfi_def_cfa_offset 16
 1089 0004 00AF     		add	r7, sp, #0
 1090              	.LCFI86:
 1091              		.cfi_def_cfa_register 7
 1092 0006 7860     		str	r0, [r7, #4]
 1093 0008 3960     		str	r1, [r7]
 626:Drivers/STM32F4xx_HAL_Driver/Src/stm32f4xx_hal_tim.c ****   /* Check the parameters */
 627:Drivers/STM32F4xx_HAL_Driver/Src/stm32f4xx_hal_tim.c ****   assert_param(IS_TIM_CCX_INSTANCE(htim->Instance, Channel));
 628:Drivers/STM32F4xx_HAL_Driver/Src/stm32f4xx_hal_tim.c ****   
 629:Drivers/STM32F4xx_HAL_Driver/Src/stm32f4xx_hal_tim.c ****   /* Disable the Output compare channel */
 630:Drivers/STM32F4xx_HAL_Driver/Src/stm32f4xx_hal_tim.c ****   TIM_CCxChannelCmd(htim->Instance, Channel, TIM_CCx_DISABLE);
 1094              		.loc 1 630 0
 1095 000a 7B68     		ldr	r3, [r7, #4]
 1096 000c 1B68     		ldr	r3, [r3]
 1097 000e 0022     		movs	r2, #0
 1098 0010 3968     		ldr	r1, [r7]
 1099 0012 1846     		mov	r0, r3
 1100 0014 FFF7FEFF 		bl	TIM_CCxChannelCmd
 631:Drivers/STM32F4xx_HAL_Driver/Src/stm32f4xx_hal_tim.c ****   
 632:Drivers/STM32F4xx_HAL_Driver/Src/stm32f4xx_hal_tim.c ****   if(IS_TIM_ADVANCED_INSTANCE(htim->Instance) != RESET)  
 1101              		.loc 1 632 0
 1102 0018 7B68     		ldr	r3, [r7, #4]
 1103 001a 1B68     		ldr	r3, [r3]
 1104 001c 1B4A     		ldr	r2, .L48
 1105 001e 9342     		cmp	r3, r2
 1106 0020 17D1     		bne	.L45
 633:Drivers/STM32F4xx_HAL_Driver/Src/stm32f4xx_hal_tim.c ****   {
 634:Drivers/STM32F4xx_HAL_Driver/Src/stm32f4xx_hal_tim.c ****     /* Disable the Main Output */
 635:Drivers/STM32F4xx_HAL_Driver/Src/stm32f4xx_hal_tim.c ****     __HAL_TIM_MOE_DISABLE(htim);
ARM GAS  /tmp/cc4tSQEQ.s 			page 31


 1107              		.loc 1 635 0
 1108 0022 7B68     		ldr	r3, [r7, #4]
 1109 0024 1B68     		ldr	r3, [r3]
 1110 0026 1A6A     		ldr	r2, [r3, #32]
 1111 0028 41F21113 		movw	r3, #4369
 1112 002c 1340     		ands	r3, r3, r2
 1113 002e 002B     		cmp	r3, #0
 1114 0030 0FD1     		bne	.L45
 1115              		.loc 1 635 0 is_stmt 0 discriminator 1
 1116 0032 7B68     		ldr	r3, [r7, #4]
 1117 0034 1B68     		ldr	r3, [r3]
 1118 0036 1A6A     		ldr	r2, [r3, #32]
 1119 0038 40F24443 		movw	r3, #1092
 1120 003c 1340     		ands	r3, r3, r2
 1121 003e 002B     		cmp	r3, #0
 1122 0040 07D1     		bne	.L45
 1123              		.loc 1 635 0 discriminator 2
 1124 0042 7B68     		ldr	r3, [r7, #4]
 1125 0044 1B68     		ldr	r3, [r3]
 1126 0046 7A68     		ldr	r2, [r7, #4]
 1127 0048 1268     		ldr	r2, [r2]
 1128 004a 526C     		ldr	r2, [r2, #68]
 1129 004c 22F40042 		bic	r2, r2, #32768
 1130 0050 5A64     		str	r2, [r3, #68]
 1131              	.L45:
 636:Drivers/STM32F4xx_HAL_Driver/Src/stm32f4xx_hal_tim.c ****   }  
 637:Drivers/STM32F4xx_HAL_Driver/Src/stm32f4xx_hal_tim.c ****   
 638:Drivers/STM32F4xx_HAL_Driver/Src/stm32f4xx_hal_tim.c ****   /* Disable the Peripheral */
 639:Drivers/STM32F4xx_HAL_Driver/Src/stm32f4xx_hal_tim.c ****   __HAL_TIM_DISABLE(htim);  
 1132              		.loc 1 639 0 is_stmt 1
 1133 0052 7B68     		ldr	r3, [r7, #4]
 1134 0054 1B68     		ldr	r3, [r3]
 1135 0056 1A6A     		ldr	r2, [r3, #32]
 1136 0058 41F21113 		movw	r3, #4369
 1137 005c 1340     		ands	r3, r3, r2
 1138 005e 002B     		cmp	r3, #0
 1139 0060 0FD1     		bne	.L46
 1140              		.loc 1 639 0 is_stmt 0 discriminator 1
 1141 0062 7B68     		ldr	r3, [r7, #4]
 1142 0064 1B68     		ldr	r3, [r3]
 1143 0066 1A6A     		ldr	r2, [r3, #32]
 1144 0068 40F24443 		movw	r3, #1092
 1145 006c 1340     		ands	r3, r3, r2
 1146 006e 002B     		cmp	r3, #0
 1147 0070 07D1     		bne	.L46
 1148              		.loc 1 639 0 discriminator 2
 1149 0072 7B68     		ldr	r3, [r7, #4]
 1150 0074 1B68     		ldr	r3, [r3]
 1151 0076 7A68     		ldr	r2, [r7, #4]
 1152 0078 1268     		ldr	r2, [r2]
 1153 007a 1268     		ldr	r2, [r2]
 1154 007c 22F00102 		bic	r2, r2, #1
 1155 0080 1A60     		str	r2, [r3]
 1156              	.L46:
 640:Drivers/STM32F4xx_HAL_Driver/Src/stm32f4xx_hal_tim.c ****   
 641:Drivers/STM32F4xx_HAL_Driver/Src/stm32f4xx_hal_tim.c ****   /* Return function status */
 642:Drivers/STM32F4xx_HAL_Driver/Src/stm32f4xx_hal_tim.c ****   return HAL_OK;
ARM GAS  /tmp/cc4tSQEQ.s 			page 32


 1157              		.loc 1 642 0 is_stmt 1
 1158 0082 0023     		movs	r3, #0
 643:Drivers/STM32F4xx_HAL_Driver/Src/stm32f4xx_hal_tim.c **** }  
 1159              		.loc 1 643 0
 1160 0084 1846     		mov	r0, r3
 1161 0086 0837     		adds	r7, r7, #8
 1162              	.LCFI87:
 1163              		.cfi_def_cfa_offset 8
 1164 0088 BD46     		mov	sp, r7
 1165              	.LCFI88:
 1166              		.cfi_def_cfa_register 13
 1167              		@ sp needed
 1168 008a 80BD     		pop	{r7, pc}
 1169              	.L49:
 1170              		.align	2
 1171              	.L48:
 1172 008c 00000140 		.word	1073807360
 1173              		.cfi_endproc
 1174              	.LFE139:
 1176              		.section	.text.HAL_TIM_OC_Start_IT,"ax",%progbits
 1177              		.align	1
 1178              		.global	HAL_TIM_OC_Start_IT
 1179              		.syntax unified
 1180              		.thumb
 1181              		.thumb_func
 1182              		.fpu fpv4-sp-d16
 1184              	HAL_TIM_OC_Start_IT:
 1185              	.LFB140:
 644:Drivers/STM32F4xx_HAL_Driver/Src/stm32f4xx_hal_tim.c **** 
 645:Drivers/STM32F4xx_HAL_Driver/Src/stm32f4xx_hal_tim.c **** /**
 646:Drivers/STM32F4xx_HAL_Driver/Src/stm32f4xx_hal_tim.c ****   * @brief  Starts the TIM Output Compare signal generation in interrupt mode.
 647:Drivers/STM32F4xx_HAL_Driver/Src/stm32f4xx_hal_tim.c ****   * @param  htim pointer to a TIM_HandleTypeDef structure that contains
 648:Drivers/STM32F4xx_HAL_Driver/Src/stm32f4xx_hal_tim.c ****   *                the configuration information for TIM module.
 649:Drivers/STM32F4xx_HAL_Driver/Src/stm32f4xx_hal_tim.c ****   * @param  Channel TIM Channel to be enabled.
 650:Drivers/STM32F4xx_HAL_Driver/Src/stm32f4xx_hal_tim.c ****   *          This parameter can be one of the following values:
 651:Drivers/STM32F4xx_HAL_Driver/Src/stm32f4xx_hal_tim.c ****   *            @arg TIM_CHANNEL_1: TIM Channel 1 selected
 652:Drivers/STM32F4xx_HAL_Driver/Src/stm32f4xx_hal_tim.c ****   *            @arg TIM_CHANNEL_2: TIM Channel 2 selected
 653:Drivers/STM32F4xx_HAL_Driver/Src/stm32f4xx_hal_tim.c ****   *            @arg TIM_CHANNEL_3: TIM Channel 3 selected
 654:Drivers/STM32F4xx_HAL_Driver/Src/stm32f4xx_hal_tim.c ****   *            @arg TIM_CHANNEL_4: TIM Channel 4 selected
 655:Drivers/STM32F4xx_HAL_Driver/Src/stm32f4xx_hal_tim.c ****   * @retval HAL status
 656:Drivers/STM32F4xx_HAL_Driver/Src/stm32f4xx_hal_tim.c ****   */
 657:Drivers/STM32F4xx_HAL_Driver/Src/stm32f4xx_hal_tim.c **** HAL_StatusTypeDef HAL_TIM_OC_Start_IT(TIM_HandleTypeDef *htim, uint32_t Channel)
 658:Drivers/STM32F4xx_HAL_Driver/Src/stm32f4xx_hal_tim.c **** {
 1186              		.loc 1 658 0
 1187              		.cfi_startproc
 1188              		@ args = 0, pretend = 0, frame = 8
 1189              		@ frame_needed = 1, uses_anonymous_args = 0
 1190 0000 80B5     		push	{r7, lr}
 1191              	.LCFI89:
 1192              		.cfi_def_cfa_offset 8
 1193              		.cfi_offset 7, -8
 1194              		.cfi_offset 14, -4
 1195 0002 82B0     		sub	sp, sp, #8
 1196              	.LCFI90:
 1197              		.cfi_def_cfa_offset 16
 1198 0004 00AF     		add	r7, sp, #0
 1199              	.LCFI91:
ARM GAS  /tmp/cc4tSQEQ.s 			page 33


 1200              		.cfi_def_cfa_register 7
 1201 0006 7860     		str	r0, [r7, #4]
 1202 0008 3960     		str	r1, [r7]
 659:Drivers/STM32F4xx_HAL_Driver/Src/stm32f4xx_hal_tim.c ****   /* Check the parameters */
 660:Drivers/STM32F4xx_HAL_Driver/Src/stm32f4xx_hal_tim.c ****   assert_param(IS_TIM_CCX_INSTANCE(htim->Instance, Channel));
 661:Drivers/STM32F4xx_HAL_Driver/Src/stm32f4xx_hal_tim.c ****   
 662:Drivers/STM32F4xx_HAL_Driver/Src/stm32f4xx_hal_tim.c ****   switch (Channel)
 1203              		.loc 1 662 0
 1204 000a 3B68     		ldr	r3, [r7]
 1205 000c 0C2B     		cmp	r3, #12
 1206 000e 41D8     		bhi	.L60
 1207 0010 01A2     		adr	r2, .L53
 1208 0012 52F823F0 		ldr	pc, [r2, r3, lsl #2]
 1209 0016 00BF     		.p2align 2
 1210              	.L53:
 1211 0018 4D000000 		.word	.L52+1
 1212 001c 95000000 		.word	.L60+1
 1213 0020 95000000 		.word	.L60+1
 1214 0024 95000000 		.word	.L60+1
 1215 0028 5F000000 		.word	.L54+1
 1216 002c 95000000 		.word	.L60+1
 1217 0030 95000000 		.word	.L60+1
 1218 0034 95000000 		.word	.L60+1
 1219 0038 71000000 		.word	.L55+1
 1220 003c 95000000 		.word	.L60+1
 1221 0040 95000000 		.word	.L60+1
 1222 0044 95000000 		.word	.L60+1
 1223 0048 83000000 		.word	.L56+1
 1224              		.p2align 1
 1225              	.L52:
 663:Drivers/STM32F4xx_HAL_Driver/Src/stm32f4xx_hal_tim.c ****   {
 664:Drivers/STM32F4xx_HAL_Driver/Src/stm32f4xx_hal_tim.c ****     case TIM_CHANNEL_1:
 665:Drivers/STM32F4xx_HAL_Driver/Src/stm32f4xx_hal_tim.c ****     {       
 666:Drivers/STM32F4xx_HAL_Driver/Src/stm32f4xx_hal_tim.c ****       /* Enable the TIM Capture/Compare 1 interrupt */
 667:Drivers/STM32F4xx_HAL_Driver/Src/stm32f4xx_hal_tim.c ****       __HAL_TIM_ENABLE_IT(htim, TIM_IT_CC1);
 1226              		.loc 1 667 0
 1227 004c 7B68     		ldr	r3, [r7, #4]
 1228 004e 1B68     		ldr	r3, [r3]
 1229 0050 7A68     		ldr	r2, [r7, #4]
 1230 0052 1268     		ldr	r2, [r2]
 1231 0054 D268     		ldr	r2, [r2, #12]
 1232 0056 42F00202 		orr	r2, r2, #2
 1233 005a DA60     		str	r2, [r3, #12]
 668:Drivers/STM32F4xx_HAL_Driver/Src/stm32f4xx_hal_tim.c ****     }
 669:Drivers/STM32F4xx_HAL_Driver/Src/stm32f4xx_hal_tim.c ****     break;
 1234              		.loc 1 669 0
 1235 005c 1BE0     		b	.L57
 1236              	.L54:
 670:Drivers/STM32F4xx_HAL_Driver/Src/stm32f4xx_hal_tim.c ****     
 671:Drivers/STM32F4xx_HAL_Driver/Src/stm32f4xx_hal_tim.c ****     case TIM_CHANNEL_2:
 672:Drivers/STM32F4xx_HAL_Driver/Src/stm32f4xx_hal_tim.c ****     {
 673:Drivers/STM32F4xx_HAL_Driver/Src/stm32f4xx_hal_tim.c ****       /* Enable the TIM Capture/Compare 2 interrupt */
 674:Drivers/STM32F4xx_HAL_Driver/Src/stm32f4xx_hal_tim.c ****       __HAL_TIM_ENABLE_IT(htim, TIM_IT_CC2);
 1237              		.loc 1 674 0
 1238 005e 7B68     		ldr	r3, [r7, #4]
 1239 0060 1B68     		ldr	r3, [r3]
 1240 0062 7A68     		ldr	r2, [r7, #4]
ARM GAS  /tmp/cc4tSQEQ.s 			page 34


 1241 0064 1268     		ldr	r2, [r2]
 1242 0066 D268     		ldr	r2, [r2, #12]
 1243 0068 42F00402 		orr	r2, r2, #4
 1244 006c DA60     		str	r2, [r3, #12]
 675:Drivers/STM32F4xx_HAL_Driver/Src/stm32f4xx_hal_tim.c ****     }
 676:Drivers/STM32F4xx_HAL_Driver/Src/stm32f4xx_hal_tim.c ****     break;
 1245              		.loc 1 676 0
 1246 006e 12E0     		b	.L57
 1247              	.L55:
 677:Drivers/STM32F4xx_HAL_Driver/Src/stm32f4xx_hal_tim.c ****     
 678:Drivers/STM32F4xx_HAL_Driver/Src/stm32f4xx_hal_tim.c ****     case TIM_CHANNEL_3:
 679:Drivers/STM32F4xx_HAL_Driver/Src/stm32f4xx_hal_tim.c ****     {
 680:Drivers/STM32F4xx_HAL_Driver/Src/stm32f4xx_hal_tim.c ****       /* Enable the TIM Capture/Compare 3 interrupt */
 681:Drivers/STM32F4xx_HAL_Driver/Src/stm32f4xx_hal_tim.c ****       __HAL_TIM_ENABLE_IT(htim, TIM_IT_CC3);
 1248              		.loc 1 681 0
 1249 0070 7B68     		ldr	r3, [r7, #4]
 1250 0072 1B68     		ldr	r3, [r3]
 1251 0074 7A68     		ldr	r2, [r7, #4]
 1252 0076 1268     		ldr	r2, [r2]
 1253 0078 D268     		ldr	r2, [r2, #12]
 1254 007a 42F00802 		orr	r2, r2, #8
 1255 007e DA60     		str	r2, [r3, #12]
 682:Drivers/STM32F4xx_HAL_Driver/Src/stm32f4xx_hal_tim.c ****     }
 683:Drivers/STM32F4xx_HAL_Driver/Src/stm32f4xx_hal_tim.c ****     break;
 1256              		.loc 1 683 0
 1257 0080 09E0     		b	.L57
 1258              	.L56:
 684:Drivers/STM32F4xx_HAL_Driver/Src/stm32f4xx_hal_tim.c ****     
 685:Drivers/STM32F4xx_HAL_Driver/Src/stm32f4xx_hal_tim.c ****     case TIM_CHANNEL_4:
 686:Drivers/STM32F4xx_HAL_Driver/Src/stm32f4xx_hal_tim.c ****     {
 687:Drivers/STM32F4xx_HAL_Driver/Src/stm32f4xx_hal_tim.c ****       /* Enable the TIM Capture/Compare 4 interrupt */
 688:Drivers/STM32F4xx_HAL_Driver/Src/stm32f4xx_hal_tim.c ****       __HAL_TIM_ENABLE_IT(htim, TIM_IT_CC4);
 1259              		.loc 1 688 0
 1260 0082 7B68     		ldr	r3, [r7, #4]
 1261 0084 1B68     		ldr	r3, [r3]
 1262 0086 7A68     		ldr	r2, [r7, #4]
 1263 0088 1268     		ldr	r2, [r2]
 1264 008a D268     		ldr	r2, [r2, #12]
 1265 008c 42F01002 		orr	r2, r2, #16
 1266 0090 DA60     		str	r2, [r3, #12]
 689:Drivers/STM32F4xx_HAL_Driver/Src/stm32f4xx_hal_tim.c ****     }
 690:Drivers/STM32F4xx_HAL_Driver/Src/stm32f4xx_hal_tim.c ****     break;
 1267              		.loc 1 690 0
 1268 0092 00E0     		b	.L57
 1269              	.L60:
 691:Drivers/STM32F4xx_HAL_Driver/Src/stm32f4xx_hal_tim.c ****     
 692:Drivers/STM32F4xx_HAL_Driver/Src/stm32f4xx_hal_tim.c ****     default:
 693:Drivers/STM32F4xx_HAL_Driver/Src/stm32f4xx_hal_tim.c ****     break;
 1270              		.loc 1 693 0
 1271 0094 00BF     		nop
 1272              	.L57:
 694:Drivers/STM32F4xx_HAL_Driver/Src/stm32f4xx_hal_tim.c ****   } 
 695:Drivers/STM32F4xx_HAL_Driver/Src/stm32f4xx_hal_tim.c **** 
 696:Drivers/STM32F4xx_HAL_Driver/Src/stm32f4xx_hal_tim.c ****   /* Enable the Output compare channel */
 697:Drivers/STM32F4xx_HAL_Driver/Src/stm32f4xx_hal_tim.c ****   TIM_CCxChannelCmd(htim->Instance, Channel, TIM_CCx_ENABLE);
 1273              		.loc 1 697 0
 1274 0096 7B68     		ldr	r3, [r7, #4]
ARM GAS  /tmp/cc4tSQEQ.s 			page 35


 1275 0098 1B68     		ldr	r3, [r3]
 1276 009a 0122     		movs	r2, #1
 1277 009c 3968     		ldr	r1, [r7]
 1278 009e 1846     		mov	r0, r3
 1279 00a0 FFF7FEFF 		bl	TIM_CCxChannelCmd
 698:Drivers/STM32F4xx_HAL_Driver/Src/stm32f4xx_hal_tim.c ****   
 699:Drivers/STM32F4xx_HAL_Driver/Src/stm32f4xx_hal_tim.c ****   if(IS_TIM_ADVANCED_INSTANCE(htim->Instance) != RESET)  
 1280              		.loc 1 699 0
 1281 00a4 7B68     		ldr	r3, [r7, #4]
 1282 00a6 1B68     		ldr	r3, [r3]
 1283 00a8 0B4A     		ldr	r2, .L61
 1284 00aa 9342     		cmp	r3, r2
 1285 00ac 07D1     		bne	.L58
 700:Drivers/STM32F4xx_HAL_Driver/Src/stm32f4xx_hal_tim.c ****   {
 701:Drivers/STM32F4xx_HAL_Driver/Src/stm32f4xx_hal_tim.c ****     /* Enable the main output */
 702:Drivers/STM32F4xx_HAL_Driver/Src/stm32f4xx_hal_tim.c ****     __HAL_TIM_MOE_ENABLE(htim);
 1286              		.loc 1 702 0
 1287 00ae 7B68     		ldr	r3, [r7, #4]
 1288 00b0 1B68     		ldr	r3, [r3]
 1289 00b2 7A68     		ldr	r2, [r7, #4]
 1290 00b4 1268     		ldr	r2, [r2]
 1291 00b6 526C     		ldr	r2, [r2, #68]
 1292 00b8 42F40042 		orr	r2, r2, #32768
 1293 00bc 5A64     		str	r2, [r3, #68]
 1294              	.L58:
 703:Drivers/STM32F4xx_HAL_Driver/Src/stm32f4xx_hal_tim.c ****   }
 704:Drivers/STM32F4xx_HAL_Driver/Src/stm32f4xx_hal_tim.c **** 
 705:Drivers/STM32F4xx_HAL_Driver/Src/stm32f4xx_hal_tim.c ****   /* Enable the Peripheral */
 706:Drivers/STM32F4xx_HAL_Driver/Src/stm32f4xx_hal_tim.c ****   __HAL_TIM_ENABLE(htim);
 1295              		.loc 1 706 0
 1296 00be 7B68     		ldr	r3, [r7, #4]
 1297 00c0 1B68     		ldr	r3, [r3]
 1298 00c2 7A68     		ldr	r2, [r7, #4]
 1299 00c4 1268     		ldr	r2, [r2]
 1300 00c6 1268     		ldr	r2, [r2]
 1301 00c8 42F00102 		orr	r2, r2, #1
 1302 00cc 1A60     		str	r2, [r3]
 707:Drivers/STM32F4xx_HAL_Driver/Src/stm32f4xx_hal_tim.c ****   
 708:Drivers/STM32F4xx_HAL_Driver/Src/stm32f4xx_hal_tim.c ****   /* Return function status */
 709:Drivers/STM32F4xx_HAL_Driver/Src/stm32f4xx_hal_tim.c ****   return HAL_OK;
 1303              		.loc 1 709 0
 1304 00ce 0023     		movs	r3, #0
 710:Drivers/STM32F4xx_HAL_Driver/Src/stm32f4xx_hal_tim.c **** }
 1305              		.loc 1 710 0
 1306 00d0 1846     		mov	r0, r3
 1307 00d2 0837     		adds	r7, r7, #8
 1308              	.LCFI92:
 1309              		.cfi_def_cfa_offset 8
 1310 00d4 BD46     		mov	sp, r7
 1311              	.LCFI93:
 1312              		.cfi_def_cfa_register 13
 1313              		@ sp needed
 1314 00d6 80BD     		pop	{r7, pc}
 1315              	.L62:
 1316              		.align	2
 1317              	.L61:
 1318 00d8 00000140 		.word	1073807360
ARM GAS  /tmp/cc4tSQEQ.s 			page 36


 1319              		.cfi_endproc
 1320              	.LFE140:
 1322              		.section	.text.HAL_TIM_OC_Stop_IT,"ax",%progbits
 1323              		.align	1
 1324              		.global	HAL_TIM_OC_Stop_IT
 1325              		.syntax unified
 1326              		.thumb
 1327              		.thumb_func
 1328              		.fpu fpv4-sp-d16
 1330              	HAL_TIM_OC_Stop_IT:
 1331              	.LFB141:
 711:Drivers/STM32F4xx_HAL_Driver/Src/stm32f4xx_hal_tim.c **** 
 712:Drivers/STM32F4xx_HAL_Driver/Src/stm32f4xx_hal_tim.c **** /**
 713:Drivers/STM32F4xx_HAL_Driver/Src/stm32f4xx_hal_tim.c ****   * @brief  Stops the TIM Output Compare signal generation in interrupt mode.
 714:Drivers/STM32F4xx_HAL_Driver/Src/stm32f4xx_hal_tim.c ****   * @param  htim pointer to a TIM_HandleTypeDef structure that contains
 715:Drivers/STM32F4xx_HAL_Driver/Src/stm32f4xx_hal_tim.c ****   *                the configuration information for TIM module.
 716:Drivers/STM32F4xx_HAL_Driver/Src/stm32f4xx_hal_tim.c ****   * @param  Channel TIM Channel to be disabled.
 717:Drivers/STM32F4xx_HAL_Driver/Src/stm32f4xx_hal_tim.c ****   *          This parameter can be one of the following values:
 718:Drivers/STM32F4xx_HAL_Driver/Src/stm32f4xx_hal_tim.c ****   *            @arg TIM_CHANNEL_1: TIM Channel 1 selected
 719:Drivers/STM32F4xx_HAL_Driver/Src/stm32f4xx_hal_tim.c ****   *            @arg TIM_CHANNEL_2: TIM Channel 2 selected
 720:Drivers/STM32F4xx_HAL_Driver/Src/stm32f4xx_hal_tim.c ****   *            @arg TIM_CHANNEL_3: TIM Channel 3 selected
 721:Drivers/STM32F4xx_HAL_Driver/Src/stm32f4xx_hal_tim.c ****   *            @arg TIM_CHANNEL_4: TIM Channel 4 selected
 722:Drivers/STM32F4xx_HAL_Driver/Src/stm32f4xx_hal_tim.c ****   * @retval HAL status
 723:Drivers/STM32F4xx_HAL_Driver/Src/stm32f4xx_hal_tim.c ****   */
 724:Drivers/STM32F4xx_HAL_Driver/Src/stm32f4xx_hal_tim.c **** HAL_StatusTypeDef HAL_TIM_OC_Stop_IT(TIM_HandleTypeDef *htim, uint32_t Channel)
 725:Drivers/STM32F4xx_HAL_Driver/Src/stm32f4xx_hal_tim.c **** {
 1332              		.loc 1 725 0
 1333              		.cfi_startproc
 1334              		@ args = 0, pretend = 0, frame = 8
 1335              		@ frame_needed = 1, uses_anonymous_args = 0
 1336 0000 80B5     		push	{r7, lr}
 1337              	.LCFI94:
 1338              		.cfi_def_cfa_offset 8
 1339              		.cfi_offset 7, -8
 1340              		.cfi_offset 14, -4
 1341 0002 82B0     		sub	sp, sp, #8
 1342              	.LCFI95:
 1343              		.cfi_def_cfa_offset 16
 1344 0004 00AF     		add	r7, sp, #0
 1345              	.LCFI96:
 1346              		.cfi_def_cfa_register 7
 1347 0006 7860     		str	r0, [r7, #4]
 1348 0008 3960     		str	r1, [r7]
 726:Drivers/STM32F4xx_HAL_Driver/Src/stm32f4xx_hal_tim.c ****   /* Check the parameters */
 727:Drivers/STM32F4xx_HAL_Driver/Src/stm32f4xx_hal_tim.c ****   assert_param(IS_TIM_CCX_INSTANCE(htim->Instance, Channel));
 728:Drivers/STM32F4xx_HAL_Driver/Src/stm32f4xx_hal_tim.c ****   
 729:Drivers/STM32F4xx_HAL_Driver/Src/stm32f4xx_hal_tim.c ****   switch (Channel)
 1349              		.loc 1 729 0
 1350 000a 3B68     		ldr	r3, [r7]
 1351 000c 0C2B     		cmp	r3, #12
 1352 000e 41D8     		bhi	.L74
 1353 0010 01A2     		adr	r2, .L66
 1354 0012 52F823F0 		ldr	pc, [r2, r3, lsl #2]
 1355 0016 00BF     		.p2align 2
 1356              	.L66:
 1357 0018 4D000000 		.word	.L65+1
 1358 001c 95000000 		.word	.L74+1
ARM GAS  /tmp/cc4tSQEQ.s 			page 37


 1359 0020 95000000 		.word	.L74+1
 1360 0024 95000000 		.word	.L74+1
 1361 0028 5F000000 		.word	.L67+1
 1362 002c 95000000 		.word	.L74+1
 1363 0030 95000000 		.word	.L74+1
 1364 0034 95000000 		.word	.L74+1
 1365 0038 71000000 		.word	.L68+1
 1366 003c 95000000 		.word	.L74+1
 1367 0040 95000000 		.word	.L74+1
 1368 0044 95000000 		.word	.L74+1
 1369 0048 83000000 		.word	.L69+1
 1370              		.p2align 1
 1371              	.L65:
 730:Drivers/STM32F4xx_HAL_Driver/Src/stm32f4xx_hal_tim.c ****   {
 731:Drivers/STM32F4xx_HAL_Driver/Src/stm32f4xx_hal_tim.c ****     case TIM_CHANNEL_1:
 732:Drivers/STM32F4xx_HAL_Driver/Src/stm32f4xx_hal_tim.c ****     {       
 733:Drivers/STM32F4xx_HAL_Driver/Src/stm32f4xx_hal_tim.c ****       /* Disable the TIM Capture/Compare 1 interrupt */
 734:Drivers/STM32F4xx_HAL_Driver/Src/stm32f4xx_hal_tim.c ****       __HAL_TIM_DISABLE_IT(htim, TIM_IT_CC1);
 1372              		.loc 1 734 0
 1373 004c 7B68     		ldr	r3, [r7, #4]
 1374 004e 1B68     		ldr	r3, [r3]
 1375 0050 7A68     		ldr	r2, [r7, #4]
 1376 0052 1268     		ldr	r2, [r2]
 1377 0054 D268     		ldr	r2, [r2, #12]
 1378 0056 22F00202 		bic	r2, r2, #2
 1379 005a DA60     		str	r2, [r3, #12]
 735:Drivers/STM32F4xx_HAL_Driver/Src/stm32f4xx_hal_tim.c ****     }
 736:Drivers/STM32F4xx_HAL_Driver/Src/stm32f4xx_hal_tim.c ****     break;
 1380              		.loc 1 736 0
 1381 005c 1BE0     		b	.L70
 1382              	.L67:
 737:Drivers/STM32F4xx_HAL_Driver/Src/stm32f4xx_hal_tim.c ****     
 738:Drivers/STM32F4xx_HAL_Driver/Src/stm32f4xx_hal_tim.c ****     case TIM_CHANNEL_2:
 739:Drivers/STM32F4xx_HAL_Driver/Src/stm32f4xx_hal_tim.c ****     {
 740:Drivers/STM32F4xx_HAL_Driver/Src/stm32f4xx_hal_tim.c ****       /* Disable the TIM Capture/Compare 2 interrupt */
 741:Drivers/STM32F4xx_HAL_Driver/Src/stm32f4xx_hal_tim.c ****       __HAL_TIM_DISABLE_IT(htim, TIM_IT_CC2);
 1383              		.loc 1 741 0
 1384 005e 7B68     		ldr	r3, [r7, #4]
 1385 0060 1B68     		ldr	r3, [r3]
 1386 0062 7A68     		ldr	r2, [r7, #4]
 1387 0064 1268     		ldr	r2, [r2]
 1388 0066 D268     		ldr	r2, [r2, #12]
 1389 0068 22F00402 		bic	r2, r2, #4
 1390 006c DA60     		str	r2, [r3, #12]
 742:Drivers/STM32F4xx_HAL_Driver/Src/stm32f4xx_hal_tim.c ****     }
 743:Drivers/STM32F4xx_HAL_Driver/Src/stm32f4xx_hal_tim.c ****     break;
 1391              		.loc 1 743 0
 1392 006e 12E0     		b	.L70
 1393              	.L68:
 744:Drivers/STM32F4xx_HAL_Driver/Src/stm32f4xx_hal_tim.c ****     
 745:Drivers/STM32F4xx_HAL_Driver/Src/stm32f4xx_hal_tim.c ****     case TIM_CHANNEL_3:
 746:Drivers/STM32F4xx_HAL_Driver/Src/stm32f4xx_hal_tim.c ****     {
 747:Drivers/STM32F4xx_HAL_Driver/Src/stm32f4xx_hal_tim.c ****       /* Disable the TIM Capture/Compare 3 interrupt */
 748:Drivers/STM32F4xx_HAL_Driver/Src/stm32f4xx_hal_tim.c ****       __HAL_TIM_DISABLE_IT(htim, TIM_IT_CC3);
 1394              		.loc 1 748 0
 1395 0070 7B68     		ldr	r3, [r7, #4]
 1396 0072 1B68     		ldr	r3, [r3]
ARM GAS  /tmp/cc4tSQEQ.s 			page 38


 1397 0074 7A68     		ldr	r2, [r7, #4]
 1398 0076 1268     		ldr	r2, [r2]
 1399 0078 D268     		ldr	r2, [r2, #12]
 1400 007a 22F00802 		bic	r2, r2, #8
 1401 007e DA60     		str	r2, [r3, #12]
 749:Drivers/STM32F4xx_HAL_Driver/Src/stm32f4xx_hal_tim.c ****     }
 750:Drivers/STM32F4xx_HAL_Driver/Src/stm32f4xx_hal_tim.c ****     break;
 1402              		.loc 1 750 0
 1403 0080 09E0     		b	.L70
 1404              	.L69:
 751:Drivers/STM32F4xx_HAL_Driver/Src/stm32f4xx_hal_tim.c ****     
 752:Drivers/STM32F4xx_HAL_Driver/Src/stm32f4xx_hal_tim.c ****     case TIM_CHANNEL_4:
 753:Drivers/STM32F4xx_HAL_Driver/Src/stm32f4xx_hal_tim.c ****     {
 754:Drivers/STM32F4xx_HAL_Driver/Src/stm32f4xx_hal_tim.c ****       /* Disable the TIM Capture/Compare 4 interrupt */
 755:Drivers/STM32F4xx_HAL_Driver/Src/stm32f4xx_hal_tim.c ****       __HAL_TIM_DISABLE_IT(htim, TIM_IT_CC4);
 1405              		.loc 1 755 0
 1406 0082 7B68     		ldr	r3, [r7, #4]
 1407 0084 1B68     		ldr	r3, [r3]
 1408 0086 7A68     		ldr	r2, [r7, #4]
 1409 0088 1268     		ldr	r2, [r2]
 1410 008a D268     		ldr	r2, [r2, #12]
 1411 008c 22F01002 		bic	r2, r2, #16
 1412 0090 DA60     		str	r2, [r3, #12]
 756:Drivers/STM32F4xx_HAL_Driver/Src/stm32f4xx_hal_tim.c ****     }
 757:Drivers/STM32F4xx_HAL_Driver/Src/stm32f4xx_hal_tim.c ****     break;
 1413              		.loc 1 757 0
 1414 0092 00E0     		b	.L70
 1415              	.L74:
 758:Drivers/STM32F4xx_HAL_Driver/Src/stm32f4xx_hal_tim.c ****     
 759:Drivers/STM32F4xx_HAL_Driver/Src/stm32f4xx_hal_tim.c ****     default:
 760:Drivers/STM32F4xx_HAL_Driver/Src/stm32f4xx_hal_tim.c ****     break; 
 1416              		.loc 1 760 0
 1417 0094 00BF     		nop
 1418              	.L70:
 761:Drivers/STM32F4xx_HAL_Driver/Src/stm32f4xx_hal_tim.c ****   } 
 762:Drivers/STM32F4xx_HAL_Driver/Src/stm32f4xx_hal_tim.c ****   
 763:Drivers/STM32F4xx_HAL_Driver/Src/stm32f4xx_hal_tim.c ****   /* Disable the Output compare channel */
 764:Drivers/STM32F4xx_HAL_Driver/Src/stm32f4xx_hal_tim.c ****   TIM_CCxChannelCmd(htim->Instance, Channel, TIM_CCx_DISABLE); 
 1419              		.loc 1 764 0
 1420 0096 7B68     		ldr	r3, [r7, #4]
 1421 0098 1B68     		ldr	r3, [r3]
 1422 009a 0022     		movs	r2, #0
 1423 009c 3968     		ldr	r1, [r7]
 1424 009e 1846     		mov	r0, r3
 1425 00a0 FFF7FEFF 		bl	TIM_CCxChannelCmd
 765:Drivers/STM32F4xx_HAL_Driver/Src/stm32f4xx_hal_tim.c ****   
 766:Drivers/STM32F4xx_HAL_Driver/Src/stm32f4xx_hal_tim.c ****   if(IS_TIM_ADVANCED_INSTANCE(htim->Instance) != RESET)  
 1426              		.loc 1 766 0
 1427 00a4 7B68     		ldr	r3, [r7, #4]
 1428 00a6 1B68     		ldr	r3, [r3]
 1429 00a8 1B4A     		ldr	r2, .L75
 1430 00aa 9342     		cmp	r3, r2
 1431 00ac 17D1     		bne	.L71
 767:Drivers/STM32F4xx_HAL_Driver/Src/stm32f4xx_hal_tim.c ****   {
 768:Drivers/STM32F4xx_HAL_Driver/Src/stm32f4xx_hal_tim.c ****     /* Disable the Main Output */
 769:Drivers/STM32F4xx_HAL_Driver/Src/stm32f4xx_hal_tim.c ****     __HAL_TIM_MOE_DISABLE(htim);
 1432              		.loc 1 769 0
ARM GAS  /tmp/cc4tSQEQ.s 			page 39


 1433 00ae 7B68     		ldr	r3, [r7, #4]
 1434 00b0 1B68     		ldr	r3, [r3]
 1435 00b2 1A6A     		ldr	r2, [r3, #32]
 1436 00b4 41F21113 		movw	r3, #4369
 1437 00b8 1340     		ands	r3, r3, r2
 1438 00ba 002B     		cmp	r3, #0
 1439 00bc 0FD1     		bne	.L71
 1440              		.loc 1 769 0 is_stmt 0 discriminator 1
 1441 00be 7B68     		ldr	r3, [r7, #4]
 1442 00c0 1B68     		ldr	r3, [r3]
 1443 00c2 1A6A     		ldr	r2, [r3, #32]
 1444 00c4 40F24443 		movw	r3, #1092
 1445 00c8 1340     		ands	r3, r3, r2
 1446 00ca 002B     		cmp	r3, #0
 1447 00cc 07D1     		bne	.L71
 1448              		.loc 1 769 0 discriminator 2
 1449 00ce 7B68     		ldr	r3, [r7, #4]
 1450 00d0 1B68     		ldr	r3, [r3]
 1451 00d2 7A68     		ldr	r2, [r7, #4]
 1452 00d4 1268     		ldr	r2, [r2]
 1453 00d6 526C     		ldr	r2, [r2, #68]
 1454 00d8 22F40042 		bic	r2, r2, #32768
 1455 00dc 5A64     		str	r2, [r3, #68]
 1456              	.L71:
 770:Drivers/STM32F4xx_HAL_Driver/Src/stm32f4xx_hal_tim.c ****   }
 771:Drivers/STM32F4xx_HAL_Driver/Src/stm32f4xx_hal_tim.c ****   
 772:Drivers/STM32F4xx_HAL_Driver/Src/stm32f4xx_hal_tim.c ****   /* Disable the Peripheral */
 773:Drivers/STM32F4xx_HAL_Driver/Src/stm32f4xx_hal_tim.c ****   __HAL_TIM_DISABLE(htim);  
 1457              		.loc 1 773 0 is_stmt 1
 1458 00de 7B68     		ldr	r3, [r7, #4]
 1459 00e0 1B68     		ldr	r3, [r3]
 1460 00e2 1A6A     		ldr	r2, [r3, #32]
 1461 00e4 41F21113 		movw	r3, #4369
 1462 00e8 1340     		ands	r3, r3, r2
 1463 00ea 002B     		cmp	r3, #0
 1464 00ec 0FD1     		bne	.L72
 1465              		.loc 1 773 0 is_stmt 0 discriminator 1
 1466 00ee 7B68     		ldr	r3, [r7, #4]
 1467 00f0 1B68     		ldr	r3, [r3]
 1468 00f2 1A6A     		ldr	r2, [r3, #32]
 1469 00f4 40F24443 		movw	r3, #1092
 1470 00f8 1340     		ands	r3, r3, r2
 1471 00fa 002B     		cmp	r3, #0
 1472 00fc 07D1     		bne	.L72
 1473              		.loc 1 773 0 discriminator 2
 1474 00fe 7B68     		ldr	r3, [r7, #4]
 1475 0100 1B68     		ldr	r3, [r3]
 1476 0102 7A68     		ldr	r2, [r7, #4]
 1477 0104 1268     		ldr	r2, [r2]
 1478 0106 1268     		ldr	r2, [r2]
 1479 0108 22F00102 		bic	r2, r2, #1
 1480 010c 1A60     		str	r2, [r3]
 1481              	.L72:
 774:Drivers/STM32F4xx_HAL_Driver/Src/stm32f4xx_hal_tim.c ****   
 775:Drivers/STM32F4xx_HAL_Driver/Src/stm32f4xx_hal_tim.c ****   /* Return function status */
 776:Drivers/STM32F4xx_HAL_Driver/Src/stm32f4xx_hal_tim.c ****   return HAL_OK;
 1482              		.loc 1 776 0 is_stmt 1
ARM GAS  /tmp/cc4tSQEQ.s 			page 40


 1483 010e 0023     		movs	r3, #0
 777:Drivers/STM32F4xx_HAL_Driver/Src/stm32f4xx_hal_tim.c **** }
 1484              		.loc 1 777 0
 1485 0110 1846     		mov	r0, r3
 1486 0112 0837     		adds	r7, r7, #8
 1487              	.LCFI97:
 1488              		.cfi_def_cfa_offset 8
 1489 0114 BD46     		mov	sp, r7
 1490              	.LCFI98:
 1491              		.cfi_def_cfa_register 13
 1492              		@ sp needed
 1493 0116 80BD     		pop	{r7, pc}
 1494              	.L76:
 1495              		.align	2
 1496              	.L75:
 1497 0118 00000140 		.word	1073807360
 1498              		.cfi_endproc
 1499              	.LFE141:
 1501              		.section	.text.HAL_TIM_OC_Start_DMA,"ax",%progbits
 1502              		.align	1
 1503              		.global	HAL_TIM_OC_Start_DMA
 1504              		.syntax unified
 1505              		.thumb
 1506              		.thumb_func
 1507              		.fpu fpv4-sp-d16
 1509              	HAL_TIM_OC_Start_DMA:
 1510              	.LFB142:
 778:Drivers/STM32F4xx_HAL_Driver/Src/stm32f4xx_hal_tim.c **** 
 779:Drivers/STM32F4xx_HAL_Driver/Src/stm32f4xx_hal_tim.c **** /**
 780:Drivers/STM32F4xx_HAL_Driver/Src/stm32f4xx_hal_tim.c ****   * @brief  Starts the TIM Output Compare signal generation in DMA mode.
 781:Drivers/STM32F4xx_HAL_Driver/Src/stm32f4xx_hal_tim.c ****   * @param  htim pointer to a TIM_HandleTypeDef structure that contains
 782:Drivers/STM32F4xx_HAL_Driver/Src/stm32f4xx_hal_tim.c ****   *                the configuration information for TIM module.
 783:Drivers/STM32F4xx_HAL_Driver/Src/stm32f4xx_hal_tim.c ****   * @param  Channel TIM Channel to be enabled.
 784:Drivers/STM32F4xx_HAL_Driver/Src/stm32f4xx_hal_tim.c ****   *          This parameter can be one of the following values:
 785:Drivers/STM32F4xx_HAL_Driver/Src/stm32f4xx_hal_tim.c ****   *            @arg TIM_CHANNEL_1: TIM Channel 1 selected
 786:Drivers/STM32F4xx_HAL_Driver/Src/stm32f4xx_hal_tim.c ****   *            @arg TIM_CHANNEL_2: TIM Channel 2 selected
 787:Drivers/STM32F4xx_HAL_Driver/Src/stm32f4xx_hal_tim.c ****   *            @arg TIM_CHANNEL_3: TIM Channel 3 selected
 788:Drivers/STM32F4xx_HAL_Driver/Src/stm32f4xx_hal_tim.c ****   *            @arg TIM_CHANNEL_4: TIM Channel 4 selected
 789:Drivers/STM32F4xx_HAL_Driver/Src/stm32f4xx_hal_tim.c ****   * @param  pData The source Buffer address.
 790:Drivers/STM32F4xx_HAL_Driver/Src/stm32f4xx_hal_tim.c ****   * @param  Length The length of data to be transferred from memory to TIM peripheral
 791:Drivers/STM32F4xx_HAL_Driver/Src/stm32f4xx_hal_tim.c ****   * @retval HAL status
 792:Drivers/STM32F4xx_HAL_Driver/Src/stm32f4xx_hal_tim.c ****   */
 793:Drivers/STM32F4xx_HAL_Driver/Src/stm32f4xx_hal_tim.c **** HAL_StatusTypeDef HAL_TIM_OC_Start_DMA(TIM_HandleTypeDef *htim, uint32_t Channel, uint32_t *pData, 
 794:Drivers/STM32F4xx_HAL_Driver/Src/stm32f4xx_hal_tim.c **** {
 1511              		.loc 1 794 0
 1512              		.cfi_startproc
 1513              		@ args = 0, pretend = 0, frame = 16
 1514              		@ frame_needed = 1, uses_anonymous_args = 0
 1515 0000 80B5     		push	{r7, lr}
 1516              	.LCFI99:
 1517              		.cfi_def_cfa_offset 8
 1518              		.cfi_offset 7, -8
 1519              		.cfi_offset 14, -4
 1520 0002 84B0     		sub	sp, sp, #16
 1521              	.LCFI100:
 1522              		.cfi_def_cfa_offset 24
 1523 0004 00AF     		add	r7, sp, #0
ARM GAS  /tmp/cc4tSQEQ.s 			page 41


 1524              	.LCFI101:
 1525              		.cfi_def_cfa_register 7
 1526 0006 F860     		str	r0, [r7, #12]
 1527 0008 B960     		str	r1, [r7, #8]
 1528 000a 7A60     		str	r2, [r7, #4]
 1529 000c 7B80     		strh	r3, [r7, #2]	@ movhi
 795:Drivers/STM32F4xx_HAL_Driver/Src/stm32f4xx_hal_tim.c ****   /* Check the parameters */
 796:Drivers/STM32F4xx_HAL_Driver/Src/stm32f4xx_hal_tim.c ****   assert_param(IS_TIM_CCX_INSTANCE(htim->Instance, Channel));
 797:Drivers/STM32F4xx_HAL_Driver/Src/stm32f4xx_hal_tim.c ****   
 798:Drivers/STM32F4xx_HAL_Driver/Src/stm32f4xx_hal_tim.c ****   if((htim->State == HAL_TIM_STATE_BUSY))
 1530              		.loc 1 798 0
 1531 000e FB68     		ldr	r3, [r7, #12]
 1532 0010 93F83930 		ldrb	r3, [r3, #57]
 1533 0014 DBB2     		uxtb	r3, r3
 1534 0016 022B     		cmp	r3, #2
 1535 0018 01D1     		bne	.L78
 799:Drivers/STM32F4xx_HAL_Driver/Src/stm32f4xx_hal_tim.c ****   {
 800:Drivers/STM32F4xx_HAL_Driver/Src/stm32f4xx_hal_tim.c ****      return HAL_BUSY;
 1536              		.loc 1 800 0
 1537 001a 0223     		movs	r3, #2
 1538 001c BCE0     		b	.L79
 1539              	.L78:
 801:Drivers/STM32F4xx_HAL_Driver/Src/stm32f4xx_hal_tim.c ****   }
 802:Drivers/STM32F4xx_HAL_Driver/Src/stm32f4xx_hal_tim.c ****   else if((htim->State == HAL_TIM_STATE_READY))
 1540              		.loc 1 802 0
 1541 001e FB68     		ldr	r3, [r7, #12]
 1542 0020 93F83930 		ldrb	r3, [r3, #57]
 1543 0024 DBB2     		uxtb	r3, r3
 1544 0026 012B     		cmp	r3, #1
 1545 0028 0BD1     		bne	.L80
 803:Drivers/STM32F4xx_HAL_Driver/Src/stm32f4xx_hal_tim.c ****   {
 804:Drivers/STM32F4xx_HAL_Driver/Src/stm32f4xx_hal_tim.c ****     if(((uint32_t)pData == 0U) && (Length > 0)) 
 1546              		.loc 1 804 0
 1547 002a 7B68     		ldr	r3, [r7, #4]
 1548 002c 002B     		cmp	r3, #0
 1549 002e 04D1     		bne	.L81
 1550              		.loc 1 804 0 is_stmt 0 discriminator 1
 1551 0030 7B88     		ldrh	r3, [r7, #2]
 1552 0032 002B     		cmp	r3, #0
 1553 0034 01D0     		beq	.L81
 805:Drivers/STM32F4xx_HAL_Driver/Src/stm32f4xx_hal_tim.c ****     {
 806:Drivers/STM32F4xx_HAL_Driver/Src/stm32f4xx_hal_tim.c ****       return HAL_ERROR;                                    
 1554              		.loc 1 806 0 is_stmt 1
 1555 0036 0123     		movs	r3, #1
 1556 0038 AEE0     		b	.L79
 1557              	.L81:
 807:Drivers/STM32F4xx_HAL_Driver/Src/stm32f4xx_hal_tim.c ****     }
 808:Drivers/STM32F4xx_HAL_Driver/Src/stm32f4xx_hal_tim.c ****     else
 809:Drivers/STM32F4xx_HAL_Driver/Src/stm32f4xx_hal_tim.c ****     {
 810:Drivers/STM32F4xx_HAL_Driver/Src/stm32f4xx_hal_tim.c ****       htim->State = HAL_TIM_STATE_BUSY;
 1558              		.loc 1 810 0
 1559 003a FB68     		ldr	r3, [r7, #12]
 1560 003c 0222     		movs	r2, #2
 1561 003e 83F83920 		strb	r2, [r3, #57]
 1562              	.L80:
 811:Drivers/STM32F4xx_HAL_Driver/Src/stm32f4xx_hal_tim.c ****     }
 812:Drivers/STM32F4xx_HAL_Driver/Src/stm32f4xx_hal_tim.c ****   }    
ARM GAS  /tmp/cc4tSQEQ.s 			page 42


 813:Drivers/STM32F4xx_HAL_Driver/Src/stm32f4xx_hal_tim.c ****   switch (Channel)
 1563              		.loc 1 813 0
 1564 0042 BB68     		ldr	r3, [r7, #8]
 1565 0044 0C2B     		cmp	r3, #12
 1566 0046 00F28980 		bhi	.L90
 1567 004a 01A2     		adr	r2, .L84
 1568 004c 52F823F0 		ldr	pc, [r2, r3, lsl #2]
 1569              		.p2align 2
 1570              	.L84:
 1571 0050 85000000 		.word	.L83+1
 1572 0054 5D010000 		.word	.L90+1
 1573 0058 5D010000 		.word	.L90+1
 1574 005c 5D010000 		.word	.L90+1
 1575 0060 BB000000 		.word	.L85+1
 1576 0064 5D010000 		.word	.L90+1
 1577 0068 5D010000 		.word	.L90+1
 1578 006c 5D010000 		.word	.L90+1
 1579 0070 F1000000 		.word	.L86+1
 1580 0074 5D010000 		.word	.L90+1
 1581 0078 5D010000 		.word	.L90+1
 1582 007c 5D010000 		.word	.L90+1
 1583 0080 27010000 		.word	.L87+1
 1584              		.p2align 1
 1585              	.L83:
 814:Drivers/STM32F4xx_HAL_Driver/Src/stm32f4xx_hal_tim.c ****   {
 815:Drivers/STM32F4xx_HAL_Driver/Src/stm32f4xx_hal_tim.c ****     case TIM_CHANNEL_1:
 816:Drivers/STM32F4xx_HAL_Driver/Src/stm32f4xx_hal_tim.c ****     {      
 817:Drivers/STM32F4xx_HAL_Driver/Src/stm32f4xx_hal_tim.c ****       /* Set the DMA Period elapsed callback */
 818:Drivers/STM32F4xx_HAL_Driver/Src/stm32f4xx_hal_tim.c ****       htim->hdma[TIM_DMA_ID_CC1]->XferCpltCallback = TIM_DMADelayPulseCplt;
 1586              		.loc 1 818 0
 1587 0084 FB68     		ldr	r3, [r7, #12]
 1588 0086 1B6A     		ldr	r3, [r3, #32]
 1589 0088 454A     		ldr	r2, .L91
 1590 008a DA63     		str	r2, [r3, #60]
 819:Drivers/STM32F4xx_HAL_Driver/Src/stm32f4xx_hal_tim.c ****      
 820:Drivers/STM32F4xx_HAL_Driver/Src/stm32f4xx_hal_tim.c ****       /* Set the DMA error callback */
 821:Drivers/STM32F4xx_HAL_Driver/Src/stm32f4xx_hal_tim.c ****       htim->hdma[TIM_DMA_ID_CC1]->XferErrorCallback = TIM_DMAError ;
 1591              		.loc 1 821 0
 1592 008c FB68     		ldr	r3, [r7, #12]
 1593 008e 1B6A     		ldr	r3, [r3, #32]
 1594 0090 444A     		ldr	r2, .L91+4
 1595 0092 DA64     		str	r2, [r3, #76]
 822:Drivers/STM32F4xx_HAL_Driver/Src/stm32f4xx_hal_tim.c ****       
 823:Drivers/STM32F4xx_HAL_Driver/Src/stm32f4xx_hal_tim.c ****       /* Enable the DMA Stream */
 824:Drivers/STM32F4xx_HAL_Driver/Src/stm32f4xx_hal_tim.c ****       HAL_DMA_Start_IT(htim->hdma[TIM_DMA_ID_CC1], (uint32_t)pData, (uint32_t)&htim->Instance->CCR1
 1596              		.loc 1 824 0
 1597 0094 FB68     		ldr	r3, [r7, #12]
 1598 0096 186A     		ldr	r0, [r3, #32]
 1599 0098 7968     		ldr	r1, [r7, #4]
 1600 009a FB68     		ldr	r3, [r7, #12]
 1601 009c 1B68     		ldr	r3, [r3]
 1602 009e 3433     		adds	r3, r3, #52
 1603 00a0 1A46     		mov	r2, r3
 1604 00a2 7B88     		ldrh	r3, [r7, #2]
 1605 00a4 FFF7FEFF 		bl	HAL_DMA_Start_IT
 825:Drivers/STM32F4xx_HAL_Driver/Src/stm32f4xx_hal_tim.c ****       
 826:Drivers/STM32F4xx_HAL_Driver/Src/stm32f4xx_hal_tim.c ****       /* Enable the TIM Capture/Compare 1 DMA request */
ARM GAS  /tmp/cc4tSQEQ.s 			page 43


 827:Drivers/STM32F4xx_HAL_Driver/Src/stm32f4xx_hal_tim.c ****       __HAL_TIM_ENABLE_DMA(htim, TIM_DMA_CC1);
 1606              		.loc 1 827 0
 1607 00a8 FB68     		ldr	r3, [r7, #12]
 1608 00aa 1B68     		ldr	r3, [r3]
 1609 00ac FA68     		ldr	r2, [r7, #12]
 1610 00ae 1268     		ldr	r2, [r2]
 1611 00b0 D268     		ldr	r2, [r2, #12]
 1612 00b2 42F40072 		orr	r2, r2, #512
 1613 00b6 DA60     		str	r2, [r3, #12]
 828:Drivers/STM32F4xx_HAL_Driver/Src/stm32f4xx_hal_tim.c ****     }
 829:Drivers/STM32F4xx_HAL_Driver/Src/stm32f4xx_hal_tim.c ****     break;
 1614              		.loc 1 829 0
 1615 00b8 51E0     		b	.L88
 1616              	.L85:
 830:Drivers/STM32F4xx_HAL_Driver/Src/stm32f4xx_hal_tim.c ****     
 831:Drivers/STM32F4xx_HAL_Driver/Src/stm32f4xx_hal_tim.c ****     case TIM_CHANNEL_2:
 832:Drivers/STM32F4xx_HAL_Driver/Src/stm32f4xx_hal_tim.c ****     {
 833:Drivers/STM32F4xx_HAL_Driver/Src/stm32f4xx_hal_tim.c ****       /* Set the DMA Period elapsed callback */
 834:Drivers/STM32F4xx_HAL_Driver/Src/stm32f4xx_hal_tim.c ****       htim->hdma[TIM_DMA_ID_CC2]->XferCpltCallback = TIM_DMADelayPulseCplt;
 1617              		.loc 1 834 0
 1618 00ba FB68     		ldr	r3, [r7, #12]
 1619 00bc 5B6A     		ldr	r3, [r3, #36]
 1620 00be 384A     		ldr	r2, .L91
 1621 00c0 DA63     		str	r2, [r3, #60]
 835:Drivers/STM32F4xx_HAL_Driver/Src/stm32f4xx_hal_tim.c ****      
 836:Drivers/STM32F4xx_HAL_Driver/Src/stm32f4xx_hal_tim.c ****       /* Set the DMA error callback */
 837:Drivers/STM32F4xx_HAL_Driver/Src/stm32f4xx_hal_tim.c ****       htim->hdma[TIM_DMA_ID_CC2]->XferErrorCallback = TIM_DMAError ;
 1622              		.loc 1 837 0
 1623 00c2 FB68     		ldr	r3, [r7, #12]
 1624 00c4 5B6A     		ldr	r3, [r3, #36]
 1625 00c6 374A     		ldr	r2, .L91+4
 1626 00c8 DA64     		str	r2, [r3, #76]
 838:Drivers/STM32F4xx_HAL_Driver/Src/stm32f4xx_hal_tim.c ****       
 839:Drivers/STM32F4xx_HAL_Driver/Src/stm32f4xx_hal_tim.c ****       /* Enable the DMA Stream */
 840:Drivers/STM32F4xx_HAL_Driver/Src/stm32f4xx_hal_tim.c ****       HAL_DMA_Start_IT(htim->hdma[TIM_DMA_ID_CC2], (uint32_t)pData, (uint32_t)&htim->Instance->CCR2
 1627              		.loc 1 840 0
 1628 00ca FB68     		ldr	r3, [r7, #12]
 1629 00cc 586A     		ldr	r0, [r3, #36]
 1630 00ce 7968     		ldr	r1, [r7, #4]
 1631 00d0 FB68     		ldr	r3, [r7, #12]
 1632 00d2 1B68     		ldr	r3, [r3]
 1633 00d4 3833     		adds	r3, r3, #56
 1634 00d6 1A46     		mov	r2, r3
 1635 00d8 7B88     		ldrh	r3, [r7, #2]
 1636 00da FFF7FEFF 		bl	HAL_DMA_Start_IT
 841:Drivers/STM32F4xx_HAL_Driver/Src/stm32f4xx_hal_tim.c ****       
 842:Drivers/STM32F4xx_HAL_Driver/Src/stm32f4xx_hal_tim.c ****       /* Enable the TIM Capture/Compare 2 DMA request */
 843:Drivers/STM32F4xx_HAL_Driver/Src/stm32f4xx_hal_tim.c ****       __HAL_TIM_ENABLE_DMA(htim, TIM_DMA_CC2);
 1637              		.loc 1 843 0
 1638 00de FB68     		ldr	r3, [r7, #12]
 1639 00e0 1B68     		ldr	r3, [r3]
 1640 00e2 FA68     		ldr	r2, [r7, #12]
 1641 00e4 1268     		ldr	r2, [r2]
 1642 00e6 D268     		ldr	r2, [r2, #12]
 1643 00e8 42F48062 		orr	r2, r2, #1024
 1644 00ec DA60     		str	r2, [r3, #12]
 844:Drivers/STM32F4xx_HAL_Driver/Src/stm32f4xx_hal_tim.c ****     }
ARM GAS  /tmp/cc4tSQEQ.s 			page 44


 845:Drivers/STM32F4xx_HAL_Driver/Src/stm32f4xx_hal_tim.c ****     break;
 1645              		.loc 1 845 0
 1646 00ee 36E0     		b	.L88
 1647              	.L86:
 846:Drivers/STM32F4xx_HAL_Driver/Src/stm32f4xx_hal_tim.c ****     
 847:Drivers/STM32F4xx_HAL_Driver/Src/stm32f4xx_hal_tim.c ****     case TIM_CHANNEL_3:
 848:Drivers/STM32F4xx_HAL_Driver/Src/stm32f4xx_hal_tim.c ****     {
 849:Drivers/STM32F4xx_HAL_Driver/Src/stm32f4xx_hal_tim.c ****       /* Set the DMA Period elapsed callback */
 850:Drivers/STM32F4xx_HAL_Driver/Src/stm32f4xx_hal_tim.c ****       htim->hdma[TIM_DMA_ID_CC3]->XferCpltCallback = TIM_DMADelayPulseCplt;
 1648              		.loc 1 850 0
 1649 00f0 FB68     		ldr	r3, [r7, #12]
 1650 00f2 9B6A     		ldr	r3, [r3, #40]
 1651 00f4 2A4A     		ldr	r2, .L91
 1652 00f6 DA63     		str	r2, [r3, #60]
 851:Drivers/STM32F4xx_HAL_Driver/Src/stm32f4xx_hal_tim.c ****      
 852:Drivers/STM32F4xx_HAL_Driver/Src/stm32f4xx_hal_tim.c ****       /* Set the DMA error callback */
 853:Drivers/STM32F4xx_HAL_Driver/Src/stm32f4xx_hal_tim.c ****       htim->hdma[TIM_DMA_ID_CC3]->XferErrorCallback = TIM_DMAError ;
 1653              		.loc 1 853 0
 1654 00f8 FB68     		ldr	r3, [r7, #12]
 1655 00fa 9B6A     		ldr	r3, [r3, #40]
 1656 00fc 294A     		ldr	r2, .L91+4
 1657 00fe DA64     		str	r2, [r3, #76]
 854:Drivers/STM32F4xx_HAL_Driver/Src/stm32f4xx_hal_tim.c ****       
 855:Drivers/STM32F4xx_HAL_Driver/Src/stm32f4xx_hal_tim.c ****       /* Enable the DMA Stream */
 856:Drivers/STM32F4xx_HAL_Driver/Src/stm32f4xx_hal_tim.c ****       HAL_DMA_Start_IT(htim->hdma[TIM_DMA_ID_CC3], (uint32_t)pData, (uint32_t)&htim->Instance->CCR3
 1658              		.loc 1 856 0
 1659 0100 FB68     		ldr	r3, [r7, #12]
 1660 0102 986A     		ldr	r0, [r3, #40]
 1661 0104 7968     		ldr	r1, [r7, #4]
 1662 0106 FB68     		ldr	r3, [r7, #12]
 1663 0108 1B68     		ldr	r3, [r3]
 1664 010a 3C33     		adds	r3, r3, #60
 1665 010c 1A46     		mov	r2, r3
 1666 010e 7B88     		ldrh	r3, [r7, #2]
 1667 0110 FFF7FEFF 		bl	HAL_DMA_Start_IT
 857:Drivers/STM32F4xx_HAL_Driver/Src/stm32f4xx_hal_tim.c ****       
 858:Drivers/STM32F4xx_HAL_Driver/Src/stm32f4xx_hal_tim.c ****       /* Enable the TIM Capture/Compare 3 DMA request */
 859:Drivers/STM32F4xx_HAL_Driver/Src/stm32f4xx_hal_tim.c ****       __HAL_TIM_ENABLE_DMA(htim, TIM_DMA_CC3);
 1668              		.loc 1 859 0
 1669 0114 FB68     		ldr	r3, [r7, #12]
 1670 0116 1B68     		ldr	r3, [r3]
 1671 0118 FA68     		ldr	r2, [r7, #12]
 1672 011a 1268     		ldr	r2, [r2]
 1673 011c D268     		ldr	r2, [r2, #12]
 1674 011e 42F40062 		orr	r2, r2, #2048
 1675 0122 DA60     		str	r2, [r3, #12]
 860:Drivers/STM32F4xx_HAL_Driver/Src/stm32f4xx_hal_tim.c ****     }
 861:Drivers/STM32F4xx_HAL_Driver/Src/stm32f4xx_hal_tim.c ****     break;
 1676              		.loc 1 861 0
 1677 0124 1BE0     		b	.L88
 1678              	.L87:
 862:Drivers/STM32F4xx_HAL_Driver/Src/stm32f4xx_hal_tim.c ****     
 863:Drivers/STM32F4xx_HAL_Driver/Src/stm32f4xx_hal_tim.c ****     case TIM_CHANNEL_4:
 864:Drivers/STM32F4xx_HAL_Driver/Src/stm32f4xx_hal_tim.c ****     {
 865:Drivers/STM32F4xx_HAL_Driver/Src/stm32f4xx_hal_tim.c ****      /* Set the DMA Period elapsed callback */
 866:Drivers/STM32F4xx_HAL_Driver/Src/stm32f4xx_hal_tim.c ****       htim->hdma[TIM_DMA_ID_CC4]->XferCpltCallback = TIM_DMADelayPulseCplt;
 1679              		.loc 1 866 0
ARM GAS  /tmp/cc4tSQEQ.s 			page 45


 1680 0126 FB68     		ldr	r3, [r7, #12]
 1681 0128 DB6A     		ldr	r3, [r3, #44]
 1682 012a 1D4A     		ldr	r2, .L91
 1683 012c DA63     		str	r2, [r3, #60]
 867:Drivers/STM32F4xx_HAL_Driver/Src/stm32f4xx_hal_tim.c ****      
 868:Drivers/STM32F4xx_HAL_Driver/Src/stm32f4xx_hal_tim.c ****       /* Set the DMA error callback */
 869:Drivers/STM32F4xx_HAL_Driver/Src/stm32f4xx_hal_tim.c ****       htim->hdma[TIM_DMA_ID_CC4]->XferErrorCallback = TIM_DMAError ;
 1684              		.loc 1 869 0
 1685 012e FB68     		ldr	r3, [r7, #12]
 1686 0130 DB6A     		ldr	r3, [r3, #44]
 1687 0132 1C4A     		ldr	r2, .L91+4
 1688 0134 DA64     		str	r2, [r3, #76]
 870:Drivers/STM32F4xx_HAL_Driver/Src/stm32f4xx_hal_tim.c ****       
 871:Drivers/STM32F4xx_HAL_Driver/Src/stm32f4xx_hal_tim.c ****       /* Enable the DMA Stream */
 872:Drivers/STM32F4xx_HAL_Driver/Src/stm32f4xx_hal_tim.c ****       HAL_DMA_Start_IT(htim->hdma[TIM_DMA_ID_CC4], (uint32_t)pData, (uint32_t)&htim->Instance->CCR4
 1689              		.loc 1 872 0
 1690 0136 FB68     		ldr	r3, [r7, #12]
 1691 0138 D86A     		ldr	r0, [r3, #44]
 1692 013a 7968     		ldr	r1, [r7, #4]
 1693 013c FB68     		ldr	r3, [r7, #12]
 1694 013e 1B68     		ldr	r3, [r3]
 1695 0140 4033     		adds	r3, r3, #64
 1696 0142 1A46     		mov	r2, r3
 1697 0144 7B88     		ldrh	r3, [r7, #2]
 1698 0146 FFF7FEFF 		bl	HAL_DMA_Start_IT
 873:Drivers/STM32F4xx_HAL_Driver/Src/stm32f4xx_hal_tim.c ****       
 874:Drivers/STM32F4xx_HAL_Driver/Src/stm32f4xx_hal_tim.c ****       /* Enable the TIM Capture/Compare 4 DMA request */
 875:Drivers/STM32F4xx_HAL_Driver/Src/stm32f4xx_hal_tim.c ****       __HAL_TIM_ENABLE_DMA(htim, TIM_DMA_CC4);
 1699              		.loc 1 875 0
 1700 014a FB68     		ldr	r3, [r7, #12]
 1701 014c 1B68     		ldr	r3, [r3]
 1702 014e FA68     		ldr	r2, [r7, #12]
 1703 0150 1268     		ldr	r2, [r2]
 1704 0152 D268     		ldr	r2, [r2, #12]
 1705 0154 42F48052 		orr	r2, r2, #4096
 1706 0158 DA60     		str	r2, [r3, #12]
 876:Drivers/STM32F4xx_HAL_Driver/Src/stm32f4xx_hal_tim.c ****     }
 877:Drivers/STM32F4xx_HAL_Driver/Src/stm32f4xx_hal_tim.c ****     break;
 1707              		.loc 1 877 0
 1708 015a 00E0     		b	.L88
 1709              	.L90:
 878:Drivers/STM32F4xx_HAL_Driver/Src/stm32f4xx_hal_tim.c ****     
 879:Drivers/STM32F4xx_HAL_Driver/Src/stm32f4xx_hal_tim.c ****     default:
 880:Drivers/STM32F4xx_HAL_Driver/Src/stm32f4xx_hal_tim.c ****     break;
 1710              		.loc 1 880 0
 1711 015c 00BF     		nop
 1712              	.L88:
 881:Drivers/STM32F4xx_HAL_Driver/Src/stm32f4xx_hal_tim.c ****   }
 882:Drivers/STM32F4xx_HAL_Driver/Src/stm32f4xx_hal_tim.c **** 
 883:Drivers/STM32F4xx_HAL_Driver/Src/stm32f4xx_hal_tim.c ****   /* Enable the Output compare channel */
 884:Drivers/STM32F4xx_HAL_Driver/Src/stm32f4xx_hal_tim.c ****   TIM_CCxChannelCmd(htim->Instance, Channel, TIM_CCx_ENABLE);
 1713              		.loc 1 884 0
 1714 015e FB68     		ldr	r3, [r7, #12]
 1715 0160 1B68     		ldr	r3, [r3]
 1716 0162 0122     		movs	r2, #1
 1717 0164 B968     		ldr	r1, [r7, #8]
 1718 0166 1846     		mov	r0, r3
ARM GAS  /tmp/cc4tSQEQ.s 			page 46


 1719 0168 FFF7FEFF 		bl	TIM_CCxChannelCmd
 885:Drivers/STM32F4xx_HAL_Driver/Src/stm32f4xx_hal_tim.c ****   
 886:Drivers/STM32F4xx_HAL_Driver/Src/stm32f4xx_hal_tim.c ****   if(IS_TIM_ADVANCED_INSTANCE(htim->Instance) != RESET)  
 1720              		.loc 1 886 0
 1721 016c FB68     		ldr	r3, [r7, #12]
 1722 016e 1B68     		ldr	r3, [r3]
 1723 0170 0D4A     		ldr	r2, .L91+8
 1724 0172 9342     		cmp	r3, r2
 1725 0174 07D1     		bne	.L89
 887:Drivers/STM32F4xx_HAL_Driver/Src/stm32f4xx_hal_tim.c ****   {
 888:Drivers/STM32F4xx_HAL_Driver/Src/stm32f4xx_hal_tim.c ****     /* Enable the main output */
 889:Drivers/STM32F4xx_HAL_Driver/Src/stm32f4xx_hal_tim.c ****     __HAL_TIM_MOE_ENABLE(htim);
 1726              		.loc 1 889 0
 1727 0176 FB68     		ldr	r3, [r7, #12]
 1728 0178 1B68     		ldr	r3, [r3]
 1729 017a FA68     		ldr	r2, [r7, #12]
 1730 017c 1268     		ldr	r2, [r2]
 1731 017e 526C     		ldr	r2, [r2, #68]
 1732 0180 42F40042 		orr	r2, r2, #32768
 1733 0184 5A64     		str	r2, [r3, #68]
 1734              	.L89:
 890:Drivers/STM32F4xx_HAL_Driver/Src/stm32f4xx_hal_tim.c ****   }  
 891:Drivers/STM32F4xx_HAL_Driver/Src/stm32f4xx_hal_tim.c ****   
 892:Drivers/STM32F4xx_HAL_Driver/Src/stm32f4xx_hal_tim.c ****   /* Enable the Peripheral */
 893:Drivers/STM32F4xx_HAL_Driver/Src/stm32f4xx_hal_tim.c ****   __HAL_TIM_ENABLE(htim); 
 1735              		.loc 1 893 0
 1736 0186 FB68     		ldr	r3, [r7, #12]
 1737 0188 1B68     		ldr	r3, [r3]
 1738 018a FA68     		ldr	r2, [r7, #12]
 1739 018c 1268     		ldr	r2, [r2]
 1740 018e 1268     		ldr	r2, [r2]
 1741 0190 42F00102 		orr	r2, r2, #1
 1742 0194 1A60     		str	r2, [r3]
 894:Drivers/STM32F4xx_HAL_Driver/Src/stm32f4xx_hal_tim.c ****   
 895:Drivers/STM32F4xx_HAL_Driver/Src/stm32f4xx_hal_tim.c ****   /* Return function status */
 896:Drivers/STM32F4xx_HAL_Driver/Src/stm32f4xx_hal_tim.c ****   return HAL_OK;
 1743              		.loc 1 896 0
 1744 0196 0023     		movs	r3, #0
 1745              	.L79:
 897:Drivers/STM32F4xx_HAL_Driver/Src/stm32f4xx_hal_tim.c **** }
 1746              		.loc 1 897 0
 1747 0198 1846     		mov	r0, r3
 1748 019a 1037     		adds	r7, r7, #16
 1749              	.LCFI102:
 1750              		.cfi_def_cfa_offset 8
 1751 019c BD46     		mov	sp, r7
 1752              	.LCFI103:
 1753              		.cfi_def_cfa_register 13
 1754              		@ sp needed
 1755 019e 80BD     		pop	{r7, pc}
 1756              	.L92:
 1757              		.align	2
 1758              	.L91:
 1759 01a0 00000000 		.word	TIM_DMADelayPulseCplt
 1760 01a4 00000000 		.word	TIM_DMAError
 1761 01a8 00000140 		.word	1073807360
 1762              		.cfi_endproc
ARM GAS  /tmp/cc4tSQEQ.s 			page 47


 1763              	.LFE142:
 1765              		.section	.text.HAL_TIM_OC_Stop_DMA,"ax",%progbits
 1766              		.align	1
 1767              		.global	HAL_TIM_OC_Stop_DMA
 1768              		.syntax unified
 1769              		.thumb
 1770              		.thumb_func
 1771              		.fpu fpv4-sp-d16
 1773              	HAL_TIM_OC_Stop_DMA:
 1774              	.LFB143:
 898:Drivers/STM32F4xx_HAL_Driver/Src/stm32f4xx_hal_tim.c **** 
 899:Drivers/STM32F4xx_HAL_Driver/Src/stm32f4xx_hal_tim.c **** /**
 900:Drivers/STM32F4xx_HAL_Driver/Src/stm32f4xx_hal_tim.c ****   * @brief  Stops the TIM Output Compare signal generation in DMA mode.
 901:Drivers/STM32F4xx_HAL_Driver/Src/stm32f4xx_hal_tim.c ****   * @param  htim pointer to a TIM_HandleTypeDef structure that contains
 902:Drivers/STM32F4xx_HAL_Driver/Src/stm32f4xx_hal_tim.c ****   *                the configuration information for TIM module.
 903:Drivers/STM32F4xx_HAL_Driver/Src/stm32f4xx_hal_tim.c ****   * @param  Channel TIM Channel to be disabled.
 904:Drivers/STM32F4xx_HAL_Driver/Src/stm32f4xx_hal_tim.c ****   *          This parameter can be one of the following values:
 905:Drivers/STM32F4xx_HAL_Driver/Src/stm32f4xx_hal_tim.c ****   *            @arg TIM_CHANNEL_1: TIM Channel 1 selected
 906:Drivers/STM32F4xx_HAL_Driver/Src/stm32f4xx_hal_tim.c ****   *            @arg TIM_CHANNEL_2: TIM Channel 2 selected
 907:Drivers/STM32F4xx_HAL_Driver/Src/stm32f4xx_hal_tim.c ****   *            @arg TIM_CHANNEL_3: TIM Channel 3 selected
 908:Drivers/STM32F4xx_HAL_Driver/Src/stm32f4xx_hal_tim.c ****   *            @arg TIM_CHANNEL_4: TIM Channel 4 selected
 909:Drivers/STM32F4xx_HAL_Driver/Src/stm32f4xx_hal_tim.c ****   * @retval HAL status
 910:Drivers/STM32F4xx_HAL_Driver/Src/stm32f4xx_hal_tim.c ****   */
 911:Drivers/STM32F4xx_HAL_Driver/Src/stm32f4xx_hal_tim.c **** HAL_StatusTypeDef HAL_TIM_OC_Stop_DMA(TIM_HandleTypeDef *htim, uint32_t Channel)
 912:Drivers/STM32F4xx_HAL_Driver/Src/stm32f4xx_hal_tim.c **** {
 1775              		.loc 1 912 0
 1776              		.cfi_startproc
 1777              		@ args = 0, pretend = 0, frame = 8
 1778              		@ frame_needed = 1, uses_anonymous_args = 0
 1779 0000 80B5     		push	{r7, lr}
 1780              	.LCFI104:
 1781              		.cfi_def_cfa_offset 8
 1782              		.cfi_offset 7, -8
 1783              		.cfi_offset 14, -4
 1784 0002 82B0     		sub	sp, sp, #8
 1785              	.LCFI105:
 1786              		.cfi_def_cfa_offset 16
 1787 0004 00AF     		add	r7, sp, #0
 1788              	.LCFI106:
 1789              		.cfi_def_cfa_register 7
 1790 0006 7860     		str	r0, [r7, #4]
 1791 0008 3960     		str	r1, [r7]
 913:Drivers/STM32F4xx_HAL_Driver/Src/stm32f4xx_hal_tim.c ****   /* Check the parameters */
 914:Drivers/STM32F4xx_HAL_Driver/Src/stm32f4xx_hal_tim.c ****   assert_param(IS_TIM_CCX_INSTANCE(htim->Instance, Channel));
 915:Drivers/STM32F4xx_HAL_Driver/Src/stm32f4xx_hal_tim.c ****   
 916:Drivers/STM32F4xx_HAL_Driver/Src/stm32f4xx_hal_tim.c ****   switch (Channel)
 1792              		.loc 1 916 0
 1793 000a 3B68     		ldr	r3, [r7]
 1794 000c 0C2B     		cmp	r3, #12
 1795 000e 41D8     		bhi	.L104
 1796 0010 01A2     		adr	r2, .L96
 1797 0012 52F823F0 		ldr	pc, [r2, r3, lsl #2]
 1798 0016 00BF     		.p2align 2
 1799              	.L96:
 1800 0018 4D000000 		.word	.L95+1
 1801 001c 95000000 		.word	.L104+1
 1802 0020 95000000 		.word	.L104+1
ARM GAS  /tmp/cc4tSQEQ.s 			page 48


 1803 0024 95000000 		.word	.L104+1
 1804 0028 5F000000 		.word	.L97+1
 1805 002c 95000000 		.word	.L104+1
 1806 0030 95000000 		.word	.L104+1
 1807 0034 95000000 		.word	.L104+1
 1808 0038 71000000 		.word	.L98+1
 1809 003c 95000000 		.word	.L104+1
 1810 0040 95000000 		.word	.L104+1
 1811 0044 95000000 		.word	.L104+1
 1812 0048 83000000 		.word	.L99+1
 1813              		.p2align 1
 1814              	.L95:
 917:Drivers/STM32F4xx_HAL_Driver/Src/stm32f4xx_hal_tim.c ****   {
 918:Drivers/STM32F4xx_HAL_Driver/Src/stm32f4xx_hal_tim.c ****     case TIM_CHANNEL_1:
 919:Drivers/STM32F4xx_HAL_Driver/Src/stm32f4xx_hal_tim.c ****     {       
 920:Drivers/STM32F4xx_HAL_Driver/Src/stm32f4xx_hal_tim.c ****       /* Disable the TIM Capture/Compare 1 DMA request */
 921:Drivers/STM32F4xx_HAL_Driver/Src/stm32f4xx_hal_tim.c ****       __HAL_TIM_DISABLE_DMA(htim, TIM_DMA_CC1);
 1815              		.loc 1 921 0
 1816 004c 7B68     		ldr	r3, [r7, #4]
 1817 004e 1B68     		ldr	r3, [r3]
 1818 0050 7A68     		ldr	r2, [r7, #4]
 1819 0052 1268     		ldr	r2, [r2]
 1820 0054 D268     		ldr	r2, [r2, #12]
 1821 0056 22F40072 		bic	r2, r2, #512
 1822 005a DA60     		str	r2, [r3, #12]
 922:Drivers/STM32F4xx_HAL_Driver/Src/stm32f4xx_hal_tim.c ****     }
 923:Drivers/STM32F4xx_HAL_Driver/Src/stm32f4xx_hal_tim.c ****     break;
 1823              		.loc 1 923 0
 1824 005c 1BE0     		b	.L100
 1825              	.L97:
 924:Drivers/STM32F4xx_HAL_Driver/Src/stm32f4xx_hal_tim.c ****     
 925:Drivers/STM32F4xx_HAL_Driver/Src/stm32f4xx_hal_tim.c ****     case TIM_CHANNEL_2:
 926:Drivers/STM32F4xx_HAL_Driver/Src/stm32f4xx_hal_tim.c ****     {
 927:Drivers/STM32F4xx_HAL_Driver/Src/stm32f4xx_hal_tim.c ****       /* Disable the TIM Capture/Compare 2 DMA request */
 928:Drivers/STM32F4xx_HAL_Driver/Src/stm32f4xx_hal_tim.c ****       __HAL_TIM_DISABLE_DMA(htim, TIM_DMA_CC2);
 1826              		.loc 1 928 0
 1827 005e 7B68     		ldr	r3, [r7, #4]
 1828 0060 1B68     		ldr	r3, [r3]
 1829 0062 7A68     		ldr	r2, [r7, #4]
 1830 0064 1268     		ldr	r2, [r2]
 1831 0066 D268     		ldr	r2, [r2, #12]
 1832 0068 22F48062 		bic	r2, r2, #1024
 1833 006c DA60     		str	r2, [r3, #12]
 929:Drivers/STM32F4xx_HAL_Driver/Src/stm32f4xx_hal_tim.c ****     }
 930:Drivers/STM32F4xx_HAL_Driver/Src/stm32f4xx_hal_tim.c ****     break;
 1834              		.loc 1 930 0
 1835 006e 12E0     		b	.L100
 1836              	.L98:
 931:Drivers/STM32F4xx_HAL_Driver/Src/stm32f4xx_hal_tim.c ****     
 932:Drivers/STM32F4xx_HAL_Driver/Src/stm32f4xx_hal_tim.c ****     case TIM_CHANNEL_3:
 933:Drivers/STM32F4xx_HAL_Driver/Src/stm32f4xx_hal_tim.c ****     {
 934:Drivers/STM32F4xx_HAL_Driver/Src/stm32f4xx_hal_tim.c ****       /* Disable the TIM Capture/Compare 3 DMA request */
 935:Drivers/STM32F4xx_HAL_Driver/Src/stm32f4xx_hal_tim.c ****       __HAL_TIM_DISABLE_DMA(htim, TIM_DMA_CC3);
 1837              		.loc 1 935 0
 1838 0070 7B68     		ldr	r3, [r7, #4]
 1839 0072 1B68     		ldr	r3, [r3]
 1840 0074 7A68     		ldr	r2, [r7, #4]
ARM GAS  /tmp/cc4tSQEQ.s 			page 49


 1841 0076 1268     		ldr	r2, [r2]
 1842 0078 D268     		ldr	r2, [r2, #12]
 1843 007a 22F40062 		bic	r2, r2, #2048
 1844 007e DA60     		str	r2, [r3, #12]
 936:Drivers/STM32F4xx_HAL_Driver/Src/stm32f4xx_hal_tim.c ****     }
 937:Drivers/STM32F4xx_HAL_Driver/Src/stm32f4xx_hal_tim.c ****     break;
 1845              		.loc 1 937 0
 1846 0080 09E0     		b	.L100
 1847              	.L99:
 938:Drivers/STM32F4xx_HAL_Driver/Src/stm32f4xx_hal_tim.c ****     
 939:Drivers/STM32F4xx_HAL_Driver/Src/stm32f4xx_hal_tim.c ****     case TIM_CHANNEL_4:
 940:Drivers/STM32F4xx_HAL_Driver/Src/stm32f4xx_hal_tim.c ****     {
 941:Drivers/STM32F4xx_HAL_Driver/Src/stm32f4xx_hal_tim.c ****       /* Disable the TIM Capture/Compare 4 interrupt */
 942:Drivers/STM32F4xx_HAL_Driver/Src/stm32f4xx_hal_tim.c ****       __HAL_TIM_DISABLE_DMA(htim, TIM_DMA_CC4);
 1848              		.loc 1 942 0
 1849 0082 7B68     		ldr	r3, [r7, #4]
 1850 0084 1B68     		ldr	r3, [r3]
 1851 0086 7A68     		ldr	r2, [r7, #4]
 1852 0088 1268     		ldr	r2, [r2]
 1853 008a D268     		ldr	r2, [r2, #12]
 1854 008c 22F48052 		bic	r2, r2, #4096
 1855 0090 DA60     		str	r2, [r3, #12]
 943:Drivers/STM32F4xx_HAL_Driver/Src/stm32f4xx_hal_tim.c ****     }
 944:Drivers/STM32F4xx_HAL_Driver/Src/stm32f4xx_hal_tim.c ****     break;
 1856              		.loc 1 944 0
 1857 0092 00E0     		b	.L100
 1858              	.L104:
 945:Drivers/STM32F4xx_HAL_Driver/Src/stm32f4xx_hal_tim.c ****     
 946:Drivers/STM32F4xx_HAL_Driver/Src/stm32f4xx_hal_tim.c ****     default:
 947:Drivers/STM32F4xx_HAL_Driver/Src/stm32f4xx_hal_tim.c ****     break;
 1859              		.loc 1 947 0
 1860 0094 00BF     		nop
 1861              	.L100:
 948:Drivers/STM32F4xx_HAL_Driver/Src/stm32f4xx_hal_tim.c ****   } 
 949:Drivers/STM32F4xx_HAL_Driver/Src/stm32f4xx_hal_tim.c ****   
 950:Drivers/STM32F4xx_HAL_Driver/Src/stm32f4xx_hal_tim.c ****   /* Disable the Output compare channel */
 951:Drivers/STM32F4xx_HAL_Driver/Src/stm32f4xx_hal_tim.c ****   TIM_CCxChannelCmd(htim->Instance, Channel, TIM_CCx_DISABLE);
 1862              		.loc 1 951 0
 1863 0096 7B68     		ldr	r3, [r7, #4]
 1864 0098 1B68     		ldr	r3, [r3]
 1865 009a 0022     		movs	r2, #0
 1866 009c 3968     		ldr	r1, [r7]
 1867 009e 1846     		mov	r0, r3
 1868 00a0 FFF7FEFF 		bl	TIM_CCxChannelCmd
 952:Drivers/STM32F4xx_HAL_Driver/Src/stm32f4xx_hal_tim.c ****   
 953:Drivers/STM32F4xx_HAL_Driver/Src/stm32f4xx_hal_tim.c ****   if(IS_TIM_ADVANCED_INSTANCE(htim->Instance) != RESET)  
 1869              		.loc 1 953 0
 1870 00a4 7B68     		ldr	r3, [r7, #4]
 1871 00a6 1B68     		ldr	r3, [r3]
 1872 00a8 1D4A     		ldr	r2, .L105
 1873 00aa 9342     		cmp	r3, r2
 1874 00ac 17D1     		bne	.L101
 954:Drivers/STM32F4xx_HAL_Driver/Src/stm32f4xx_hal_tim.c ****   {
 955:Drivers/STM32F4xx_HAL_Driver/Src/stm32f4xx_hal_tim.c ****     /* Disable the Main Output */
 956:Drivers/STM32F4xx_HAL_Driver/Src/stm32f4xx_hal_tim.c ****     __HAL_TIM_MOE_DISABLE(htim);
 1875              		.loc 1 956 0
 1876 00ae 7B68     		ldr	r3, [r7, #4]
ARM GAS  /tmp/cc4tSQEQ.s 			page 50


 1877 00b0 1B68     		ldr	r3, [r3]
 1878 00b2 1A6A     		ldr	r2, [r3, #32]
 1879 00b4 41F21113 		movw	r3, #4369
 1880 00b8 1340     		ands	r3, r3, r2
 1881 00ba 002B     		cmp	r3, #0
 1882 00bc 0FD1     		bne	.L101
 1883              		.loc 1 956 0 is_stmt 0 discriminator 1
 1884 00be 7B68     		ldr	r3, [r7, #4]
 1885 00c0 1B68     		ldr	r3, [r3]
 1886 00c2 1A6A     		ldr	r2, [r3, #32]
 1887 00c4 40F24443 		movw	r3, #1092
 1888 00c8 1340     		ands	r3, r3, r2
 1889 00ca 002B     		cmp	r3, #0
 1890 00cc 07D1     		bne	.L101
 1891              		.loc 1 956 0 discriminator 2
 1892 00ce 7B68     		ldr	r3, [r7, #4]
 1893 00d0 1B68     		ldr	r3, [r3]
 1894 00d2 7A68     		ldr	r2, [r7, #4]
 1895 00d4 1268     		ldr	r2, [r2]
 1896 00d6 526C     		ldr	r2, [r2, #68]
 1897 00d8 22F40042 		bic	r2, r2, #32768
 1898 00dc 5A64     		str	r2, [r3, #68]
 1899              	.L101:
 957:Drivers/STM32F4xx_HAL_Driver/Src/stm32f4xx_hal_tim.c ****   }
 958:Drivers/STM32F4xx_HAL_Driver/Src/stm32f4xx_hal_tim.c ****   
 959:Drivers/STM32F4xx_HAL_Driver/Src/stm32f4xx_hal_tim.c ****   /* Disable the Peripheral */
 960:Drivers/STM32F4xx_HAL_Driver/Src/stm32f4xx_hal_tim.c ****   __HAL_TIM_DISABLE(htim);
 1900              		.loc 1 960 0 is_stmt 1
 1901 00de 7B68     		ldr	r3, [r7, #4]
 1902 00e0 1B68     		ldr	r3, [r3]
 1903 00e2 1A6A     		ldr	r2, [r3, #32]
 1904 00e4 41F21113 		movw	r3, #4369
 1905 00e8 1340     		ands	r3, r3, r2
 1906 00ea 002B     		cmp	r3, #0
 1907 00ec 0FD1     		bne	.L102
 1908              		.loc 1 960 0 is_stmt 0 discriminator 1
 1909 00ee 7B68     		ldr	r3, [r7, #4]
 1910 00f0 1B68     		ldr	r3, [r3]
 1911 00f2 1A6A     		ldr	r2, [r3, #32]
 1912 00f4 40F24443 		movw	r3, #1092
 1913 00f8 1340     		ands	r3, r3, r2
 1914 00fa 002B     		cmp	r3, #0
 1915 00fc 07D1     		bne	.L102
 1916              		.loc 1 960 0 discriminator 2
 1917 00fe 7B68     		ldr	r3, [r7, #4]
 1918 0100 1B68     		ldr	r3, [r3]
 1919 0102 7A68     		ldr	r2, [r7, #4]
 1920 0104 1268     		ldr	r2, [r2]
 1921 0106 1268     		ldr	r2, [r2]
 1922 0108 22F00102 		bic	r2, r2, #1
 1923 010c 1A60     		str	r2, [r3]
 1924              	.L102:
 961:Drivers/STM32F4xx_HAL_Driver/Src/stm32f4xx_hal_tim.c ****   
 962:Drivers/STM32F4xx_HAL_Driver/Src/stm32f4xx_hal_tim.c ****   /* Change the htim state */
 963:Drivers/STM32F4xx_HAL_Driver/Src/stm32f4xx_hal_tim.c ****   htim->State = HAL_TIM_STATE_READY;
 1925              		.loc 1 963 0 is_stmt 1
 1926 010e 7B68     		ldr	r3, [r7, #4]
ARM GAS  /tmp/cc4tSQEQ.s 			page 51


 1927 0110 0122     		movs	r2, #1
 1928 0112 83F83920 		strb	r2, [r3, #57]
 964:Drivers/STM32F4xx_HAL_Driver/Src/stm32f4xx_hal_tim.c ****   
 965:Drivers/STM32F4xx_HAL_Driver/Src/stm32f4xx_hal_tim.c ****   /* Return function status */
 966:Drivers/STM32F4xx_HAL_Driver/Src/stm32f4xx_hal_tim.c ****   return HAL_OK;
 1929              		.loc 1 966 0
 1930 0116 0023     		movs	r3, #0
 967:Drivers/STM32F4xx_HAL_Driver/Src/stm32f4xx_hal_tim.c **** }
 1931              		.loc 1 967 0
 1932 0118 1846     		mov	r0, r3
 1933 011a 0837     		adds	r7, r7, #8
 1934              	.LCFI107:
 1935              		.cfi_def_cfa_offset 8
 1936 011c BD46     		mov	sp, r7
 1937              	.LCFI108:
 1938              		.cfi_def_cfa_register 13
 1939              		@ sp needed
 1940 011e 80BD     		pop	{r7, pc}
 1941              	.L106:
 1942              		.align	2
 1943              	.L105:
 1944 0120 00000140 		.word	1073807360
 1945              		.cfi_endproc
 1946              	.LFE143:
 1948              		.section	.text.HAL_TIM_PWM_Init,"ax",%progbits
 1949              		.align	1
 1950              		.global	HAL_TIM_PWM_Init
 1951              		.syntax unified
 1952              		.thumb
 1953              		.thumb_func
 1954              		.fpu fpv4-sp-d16
 1956              	HAL_TIM_PWM_Init:
 1957              	.LFB144:
 968:Drivers/STM32F4xx_HAL_Driver/Src/stm32f4xx_hal_tim.c **** /**
 969:Drivers/STM32F4xx_HAL_Driver/Src/stm32f4xx_hal_tim.c ****   * @}
 970:Drivers/STM32F4xx_HAL_Driver/Src/stm32f4xx_hal_tim.c ****   */
 971:Drivers/STM32F4xx_HAL_Driver/Src/stm32f4xx_hal_tim.c **** 
 972:Drivers/STM32F4xx_HAL_Driver/Src/stm32f4xx_hal_tim.c **** /** @defgroup TIM_Exported_Functions_Group3 Time PWM functions 
 973:Drivers/STM32F4xx_HAL_Driver/Src/stm32f4xx_hal_tim.c ****  *  @brief    Time PWM functions 
 974:Drivers/STM32F4xx_HAL_Driver/Src/stm32f4xx_hal_tim.c ****  *
 975:Drivers/STM32F4xx_HAL_Driver/Src/stm32f4xx_hal_tim.c **** @verbatim    
 976:Drivers/STM32F4xx_HAL_Driver/Src/stm32f4xx_hal_tim.c ****   ==============================================================================
 977:Drivers/STM32F4xx_HAL_Driver/Src/stm32f4xx_hal_tim.c ****                           ##### Time PWM functions #####
 978:Drivers/STM32F4xx_HAL_Driver/Src/stm32f4xx_hal_tim.c ****   ==============================================================================
 979:Drivers/STM32F4xx_HAL_Driver/Src/stm32f4xx_hal_tim.c ****   [..]  
 980:Drivers/STM32F4xx_HAL_Driver/Src/stm32f4xx_hal_tim.c ****     This section provides functions allowing to:
 981:Drivers/STM32F4xx_HAL_Driver/Src/stm32f4xx_hal_tim.c ****     (+) Initialize and configure the TIM OPWM. 
 982:Drivers/STM32F4xx_HAL_Driver/Src/stm32f4xx_hal_tim.c ****     (+) De-initialize the TIM PWM.
 983:Drivers/STM32F4xx_HAL_Driver/Src/stm32f4xx_hal_tim.c ****     (+) Start the Time PWM.
 984:Drivers/STM32F4xx_HAL_Driver/Src/stm32f4xx_hal_tim.c ****     (+) Stop the Time PWM.
 985:Drivers/STM32F4xx_HAL_Driver/Src/stm32f4xx_hal_tim.c ****     (+) Start the Time PWM and enable interrupt.
 986:Drivers/STM32F4xx_HAL_Driver/Src/stm32f4xx_hal_tim.c ****     (+) Stop the Time PWM and disable interrupt.
 987:Drivers/STM32F4xx_HAL_Driver/Src/stm32f4xx_hal_tim.c ****     (+) Start the Time PWM and enable DMA transfer.
 988:Drivers/STM32F4xx_HAL_Driver/Src/stm32f4xx_hal_tim.c ****     (+) Stop the Time PWM and disable DMA transfer.
 989:Drivers/STM32F4xx_HAL_Driver/Src/stm32f4xx_hal_tim.c ****  
 990:Drivers/STM32F4xx_HAL_Driver/Src/stm32f4xx_hal_tim.c **** @endverbatim
 991:Drivers/STM32F4xx_HAL_Driver/Src/stm32f4xx_hal_tim.c ****   * @{
ARM GAS  /tmp/cc4tSQEQ.s 			page 52


 992:Drivers/STM32F4xx_HAL_Driver/Src/stm32f4xx_hal_tim.c ****   */
 993:Drivers/STM32F4xx_HAL_Driver/Src/stm32f4xx_hal_tim.c **** /**
 994:Drivers/STM32F4xx_HAL_Driver/Src/stm32f4xx_hal_tim.c ****   * @brief  Initializes the TIM PWM Time Base according to the specified
 995:Drivers/STM32F4xx_HAL_Driver/Src/stm32f4xx_hal_tim.c ****   *         parameters in the TIM_HandleTypeDef and create the associated handle.
 996:Drivers/STM32F4xx_HAL_Driver/Src/stm32f4xx_hal_tim.c ****   * @param  htim pointer to a TIM_HandleTypeDef structure that contains
 997:Drivers/STM32F4xx_HAL_Driver/Src/stm32f4xx_hal_tim.c ****   *                the configuration information for TIM module.
 998:Drivers/STM32F4xx_HAL_Driver/Src/stm32f4xx_hal_tim.c ****   * @retval HAL status
 999:Drivers/STM32F4xx_HAL_Driver/Src/stm32f4xx_hal_tim.c ****   */
1000:Drivers/STM32F4xx_HAL_Driver/Src/stm32f4xx_hal_tim.c **** HAL_StatusTypeDef HAL_TIM_PWM_Init(TIM_HandleTypeDef *htim)
1001:Drivers/STM32F4xx_HAL_Driver/Src/stm32f4xx_hal_tim.c **** {
 1958              		.loc 1 1001 0
 1959              		.cfi_startproc
 1960              		@ args = 0, pretend = 0, frame = 8
 1961              		@ frame_needed = 1, uses_anonymous_args = 0
 1962 0000 80B5     		push	{r7, lr}
 1963              	.LCFI109:
 1964              		.cfi_def_cfa_offset 8
 1965              		.cfi_offset 7, -8
 1966              		.cfi_offset 14, -4
 1967 0002 82B0     		sub	sp, sp, #8
 1968              	.LCFI110:
 1969              		.cfi_def_cfa_offset 16
 1970 0004 00AF     		add	r7, sp, #0
 1971              	.LCFI111:
 1972              		.cfi_def_cfa_register 7
 1973 0006 7860     		str	r0, [r7, #4]
1002:Drivers/STM32F4xx_HAL_Driver/Src/stm32f4xx_hal_tim.c ****   /* Check the TIM handle allocation */
1003:Drivers/STM32F4xx_HAL_Driver/Src/stm32f4xx_hal_tim.c ****   if(htim == NULL)
 1974              		.loc 1 1003 0
 1975 0008 7B68     		ldr	r3, [r7, #4]
 1976 000a 002B     		cmp	r3, #0
 1977 000c 01D1     		bne	.L108
1004:Drivers/STM32F4xx_HAL_Driver/Src/stm32f4xx_hal_tim.c ****   {
1005:Drivers/STM32F4xx_HAL_Driver/Src/stm32f4xx_hal_tim.c ****     return HAL_ERROR;
 1978              		.loc 1 1005 0
 1979 000e 0123     		movs	r3, #1
 1980 0010 1DE0     		b	.L109
 1981              	.L108:
1006:Drivers/STM32F4xx_HAL_Driver/Src/stm32f4xx_hal_tim.c ****   }
1007:Drivers/STM32F4xx_HAL_Driver/Src/stm32f4xx_hal_tim.c **** 
1008:Drivers/STM32F4xx_HAL_Driver/Src/stm32f4xx_hal_tim.c ****   /* Check the parameters */
1009:Drivers/STM32F4xx_HAL_Driver/Src/stm32f4xx_hal_tim.c ****   assert_param(IS_TIM_INSTANCE(htim->Instance));
1010:Drivers/STM32F4xx_HAL_Driver/Src/stm32f4xx_hal_tim.c ****   assert_param(IS_TIM_COUNTER_MODE(htim->Init.CounterMode));
1011:Drivers/STM32F4xx_HAL_Driver/Src/stm32f4xx_hal_tim.c ****   assert_param(IS_TIM_CLOCKDIVISION_DIV(htim->Init.ClockDivision));
1012:Drivers/STM32F4xx_HAL_Driver/Src/stm32f4xx_hal_tim.c **** 
1013:Drivers/STM32F4xx_HAL_Driver/Src/stm32f4xx_hal_tim.c ****   if(htim->State == HAL_TIM_STATE_RESET)
 1982              		.loc 1 1013 0
 1983 0012 7B68     		ldr	r3, [r7, #4]
 1984 0014 93F83930 		ldrb	r3, [r3, #57]
 1985 0018 DBB2     		uxtb	r3, r3
 1986 001a 002B     		cmp	r3, #0
 1987 001c 06D1     		bne	.L110
1014:Drivers/STM32F4xx_HAL_Driver/Src/stm32f4xx_hal_tim.c ****   {
1015:Drivers/STM32F4xx_HAL_Driver/Src/stm32f4xx_hal_tim.c ****     /* Allocate lock resource and initialize it */
1016:Drivers/STM32F4xx_HAL_Driver/Src/stm32f4xx_hal_tim.c ****     htim->Lock = HAL_UNLOCKED;
 1988              		.loc 1 1016 0
 1989 001e 7B68     		ldr	r3, [r7, #4]
ARM GAS  /tmp/cc4tSQEQ.s 			page 53


 1990 0020 0022     		movs	r2, #0
 1991 0022 83F83820 		strb	r2, [r3, #56]
1017:Drivers/STM32F4xx_HAL_Driver/Src/stm32f4xx_hal_tim.c ****     /* Init the low level hardware : GPIO, CLOCK, NVIC and DMA */
1018:Drivers/STM32F4xx_HAL_Driver/Src/stm32f4xx_hal_tim.c ****     HAL_TIM_PWM_MspInit(htim);
 1992              		.loc 1 1018 0
 1993 0026 7868     		ldr	r0, [r7, #4]
 1994 0028 FFF7FEFF 		bl	HAL_TIM_PWM_MspInit
 1995              	.L110:
1019:Drivers/STM32F4xx_HAL_Driver/Src/stm32f4xx_hal_tim.c ****   }
1020:Drivers/STM32F4xx_HAL_Driver/Src/stm32f4xx_hal_tim.c **** 
1021:Drivers/STM32F4xx_HAL_Driver/Src/stm32f4xx_hal_tim.c ****   /* Set the TIM state */
1022:Drivers/STM32F4xx_HAL_Driver/Src/stm32f4xx_hal_tim.c ****   htim->State= HAL_TIM_STATE_BUSY;  
 1996              		.loc 1 1022 0
 1997 002c 7B68     		ldr	r3, [r7, #4]
 1998 002e 0222     		movs	r2, #2
 1999 0030 83F83920 		strb	r2, [r3, #57]
1023:Drivers/STM32F4xx_HAL_Driver/Src/stm32f4xx_hal_tim.c ****   
1024:Drivers/STM32F4xx_HAL_Driver/Src/stm32f4xx_hal_tim.c ****   /* Init the base time for the PWM */  
1025:Drivers/STM32F4xx_HAL_Driver/Src/stm32f4xx_hal_tim.c ****   TIM_Base_SetConfig(htim->Instance, &htim->Init); 
 2000              		.loc 1 1025 0
 2001 0034 7B68     		ldr	r3, [r7, #4]
 2002 0036 1A68     		ldr	r2, [r3]
 2003 0038 7B68     		ldr	r3, [r7, #4]
 2004 003a 0433     		adds	r3, r3, #4
 2005 003c 1946     		mov	r1, r3
 2006 003e 1046     		mov	r0, r2
 2007 0040 FFF7FEFF 		bl	TIM_Base_SetConfig
1026:Drivers/STM32F4xx_HAL_Driver/Src/stm32f4xx_hal_tim.c ****    
1027:Drivers/STM32F4xx_HAL_Driver/Src/stm32f4xx_hal_tim.c ****   /* Initialize the TIM state*/
1028:Drivers/STM32F4xx_HAL_Driver/Src/stm32f4xx_hal_tim.c ****   htim->State= HAL_TIM_STATE_READY;
 2008              		.loc 1 1028 0
 2009 0044 7B68     		ldr	r3, [r7, #4]
 2010 0046 0122     		movs	r2, #1
 2011 0048 83F83920 		strb	r2, [r3, #57]
1029:Drivers/STM32F4xx_HAL_Driver/Src/stm32f4xx_hal_tim.c ****   
1030:Drivers/STM32F4xx_HAL_Driver/Src/stm32f4xx_hal_tim.c ****   return HAL_OK;
 2012              		.loc 1 1030 0
 2013 004c 0023     		movs	r3, #0
 2014              	.L109:
1031:Drivers/STM32F4xx_HAL_Driver/Src/stm32f4xx_hal_tim.c **** }  
 2015              		.loc 1 1031 0
 2016 004e 1846     		mov	r0, r3
 2017 0050 0837     		adds	r7, r7, #8
 2018              	.LCFI112:
 2019              		.cfi_def_cfa_offset 8
 2020 0052 BD46     		mov	sp, r7
 2021              	.LCFI113:
 2022              		.cfi_def_cfa_register 13
 2023              		@ sp needed
 2024 0054 80BD     		pop	{r7, pc}
 2025              		.cfi_endproc
 2026              	.LFE144:
 2028              		.section	.text.HAL_TIM_PWM_DeInit,"ax",%progbits
 2029              		.align	1
 2030              		.global	HAL_TIM_PWM_DeInit
 2031              		.syntax unified
 2032              		.thumb
ARM GAS  /tmp/cc4tSQEQ.s 			page 54


 2033              		.thumb_func
 2034              		.fpu fpv4-sp-d16
 2036              	HAL_TIM_PWM_DeInit:
 2037              	.LFB145:
1032:Drivers/STM32F4xx_HAL_Driver/Src/stm32f4xx_hal_tim.c **** 
1033:Drivers/STM32F4xx_HAL_Driver/Src/stm32f4xx_hal_tim.c **** /**
1034:Drivers/STM32F4xx_HAL_Driver/Src/stm32f4xx_hal_tim.c ****   * @brief  DeInitializes the TIM peripheral 
1035:Drivers/STM32F4xx_HAL_Driver/Src/stm32f4xx_hal_tim.c ****   * @param  htim pointer to a TIM_HandleTypeDef structure that contains
1036:Drivers/STM32F4xx_HAL_Driver/Src/stm32f4xx_hal_tim.c ****   *                the configuration information for TIM module.
1037:Drivers/STM32F4xx_HAL_Driver/Src/stm32f4xx_hal_tim.c ****   * @retval HAL status
1038:Drivers/STM32F4xx_HAL_Driver/Src/stm32f4xx_hal_tim.c ****   */
1039:Drivers/STM32F4xx_HAL_Driver/Src/stm32f4xx_hal_tim.c **** HAL_StatusTypeDef HAL_TIM_PWM_DeInit(TIM_HandleTypeDef *htim)
1040:Drivers/STM32F4xx_HAL_Driver/Src/stm32f4xx_hal_tim.c **** {
 2038              		.loc 1 1040 0
 2039              		.cfi_startproc
 2040              		@ args = 0, pretend = 0, frame = 8
 2041              		@ frame_needed = 1, uses_anonymous_args = 0
 2042 0000 80B5     		push	{r7, lr}
 2043              	.LCFI114:
 2044              		.cfi_def_cfa_offset 8
 2045              		.cfi_offset 7, -8
 2046              		.cfi_offset 14, -4
 2047 0002 82B0     		sub	sp, sp, #8
 2048              	.LCFI115:
 2049              		.cfi_def_cfa_offset 16
 2050 0004 00AF     		add	r7, sp, #0
 2051              	.LCFI116:
 2052              		.cfi_def_cfa_register 7
 2053 0006 7860     		str	r0, [r7, #4]
1041:Drivers/STM32F4xx_HAL_Driver/Src/stm32f4xx_hal_tim.c ****   /* Check the parameters */
1042:Drivers/STM32F4xx_HAL_Driver/Src/stm32f4xx_hal_tim.c ****   assert_param(IS_TIM_INSTANCE(htim->Instance));
1043:Drivers/STM32F4xx_HAL_Driver/Src/stm32f4xx_hal_tim.c ****   
1044:Drivers/STM32F4xx_HAL_Driver/Src/stm32f4xx_hal_tim.c ****   htim->State = HAL_TIM_STATE_BUSY;
 2054              		.loc 1 1044 0
 2055 0008 7B68     		ldr	r3, [r7, #4]
 2056 000a 0222     		movs	r2, #2
 2057 000c 83F83920 		strb	r2, [r3, #57]
1045:Drivers/STM32F4xx_HAL_Driver/Src/stm32f4xx_hal_tim.c ****   
1046:Drivers/STM32F4xx_HAL_Driver/Src/stm32f4xx_hal_tim.c ****   /* Disable the TIM Peripheral Clock */
1047:Drivers/STM32F4xx_HAL_Driver/Src/stm32f4xx_hal_tim.c ****   __HAL_TIM_DISABLE(htim);
 2058              		.loc 1 1047 0
 2059 0010 7B68     		ldr	r3, [r7, #4]
 2060 0012 1B68     		ldr	r3, [r3]
 2061 0014 1A6A     		ldr	r2, [r3, #32]
 2062 0016 41F21113 		movw	r3, #4369
 2063 001a 1340     		ands	r3, r3, r2
 2064 001c 002B     		cmp	r3, #0
 2065 001e 0FD1     		bne	.L112
 2066              		.loc 1 1047 0 is_stmt 0 discriminator 1
 2067 0020 7B68     		ldr	r3, [r7, #4]
 2068 0022 1B68     		ldr	r3, [r3]
 2069 0024 1A6A     		ldr	r2, [r3, #32]
 2070 0026 40F24443 		movw	r3, #1092
 2071 002a 1340     		ands	r3, r3, r2
 2072 002c 002B     		cmp	r3, #0
 2073 002e 07D1     		bne	.L112
 2074              		.loc 1 1047 0 discriminator 2
ARM GAS  /tmp/cc4tSQEQ.s 			page 55


 2075 0030 7B68     		ldr	r3, [r7, #4]
 2076 0032 1B68     		ldr	r3, [r3]
 2077 0034 7A68     		ldr	r2, [r7, #4]
 2078 0036 1268     		ldr	r2, [r2]
 2079 0038 1268     		ldr	r2, [r2]
 2080 003a 22F00102 		bic	r2, r2, #1
 2081 003e 1A60     		str	r2, [r3]
 2082              	.L112:
1048:Drivers/STM32F4xx_HAL_Driver/Src/stm32f4xx_hal_tim.c ****     
1049:Drivers/STM32F4xx_HAL_Driver/Src/stm32f4xx_hal_tim.c ****   /* DeInit the low level hardware: GPIO, CLOCK, NVIC and DMA */
1050:Drivers/STM32F4xx_HAL_Driver/Src/stm32f4xx_hal_tim.c ****   HAL_TIM_PWM_MspDeInit(htim);
 2083              		.loc 1 1050 0 is_stmt 1
 2084 0040 7868     		ldr	r0, [r7, #4]
 2085 0042 FFF7FEFF 		bl	HAL_TIM_PWM_MspDeInit
1051:Drivers/STM32F4xx_HAL_Driver/Src/stm32f4xx_hal_tim.c ****     
1052:Drivers/STM32F4xx_HAL_Driver/Src/stm32f4xx_hal_tim.c ****   /* Change TIM state */  
1053:Drivers/STM32F4xx_HAL_Driver/Src/stm32f4xx_hal_tim.c ****   htim->State = HAL_TIM_STATE_RESET; 
 2086              		.loc 1 1053 0
 2087 0046 7B68     		ldr	r3, [r7, #4]
 2088 0048 0022     		movs	r2, #0
 2089 004a 83F83920 		strb	r2, [r3, #57]
1054:Drivers/STM32F4xx_HAL_Driver/Src/stm32f4xx_hal_tim.c **** 
1055:Drivers/STM32F4xx_HAL_Driver/Src/stm32f4xx_hal_tim.c ****   /* Release Lock */
1056:Drivers/STM32F4xx_HAL_Driver/Src/stm32f4xx_hal_tim.c ****   __HAL_UNLOCK(htim);
 2090              		.loc 1 1056 0
 2091 004e 7B68     		ldr	r3, [r7, #4]
 2092 0050 0022     		movs	r2, #0
 2093 0052 83F83820 		strb	r2, [r3, #56]
1057:Drivers/STM32F4xx_HAL_Driver/Src/stm32f4xx_hal_tim.c **** 
1058:Drivers/STM32F4xx_HAL_Driver/Src/stm32f4xx_hal_tim.c ****   return HAL_OK;
 2094              		.loc 1 1058 0
 2095 0056 0023     		movs	r3, #0
1059:Drivers/STM32F4xx_HAL_Driver/Src/stm32f4xx_hal_tim.c **** }
 2096              		.loc 1 1059 0
 2097 0058 1846     		mov	r0, r3
 2098 005a 0837     		adds	r7, r7, #8
 2099              	.LCFI117:
 2100              		.cfi_def_cfa_offset 8
 2101 005c BD46     		mov	sp, r7
 2102              	.LCFI118:
 2103              		.cfi_def_cfa_register 13
 2104              		@ sp needed
 2105 005e 80BD     		pop	{r7, pc}
 2106              		.cfi_endproc
 2107              	.LFE145:
 2109              		.section	.text.HAL_TIM_PWM_MspInit,"ax",%progbits
 2110              		.align	1
 2111              		.weak	HAL_TIM_PWM_MspInit
 2112              		.syntax unified
 2113              		.thumb
 2114              		.thumb_func
 2115              		.fpu fpv4-sp-d16
 2117              	HAL_TIM_PWM_MspInit:
 2118              	.LFB146:
1060:Drivers/STM32F4xx_HAL_Driver/Src/stm32f4xx_hal_tim.c **** 
1061:Drivers/STM32F4xx_HAL_Driver/Src/stm32f4xx_hal_tim.c **** /**
1062:Drivers/STM32F4xx_HAL_Driver/Src/stm32f4xx_hal_tim.c ****   * @brief  Initializes the TIM PWM MSP.
ARM GAS  /tmp/cc4tSQEQ.s 			page 56


1063:Drivers/STM32F4xx_HAL_Driver/Src/stm32f4xx_hal_tim.c ****   * @param  htim pointer to a TIM_HandleTypeDef structure that contains
1064:Drivers/STM32F4xx_HAL_Driver/Src/stm32f4xx_hal_tim.c ****   *                the configuration information for TIM module.
1065:Drivers/STM32F4xx_HAL_Driver/Src/stm32f4xx_hal_tim.c ****   * @retval None
1066:Drivers/STM32F4xx_HAL_Driver/Src/stm32f4xx_hal_tim.c ****   */
1067:Drivers/STM32F4xx_HAL_Driver/Src/stm32f4xx_hal_tim.c **** __weak void HAL_TIM_PWM_MspInit(TIM_HandleTypeDef *htim)
1068:Drivers/STM32F4xx_HAL_Driver/Src/stm32f4xx_hal_tim.c **** {
 2119              		.loc 1 1068 0
 2120              		.cfi_startproc
 2121              		@ args = 0, pretend = 0, frame = 8
 2122              		@ frame_needed = 1, uses_anonymous_args = 0
 2123              		@ link register save eliminated.
 2124 0000 80B4     		push	{r7}
 2125              	.LCFI119:
 2126              		.cfi_def_cfa_offset 4
 2127              		.cfi_offset 7, -4
 2128 0002 83B0     		sub	sp, sp, #12
 2129              	.LCFI120:
 2130              		.cfi_def_cfa_offset 16
 2131 0004 00AF     		add	r7, sp, #0
 2132              	.LCFI121:
 2133              		.cfi_def_cfa_register 7
 2134 0006 7860     		str	r0, [r7, #4]
1069:Drivers/STM32F4xx_HAL_Driver/Src/stm32f4xx_hal_tim.c ****   /* Prevent unused argument(s) compilation warning */
1070:Drivers/STM32F4xx_HAL_Driver/Src/stm32f4xx_hal_tim.c ****   UNUSED(htim);
1071:Drivers/STM32F4xx_HAL_Driver/Src/stm32f4xx_hal_tim.c ****   /* NOTE : This function Should not be modified, when the callback is needed,
1072:Drivers/STM32F4xx_HAL_Driver/Src/stm32f4xx_hal_tim.c ****             the HAL_TIM_PWM_MspInit could be implemented in the user file
1073:Drivers/STM32F4xx_HAL_Driver/Src/stm32f4xx_hal_tim.c ****    */
1074:Drivers/STM32F4xx_HAL_Driver/Src/stm32f4xx_hal_tim.c **** }
 2135              		.loc 1 1074 0
 2136 0008 00BF     		nop
 2137 000a 0C37     		adds	r7, r7, #12
 2138              	.LCFI122:
 2139              		.cfi_def_cfa_offset 4
 2140 000c BD46     		mov	sp, r7
 2141              	.LCFI123:
 2142              		.cfi_def_cfa_register 13
 2143              		@ sp needed
 2144 000e 5DF8047B 		ldr	r7, [sp], #4
 2145              	.LCFI124:
 2146              		.cfi_restore 7
 2147              		.cfi_def_cfa_offset 0
 2148 0012 7047     		bx	lr
 2149              		.cfi_endproc
 2150              	.LFE146:
 2152              		.section	.text.HAL_TIM_PWM_MspDeInit,"ax",%progbits
 2153              		.align	1
 2154              		.weak	HAL_TIM_PWM_MspDeInit
 2155              		.syntax unified
 2156              		.thumb
 2157              		.thumb_func
 2158              		.fpu fpv4-sp-d16
 2160              	HAL_TIM_PWM_MspDeInit:
 2161              	.LFB147:
1075:Drivers/STM32F4xx_HAL_Driver/Src/stm32f4xx_hal_tim.c **** 
1076:Drivers/STM32F4xx_HAL_Driver/Src/stm32f4xx_hal_tim.c **** /**
1077:Drivers/STM32F4xx_HAL_Driver/Src/stm32f4xx_hal_tim.c ****   * @brief  DeInitializes TIM PWM MSP.
1078:Drivers/STM32F4xx_HAL_Driver/Src/stm32f4xx_hal_tim.c ****   * @param  htim pointer to a TIM_HandleTypeDef structure that contains
ARM GAS  /tmp/cc4tSQEQ.s 			page 57


1079:Drivers/STM32F4xx_HAL_Driver/Src/stm32f4xx_hal_tim.c ****   *                the configuration information for TIM module.
1080:Drivers/STM32F4xx_HAL_Driver/Src/stm32f4xx_hal_tim.c ****   * @retval None
1081:Drivers/STM32F4xx_HAL_Driver/Src/stm32f4xx_hal_tim.c ****   */
1082:Drivers/STM32F4xx_HAL_Driver/Src/stm32f4xx_hal_tim.c **** __weak void HAL_TIM_PWM_MspDeInit(TIM_HandleTypeDef *htim)
1083:Drivers/STM32F4xx_HAL_Driver/Src/stm32f4xx_hal_tim.c **** {
 2162              		.loc 1 1083 0
 2163              		.cfi_startproc
 2164              		@ args = 0, pretend = 0, frame = 8
 2165              		@ frame_needed = 1, uses_anonymous_args = 0
 2166              		@ link register save eliminated.
 2167 0000 80B4     		push	{r7}
 2168              	.LCFI125:
 2169              		.cfi_def_cfa_offset 4
 2170              		.cfi_offset 7, -4
 2171 0002 83B0     		sub	sp, sp, #12
 2172              	.LCFI126:
 2173              		.cfi_def_cfa_offset 16
 2174 0004 00AF     		add	r7, sp, #0
 2175              	.LCFI127:
 2176              		.cfi_def_cfa_register 7
 2177 0006 7860     		str	r0, [r7, #4]
1084:Drivers/STM32F4xx_HAL_Driver/Src/stm32f4xx_hal_tim.c ****   /* Prevent unused argument(s) compilation warning */
1085:Drivers/STM32F4xx_HAL_Driver/Src/stm32f4xx_hal_tim.c ****   UNUSED(htim);
1086:Drivers/STM32F4xx_HAL_Driver/Src/stm32f4xx_hal_tim.c ****   /* NOTE : This function Should not be modified, when the callback is needed,
1087:Drivers/STM32F4xx_HAL_Driver/Src/stm32f4xx_hal_tim.c ****             the HAL_TIM_PWM_MspDeInit could be implemented in the user file
1088:Drivers/STM32F4xx_HAL_Driver/Src/stm32f4xx_hal_tim.c ****    */
1089:Drivers/STM32F4xx_HAL_Driver/Src/stm32f4xx_hal_tim.c **** }
 2178              		.loc 1 1089 0
 2179 0008 00BF     		nop
 2180 000a 0C37     		adds	r7, r7, #12
 2181              	.LCFI128:
 2182              		.cfi_def_cfa_offset 4
 2183 000c BD46     		mov	sp, r7
 2184              	.LCFI129:
 2185              		.cfi_def_cfa_register 13
 2186              		@ sp needed
 2187 000e 5DF8047B 		ldr	r7, [sp], #4
 2188              	.LCFI130:
 2189              		.cfi_restore 7
 2190              		.cfi_def_cfa_offset 0
 2191 0012 7047     		bx	lr
 2192              		.cfi_endproc
 2193              	.LFE147:
 2195              		.section	.text.HAL_TIM_PWM_Start,"ax",%progbits
 2196              		.align	1
 2197              		.global	HAL_TIM_PWM_Start
 2198              		.syntax unified
 2199              		.thumb
 2200              		.thumb_func
 2201              		.fpu fpv4-sp-d16
 2203              	HAL_TIM_PWM_Start:
 2204              	.LFB148:
1090:Drivers/STM32F4xx_HAL_Driver/Src/stm32f4xx_hal_tim.c **** 
1091:Drivers/STM32F4xx_HAL_Driver/Src/stm32f4xx_hal_tim.c **** /**
1092:Drivers/STM32F4xx_HAL_Driver/Src/stm32f4xx_hal_tim.c ****   * @brief  Starts the PWM signal generation.
1093:Drivers/STM32F4xx_HAL_Driver/Src/stm32f4xx_hal_tim.c ****   * @param  htim pointer to a TIM_HandleTypeDef structure that contains
1094:Drivers/STM32F4xx_HAL_Driver/Src/stm32f4xx_hal_tim.c ****   *                the configuration information for TIM module.
ARM GAS  /tmp/cc4tSQEQ.s 			page 58


1095:Drivers/STM32F4xx_HAL_Driver/Src/stm32f4xx_hal_tim.c ****   * @param  Channel TIM Channels to be enabled.
1096:Drivers/STM32F4xx_HAL_Driver/Src/stm32f4xx_hal_tim.c ****   *          This parameter can be one of the following values:
1097:Drivers/STM32F4xx_HAL_Driver/Src/stm32f4xx_hal_tim.c ****   *            @arg TIM_CHANNEL_1: TIM Channel 1 selected
1098:Drivers/STM32F4xx_HAL_Driver/Src/stm32f4xx_hal_tim.c ****   *            @arg TIM_CHANNEL_2: TIM Channel 2 selected
1099:Drivers/STM32F4xx_HAL_Driver/Src/stm32f4xx_hal_tim.c ****   *            @arg TIM_CHANNEL_3: TIM Channel 3 selected
1100:Drivers/STM32F4xx_HAL_Driver/Src/stm32f4xx_hal_tim.c ****   *            @arg TIM_CHANNEL_4: TIM Channel 4 selected
1101:Drivers/STM32F4xx_HAL_Driver/Src/stm32f4xx_hal_tim.c ****   * @retval HAL status
1102:Drivers/STM32F4xx_HAL_Driver/Src/stm32f4xx_hal_tim.c ****   */
1103:Drivers/STM32F4xx_HAL_Driver/Src/stm32f4xx_hal_tim.c **** HAL_StatusTypeDef HAL_TIM_PWM_Start(TIM_HandleTypeDef *htim, uint32_t Channel)
1104:Drivers/STM32F4xx_HAL_Driver/Src/stm32f4xx_hal_tim.c **** {
 2205              		.loc 1 1104 0
 2206              		.cfi_startproc
 2207              		@ args = 0, pretend = 0, frame = 8
 2208              		@ frame_needed = 1, uses_anonymous_args = 0
 2209 0000 80B5     		push	{r7, lr}
 2210              	.LCFI131:
 2211              		.cfi_def_cfa_offset 8
 2212              		.cfi_offset 7, -8
 2213              		.cfi_offset 14, -4
 2214 0002 82B0     		sub	sp, sp, #8
 2215              	.LCFI132:
 2216              		.cfi_def_cfa_offset 16
 2217 0004 00AF     		add	r7, sp, #0
 2218              	.LCFI133:
 2219              		.cfi_def_cfa_register 7
 2220 0006 7860     		str	r0, [r7, #4]
 2221 0008 3960     		str	r1, [r7]
1105:Drivers/STM32F4xx_HAL_Driver/Src/stm32f4xx_hal_tim.c ****   /* Check the parameters */
1106:Drivers/STM32F4xx_HAL_Driver/Src/stm32f4xx_hal_tim.c ****   assert_param(IS_TIM_CCX_INSTANCE(htim->Instance, Channel));
1107:Drivers/STM32F4xx_HAL_Driver/Src/stm32f4xx_hal_tim.c **** 
1108:Drivers/STM32F4xx_HAL_Driver/Src/stm32f4xx_hal_tim.c ****   /* Enable the Capture compare channel */
1109:Drivers/STM32F4xx_HAL_Driver/Src/stm32f4xx_hal_tim.c ****   TIM_CCxChannelCmd(htim->Instance, Channel, TIM_CCx_ENABLE);
 2222              		.loc 1 1109 0
 2223 000a 7B68     		ldr	r3, [r7, #4]
 2224 000c 1B68     		ldr	r3, [r3]
 2225 000e 0122     		movs	r2, #1
 2226 0010 3968     		ldr	r1, [r7]
 2227 0012 1846     		mov	r0, r3
 2228 0014 FFF7FEFF 		bl	TIM_CCxChannelCmd
1110:Drivers/STM32F4xx_HAL_Driver/Src/stm32f4xx_hal_tim.c ****   
1111:Drivers/STM32F4xx_HAL_Driver/Src/stm32f4xx_hal_tim.c ****   if(IS_TIM_ADVANCED_INSTANCE(htim->Instance) != RESET)  
 2229              		.loc 1 1111 0
 2230 0018 7B68     		ldr	r3, [r7, #4]
 2231 001a 1B68     		ldr	r3, [r3]
 2232 001c 0B4A     		ldr	r2, .L119
 2233 001e 9342     		cmp	r3, r2
 2234 0020 07D1     		bne	.L117
1112:Drivers/STM32F4xx_HAL_Driver/Src/stm32f4xx_hal_tim.c ****   {
1113:Drivers/STM32F4xx_HAL_Driver/Src/stm32f4xx_hal_tim.c ****     /* Enable the main output */
1114:Drivers/STM32F4xx_HAL_Driver/Src/stm32f4xx_hal_tim.c ****     __HAL_TIM_MOE_ENABLE(htim);
 2235              		.loc 1 1114 0
 2236 0022 7B68     		ldr	r3, [r7, #4]
 2237 0024 1B68     		ldr	r3, [r3]
 2238 0026 7A68     		ldr	r2, [r7, #4]
 2239 0028 1268     		ldr	r2, [r2]
 2240 002a 526C     		ldr	r2, [r2, #68]
 2241 002c 42F40042 		orr	r2, r2, #32768
ARM GAS  /tmp/cc4tSQEQ.s 			page 59


 2242 0030 5A64     		str	r2, [r3, #68]
 2243              	.L117:
1115:Drivers/STM32F4xx_HAL_Driver/Src/stm32f4xx_hal_tim.c ****   }
1116:Drivers/STM32F4xx_HAL_Driver/Src/stm32f4xx_hal_tim.c ****     
1117:Drivers/STM32F4xx_HAL_Driver/Src/stm32f4xx_hal_tim.c ****   /* Enable the Peripheral */
1118:Drivers/STM32F4xx_HAL_Driver/Src/stm32f4xx_hal_tim.c ****   __HAL_TIM_ENABLE(htim);
 2244              		.loc 1 1118 0
 2245 0032 7B68     		ldr	r3, [r7, #4]
 2246 0034 1B68     		ldr	r3, [r3]
 2247 0036 7A68     		ldr	r2, [r7, #4]
 2248 0038 1268     		ldr	r2, [r2]
 2249 003a 1268     		ldr	r2, [r2]
 2250 003c 42F00102 		orr	r2, r2, #1
 2251 0040 1A60     		str	r2, [r3]
1119:Drivers/STM32F4xx_HAL_Driver/Src/stm32f4xx_hal_tim.c ****   
1120:Drivers/STM32F4xx_HAL_Driver/Src/stm32f4xx_hal_tim.c ****   /* Return function status */
1121:Drivers/STM32F4xx_HAL_Driver/Src/stm32f4xx_hal_tim.c ****   return HAL_OK;
 2252              		.loc 1 1121 0
 2253 0042 0023     		movs	r3, #0
1122:Drivers/STM32F4xx_HAL_Driver/Src/stm32f4xx_hal_tim.c **** } 
 2254              		.loc 1 1122 0
 2255 0044 1846     		mov	r0, r3
 2256 0046 0837     		adds	r7, r7, #8
 2257              	.LCFI134:
 2258              		.cfi_def_cfa_offset 8
 2259 0048 BD46     		mov	sp, r7
 2260              	.LCFI135:
 2261              		.cfi_def_cfa_register 13
 2262              		@ sp needed
 2263 004a 80BD     		pop	{r7, pc}
 2264              	.L120:
 2265              		.align	2
 2266              	.L119:
 2267 004c 00000140 		.word	1073807360
 2268              		.cfi_endproc
 2269              	.LFE148:
 2271              		.section	.text.HAL_TIM_PWM_Stop,"ax",%progbits
 2272              		.align	1
 2273              		.global	HAL_TIM_PWM_Stop
 2274              		.syntax unified
 2275              		.thumb
 2276              		.thumb_func
 2277              		.fpu fpv4-sp-d16
 2279              	HAL_TIM_PWM_Stop:
 2280              	.LFB149:
1123:Drivers/STM32F4xx_HAL_Driver/Src/stm32f4xx_hal_tim.c **** 
1124:Drivers/STM32F4xx_HAL_Driver/Src/stm32f4xx_hal_tim.c **** /**
1125:Drivers/STM32F4xx_HAL_Driver/Src/stm32f4xx_hal_tim.c ****   * @brief  Stops the PWM signal generation.
1126:Drivers/STM32F4xx_HAL_Driver/Src/stm32f4xx_hal_tim.c ****   * @param  htim pointer to a TIM_HandleTypeDef structure that contains
1127:Drivers/STM32F4xx_HAL_Driver/Src/stm32f4xx_hal_tim.c ****   *                the configuration information for TIM module.
1128:Drivers/STM32F4xx_HAL_Driver/Src/stm32f4xx_hal_tim.c ****   * @param  Channel TIM Channels to be disabled.
1129:Drivers/STM32F4xx_HAL_Driver/Src/stm32f4xx_hal_tim.c ****   *          This parameter can be one of the following values:
1130:Drivers/STM32F4xx_HAL_Driver/Src/stm32f4xx_hal_tim.c ****   *            @arg TIM_CHANNEL_1: TIM Channel 1 selected
1131:Drivers/STM32F4xx_HAL_Driver/Src/stm32f4xx_hal_tim.c ****   *            @arg TIM_CHANNEL_2: TIM Channel 2 selected
1132:Drivers/STM32F4xx_HAL_Driver/Src/stm32f4xx_hal_tim.c ****   *            @arg TIM_CHANNEL_3: TIM Channel 3 selected
1133:Drivers/STM32F4xx_HAL_Driver/Src/stm32f4xx_hal_tim.c ****   *            @arg TIM_CHANNEL_4: TIM Channel 4 selected
1134:Drivers/STM32F4xx_HAL_Driver/Src/stm32f4xx_hal_tim.c ****   * @retval HAL status
ARM GAS  /tmp/cc4tSQEQ.s 			page 60


1135:Drivers/STM32F4xx_HAL_Driver/Src/stm32f4xx_hal_tim.c ****   */
1136:Drivers/STM32F4xx_HAL_Driver/Src/stm32f4xx_hal_tim.c **** HAL_StatusTypeDef HAL_TIM_PWM_Stop(TIM_HandleTypeDef *htim, uint32_t Channel)
1137:Drivers/STM32F4xx_HAL_Driver/Src/stm32f4xx_hal_tim.c **** { 
 2281              		.loc 1 1137 0
 2282              		.cfi_startproc
 2283              		@ args = 0, pretend = 0, frame = 8
 2284              		@ frame_needed = 1, uses_anonymous_args = 0
 2285 0000 80B5     		push	{r7, lr}
 2286              	.LCFI136:
 2287              		.cfi_def_cfa_offset 8
 2288              		.cfi_offset 7, -8
 2289              		.cfi_offset 14, -4
 2290 0002 82B0     		sub	sp, sp, #8
 2291              	.LCFI137:
 2292              		.cfi_def_cfa_offset 16
 2293 0004 00AF     		add	r7, sp, #0
 2294              	.LCFI138:
 2295              		.cfi_def_cfa_register 7
 2296 0006 7860     		str	r0, [r7, #4]
 2297 0008 3960     		str	r1, [r7]
1138:Drivers/STM32F4xx_HAL_Driver/Src/stm32f4xx_hal_tim.c ****   /* Check the parameters */
1139:Drivers/STM32F4xx_HAL_Driver/Src/stm32f4xx_hal_tim.c ****   assert_param(IS_TIM_CCX_INSTANCE(htim->Instance, Channel));
1140:Drivers/STM32F4xx_HAL_Driver/Src/stm32f4xx_hal_tim.c ****     
1141:Drivers/STM32F4xx_HAL_Driver/Src/stm32f4xx_hal_tim.c ****   /* Disable the Capture compare channel */
1142:Drivers/STM32F4xx_HAL_Driver/Src/stm32f4xx_hal_tim.c ****   TIM_CCxChannelCmd(htim->Instance, Channel, TIM_CCx_DISABLE);
 2298              		.loc 1 1142 0
 2299 000a 7B68     		ldr	r3, [r7, #4]
 2300 000c 1B68     		ldr	r3, [r3]
 2301 000e 0022     		movs	r2, #0
 2302 0010 3968     		ldr	r1, [r7]
 2303 0012 1846     		mov	r0, r3
 2304 0014 FFF7FEFF 		bl	TIM_CCxChannelCmd
1143:Drivers/STM32F4xx_HAL_Driver/Src/stm32f4xx_hal_tim.c ****   
1144:Drivers/STM32F4xx_HAL_Driver/Src/stm32f4xx_hal_tim.c ****   if(IS_TIM_ADVANCED_INSTANCE(htim->Instance) != RESET)  
 2305              		.loc 1 1144 0
 2306 0018 7B68     		ldr	r3, [r7, #4]
 2307 001a 1B68     		ldr	r3, [r3]
 2308 001c 1D4A     		ldr	r2, .L125
 2309 001e 9342     		cmp	r3, r2
 2310 0020 17D1     		bne	.L122
1145:Drivers/STM32F4xx_HAL_Driver/Src/stm32f4xx_hal_tim.c ****   {
1146:Drivers/STM32F4xx_HAL_Driver/Src/stm32f4xx_hal_tim.c ****     /* Disable the Main Output */
1147:Drivers/STM32F4xx_HAL_Driver/Src/stm32f4xx_hal_tim.c ****     __HAL_TIM_MOE_DISABLE(htim);
 2311              		.loc 1 1147 0
 2312 0022 7B68     		ldr	r3, [r7, #4]
 2313 0024 1B68     		ldr	r3, [r3]
 2314 0026 1A6A     		ldr	r2, [r3, #32]
 2315 0028 41F21113 		movw	r3, #4369
 2316 002c 1340     		ands	r3, r3, r2
 2317 002e 002B     		cmp	r3, #0
 2318 0030 0FD1     		bne	.L122
 2319              		.loc 1 1147 0 is_stmt 0 discriminator 1
 2320 0032 7B68     		ldr	r3, [r7, #4]
 2321 0034 1B68     		ldr	r3, [r3]
 2322 0036 1A6A     		ldr	r2, [r3, #32]
 2323 0038 40F24443 		movw	r3, #1092
 2324 003c 1340     		ands	r3, r3, r2
ARM GAS  /tmp/cc4tSQEQ.s 			page 61


 2325 003e 002B     		cmp	r3, #0
 2326 0040 07D1     		bne	.L122
 2327              		.loc 1 1147 0 discriminator 2
 2328 0042 7B68     		ldr	r3, [r7, #4]
 2329 0044 1B68     		ldr	r3, [r3]
 2330 0046 7A68     		ldr	r2, [r7, #4]
 2331 0048 1268     		ldr	r2, [r2]
 2332 004a 526C     		ldr	r2, [r2, #68]
 2333 004c 22F40042 		bic	r2, r2, #32768
 2334 0050 5A64     		str	r2, [r3, #68]
 2335              	.L122:
1148:Drivers/STM32F4xx_HAL_Driver/Src/stm32f4xx_hal_tim.c ****   }
1149:Drivers/STM32F4xx_HAL_Driver/Src/stm32f4xx_hal_tim.c ****   
1150:Drivers/STM32F4xx_HAL_Driver/Src/stm32f4xx_hal_tim.c ****   /* Disable the Peripheral */
1151:Drivers/STM32F4xx_HAL_Driver/Src/stm32f4xx_hal_tim.c ****   __HAL_TIM_DISABLE(htim);
 2336              		.loc 1 1151 0 is_stmt 1
 2337 0052 7B68     		ldr	r3, [r7, #4]
 2338 0054 1B68     		ldr	r3, [r3]
 2339 0056 1A6A     		ldr	r2, [r3, #32]
 2340 0058 41F21113 		movw	r3, #4369
 2341 005c 1340     		ands	r3, r3, r2
 2342 005e 002B     		cmp	r3, #0
 2343 0060 0FD1     		bne	.L123
 2344              		.loc 1 1151 0 is_stmt 0 discriminator 1
 2345 0062 7B68     		ldr	r3, [r7, #4]
 2346 0064 1B68     		ldr	r3, [r3]
 2347 0066 1A6A     		ldr	r2, [r3, #32]
 2348 0068 40F24443 		movw	r3, #1092
 2349 006c 1340     		ands	r3, r3, r2
 2350 006e 002B     		cmp	r3, #0
 2351 0070 07D1     		bne	.L123
 2352              		.loc 1 1151 0 discriminator 2
 2353 0072 7B68     		ldr	r3, [r7, #4]
 2354 0074 1B68     		ldr	r3, [r3]
 2355 0076 7A68     		ldr	r2, [r7, #4]
 2356 0078 1268     		ldr	r2, [r2]
 2357 007a 1268     		ldr	r2, [r2]
 2358 007c 22F00102 		bic	r2, r2, #1
 2359 0080 1A60     		str	r2, [r3]
 2360              	.L123:
1152:Drivers/STM32F4xx_HAL_Driver/Src/stm32f4xx_hal_tim.c ****   
1153:Drivers/STM32F4xx_HAL_Driver/Src/stm32f4xx_hal_tim.c ****   /* Change the htim state */
1154:Drivers/STM32F4xx_HAL_Driver/Src/stm32f4xx_hal_tim.c ****   htim->State = HAL_TIM_STATE_READY;
 2361              		.loc 1 1154 0 is_stmt 1
 2362 0082 7B68     		ldr	r3, [r7, #4]
 2363 0084 0122     		movs	r2, #1
 2364 0086 83F83920 		strb	r2, [r3, #57]
1155:Drivers/STM32F4xx_HAL_Driver/Src/stm32f4xx_hal_tim.c ****   
1156:Drivers/STM32F4xx_HAL_Driver/Src/stm32f4xx_hal_tim.c ****   /* Return function status */
1157:Drivers/STM32F4xx_HAL_Driver/Src/stm32f4xx_hal_tim.c ****   return HAL_OK;
 2365              		.loc 1 1157 0
 2366 008a 0023     		movs	r3, #0
1158:Drivers/STM32F4xx_HAL_Driver/Src/stm32f4xx_hal_tim.c **** } 
 2367              		.loc 1 1158 0
 2368 008c 1846     		mov	r0, r3
 2369 008e 0837     		adds	r7, r7, #8
 2370              	.LCFI139:
ARM GAS  /tmp/cc4tSQEQ.s 			page 62


 2371              		.cfi_def_cfa_offset 8
 2372 0090 BD46     		mov	sp, r7
 2373              	.LCFI140:
 2374              		.cfi_def_cfa_register 13
 2375              		@ sp needed
 2376 0092 80BD     		pop	{r7, pc}
 2377              	.L126:
 2378              		.align	2
 2379              	.L125:
 2380 0094 00000140 		.word	1073807360
 2381              		.cfi_endproc
 2382              	.LFE149:
 2384              		.section	.text.HAL_TIM_PWM_Start_IT,"ax",%progbits
 2385              		.align	1
 2386              		.global	HAL_TIM_PWM_Start_IT
 2387              		.syntax unified
 2388              		.thumb
 2389              		.thumb_func
 2390              		.fpu fpv4-sp-d16
 2392              	HAL_TIM_PWM_Start_IT:
 2393              	.LFB150:
1159:Drivers/STM32F4xx_HAL_Driver/Src/stm32f4xx_hal_tim.c **** 
1160:Drivers/STM32F4xx_HAL_Driver/Src/stm32f4xx_hal_tim.c **** /**
1161:Drivers/STM32F4xx_HAL_Driver/Src/stm32f4xx_hal_tim.c ****   * @brief  Starts the PWM signal generation in interrupt mode.
1162:Drivers/STM32F4xx_HAL_Driver/Src/stm32f4xx_hal_tim.c ****   * @param  htim pointer to a TIM_HandleTypeDef structure that contains
1163:Drivers/STM32F4xx_HAL_Driver/Src/stm32f4xx_hal_tim.c ****   *                the configuration information for TIM module.
1164:Drivers/STM32F4xx_HAL_Driver/Src/stm32f4xx_hal_tim.c ****   * @param  Channel TIM Channel to be enabled.
1165:Drivers/STM32F4xx_HAL_Driver/Src/stm32f4xx_hal_tim.c ****   *          This parameter can be one of the following values:
1166:Drivers/STM32F4xx_HAL_Driver/Src/stm32f4xx_hal_tim.c ****   *            @arg TIM_CHANNEL_1: TIM Channel 1 selected
1167:Drivers/STM32F4xx_HAL_Driver/Src/stm32f4xx_hal_tim.c ****   *            @arg TIM_CHANNEL_2: TIM Channel 2 selected
1168:Drivers/STM32F4xx_HAL_Driver/Src/stm32f4xx_hal_tim.c ****   *            @arg TIM_CHANNEL_3: TIM Channel 3 selected
1169:Drivers/STM32F4xx_HAL_Driver/Src/stm32f4xx_hal_tim.c ****   *            @arg TIM_CHANNEL_4: TIM Channel 4 selected
1170:Drivers/STM32F4xx_HAL_Driver/Src/stm32f4xx_hal_tim.c ****   * @retval HAL status
1171:Drivers/STM32F4xx_HAL_Driver/Src/stm32f4xx_hal_tim.c ****   */
1172:Drivers/STM32F4xx_HAL_Driver/Src/stm32f4xx_hal_tim.c **** HAL_StatusTypeDef HAL_TIM_PWM_Start_IT(TIM_HandleTypeDef *htim, uint32_t Channel)
1173:Drivers/STM32F4xx_HAL_Driver/Src/stm32f4xx_hal_tim.c **** {
 2394              		.loc 1 1173 0
 2395              		.cfi_startproc
 2396              		@ args = 0, pretend = 0, frame = 8
 2397              		@ frame_needed = 1, uses_anonymous_args = 0
 2398 0000 80B5     		push	{r7, lr}
 2399              	.LCFI141:
 2400              		.cfi_def_cfa_offset 8
 2401              		.cfi_offset 7, -8
 2402              		.cfi_offset 14, -4
 2403 0002 82B0     		sub	sp, sp, #8
 2404              	.LCFI142:
 2405              		.cfi_def_cfa_offset 16
 2406 0004 00AF     		add	r7, sp, #0
 2407              	.LCFI143:
 2408              		.cfi_def_cfa_register 7
 2409 0006 7860     		str	r0, [r7, #4]
 2410 0008 3960     		str	r1, [r7]
1174:Drivers/STM32F4xx_HAL_Driver/Src/stm32f4xx_hal_tim.c ****   /* Check the parameters */
1175:Drivers/STM32F4xx_HAL_Driver/Src/stm32f4xx_hal_tim.c ****   assert_param(IS_TIM_CCX_INSTANCE(htim->Instance, Channel));
1176:Drivers/STM32F4xx_HAL_Driver/Src/stm32f4xx_hal_tim.c ****   
1177:Drivers/STM32F4xx_HAL_Driver/Src/stm32f4xx_hal_tim.c ****   switch (Channel)
ARM GAS  /tmp/cc4tSQEQ.s 			page 63


 2411              		.loc 1 1177 0
 2412 000a 3B68     		ldr	r3, [r7]
 2413 000c 0C2B     		cmp	r3, #12
 2414 000e 41D8     		bhi	.L137
 2415 0010 01A2     		adr	r2, .L130
 2416 0012 52F823F0 		ldr	pc, [r2, r3, lsl #2]
 2417 0016 00BF     		.p2align 2
 2418              	.L130:
 2419 0018 4D000000 		.word	.L129+1
 2420 001c 95000000 		.word	.L137+1
 2421 0020 95000000 		.word	.L137+1
 2422 0024 95000000 		.word	.L137+1
 2423 0028 5F000000 		.word	.L131+1
 2424 002c 95000000 		.word	.L137+1
 2425 0030 95000000 		.word	.L137+1
 2426 0034 95000000 		.word	.L137+1
 2427 0038 71000000 		.word	.L132+1
 2428 003c 95000000 		.word	.L137+1
 2429 0040 95000000 		.word	.L137+1
 2430 0044 95000000 		.word	.L137+1
 2431 0048 83000000 		.word	.L133+1
 2432              		.p2align 1
 2433              	.L129:
1178:Drivers/STM32F4xx_HAL_Driver/Src/stm32f4xx_hal_tim.c ****   {
1179:Drivers/STM32F4xx_HAL_Driver/Src/stm32f4xx_hal_tim.c ****     case TIM_CHANNEL_1:
1180:Drivers/STM32F4xx_HAL_Driver/Src/stm32f4xx_hal_tim.c ****     {       
1181:Drivers/STM32F4xx_HAL_Driver/Src/stm32f4xx_hal_tim.c ****       /* Enable the TIM Capture/Compare 1 interrupt */
1182:Drivers/STM32F4xx_HAL_Driver/Src/stm32f4xx_hal_tim.c ****       __HAL_TIM_ENABLE_IT(htim, TIM_IT_CC1);
 2434              		.loc 1 1182 0
 2435 004c 7B68     		ldr	r3, [r7, #4]
 2436 004e 1B68     		ldr	r3, [r3]
 2437 0050 7A68     		ldr	r2, [r7, #4]
 2438 0052 1268     		ldr	r2, [r2]
 2439 0054 D268     		ldr	r2, [r2, #12]
 2440 0056 42F00202 		orr	r2, r2, #2
 2441 005a DA60     		str	r2, [r3, #12]
1183:Drivers/STM32F4xx_HAL_Driver/Src/stm32f4xx_hal_tim.c ****     }
1184:Drivers/STM32F4xx_HAL_Driver/Src/stm32f4xx_hal_tim.c ****     break;
 2442              		.loc 1 1184 0
 2443 005c 1BE0     		b	.L134
 2444              	.L131:
1185:Drivers/STM32F4xx_HAL_Driver/Src/stm32f4xx_hal_tim.c ****     
1186:Drivers/STM32F4xx_HAL_Driver/Src/stm32f4xx_hal_tim.c ****     case TIM_CHANNEL_2:
1187:Drivers/STM32F4xx_HAL_Driver/Src/stm32f4xx_hal_tim.c ****     {
1188:Drivers/STM32F4xx_HAL_Driver/Src/stm32f4xx_hal_tim.c ****       /* Enable the TIM Capture/Compare 2 interrupt */
1189:Drivers/STM32F4xx_HAL_Driver/Src/stm32f4xx_hal_tim.c ****       __HAL_TIM_ENABLE_IT(htim, TIM_IT_CC2);
 2445              		.loc 1 1189 0
 2446 005e 7B68     		ldr	r3, [r7, #4]
 2447 0060 1B68     		ldr	r3, [r3]
 2448 0062 7A68     		ldr	r2, [r7, #4]
 2449 0064 1268     		ldr	r2, [r2]
 2450 0066 D268     		ldr	r2, [r2, #12]
 2451 0068 42F00402 		orr	r2, r2, #4
 2452 006c DA60     		str	r2, [r3, #12]
1190:Drivers/STM32F4xx_HAL_Driver/Src/stm32f4xx_hal_tim.c ****     }
1191:Drivers/STM32F4xx_HAL_Driver/Src/stm32f4xx_hal_tim.c ****     break;
 2453              		.loc 1 1191 0
ARM GAS  /tmp/cc4tSQEQ.s 			page 64


 2454 006e 12E0     		b	.L134
 2455              	.L132:
1192:Drivers/STM32F4xx_HAL_Driver/Src/stm32f4xx_hal_tim.c ****     
1193:Drivers/STM32F4xx_HAL_Driver/Src/stm32f4xx_hal_tim.c ****     case TIM_CHANNEL_3:
1194:Drivers/STM32F4xx_HAL_Driver/Src/stm32f4xx_hal_tim.c ****     {
1195:Drivers/STM32F4xx_HAL_Driver/Src/stm32f4xx_hal_tim.c ****       /* Enable the TIM Capture/Compare 3 interrupt */
1196:Drivers/STM32F4xx_HAL_Driver/Src/stm32f4xx_hal_tim.c ****       __HAL_TIM_ENABLE_IT(htim, TIM_IT_CC3);
 2456              		.loc 1 1196 0
 2457 0070 7B68     		ldr	r3, [r7, #4]
 2458 0072 1B68     		ldr	r3, [r3]
 2459 0074 7A68     		ldr	r2, [r7, #4]
 2460 0076 1268     		ldr	r2, [r2]
 2461 0078 D268     		ldr	r2, [r2, #12]
 2462 007a 42F00802 		orr	r2, r2, #8
 2463 007e DA60     		str	r2, [r3, #12]
1197:Drivers/STM32F4xx_HAL_Driver/Src/stm32f4xx_hal_tim.c ****     }
1198:Drivers/STM32F4xx_HAL_Driver/Src/stm32f4xx_hal_tim.c ****     break;
 2464              		.loc 1 1198 0
 2465 0080 09E0     		b	.L134
 2466              	.L133:
1199:Drivers/STM32F4xx_HAL_Driver/Src/stm32f4xx_hal_tim.c ****     
1200:Drivers/STM32F4xx_HAL_Driver/Src/stm32f4xx_hal_tim.c ****     case TIM_CHANNEL_4:
1201:Drivers/STM32F4xx_HAL_Driver/Src/stm32f4xx_hal_tim.c ****     {
1202:Drivers/STM32F4xx_HAL_Driver/Src/stm32f4xx_hal_tim.c ****       /* Enable the TIM Capture/Compare 4 interrupt */
1203:Drivers/STM32F4xx_HAL_Driver/Src/stm32f4xx_hal_tim.c ****       __HAL_TIM_ENABLE_IT(htim, TIM_IT_CC4);
 2467              		.loc 1 1203 0
 2468 0082 7B68     		ldr	r3, [r7, #4]
 2469 0084 1B68     		ldr	r3, [r3]
 2470 0086 7A68     		ldr	r2, [r7, #4]
 2471 0088 1268     		ldr	r2, [r2]
 2472 008a D268     		ldr	r2, [r2, #12]
 2473 008c 42F01002 		orr	r2, r2, #16
 2474 0090 DA60     		str	r2, [r3, #12]
1204:Drivers/STM32F4xx_HAL_Driver/Src/stm32f4xx_hal_tim.c ****     }
1205:Drivers/STM32F4xx_HAL_Driver/Src/stm32f4xx_hal_tim.c ****     break;
 2475              		.loc 1 1205 0
 2476 0092 00E0     		b	.L134
 2477              	.L137:
1206:Drivers/STM32F4xx_HAL_Driver/Src/stm32f4xx_hal_tim.c ****     
1207:Drivers/STM32F4xx_HAL_Driver/Src/stm32f4xx_hal_tim.c ****     default:
1208:Drivers/STM32F4xx_HAL_Driver/Src/stm32f4xx_hal_tim.c ****     break;
 2478              		.loc 1 1208 0
 2479 0094 00BF     		nop
 2480              	.L134:
1209:Drivers/STM32F4xx_HAL_Driver/Src/stm32f4xx_hal_tim.c ****   } 
1210:Drivers/STM32F4xx_HAL_Driver/Src/stm32f4xx_hal_tim.c ****   
1211:Drivers/STM32F4xx_HAL_Driver/Src/stm32f4xx_hal_tim.c ****   /* Enable the Capture compare channel */
1212:Drivers/STM32F4xx_HAL_Driver/Src/stm32f4xx_hal_tim.c ****   TIM_CCxChannelCmd(htim->Instance, Channel, TIM_CCx_ENABLE);
 2481              		.loc 1 1212 0
 2482 0096 7B68     		ldr	r3, [r7, #4]
 2483 0098 1B68     		ldr	r3, [r3]
 2484 009a 0122     		movs	r2, #1
 2485 009c 3968     		ldr	r1, [r7]
 2486 009e 1846     		mov	r0, r3
 2487 00a0 FFF7FEFF 		bl	TIM_CCxChannelCmd
1213:Drivers/STM32F4xx_HAL_Driver/Src/stm32f4xx_hal_tim.c ****   
1214:Drivers/STM32F4xx_HAL_Driver/Src/stm32f4xx_hal_tim.c ****   if(IS_TIM_ADVANCED_INSTANCE(htim->Instance) != RESET)  
ARM GAS  /tmp/cc4tSQEQ.s 			page 65


 2488              		.loc 1 1214 0
 2489 00a4 7B68     		ldr	r3, [r7, #4]
 2490 00a6 1B68     		ldr	r3, [r3]
 2491 00a8 0B4A     		ldr	r2, .L138
 2492 00aa 9342     		cmp	r3, r2
 2493 00ac 07D1     		bne	.L135
1215:Drivers/STM32F4xx_HAL_Driver/Src/stm32f4xx_hal_tim.c ****   {
1216:Drivers/STM32F4xx_HAL_Driver/Src/stm32f4xx_hal_tim.c ****     /* Enable the main output */
1217:Drivers/STM32F4xx_HAL_Driver/Src/stm32f4xx_hal_tim.c ****     __HAL_TIM_MOE_ENABLE(htim);
 2494              		.loc 1 1217 0
 2495 00ae 7B68     		ldr	r3, [r7, #4]
 2496 00b0 1B68     		ldr	r3, [r3]
 2497 00b2 7A68     		ldr	r2, [r7, #4]
 2498 00b4 1268     		ldr	r2, [r2]
 2499 00b6 526C     		ldr	r2, [r2, #68]
 2500 00b8 42F40042 		orr	r2, r2, #32768
 2501 00bc 5A64     		str	r2, [r3, #68]
 2502              	.L135:
1218:Drivers/STM32F4xx_HAL_Driver/Src/stm32f4xx_hal_tim.c ****   }
1219:Drivers/STM32F4xx_HAL_Driver/Src/stm32f4xx_hal_tim.c **** 
1220:Drivers/STM32F4xx_HAL_Driver/Src/stm32f4xx_hal_tim.c ****   /* Enable the Peripheral */
1221:Drivers/STM32F4xx_HAL_Driver/Src/stm32f4xx_hal_tim.c ****   __HAL_TIM_ENABLE(htim);
 2503              		.loc 1 1221 0
 2504 00be 7B68     		ldr	r3, [r7, #4]
 2505 00c0 1B68     		ldr	r3, [r3]
 2506 00c2 7A68     		ldr	r2, [r7, #4]
 2507 00c4 1268     		ldr	r2, [r2]
 2508 00c6 1268     		ldr	r2, [r2]
 2509 00c8 42F00102 		orr	r2, r2, #1
 2510 00cc 1A60     		str	r2, [r3]
1222:Drivers/STM32F4xx_HAL_Driver/Src/stm32f4xx_hal_tim.c ****   
1223:Drivers/STM32F4xx_HAL_Driver/Src/stm32f4xx_hal_tim.c ****   /* Return function status */
1224:Drivers/STM32F4xx_HAL_Driver/Src/stm32f4xx_hal_tim.c ****   return HAL_OK;
 2511              		.loc 1 1224 0
 2512 00ce 0023     		movs	r3, #0
1225:Drivers/STM32F4xx_HAL_Driver/Src/stm32f4xx_hal_tim.c **** } 
 2513              		.loc 1 1225 0
 2514 00d0 1846     		mov	r0, r3
 2515 00d2 0837     		adds	r7, r7, #8
 2516              	.LCFI144:
 2517              		.cfi_def_cfa_offset 8
 2518 00d4 BD46     		mov	sp, r7
 2519              	.LCFI145:
 2520              		.cfi_def_cfa_register 13
 2521              		@ sp needed
 2522 00d6 80BD     		pop	{r7, pc}
 2523              	.L139:
 2524              		.align	2
 2525              	.L138:
 2526 00d8 00000140 		.word	1073807360
 2527              		.cfi_endproc
 2528              	.LFE150:
 2530              		.section	.text.HAL_TIM_PWM_Stop_IT,"ax",%progbits
 2531              		.align	1
 2532              		.global	HAL_TIM_PWM_Stop_IT
 2533              		.syntax unified
 2534              		.thumb
ARM GAS  /tmp/cc4tSQEQ.s 			page 66


 2535              		.thumb_func
 2536              		.fpu fpv4-sp-d16
 2538              	HAL_TIM_PWM_Stop_IT:
 2539              	.LFB151:
1226:Drivers/STM32F4xx_HAL_Driver/Src/stm32f4xx_hal_tim.c **** 
1227:Drivers/STM32F4xx_HAL_Driver/Src/stm32f4xx_hal_tim.c **** /**
1228:Drivers/STM32F4xx_HAL_Driver/Src/stm32f4xx_hal_tim.c ****   * @brief  Stops the PWM signal generation in interrupt mode.
1229:Drivers/STM32F4xx_HAL_Driver/Src/stm32f4xx_hal_tim.c ****   * @param  htim pointer to a TIM_HandleTypeDef structure that contains
1230:Drivers/STM32F4xx_HAL_Driver/Src/stm32f4xx_hal_tim.c ****   *                the configuration information for TIM module.
1231:Drivers/STM32F4xx_HAL_Driver/Src/stm32f4xx_hal_tim.c ****   * @param  Channel TIM Channels to be disabled.
1232:Drivers/STM32F4xx_HAL_Driver/Src/stm32f4xx_hal_tim.c ****   *          This parameter can be one of the following values:
1233:Drivers/STM32F4xx_HAL_Driver/Src/stm32f4xx_hal_tim.c ****   *            @arg TIM_CHANNEL_1: TIM Channel 1 selected
1234:Drivers/STM32F4xx_HAL_Driver/Src/stm32f4xx_hal_tim.c ****   *            @arg TIM_CHANNEL_2: TIM Channel 2 selected
1235:Drivers/STM32F4xx_HAL_Driver/Src/stm32f4xx_hal_tim.c ****   *            @arg TIM_CHANNEL_3: TIM Channel 3 selected
1236:Drivers/STM32F4xx_HAL_Driver/Src/stm32f4xx_hal_tim.c ****   *            @arg TIM_CHANNEL_4: TIM Channel 4 selected
1237:Drivers/STM32F4xx_HAL_Driver/Src/stm32f4xx_hal_tim.c ****   * @retval HAL status
1238:Drivers/STM32F4xx_HAL_Driver/Src/stm32f4xx_hal_tim.c ****   */
1239:Drivers/STM32F4xx_HAL_Driver/Src/stm32f4xx_hal_tim.c **** HAL_StatusTypeDef HAL_TIM_PWM_Stop_IT (TIM_HandleTypeDef *htim, uint32_t Channel)
1240:Drivers/STM32F4xx_HAL_Driver/Src/stm32f4xx_hal_tim.c **** {
 2540              		.loc 1 1240 0
 2541              		.cfi_startproc
 2542              		@ args = 0, pretend = 0, frame = 8
 2543              		@ frame_needed = 1, uses_anonymous_args = 0
 2544 0000 80B5     		push	{r7, lr}
 2545              	.LCFI146:
 2546              		.cfi_def_cfa_offset 8
 2547              		.cfi_offset 7, -8
 2548              		.cfi_offset 14, -4
 2549 0002 82B0     		sub	sp, sp, #8
 2550              	.LCFI147:
 2551              		.cfi_def_cfa_offset 16
 2552 0004 00AF     		add	r7, sp, #0
 2553              	.LCFI148:
 2554              		.cfi_def_cfa_register 7
 2555 0006 7860     		str	r0, [r7, #4]
 2556 0008 3960     		str	r1, [r7]
1241:Drivers/STM32F4xx_HAL_Driver/Src/stm32f4xx_hal_tim.c ****   /* Check the parameters */
1242:Drivers/STM32F4xx_HAL_Driver/Src/stm32f4xx_hal_tim.c ****   assert_param(IS_TIM_CCX_INSTANCE(htim->Instance, Channel));
1243:Drivers/STM32F4xx_HAL_Driver/Src/stm32f4xx_hal_tim.c ****   
1244:Drivers/STM32F4xx_HAL_Driver/Src/stm32f4xx_hal_tim.c ****   switch (Channel)
 2557              		.loc 1 1244 0
 2558 000a 3B68     		ldr	r3, [r7]
 2559 000c 0C2B     		cmp	r3, #12
 2560 000e 41D8     		bhi	.L151
 2561 0010 01A2     		adr	r2, .L143
 2562 0012 52F823F0 		ldr	pc, [r2, r3, lsl #2]
 2563 0016 00BF     		.p2align 2
 2564              	.L143:
 2565 0018 4D000000 		.word	.L142+1
 2566 001c 95000000 		.word	.L151+1
 2567 0020 95000000 		.word	.L151+1
 2568 0024 95000000 		.word	.L151+1
 2569 0028 5F000000 		.word	.L144+1
 2570 002c 95000000 		.word	.L151+1
 2571 0030 95000000 		.word	.L151+1
 2572 0034 95000000 		.word	.L151+1
 2573 0038 71000000 		.word	.L145+1
ARM GAS  /tmp/cc4tSQEQ.s 			page 67


 2574 003c 95000000 		.word	.L151+1
 2575 0040 95000000 		.word	.L151+1
 2576 0044 95000000 		.word	.L151+1
 2577 0048 83000000 		.word	.L146+1
 2578              		.p2align 1
 2579              	.L142:
1245:Drivers/STM32F4xx_HAL_Driver/Src/stm32f4xx_hal_tim.c ****   {
1246:Drivers/STM32F4xx_HAL_Driver/Src/stm32f4xx_hal_tim.c ****     case TIM_CHANNEL_1:
1247:Drivers/STM32F4xx_HAL_Driver/Src/stm32f4xx_hal_tim.c ****     {       
1248:Drivers/STM32F4xx_HAL_Driver/Src/stm32f4xx_hal_tim.c ****       /* Disable the TIM Capture/Compare 1 interrupt */
1249:Drivers/STM32F4xx_HAL_Driver/Src/stm32f4xx_hal_tim.c ****       __HAL_TIM_DISABLE_IT(htim, TIM_IT_CC1);
 2580              		.loc 1 1249 0
 2581 004c 7B68     		ldr	r3, [r7, #4]
 2582 004e 1B68     		ldr	r3, [r3]
 2583 0050 7A68     		ldr	r2, [r7, #4]
 2584 0052 1268     		ldr	r2, [r2]
 2585 0054 D268     		ldr	r2, [r2, #12]
 2586 0056 22F00202 		bic	r2, r2, #2
 2587 005a DA60     		str	r2, [r3, #12]
1250:Drivers/STM32F4xx_HAL_Driver/Src/stm32f4xx_hal_tim.c ****     }
1251:Drivers/STM32F4xx_HAL_Driver/Src/stm32f4xx_hal_tim.c ****     break;
 2588              		.loc 1 1251 0
 2589 005c 1BE0     		b	.L147
 2590              	.L144:
1252:Drivers/STM32F4xx_HAL_Driver/Src/stm32f4xx_hal_tim.c ****     
1253:Drivers/STM32F4xx_HAL_Driver/Src/stm32f4xx_hal_tim.c ****     case TIM_CHANNEL_2:
1254:Drivers/STM32F4xx_HAL_Driver/Src/stm32f4xx_hal_tim.c ****     {
1255:Drivers/STM32F4xx_HAL_Driver/Src/stm32f4xx_hal_tim.c ****       /* Disable the TIM Capture/Compare 2 interrupt */
1256:Drivers/STM32F4xx_HAL_Driver/Src/stm32f4xx_hal_tim.c ****       __HAL_TIM_DISABLE_IT(htim, TIM_IT_CC2);
 2591              		.loc 1 1256 0
 2592 005e 7B68     		ldr	r3, [r7, #4]
 2593 0060 1B68     		ldr	r3, [r3]
 2594 0062 7A68     		ldr	r2, [r7, #4]
 2595 0064 1268     		ldr	r2, [r2]
 2596 0066 D268     		ldr	r2, [r2, #12]
 2597 0068 22F00402 		bic	r2, r2, #4
 2598 006c DA60     		str	r2, [r3, #12]
1257:Drivers/STM32F4xx_HAL_Driver/Src/stm32f4xx_hal_tim.c ****     }
1258:Drivers/STM32F4xx_HAL_Driver/Src/stm32f4xx_hal_tim.c ****     break;
 2599              		.loc 1 1258 0
 2600 006e 12E0     		b	.L147
 2601              	.L145:
1259:Drivers/STM32F4xx_HAL_Driver/Src/stm32f4xx_hal_tim.c ****     
1260:Drivers/STM32F4xx_HAL_Driver/Src/stm32f4xx_hal_tim.c ****     case TIM_CHANNEL_3:
1261:Drivers/STM32F4xx_HAL_Driver/Src/stm32f4xx_hal_tim.c ****     {
1262:Drivers/STM32F4xx_HAL_Driver/Src/stm32f4xx_hal_tim.c ****       /* Disable the TIM Capture/Compare 3 interrupt */
1263:Drivers/STM32F4xx_HAL_Driver/Src/stm32f4xx_hal_tim.c ****       __HAL_TIM_DISABLE_IT(htim, TIM_IT_CC3);
 2602              		.loc 1 1263 0
 2603 0070 7B68     		ldr	r3, [r7, #4]
 2604 0072 1B68     		ldr	r3, [r3]
 2605 0074 7A68     		ldr	r2, [r7, #4]
 2606 0076 1268     		ldr	r2, [r2]
 2607 0078 D268     		ldr	r2, [r2, #12]
 2608 007a 22F00802 		bic	r2, r2, #8
 2609 007e DA60     		str	r2, [r3, #12]
1264:Drivers/STM32F4xx_HAL_Driver/Src/stm32f4xx_hal_tim.c ****     }
1265:Drivers/STM32F4xx_HAL_Driver/Src/stm32f4xx_hal_tim.c ****     break;
ARM GAS  /tmp/cc4tSQEQ.s 			page 68


 2610              		.loc 1 1265 0
 2611 0080 09E0     		b	.L147
 2612              	.L146:
1266:Drivers/STM32F4xx_HAL_Driver/Src/stm32f4xx_hal_tim.c ****     
1267:Drivers/STM32F4xx_HAL_Driver/Src/stm32f4xx_hal_tim.c ****     case TIM_CHANNEL_4:
1268:Drivers/STM32F4xx_HAL_Driver/Src/stm32f4xx_hal_tim.c ****     {
1269:Drivers/STM32F4xx_HAL_Driver/Src/stm32f4xx_hal_tim.c ****       /* Disable the TIM Capture/Compare 4 interrupt */
1270:Drivers/STM32F4xx_HAL_Driver/Src/stm32f4xx_hal_tim.c ****       __HAL_TIM_DISABLE_IT(htim, TIM_IT_CC4);
 2613              		.loc 1 1270 0
 2614 0082 7B68     		ldr	r3, [r7, #4]
 2615 0084 1B68     		ldr	r3, [r3]
 2616 0086 7A68     		ldr	r2, [r7, #4]
 2617 0088 1268     		ldr	r2, [r2]
 2618 008a D268     		ldr	r2, [r2, #12]
 2619 008c 22F01002 		bic	r2, r2, #16
 2620 0090 DA60     		str	r2, [r3, #12]
1271:Drivers/STM32F4xx_HAL_Driver/Src/stm32f4xx_hal_tim.c ****     }
1272:Drivers/STM32F4xx_HAL_Driver/Src/stm32f4xx_hal_tim.c ****     break;
 2621              		.loc 1 1272 0
 2622 0092 00E0     		b	.L147
 2623              	.L151:
1273:Drivers/STM32F4xx_HAL_Driver/Src/stm32f4xx_hal_tim.c ****     
1274:Drivers/STM32F4xx_HAL_Driver/Src/stm32f4xx_hal_tim.c ****     default:
1275:Drivers/STM32F4xx_HAL_Driver/Src/stm32f4xx_hal_tim.c ****     break; 
 2624              		.loc 1 1275 0
 2625 0094 00BF     		nop
 2626              	.L147:
1276:Drivers/STM32F4xx_HAL_Driver/Src/stm32f4xx_hal_tim.c ****   }
1277:Drivers/STM32F4xx_HAL_Driver/Src/stm32f4xx_hal_tim.c ****   
1278:Drivers/STM32F4xx_HAL_Driver/Src/stm32f4xx_hal_tim.c ****   /* Disable the Capture compare channel */
1279:Drivers/STM32F4xx_HAL_Driver/Src/stm32f4xx_hal_tim.c ****   TIM_CCxChannelCmd(htim->Instance, Channel, TIM_CCx_DISABLE);
 2627              		.loc 1 1279 0
 2628 0096 7B68     		ldr	r3, [r7, #4]
 2629 0098 1B68     		ldr	r3, [r3]
 2630 009a 0022     		movs	r2, #0
 2631 009c 3968     		ldr	r1, [r7]
 2632 009e 1846     		mov	r0, r3
 2633 00a0 FFF7FEFF 		bl	TIM_CCxChannelCmd
1280:Drivers/STM32F4xx_HAL_Driver/Src/stm32f4xx_hal_tim.c ****   
1281:Drivers/STM32F4xx_HAL_Driver/Src/stm32f4xx_hal_tim.c ****   if(IS_TIM_ADVANCED_INSTANCE(htim->Instance) != RESET)  
 2634              		.loc 1 1281 0
 2635 00a4 7B68     		ldr	r3, [r7, #4]
 2636 00a6 1B68     		ldr	r3, [r3]
 2637 00a8 1B4A     		ldr	r2, .L152
 2638 00aa 9342     		cmp	r3, r2
 2639 00ac 17D1     		bne	.L148
1282:Drivers/STM32F4xx_HAL_Driver/Src/stm32f4xx_hal_tim.c ****   {
1283:Drivers/STM32F4xx_HAL_Driver/Src/stm32f4xx_hal_tim.c ****     /* Disable the Main Output */
1284:Drivers/STM32F4xx_HAL_Driver/Src/stm32f4xx_hal_tim.c ****     __HAL_TIM_MOE_DISABLE(htim);
 2640              		.loc 1 1284 0
 2641 00ae 7B68     		ldr	r3, [r7, #4]
 2642 00b0 1B68     		ldr	r3, [r3]
 2643 00b2 1A6A     		ldr	r2, [r3, #32]
 2644 00b4 41F21113 		movw	r3, #4369
 2645 00b8 1340     		ands	r3, r3, r2
 2646 00ba 002B     		cmp	r3, #0
 2647 00bc 0FD1     		bne	.L148
ARM GAS  /tmp/cc4tSQEQ.s 			page 69


 2648              		.loc 1 1284 0 is_stmt 0 discriminator 1
 2649 00be 7B68     		ldr	r3, [r7, #4]
 2650 00c0 1B68     		ldr	r3, [r3]
 2651 00c2 1A6A     		ldr	r2, [r3, #32]
 2652 00c4 40F24443 		movw	r3, #1092
 2653 00c8 1340     		ands	r3, r3, r2
 2654 00ca 002B     		cmp	r3, #0
 2655 00cc 07D1     		bne	.L148
 2656              		.loc 1 1284 0 discriminator 2
 2657 00ce 7B68     		ldr	r3, [r7, #4]
 2658 00d0 1B68     		ldr	r3, [r3]
 2659 00d2 7A68     		ldr	r2, [r7, #4]
 2660 00d4 1268     		ldr	r2, [r2]
 2661 00d6 526C     		ldr	r2, [r2, #68]
 2662 00d8 22F40042 		bic	r2, r2, #32768
 2663 00dc 5A64     		str	r2, [r3, #68]
 2664              	.L148:
1285:Drivers/STM32F4xx_HAL_Driver/Src/stm32f4xx_hal_tim.c ****   }
1286:Drivers/STM32F4xx_HAL_Driver/Src/stm32f4xx_hal_tim.c ****   
1287:Drivers/STM32F4xx_HAL_Driver/Src/stm32f4xx_hal_tim.c ****   /* Disable the Peripheral */
1288:Drivers/STM32F4xx_HAL_Driver/Src/stm32f4xx_hal_tim.c ****   __HAL_TIM_DISABLE(htim);
 2665              		.loc 1 1288 0 is_stmt 1
 2666 00de 7B68     		ldr	r3, [r7, #4]
 2667 00e0 1B68     		ldr	r3, [r3]
 2668 00e2 1A6A     		ldr	r2, [r3, #32]
 2669 00e4 41F21113 		movw	r3, #4369
 2670 00e8 1340     		ands	r3, r3, r2
 2671 00ea 002B     		cmp	r3, #0
 2672 00ec 0FD1     		bne	.L149
 2673              		.loc 1 1288 0 is_stmt 0 discriminator 1
 2674 00ee 7B68     		ldr	r3, [r7, #4]
 2675 00f0 1B68     		ldr	r3, [r3]
 2676 00f2 1A6A     		ldr	r2, [r3, #32]
 2677 00f4 40F24443 		movw	r3, #1092
 2678 00f8 1340     		ands	r3, r3, r2
 2679 00fa 002B     		cmp	r3, #0
 2680 00fc 07D1     		bne	.L149
 2681              		.loc 1 1288 0 discriminator 2
 2682 00fe 7B68     		ldr	r3, [r7, #4]
 2683 0100 1B68     		ldr	r3, [r3]
 2684 0102 7A68     		ldr	r2, [r7, #4]
 2685 0104 1268     		ldr	r2, [r2]
 2686 0106 1268     		ldr	r2, [r2]
 2687 0108 22F00102 		bic	r2, r2, #1
 2688 010c 1A60     		str	r2, [r3]
 2689              	.L149:
1289:Drivers/STM32F4xx_HAL_Driver/Src/stm32f4xx_hal_tim.c ****   
1290:Drivers/STM32F4xx_HAL_Driver/Src/stm32f4xx_hal_tim.c ****   /* Return function status */
1291:Drivers/STM32F4xx_HAL_Driver/Src/stm32f4xx_hal_tim.c ****   return HAL_OK;
 2690              		.loc 1 1291 0 is_stmt 1
 2691 010e 0023     		movs	r3, #0
1292:Drivers/STM32F4xx_HAL_Driver/Src/stm32f4xx_hal_tim.c **** } 
 2692              		.loc 1 1292 0
 2693 0110 1846     		mov	r0, r3
 2694 0112 0837     		adds	r7, r7, #8
 2695              	.LCFI149:
 2696              		.cfi_def_cfa_offset 8
ARM GAS  /tmp/cc4tSQEQ.s 			page 70


 2697 0114 BD46     		mov	sp, r7
 2698              	.LCFI150:
 2699              		.cfi_def_cfa_register 13
 2700              		@ sp needed
 2701 0116 80BD     		pop	{r7, pc}
 2702              	.L153:
 2703              		.align	2
 2704              	.L152:
 2705 0118 00000140 		.word	1073807360
 2706              		.cfi_endproc
 2707              	.LFE151:
 2709              		.section	.text.HAL_TIM_PWM_Start_DMA,"ax",%progbits
 2710              		.align	1
 2711              		.global	HAL_TIM_PWM_Start_DMA
 2712              		.syntax unified
 2713              		.thumb
 2714              		.thumb_func
 2715              		.fpu fpv4-sp-d16
 2717              	HAL_TIM_PWM_Start_DMA:
 2718              	.LFB152:
1293:Drivers/STM32F4xx_HAL_Driver/Src/stm32f4xx_hal_tim.c **** 
1294:Drivers/STM32F4xx_HAL_Driver/Src/stm32f4xx_hal_tim.c **** /**
1295:Drivers/STM32F4xx_HAL_Driver/Src/stm32f4xx_hal_tim.c ****   * @brief  Starts the TIM PWM signal generation in DMA mode.
1296:Drivers/STM32F4xx_HAL_Driver/Src/stm32f4xx_hal_tim.c ****   * @param  htim pointer to a TIM_HandleTypeDef structure that contains
1297:Drivers/STM32F4xx_HAL_Driver/Src/stm32f4xx_hal_tim.c ****   *                the configuration information for TIM module.
1298:Drivers/STM32F4xx_HAL_Driver/Src/stm32f4xx_hal_tim.c ****   * @param  Channel TIM Channels to be enabled.
1299:Drivers/STM32F4xx_HAL_Driver/Src/stm32f4xx_hal_tim.c ****   *          This parameter can be one of the following values:
1300:Drivers/STM32F4xx_HAL_Driver/Src/stm32f4xx_hal_tim.c ****   *            @arg TIM_CHANNEL_1: TIM Channel 1 selected
1301:Drivers/STM32F4xx_HAL_Driver/Src/stm32f4xx_hal_tim.c ****   *            @arg TIM_CHANNEL_2: TIM Channel 2 selected
1302:Drivers/STM32F4xx_HAL_Driver/Src/stm32f4xx_hal_tim.c ****   *            @arg TIM_CHANNEL_3: TIM Channel 3 selected
1303:Drivers/STM32F4xx_HAL_Driver/Src/stm32f4xx_hal_tim.c ****   *            @arg TIM_CHANNEL_4: TIM Channel 4 selected
1304:Drivers/STM32F4xx_HAL_Driver/Src/stm32f4xx_hal_tim.c ****   * @param  pData The source Buffer address.
1305:Drivers/STM32F4xx_HAL_Driver/Src/stm32f4xx_hal_tim.c ****   * @param  Length The length of data to be transferred from memory to TIM peripheral
1306:Drivers/STM32F4xx_HAL_Driver/Src/stm32f4xx_hal_tim.c ****   * @retval HAL status
1307:Drivers/STM32F4xx_HAL_Driver/Src/stm32f4xx_hal_tim.c ****   */
1308:Drivers/STM32F4xx_HAL_Driver/Src/stm32f4xx_hal_tim.c **** HAL_StatusTypeDef HAL_TIM_PWM_Start_DMA(TIM_HandleTypeDef *htim, uint32_t Channel, uint32_t *pData,
1309:Drivers/STM32F4xx_HAL_Driver/Src/stm32f4xx_hal_tim.c **** {
 2719              		.loc 1 1309 0
 2720              		.cfi_startproc
 2721              		@ args = 0, pretend = 0, frame = 16
 2722              		@ frame_needed = 1, uses_anonymous_args = 0
 2723 0000 80B5     		push	{r7, lr}
 2724              	.LCFI151:
 2725              		.cfi_def_cfa_offset 8
 2726              		.cfi_offset 7, -8
 2727              		.cfi_offset 14, -4
 2728 0002 84B0     		sub	sp, sp, #16
 2729              	.LCFI152:
 2730              		.cfi_def_cfa_offset 24
 2731 0004 00AF     		add	r7, sp, #0
 2732              	.LCFI153:
 2733              		.cfi_def_cfa_register 7
 2734 0006 F860     		str	r0, [r7, #12]
 2735 0008 B960     		str	r1, [r7, #8]
 2736 000a 7A60     		str	r2, [r7, #4]
 2737 000c 7B80     		strh	r3, [r7, #2]	@ movhi
1310:Drivers/STM32F4xx_HAL_Driver/Src/stm32f4xx_hal_tim.c ****   /* Check the parameters */
ARM GAS  /tmp/cc4tSQEQ.s 			page 71


1311:Drivers/STM32F4xx_HAL_Driver/Src/stm32f4xx_hal_tim.c ****   assert_param(IS_TIM_CCX_INSTANCE(htim->Instance, Channel));
1312:Drivers/STM32F4xx_HAL_Driver/Src/stm32f4xx_hal_tim.c ****   
1313:Drivers/STM32F4xx_HAL_Driver/Src/stm32f4xx_hal_tim.c ****   if((htim->State == HAL_TIM_STATE_BUSY))
 2738              		.loc 1 1313 0
 2739 000e FB68     		ldr	r3, [r7, #12]
 2740 0010 93F83930 		ldrb	r3, [r3, #57]
 2741 0014 DBB2     		uxtb	r3, r3
 2742 0016 022B     		cmp	r3, #2
 2743 0018 01D1     		bne	.L155
1314:Drivers/STM32F4xx_HAL_Driver/Src/stm32f4xx_hal_tim.c ****   {
1315:Drivers/STM32F4xx_HAL_Driver/Src/stm32f4xx_hal_tim.c ****      return HAL_BUSY;
 2744              		.loc 1 1315 0
 2745 001a 0223     		movs	r3, #2
 2746 001c BCE0     		b	.L156
 2747              	.L155:
1316:Drivers/STM32F4xx_HAL_Driver/Src/stm32f4xx_hal_tim.c ****   }
1317:Drivers/STM32F4xx_HAL_Driver/Src/stm32f4xx_hal_tim.c ****   else if((htim->State == HAL_TIM_STATE_READY))
 2748              		.loc 1 1317 0
 2749 001e FB68     		ldr	r3, [r7, #12]
 2750 0020 93F83930 		ldrb	r3, [r3, #57]
 2751 0024 DBB2     		uxtb	r3, r3
 2752 0026 012B     		cmp	r3, #1
 2753 0028 0BD1     		bne	.L157
1318:Drivers/STM32F4xx_HAL_Driver/Src/stm32f4xx_hal_tim.c ****   {
1319:Drivers/STM32F4xx_HAL_Driver/Src/stm32f4xx_hal_tim.c ****     if(((uint32_t)pData == 0U) && (Length > 0)) 
 2754              		.loc 1 1319 0
 2755 002a 7B68     		ldr	r3, [r7, #4]
 2756 002c 002B     		cmp	r3, #0
 2757 002e 04D1     		bne	.L158
 2758              		.loc 1 1319 0 is_stmt 0 discriminator 1
 2759 0030 7B88     		ldrh	r3, [r7, #2]
 2760 0032 002B     		cmp	r3, #0
 2761 0034 01D0     		beq	.L158
1320:Drivers/STM32F4xx_HAL_Driver/Src/stm32f4xx_hal_tim.c ****     {
1321:Drivers/STM32F4xx_HAL_Driver/Src/stm32f4xx_hal_tim.c ****       return HAL_ERROR;                                    
 2762              		.loc 1 1321 0 is_stmt 1
 2763 0036 0123     		movs	r3, #1
 2764 0038 AEE0     		b	.L156
 2765              	.L158:
1322:Drivers/STM32F4xx_HAL_Driver/Src/stm32f4xx_hal_tim.c ****     }
1323:Drivers/STM32F4xx_HAL_Driver/Src/stm32f4xx_hal_tim.c ****     else
1324:Drivers/STM32F4xx_HAL_Driver/Src/stm32f4xx_hal_tim.c ****     {
1325:Drivers/STM32F4xx_HAL_Driver/Src/stm32f4xx_hal_tim.c ****       htim->State = HAL_TIM_STATE_BUSY;
 2766              		.loc 1 1325 0
 2767 003a FB68     		ldr	r3, [r7, #12]
 2768 003c 0222     		movs	r2, #2
 2769 003e 83F83920 		strb	r2, [r3, #57]
 2770              	.L157:
1326:Drivers/STM32F4xx_HAL_Driver/Src/stm32f4xx_hal_tim.c ****     }
1327:Drivers/STM32F4xx_HAL_Driver/Src/stm32f4xx_hal_tim.c ****   }    
1328:Drivers/STM32F4xx_HAL_Driver/Src/stm32f4xx_hal_tim.c ****   switch (Channel)
 2771              		.loc 1 1328 0
 2772 0042 BB68     		ldr	r3, [r7, #8]
 2773 0044 0C2B     		cmp	r3, #12
 2774 0046 00F28980 		bhi	.L167
 2775 004a 01A2     		adr	r2, .L161
 2776 004c 52F823F0 		ldr	pc, [r2, r3, lsl #2]
ARM GAS  /tmp/cc4tSQEQ.s 			page 72


 2777              		.p2align 2
 2778              	.L161:
 2779 0050 85000000 		.word	.L160+1
 2780 0054 5D010000 		.word	.L167+1
 2781 0058 5D010000 		.word	.L167+1
 2782 005c 5D010000 		.word	.L167+1
 2783 0060 BB000000 		.word	.L162+1
 2784 0064 5D010000 		.word	.L167+1
 2785 0068 5D010000 		.word	.L167+1
 2786 006c 5D010000 		.word	.L167+1
 2787 0070 F1000000 		.word	.L163+1
 2788 0074 5D010000 		.word	.L167+1
 2789 0078 5D010000 		.word	.L167+1
 2790 007c 5D010000 		.word	.L167+1
 2791 0080 27010000 		.word	.L164+1
 2792              		.p2align 1
 2793              	.L160:
1329:Drivers/STM32F4xx_HAL_Driver/Src/stm32f4xx_hal_tim.c ****   {
1330:Drivers/STM32F4xx_HAL_Driver/Src/stm32f4xx_hal_tim.c ****     case TIM_CHANNEL_1:
1331:Drivers/STM32F4xx_HAL_Driver/Src/stm32f4xx_hal_tim.c ****     {      
1332:Drivers/STM32F4xx_HAL_Driver/Src/stm32f4xx_hal_tim.c ****       /* Set the DMA Period elapsed callback */
1333:Drivers/STM32F4xx_HAL_Driver/Src/stm32f4xx_hal_tim.c ****       htim->hdma[TIM_DMA_ID_CC1]->XferCpltCallback = TIM_DMADelayPulseCplt;
 2794              		.loc 1 1333 0
 2795 0084 FB68     		ldr	r3, [r7, #12]
 2796 0086 1B6A     		ldr	r3, [r3, #32]
 2797 0088 454A     		ldr	r2, .L168
 2798 008a DA63     		str	r2, [r3, #60]
1334:Drivers/STM32F4xx_HAL_Driver/Src/stm32f4xx_hal_tim.c ****      
1335:Drivers/STM32F4xx_HAL_Driver/Src/stm32f4xx_hal_tim.c ****       /* Set the DMA error callback */
1336:Drivers/STM32F4xx_HAL_Driver/Src/stm32f4xx_hal_tim.c ****       htim->hdma[TIM_DMA_ID_CC1]->XferErrorCallback = TIM_DMAError ;
 2799              		.loc 1 1336 0
 2800 008c FB68     		ldr	r3, [r7, #12]
 2801 008e 1B6A     		ldr	r3, [r3, #32]
 2802 0090 444A     		ldr	r2, .L168+4
 2803 0092 DA64     		str	r2, [r3, #76]
1337:Drivers/STM32F4xx_HAL_Driver/Src/stm32f4xx_hal_tim.c ****       
1338:Drivers/STM32F4xx_HAL_Driver/Src/stm32f4xx_hal_tim.c ****       /* Enable the DMA Stream */
1339:Drivers/STM32F4xx_HAL_Driver/Src/stm32f4xx_hal_tim.c ****       HAL_DMA_Start_IT(htim->hdma[TIM_DMA_ID_CC1], (uint32_t)pData, (uint32_t)&htim->Instance->CCR1
 2804              		.loc 1 1339 0
 2805 0094 FB68     		ldr	r3, [r7, #12]
 2806 0096 186A     		ldr	r0, [r3, #32]
 2807 0098 7968     		ldr	r1, [r7, #4]
 2808 009a FB68     		ldr	r3, [r7, #12]
 2809 009c 1B68     		ldr	r3, [r3]
 2810 009e 3433     		adds	r3, r3, #52
 2811 00a0 1A46     		mov	r2, r3
 2812 00a2 7B88     		ldrh	r3, [r7, #2]
 2813 00a4 FFF7FEFF 		bl	HAL_DMA_Start_IT
1340:Drivers/STM32F4xx_HAL_Driver/Src/stm32f4xx_hal_tim.c ****       
1341:Drivers/STM32F4xx_HAL_Driver/Src/stm32f4xx_hal_tim.c ****       /* Enable the TIM Capture/Compare 1 DMA request */
1342:Drivers/STM32F4xx_HAL_Driver/Src/stm32f4xx_hal_tim.c ****       __HAL_TIM_ENABLE_DMA(htim, TIM_DMA_CC1);
 2814              		.loc 1 1342 0
 2815 00a8 FB68     		ldr	r3, [r7, #12]
 2816 00aa 1B68     		ldr	r3, [r3]
 2817 00ac FA68     		ldr	r2, [r7, #12]
 2818 00ae 1268     		ldr	r2, [r2]
 2819 00b0 D268     		ldr	r2, [r2, #12]
ARM GAS  /tmp/cc4tSQEQ.s 			page 73


 2820 00b2 42F40072 		orr	r2, r2, #512
 2821 00b6 DA60     		str	r2, [r3, #12]
1343:Drivers/STM32F4xx_HAL_Driver/Src/stm32f4xx_hal_tim.c ****     }
1344:Drivers/STM32F4xx_HAL_Driver/Src/stm32f4xx_hal_tim.c ****     break;
 2822              		.loc 1 1344 0
 2823 00b8 51E0     		b	.L165
 2824              	.L162:
1345:Drivers/STM32F4xx_HAL_Driver/Src/stm32f4xx_hal_tim.c ****     
1346:Drivers/STM32F4xx_HAL_Driver/Src/stm32f4xx_hal_tim.c ****     case TIM_CHANNEL_2:
1347:Drivers/STM32F4xx_HAL_Driver/Src/stm32f4xx_hal_tim.c ****     {
1348:Drivers/STM32F4xx_HAL_Driver/Src/stm32f4xx_hal_tim.c ****       /* Set the DMA Period elapsed callback */
1349:Drivers/STM32F4xx_HAL_Driver/Src/stm32f4xx_hal_tim.c ****       htim->hdma[TIM_DMA_ID_CC2]->XferCpltCallback = TIM_DMADelayPulseCplt;
 2825              		.loc 1 1349 0
 2826 00ba FB68     		ldr	r3, [r7, #12]
 2827 00bc 5B6A     		ldr	r3, [r3, #36]
 2828 00be 384A     		ldr	r2, .L168
 2829 00c0 DA63     		str	r2, [r3, #60]
1350:Drivers/STM32F4xx_HAL_Driver/Src/stm32f4xx_hal_tim.c ****      
1351:Drivers/STM32F4xx_HAL_Driver/Src/stm32f4xx_hal_tim.c ****       /* Set the DMA error callback */
1352:Drivers/STM32F4xx_HAL_Driver/Src/stm32f4xx_hal_tim.c ****       htim->hdma[TIM_DMA_ID_CC2]->XferErrorCallback = TIM_DMAError ;
 2830              		.loc 1 1352 0
 2831 00c2 FB68     		ldr	r3, [r7, #12]
 2832 00c4 5B6A     		ldr	r3, [r3, #36]
 2833 00c6 374A     		ldr	r2, .L168+4
 2834 00c8 DA64     		str	r2, [r3, #76]
1353:Drivers/STM32F4xx_HAL_Driver/Src/stm32f4xx_hal_tim.c ****       
1354:Drivers/STM32F4xx_HAL_Driver/Src/stm32f4xx_hal_tim.c ****       /* Enable the DMA Stream */
1355:Drivers/STM32F4xx_HAL_Driver/Src/stm32f4xx_hal_tim.c ****       HAL_DMA_Start_IT(htim->hdma[TIM_DMA_ID_CC2], (uint32_t)pData, (uint32_t)&htim->Instance->CCR2
 2835              		.loc 1 1355 0
 2836 00ca FB68     		ldr	r3, [r7, #12]
 2837 00cc 586A     		ldr	r0, [r3, #36]
 2838 00ce 7968     		ldr	r1, [r7, #4]
 2839 00d0 FB68     		ldr	r3, [r7, #12]
 2840 00d2 1B68     		ldr	r3, [r3]
 2841 00d4 3833     		adds	r3, r3, #56
 2842 00d6 1A46     		mov	r2, r3
 2843 00d8 7B88     		ldrh	r3, [r7, #2]
 2844 00da FFF7FEFF 		bl	HAL_DMA_Start_IT
1356:Drivers/STM32F4xx_HAL_Driver/Src/stm32f4xx_hal_tim.c ****       
1357:Drivers/STM32F4xx_HAL_Driver/Src/stm32f4xx_hal_tim.c ****       /* Enable the TIM Capture/Compare 2 DMA request */
1358:Drivers/STM32F4xx_HAL_Driver/Src/stm32f4xx_hal_tim.c ****       __HAL_TIM_ENABLE_DMA(htim, TIM_DMA_CC2);
 2845              		.loc 1 1358 0
 2846 00de FB68     		ldr	r3, [r7, #12]
 2847 00e0 1B68     		ldr	r3, [r3]
 2848 00e2 FA68     		ldr	r2, [r7, #12]
 2849 00e4 1268     		ldr	r2, [r2]
 2850 00e6 D268     		ldr	r2, [r2, #12]
 2851 00e8 42F48062 		orr	r2, r2, #1024
 2852 00ec DA60     		str	r2, [r3, #12]
1359:Drivers/STM32F4xx_HAL_Driver/Src/stm32f4xx_hal_tim.c ****     }
1360:Drivers/STM32F4xx_HAL_Driver/Src/stm32f4xx_hal_tim.c ****     break;
 2853              		.loc 1 1360 0
 2854 00ee 36E0     		b	.L165
 2855              	.L163:
1361:Drivers/STM32F4xx_HAL_Driver/Src/stm32f4xx_hal_tim.c ****     
1362:Drivers/STM32F4xx_HAL_Driver/Src/stm32f4xx_hal_tim.c ****     case TIM_CHANNEL_3:
1363:Drivers/STM32F4xx_HAL_Driver/Src/stm32f4xx_hal_tim.c ****     {
ARM GAS  /tmp/cc4tSQEQ.s 			page 74


1364:Drivers/STM32F4xx_HAL_Driver/Src/stm32f4xx_hal_tim.c ****       /* Set the DMA Period elapsed callback */
1365:Drivers/STM32F4xx_HAL_Driver/Src/stm32f4xx_hal_tim.c ****       htim->hdma[TIM_DMA_ID_CC3]->XferCpltCallback = TIM_DMADelayPulseCplt;
 2856              		.loc 1 1365 0
 2857 00f0 FB68     		ldr	r3, [r7, #12]
 2858 00f2 9B6A     		ldr	r3, [r3, #40]
 2859 00f4 2A4A     		ldr	r2, .L168
 2860 00f6 DA63     		str	r2, [r3, #60]
1366:Drivers/STM32F4xx_HAL_Driver/Src/stm32f4xx_hal_tim.c ****      
1367:Drivers/STM32F4xx_HAL_Driver/Src/stm32f4xx_hal_tim.c ****       /* Set the DMA error callback */
1368:Drivers/STM32F4xx_HAL_Driver/Src/stm32f4xx_hal_tim.c ****       htim->hdma[TIM_DMA_ID_CC3]->XferErrorCallback = TIM_DMAError ;
 2861              		.loc 1 1368 0
 2862 00f8 FB68     		ldr	r3, [r7, #12]
 2863 00fa 9B6A     		ldr	r3, [r3, #40]
 2864 00fc 294A     		ldr	r2, .L168+4
 2865 00fe DA64     		str	r2, [r3, #76]
1369:Drivers/STM32F4xx_HAL_Driver/Src/stm32f4xx_hal_tim.c ****       
1370:Drivers/STM32F4xx_HAL_Driver/Src/stm32f4xx_hal_tim.c ****       /* Enable the DMA Stream */
1371:Drivers/STM32F4xx_HAL_Driver/Src/stm32f4xx_hal_tim.c ****       HAL_DMA_Start_IT(htim->hdma[TIM_DMA_ID_CC3], (uint32_t)pData, (uint32_t)&htim->Instance->CCR3
 2866              		.loc 1 1371 0
 2867 0100 FB68     		ldr	r3, [r7, #12]
 2868 0102 986A     		ldr	r0, [r3, #40]
 2869 0104 7968     		ldr	r1, [r7, #4]
 2870 0106 FB68     		ldr	r3, [r7, #12]
 2871 0108 1B68     		ldr	r3, [r3]
 2872 010a 3C33     		adds	r3, r3, #60
 2873 010c 1A46     		mov	r2, r3
 2874 010e 7B88     		ldrh	r3, [r7, #2]
 2875 0110 FFF7FEFF 		bl	HAL_DMA_Start_IT
1372:Drivers/STM32F4xx_HAL_Driver/Src/stm32f4xx_hal_tim.c ****       
1373:Drivers/STM32F4xx_HAL_Driver/Src/stm32f4xx_hal_tim.c ****       /* Enable the TIM Output Capture/Compare 3 request */
1374:Drivers/STM32F4xx_HAL_Driver/Src/stm32f4xx_hal_tim.c ****       __HAL_TIM_ENABLE_DMA(htim, TIM_DMA_CC3);
 2876              		.loc 1 1374 0
 2877 0114 FB68     		ldr	r3, [r7, #12]
 2878 0116 1B68     		ldr	r3, [r3]
 2879 0118 FA68     		ldr	r2, [r7, #12]
 2880 011a 1268     		ldr	r2, [r2]
 2881 011c D268     		ldr	r2, [r2, #12]
 2882 011e 42F40062 		orr	r2, r2, #2048
 2883 0122 DA60     		str	r2, [r3, #12]
1375:Drivers/STM32F4xx_HAL_Driver/Src/stm32f4xx_hal_tim.c ****     }
1376:Drivers/STM32F4xx_HAL_Driver/Src/stm32f4xx_hal_tim.c ****     break;
 2884              		.loc 1 1376 0
 2885 0124 1BE0     		b	.L165
 2886              	.L164:
1377:Drivers/STM32F4xx_HAL_Driver/Src/stm32f4xx_hal_tim.c ****     
1378:Drivers/STM32F4xx_HAL_Driver/Src/stm32f4xx_hal_tim.c ****     case TIM_CHANNEL_4:
1379:Drivers/STM32F4xx_HAL_Driver/Src/stm32f4xx_hal_tim.c ****     {
1380:Drivers/STM32F4xx_HAL_Driver/Src/stm32f4xx_hal_tim.c ****      /* Set the DMA Period elapsed callback */
1381:Drivers/STM32F4xx_HAL_Driver/Src/stm32f4xx_hal_tim.c ****       htim->hdma[TIM_DMA_ID_CC4]->XferCpltCallback = TIM_DMADelayPulseCplt;
 2887              		.loc 1 1381 0
 2888 0126 FB68     		ldr	r3, [r7, #12]
 2889 0128 DB6A     		ldr	r3, [r3, #44]
 2890 012a 1D4A     		ldr	r2, .L168
 2891 012c DA63     		str	r2, [r3, #60]
1382:Drivers/STM32F4xx_HAL_Driver/Src/stm32f4xx_hal_tim.c ****      
1383:Drivers/STM32F4xx_HAL_Driver/Src/stm32f4xx_hal_tim.c ****       /* Set the DMA error callback */
1384:Drivers/STM32F4xx_HAL_Driver/Src/stm32f4xx_hal_tim.c ****       htim->hdma[TIM_DMA_ID_CC4]->XferErrorCallback = TIM_DMAError ;
ARM GAS  /tmp/cc4tSQEQ.s 			page 75


 2892              		.loc 1 1384 0
 2893 012e FB68     		ldr	r3, [r7, #12]
 2894 0130 DB6A     		ldr	r3, [r3, #44]
 2895 0132 1C4A     		ldr	r2, .L168+4
 2896 0134 DA64     		str	r2, [r3, #76]
1385:Drivers/STM32F4xx_HAL_Driver/Src/stm32f4xx_hal_tim.c ****       
1386:Drivers/STM32F4xx_HAL_Driver/Src/stm32f4xx_hal_tim.c ****       /* Enable the DMA Stream */
1387:Drivers/STM32F4xx_HAL_Driver/Src/stm32f4xx_hal_tim.c ****       HAL_DMA_Start_IT(htim->hdma[TIM_DMA_ID_CC4], (uint32_t)pData, (uint32_t)&htim->Instance->CCR4
 2897              		.loc 1 1387 0
 2898 0136 FB68     		ldr	r3, [r7, #12]
 2899 0138 D86A     		ldr	r0, [r3, #44]
 2900 013a 7968     		ldr	r1, [r7, #4]
 2901 013c FB68     		ldr	r3, [r7, #12]
 2902 013e 1B68     		ldr	r3, [r3]
 2903 0140 4033     		adds	r3, r3, #64
 2904 0142 1A46     		mov	r2, r3
 2905 0144 7B88     		ldrh	r3, [r7, #2]
 2906 0146 FFF7FEFF 		bl	HAL_DMA_Start_IT
1388:Drivers/STM32F4xx_HAL_Driver/Src/stm32f4xx_hal_tim.c ****       
1389:Drivers/STM32F4xx_HAL_Driver/Src/stm32f4xx_hal_tim.c ****       /* Enable the TIM Capture/Compare 4 DMA request */
1390:Drivers/STM32F4xx_HAL_Driver/Src/stm32f4xx_hal_tim.c ****       __HAL_TIM_ENABLE_DMA(htim, TIM_DMA_CC4);
 2907              		.loc 1 1390 0
 2908 014a FB68     		ldr	r3, [r7, #12]
 2909 014c 1B68     		ldr	r3, [r3]
 2910 014e FA68     		ldr	r2, [r7, #12]
 2911 0150 1268     		ldr	r2, [r2]
 2912 0152 D268     		ldr	r2, [r2, #12]
 2913 0154 42F48052 		orr	r2, r2, #4096
 2914 0158 DA60     		str	r2, [r3, #12]
1391:Drivers/STM32F4xx_HAL_Driver/Src/stm32f4xx_hal_tim.c ****     }
1392:Drivers/STM32F4xx_HAL_Driver/Src/stm32f4xx_hal_tim.c ****     break;
 2915              		.loc 1 1392 0
 2916 015a 00E0     		b	.L165
 2917              	.L167:
1393:Drivers/STM32F4xx_HAL_Driver/Src/stm32f4xx_hal_tim.c ****     
1394:Drivers/STM32F4xx_HAL_Driver/Src/stm32f4xx_hal_tim.c ****     default:
1395:Drivers/STM32F4xx_HAL_Driver/Src/stm32f4xx_hal_tim.c ****     break;
 2918              		.loc 1 1395 0
 2919 015c 00BF     		nop
 2920              	.L165:
1396:Drivers/STM32F4xx_HAL_Driver/Src/stm32f4xx_hal_tim.c ****   }
1397:Drivers/STM32F4xx_HAL_Driver/Src/stm32f4xx_hal_tim.c **** 
1398:Drivers/STM32F4xx_HAL_Driver/Src/stm32f4xx_hal_tim.c ****   /* Enable the Capture compare channel */
1399:Drivers/STM32F4xx_HAL_Driver/Src/stm32f4xx_hal_tim.c ****   TIM_CCxChannelCmd(htim->Instance, Channel, TIM_CCx_ENABLE);
 2921              		.loc 1 1399 0
 2922 015e FB68     		ldr	r3, [r7, #12]
 2923 0160 1B68     		ldr	r3, [r3]
 2924 0162 0122     		movs	r2, #1
 2925 0164 B968     		ldr	r1, [r7, #8]
 2926 0166 1846     		mov	r0, r3
 2927 0168 FFF7FEFF 		bl	TIM_CCxChannelCmd
1400:Drivers/STM32F4xx_HAL_Driver/Src/stm32f4xx_hal_tim.c ****     
1401:Drivers/STM32F4xx_HAL_Driver/Src/stm32f4xx_hal_tim.c ****   if(IS_TIM_ADVANCED_INSTANCE(htim->Instance) != RESET)  
 2928              		.loc 1 1401 0
 2929 016c FB68     		ldr	r3, [r7, #12]
 2930 016e 1B68     		ldr	r3, [r3]
 2931 0170 0D4A     		ldr	r2, .L168+8
ARM GAS  /tmp/cc4tSQEQ.s 			page 76


 2932 0172 9342     		cmp	r3, r2
 2933 0174 07D1     		bne	.L166
1402:Drivers/STM32F4xx_HAL_Driver/Src/stm32f4xx_hal_tim.c ****   {
1403:Drivers/STM32F4xx_HAL_Driver/Src/stm32f4xx_hal_tim.c ****     /* Enable the main output */
1404:Drivers/STM32F4xx_HAL_Driver/Src/stm32f4xx_hal_tim.c ****     __HAL_TIM_MOE_ENABLE(htim);
 2934              		.loc 1 1404 0
 2935 0176 FB68     		ldr	r3, [r7, #12]
 2936 0178 1B68     		ldr	r3, [r3]
 2937 017a FA68     		ldr	r2, [r7, #12]
 2938 017c 1268     		ldr	r2, [r2]
 2939 017e 526C     		ldr	r2, [r2, #68]
 2940 0180 42F40042 		orr	r2, r2, #32768
 2941 0184 5A64     		str	r2, [r3, #68]
 2942              	.L166:
1405:Drivers/STM32F4xx_HAL_Driver/Src/stm32f4xx_hal_tim.c ****   }
1406:Drivers/STM32F4xx_HAL_Driver/Src/stm32f4xx_hal_tim.c ****   
1407:Drivers/STM32F4xx_HAL_Driver/Src/stm32f4xx_hal_tim.c ****   /* Enable the Peripheral */
1408:Drivers/STM32F4xx_HAL_Driver/Src/stm32f4xx_hal_tim.c ****   __HAL_TIM_ENABLE(htim); 
 2943              		.loc 1 1408 0
 2944 0186 FB68     		ldr	r3, [r7, #12]
 2945 0188 1B68     		ldr	r3, [r3]
 2946 018a FA68     		ldr	r2, [r7, #12]
 2947 018c 1268     		ldr	r2, [r2]
 2948 018e 1268     		ldr	r2, [r2]
 2949 0190 42F00102 		orr	r2, r2, #1
 2950 0194 1A60     		str	r2, [r3]
1409:Drivers/STM32F4xx_HAL_Driver/Src/stm32f4xx_hal_tim.c ****   
1410:Drivers/STM32F4xx_HAL_Driver/Src/stm32f4xx_hal_tim.c ****   /* Return function status */
1411:Drivers/STM32F4xx_HAL_Driver/Src/stm32f4xx_hal_tim.c ****   return HAL_OK;
 2951              		.loc 1 1411 0
 2952 0196 0023     		movs	r3, #0
 2953              	.L156:
1412:Drivers/STM32F4xx_HAL_Driver/Src/stm32f4xx_hal_tim.c **** }
 2954              		.loc 1 1412 0
 2955 0198 1846     		mov	r0, r3
 2956 019a 1037     		adds	r7, r7, #16
 2957              	.LCFI154:
 2958              		.cfi_def_cfa_offset 8
 2959 019c BD46     		mov	sp, r7
 2960              	.LCFI155:
 2961              		.cfi_def_cfa_register 13
 2962              		@ sp needed
 2963 019e 80BD     		pop	{r7, pc}
 2964              	.L169:
 2965              		.align	2
 2966              	.L168:
 2967 01a0 00000000 		.word	TIM_DMADelayPulseCplt
 2968 01a4 00000000 		.word	TIM_DMAError
 2969 01a8 00000140 		.word	1073807360
 2970              		.cfi_endproc
 2971              	.LFE152:
 2973              		.section	.text.HAL_TIM_PWM_Stop_DMA,"ax",%progbits
 2974              		.align	1
 2975              		.global	HAL_TIM_PWM_Stop_DMA
 2976              		.syntax unified
 2977              		.thumb
 2978              		.thumb_func
ARM GAS  /tmp/cc4tSQEQ.s 			page 77


 2979              		.fpu fpv4-sp-d16
 2981              	HAL_TIM_PWM_Stop_DMA:
 2982              	.LFB153:
1413:Drivers/STM32F4xx_HAL_Driver/Src/stm32f4xx_hal_tim.c **** 
1414:Drivers/STM32F4xx_HAL_Driver/Src/stm32f4xx_hal_tim.c **** /**
1415:Drivers/STM32F4xx_HAL_Driver/Src/stm32f4xx_hal_tim.c ****   * @brief  Stops the TIM PWM signal generation in DMA mode.
1416:Drivers/STM32F4xx_HAL_Driver/Src/stm32f4xx_hal_tim.c ****   * @param  htim pointer to a TIM_HandleTypeDef structure that contains
1417:Drivers/STM32F4xx_HAL_Driver/Src/stm32f4xx_hal_tim.c ****   *                the configuration information for TIM module.
1418:Drivers/STM32F4xx_HAL_Driver/Src/stm32f4xx_hal_tim.c ****   * @param  Channel TIM Channels to be disabled.
1419:Drivers/STM32F4xx_HAL_Driver/Src/stm32f4xx_hal_tim.c ****   *          This parameter can be one of the following values:
1420:Drivers/STM32F4xx_HAL_Driver/Src/stm32f4xx_hal_tim.c ****   *            @arg TIM_CHANNEL_1: TIM Channel 1 selected
1421:Drivers/STM32F4xx_HAL_Driver/Src/stm32f4xx_hal_tim.c ****   *            @arg TIM_CHANNEL_2: TIM Channel 2 selected
1422:Drivers/STM32F4xx_HAL_Driver/Src/stm32f4xx_hal_tim.c ****   *            @arg TIM_CHANNEL_3: TIM Channel 3 selected
1423:Drivers/STM32F4xx_HAL_Driver/Src/stm32f4xx_hal_tim.c ****   *            @arg TIM_CHANNEL_4: TIM Channel 4 selected
1424:Drivers/STM32F4xx_HAL_Driver/Src/stm32f4xx_hal_tim.c ****   * @retval HAL status
1425:Drivers/STM32F4xx_HAL_Driver/Src/stm32f4xx_hal_tim.c ****   */
1426:Drivers/STM32F4xx_HAL_Driver/Src/stm32f4xx_hal_tim.c **** HAL_StatusTypeDef HAL_TIM_PWM_Stop_DMA(TIM_HandleTypeDef *htim, uint32_t Channel)
1427:Drivers/STM32F4xx_HAL_Driver/Src/stm32f4xx_hal_tim.c **** {
 2983              		.loc 1 1427 0
 2984              		.cfi_startproc
 2985              		@ args = 0, pretend = 0, frame = 8
 2986              		@ frame_needed = 1, uses_anonymous_args = 0
 2987 0000 80B5     		push	{r7, lr}
 2988              	.LCFI156:
 2989              		.cfi_def_cfa_offset 8
 2990              		.cfi_offset 7, -8
 2991              		.cfi_offset 14, -4
 2992 0002 82B0     		sub	sp, sp, #8
 2993              	.LCFI157:
 2994              		.cfi_def_cfa_offset 16
 2995 0004 00AF     		add	r7, sp, #0
 2996              	.LCFI158:
 2997              		.cfi_def_cfa_register 7
 2998 0006 7860     		str	r0, [r7, #4]
 2999 0008 3960     		str	r1, [r7]
1428:Drivers/STM32F4xx_HAL_Driver/Src/stm32f4xx_hal_tim.c ****   /* Check the parameters */
1429:Drivers/STM32F4xx_HAL_Driver/Src/stm32f4xx_hal_tim.c ****   assert_param(IS_TIM_CCX_INSTANCE(htim->Instance, Channel));
1430:Drivers/STM32F4xx_HAL_Driver/Src/stm32f4xx_hal_tim.c ****   
1431:Drivers/STM32F4xx_HAL_Driver/Src/stm32f4xx_hal_tim.c ****   switch (Channel)
 3000              		.loc 1 1431 0
 3001 000a 3B68     		ldr	r3, [r7]
 3002 000c 0C2B     		cmp	r3, #12
 3003 000e 41D8     		bhi	.L181
 3004 0010 01A2     		adr	r2, .L173
 3005 0012 52F823F0 		ldr	pc, [r2, r3, lsl #2]
 3006 0016 00BF     		.p2align 2
 3007              	.L173:
 3008 0018 4D000000 		.word	.L172+1
 3009 001c 95000000 		.word	.L181+1
 3010 0020 95000000 		.word	.L181+1
 3011 0024 95000000 		.word	.L181+1
 3012 0028 5F000000 		.word	.L174+1
 3013 002c 95000000 		.word	.L181+1
 3014 0030 95000000 		.word	.L181+1
 3015 0034 95000000 		.word	.L181+1
 3016 0038 71000000 		.word	.L175+1
 3017 003c 95000000 		.word	.L181+1
ARM GAS  /tmp/cc4tSQEQ.s 			page 78


 3018 0040 95000000 		.word	.L181+1
 3019 0044 95000000 		.word	.L181+1
 3020 0048 83000000 		.word	.L176+1
 3021              		.p2align 1
 3022              	.L172:
1432:Drivers/STM32F4xx_HAL_Driver/Src/stm32f4xx_hal_tim.c ****   {
1433:Drivers/STM32F4xx_HAL_Driver/Src/stm32f4xx_hal_tim.c ****     case TIM_CHANNEL_1:
1434:Drivers/STM32F4xx_HAL_Driver/Src/stm32f4xx_hal_tim.c ****     {       
1435:Drivers/STM32F4xx_HAL_Driver/Src/stm32f4xx_hal_tim.c ****       /* Disable the TIM Capture/Compare 1 DMA request */
1436:Drivers/STM32F4xx_HAL_Driver/Src/stm32f4xx_hal_tim.c ****       __HAL_TIM_DISABLE_DMA(htim, TIM_DMA_CC1);
 3023              		.loc 1 1436 0
 3024 004c 7B68     		ldr	r3, [r7, #4]
 3025 004e 1B68     		ldr	r3, [r3]
 3026 0050 7A68     		ldr	r2, [r7, #4]
 3027 0052 1268     		ldr	r2, [r2]
 3028 0054 D268     		ldr	r2, [r2, #12]
 3029 0056 22F40072 		bic	r2, r2, #512
 3030 005a DA60     		str	r2, [r3, #12]
1437:Drivers/STM32F4xx_HAL_Driver/Src/stm32f4xx_hal_tim.c ****     }
1438:Drivers/STM32F4xx_HAL_Driver/Src/stm32f4xx_hal_tim.c ****     break;
 3031              		.loc 1 1438 0
 3032 005c 1BE0     		b	.L177
 3033              	.L174:
1439:Drivers/STM32F4xx_HAL_Driver/Src/stm32f4xx_hal_tim.c ****     
1440:Drivers/STM32F4xx_HAL_Driver/Src/stm32f4xx_hal_tim.c ****     case TIM_CHANNEL_2:
1441:Drivers/STM32F4xx_HAL_Driver/Src/stm32f4xx_hal_tim.c ****     {
1442:Drivers/STM32F4xx_HAL_Driver/Src/stm32f4xx_hal_tim.c ****       /* Disable the TIM Capture/Compare 2 DMA request */
1443:Drivers/STM32F4xx_HAL_Driver/Src/stm32f4xx_hal_tim.c ****       __HAL_TIM_DISABLE_DMA(htim, TIM_DMA_CC2);
 3034              		.loc 1 1443 0
 3035 005e 7B68     		ldr	r3, [r7, #4]
