ARM GAS  /tmp/ccDSLKwL.s 			page 1


   1              		.cpu cortex-m4
   2              		.eabi_attribute 27, 1
   3              		.eabi_attribute 28, 1
   4              		.eabi_attribute 20, 1
   5              		.eabi_attribute 21, 1
   6              		.eabi_attribute 23, 3
   7              		.eabi_attribute 24, 1
   8              		.eabi_attribute 25, 1
   9              		.eabi_attribute 26, 1
  10              		.eabi_attribute 30, 6
  11              		.eabi_attribute 34, 1
  12              		.eabi_attribute 18, 4
  13              		.file	"tasks.c"
  14              		.text
  15              	.Ltext0:
  16              		.cfi_sections	.debug_frame
  17              		.global	pxCurrentTCB
  18              		.section	.bss.pxCurrentTCB,"aw",%nobits
  19              		.align	2
  22              	pxCurrentTCB:
  23 0000 00000000 		.space	4
  24              		.section	.bss.pxReadyTasksLists,"aw",%nobits
  25              		.align	2
  28              	pxReadyTasksLists:
  29 0000 00000000 		.space	140
  29      00000000 
  29      00000000 
  29      00000000 
  29      00000000 
  30              		.section	.bss.xDelayedTaskList1,"aw",%nobits
  31              		.align	2
  34              	xDelayedTaskList1:
  35 0000 00000000 		.space	20
  35      00000000 
  35      00000000 
  35      00000000 
  35      00000000 
  36              		.section	.bss.xDelayedTaskList2,"aw",%nobits
  37              		.align	2
  40              	xDelayedTaskList2:
  41 0000 00000000 		.space	20
  41      00000000 
  41      00000000 
  41      00000000 
  41      00000000 
  42              		.section	.bss.pxDelayedTaskList,"aw",%nobits
  43              		.align	2
  46              	pxDelayedTaskList:
  47 0000 00000000 		.space	4
  48              		.section	.bss.pxOverflowDelayedTaskList,"aw",%nobits
  49              		.align	2
  52              	pxOverflowDelayedTaskList:
  53 0000 00000000 		.space	4
  54              		.section	.bss.xPendingReadyList,"aw",%nobits
  55              		.align	2
  58              	xPendingReadyList:
  59 0000 00000000 		.space	20
ARM GAS  /tmp/ccDSLKwL.s 			page 2


  59      00000000 
  59      00000000 
  59      00000000 
  59      00000000 
  60              		.section	.bss.xTasksWaitingTermination,"aw",%nobits
  61              		.align	2
  64              	xTasksWaitingTermination:
  65 0000 00000000 		.space	20
  65      00000000 
  65      00000000 
  65      00000000 
  65      00000000 
  66              		.section	.bss.uxDeletedTasksWaitingCleanUp,"aw",%nobits
  67              		.align	2
  70              	uxDeletedTasksWaitingCleanUp:
  71 0000 00000000 		.space	4
  72              		.section	.bss.xSuspendedTaskList,"aw",%nobits
  73              		.align	2
  76              	xSuspendedTaskList:
  77 0000 00000000 		.space	20
  77      00000000 
  77      00000000 
  77      00000000 
  77      00000000 
  78              		.section	.bss.uxCurrentNumberOfTasks,"aw",%nobits
  79              		.align	2
  82              	uxCurrentNumberOfTasks:
  83 0000 00000000 		.space	4
  84              		.section	.bss.xTickCount,"aw",%nobits
  85              		.align	2
  88              	xTickCount:
  89 0000 00000000 		.space	4
  90              		.section	.bss.uxTopReadyPriority,"aw",%nobits
  91              		.align	2
  94              	uxTopReadyPriority:
  95 0000 00000000 		.space	4
  96              		.section	.bss.xSchedulerRunning,"aw",%nobits
  97              		.align	2
 100              	xSchedulerRunning:
 101 0000 00000000 		.space	4
 102              		.section	.bss.uxPendedTicks,"aw",%nobits
 103              		.align	2
 106              	uxPendedTicks:
 107 0000 00000000 		.space	4
 108              		.section	.bss.xYieldPending,"aw",%nobits
 109              		.align	2
 112              	xYieldPending:
 113 0000 00000000 		.space	4
 114              		.section	.bss.xNumOfOverflows,"aw",%nobits
 115              		.align	2
 118              	xNumOfOverflows:
 119 0000 00000000 		.space	4
 120              		.section	.bss.uxTaskNumber,"aw",%nobits
 121              		.align	2
 124              	uxTaskNumber:
 125 0000 00000000 		.space	4
 126              		.section	.bss.xNextTaskUnblockTime,"aw",%nobits
ARM GAS  /tmp/ccDSLKwL.s 			page 3


 127              		.align	2
 130              	xNextTaskUnblockTime:
 131 0000 00000000 		.space	4
 132              		.section	.bss.xIdleTaskHandle,"aw",%nobits
 133              		.align	2
 136              	xIdleTaskHandle:
 137 0000 00000000 		.space	4
 138              		.section	.bss.uxSchedulerSuspended,"aw",%nobits
 139              		.align	2
 142              	uxSchedulerSuspended:
 143 0000 00000000 		.space	4
 144              		.section	.text.xTaskCreate,"ax",%progbits
 145              		.align	1
 146              		.global	xTaskCreate
 147              		.syntax unified
 148              		.thumb
 149              		.thumb_func
 150              		.fpu fpv4-sp-d16
 152              	xTaskCreate:
 153              	.LFB5:
 154              		.file 1 "Middlewares/Third_Party/FreeRTOS/Source/tasks.c"
   1:Middlewares/Third_Party/FreeRTOS/Source/tasks.c **** /*
   2:Middlewares/Third_Party/FreeRTOS/Source/tasks.c ****     FreeRTOS V9.0.0 - Copyright (C) 2016 Real Time Engineers Ltd.
   3:Middlewares/Third_Party/FreeRTOS/Source/tasks.c ****     All rights reserved
   4:Middlewares/Third_Party/FreeRTOS/Source/tasks.c **** 
   5:Middlewares/Third_Party/FreeRTOS/Source/tasks.c ****     VISIT http://www.FreeRTOS.org TO ENSURE YOU ARE USING THE LATEST VERSION.
   6:Middlewares/Third_Party/FreeRTOS/Source/tasks.c **** 
   7:Middlewares/Third_Party/FreeRTOS/Source/tasks.c ****     This file is part of the FreeRTOS distribution.
   8:Middlewares/Third_Party/FreeRTOS/Source/tasks.c **** 
   9:Middlewares/Third_Party/FreeRTOS/Source/tasks.c ****     FreeRTOS is free software; you can redistribute it and/or modify it under
  10:Middlewares/Third_Party/FreeRTOS/Source/tasks.c ****     the terms of the GNU General Public License (version 2) as published by the
  11:Middlewares/Third_Party/FreeRTOS/Source/tasks.c ****     Free Software Foundation >>>> AND MODIFIED BY <<<< the FreeRTOS exception.
  12:Middlewares/Third_Party/FreeRTOS/Source/tasks.c **** 
  13:Middlewares/Third_Party/FreeRTOS/Source/tasks.c ****     ***************************************************************************
  14:Middlewares/Third_Party/FreeRTOS/Source/tasks.c ****     >>!   NOTE: The modification to the GPL is included to allow you to     !<<
  15:Middlewares/Third_Party/FreeRTOS/Source/tasks.c ****     >>!   distribute a combined work that includes FreeRTOS without being   !<<
  16:Middlewares/Third_Party/FreeRTOS/Source/tasks.c ****     >>!   obliged to provide the source code for proprietary components     !<<
  17:Middlewares/Third_Party/FreeRTOS/Source/tasks.c ****     >>!   outside of the FreeRTOS kernel.                                   !<<
  18:Middlewares/Third_Party/FreeRTOS/Source/tasks.c ****     ***************************************************************************
  19:Middlewares/Third_Party/FreeRTOS/Source/tasks.c **** 
  20:Middlewares/Third_Party/FreeRTOS/Source/tasks.c ****     FreeRTOS is distributed in the hope that it will be useful, but WITHOUT ANY
  21:Middlewares/Third_Party/FreeRTOS/Source/tasks.c ****     WARRANTY; without even the implied warranty of MERCHANTABILITY or FITNESS
  22:Middlewares/Third_Party/FreeRTOS/Source/tasks.c ****     FOR A PARTICULAR PURPOSE.  Full license text is available on the following
  23:Middlewares/Third_Party/FreeRTOS/Source/tasks.c ****     link: http://www.freertos.org/a00114.html
  24:Middlewares/Third_Party/FreeRTOS/Source/tasks.c **** 
  25:Middlewares/Third_Party/FreeRTOS/Source/tasks.c ****     ***************************************************************************
  26:Middlewares/Third_Party/FreeRTOS/Source/tasks.c ****      *                                                                       *
  27:Middlewares/Third_Party/FreeRTOS/Source/tasks.c ****      *    FreeRTOS provides completely free yet professionally developed,    *
  28:Middlewares/Third_Party/FreeRTOS/Source/tasks.c ****      *    robust, strictly quality controlled, supported, and cross          *
  29:Middlewares/Third_Party/FreeRTOS/Source/tasks.c ****      *    platform software that is more than just the market leader, it     *
  30:Middlewares/Third_Party/FreeRTOS/Source/tasks.c ****      *    is the industry's de facto standard.                               *
  31:Middlewares/Third_Party/FreeRTOS/Source/tasks.c ****      *                                                                       *
  32:Middlewares/Third_Party/FreeRTOS/Source/tasks.c ****      *    Help yourself get started quickly while simultaneously helping     *
  33:Middlewares/Third_Party/FreeRTOS/Source/tasks.c ****      *    to support the FreeRTOS project by purchasing a FreeRTOS           *
  34:Middlewares/Third_Party/FreeRTOS/Source/tasks.c ****      *    tutorial book, reference manual, or both:                          *
  35:Middlewares/Third_Party/FreeRTOS/Source/tasks.c ****      *    http://www.FreeRTOS.org/Documentation                              *
  36:Middlewares/Third_Party/FreeRTOS/Source/tasks.c ****      *                                                                       *
ARM GAS  /tmp/ccDSLKwL.s 			page 4


  37:Middlewares/Third_Party/FreeRTOS/Source/tasks.c ****     ***************************************************************************
  38:Middlewares/Third_Party/FreeRTOS/Source/tasks.c **** 
  39:Middlewares/Third_Party/FreeRTOS/Source/tasks.c ****     http://www.FreeRTOS.org/FAQHelp.html - Having a problem?  Start by reading
  40:Middlewares/Third_Party/FreeRTOS/Source/tasks.c ****     the FAQ page "My application does not run, what could be wrong?".  Have you
  41:Middlewares/Third_Party/FreeRTOS/Source/tasks.c ****     defined configASSERT()?
  42:Middlewares/Third_Party/FreeRTOS/Source/tasks.c **** 
  43:Middlewares/Third_Party/FreeRTOS/Source/tasks.c ****     http://www.FreeRTOS.org/support - In return for receiving this top quality
  44:Middlewares/Third_Party/FreeRTOS/Source/tasks.c ****     embedded software for free we request you assist our global community by
  45:Middlewares/Third_Party/FreeRTOS/Source/tasks.c ****     participating in the support forum.
  46:Middlewares/Third_Party/FreeRTOS/Source/tasks.c **** 
  47:Middlewares/Third_Party/FreeRTOS/Source/tasks.c ****     http://www.FreeRTOS.org/training - Investing in training allows your team to
  48:Middlewares/Third_Party/FreeRTOS/Source/tasks.c ****     be as productive as possible as early as possible.  Now you can receive
  49:Middlewares/Third_Party/FreeRTOS/Source/tasks.c ****     FreeRTOS training directly from Richard Barry, CEO of Real Time Engineers
  50:Middlewares/Third_Party/FreeRTOS/Source/tasks.c ****     Ltd, and the world's leading authority on the world's leading RTOS.
  51:Middlewares/Third_Party/FreeRTOS/Source/tasks.c **** 
  52:Middlewares/Third_Party/FreeRTOS/Source/tasks.c ****     http://www.FreeRTOS.org/plus - A selection of FreeRTOS ecosystem products,
  53:Middlewares/Third_Party/FreeRTOS/Source/tasks.c ****     including FreeRTOS+Trace - an indispensable productivity tool, a DOS
  54:Middlewares/Third_Party/FreeRTOS/Source/tasks.c ****     compatible FAT file system, and our tiny thread aware UDP/IP stack.
  55:Middlewares/Third_Party/FreeRTOS/Source/tasks.c **** 
  56:Middlewares/Third_Party/FreeRTOS/Source/tasks.c ****     http://www.FreeRTOS.org/labs - Where new FreeRTOS products go to incubate.
  57:Middlewares/Third_Party/FreeRTOS/Source/tasks.c ****     Come and try FreeRTOS+TCP, our new open source TCP/IP stack for FreeRTOS.
  58:Middlewares/Third_Party/FreeRTOS/Source/tasks.c **** 
  59:Middlewares/Third_Party/FreeRTOS/Source/tasks.c ****     http://www.OpenRTOS.com - Real Time Engineers ltd. license FreeRTOS to High
  60:Middlewares/Third_Party/FreeRTOS/Source/tasks.c ****     Integrity Systems ltd. to sell under the OpenRTOS brand.  Low cost OpenRTOS
  61:Middlewares/Third_Party/FreeRTOS/Source/tasks.c ****     licenses offer ticketed support, indemnification and commercial middleware.
  62:Middlewares/Third_Party/FreeRTOS/Source/tasks.c **** 
  63:Middlewares/Third_Party/FreeRTOS/Source/tasks.c ****     http://www.SafeRTOS.com - High Integrity Systems also provide a safety
  64:Middlewares/Third_Party/FreeRTOS/Source/tasks.c ****     engineered and independently SIL3 certified version for use in safety and
  65:Middlewares/Third_Party/FreeRTOS/Source/tasks.c ****     mission critical applications that require provable dependability.
  66:Middlewares/Third_Party/FreeRTOS/Source/tasks.c **** 
  67:Middlewares/Third_Party/FreeRTOS/Source/tasks.c ****     1 tab == 4 spaces!
  68:Middlewares/Third_Party/FreeRTOS/Source/tasks.c **** */
  69:Middlewares/Third_Party/FreeRTOS/Source/tasks.c **** 
  70:Middlewares/Third_Party/FreeRTOS/Source/tasks.c **** /* Standard includes. */
  71:Middlewares/Third_Party/FreeRTOS/Source/tasks.c **** #include <stdlib.h>
  72:Middlewares/Third_Party/FreeRTOS/Source/tasks.c **** #include <string.h>
  73:Middlewares/Third_Party/FreeRTOS/Source/tasks.c **** 
  74:Middlewares/Third_Party/FreeRTOS/Source/tasks.c **** /* Defining MPU_WRAPPERS_INCLUDED_FROM_API_FILE prevents task.h from redefining
  75:Middlewares/Third_Party/FreeRTOS/Source/tasks.c **** all the API functions to use the MPU wrappers.  That should only be done when
  76:Middlewares/Third_Party/FreeRTOS/Source/tasks.c **** task.h is included from an application file. */
  77:Middlewares/Third_Party/FreeRTOS/Source/tasks.c **** #define MPU_WRAPPERS_INCLUDED_FROM_API_FILE
  78:Middlewares/Third_Party/FreeRTOS/Source/tasks.c **** 
  79:Middlewares/Third_Party/FreeRTOS/Source/tasks.c **** /* FreeRTOS includes. */
  80:Middlewares/Third_Party/FreeRTOS/Source/tasks.c **** #include "FreeRTOS.h"
  81:Middlewares/Third_Party/FreeRTOS/Source/tasks.c **** #include "task.h"
  82:Middlewares/Third_Party/FreeRTOS/Source/tasks.c **** #include "timers.h"
  83:Middlewares/Third_Party/FreeRTOS/Source/tasks.c **** #include "StackMacros.h"
  84:Middlewares/Third_Party/FreeRTOS/Source/tasks.c **** 
  85:Middlewares/Third_Party/FreeRTOS/Source/tasks.c **** /* Lint e961 and e750 are suppressed as a MISRA exception justified because the
  86:Middlewares/Third_Party/FreeRTOS/Source/tasks.c **** MPU ports require MPU_WRAPPERS_INCLUDED_FROM_API_FILE to be defined for the
  87:Middlewares/Third_Party/FreeRTOS/Source/tasks.c **** header files above, but not in this file, in order to generate the correct
  88:Middlewares/Third_Party/FreeRTOS/Source/tasks.c **** privileged Vs unprivileged linkage and placement. */
  89:Middlewares/Third_Party/FreeRTOS/Source/tasks.c **** #undef MPU_WRAPPERS_INCLUDED_FROM_API_FILE /*lint !e961 !e750. */
  90:Middlewares/Third_Party/FreeRTOS/Source/tasks.c **** 
  91:Middlewares/Third_Party/FreeRTOS/Source/tasks.c **** /* Set configUSE_STATS_FORMATTING_FUNCTIONS to 2 to include the stats formatting
  92:Middlewares/Third_Party/FreeRTOS/Source/tasks.c **** functions but without including stdio.h here. */
  93:Middlewares/Third_Party/FreeRTOS/Source/tasks.c **** #if ( configUSE_STATS_FORMATTING_FUNCTIONS == 1 )
ARM GAS  /tmp/ccDSLKwL.s 			page 5


  94:Middlewares/Third_Party/FreeRTOS/Source/tasks.c **** 	/* At the bottom of this file are two optional functions that can be used
  95:Middlewares/Third_Party/FreeRTOS/Source/tasks.c **** 	to generate human readable text from the raw data generated by the
  96:Middlewares/Third_Party/FreeRTOS/Source/tasks.c **** 	uxTaskGetSystemState() function.  Note the formatting functions are provided
  97:Middlewares/Third_Party/FreeRTOS/Source/tasks.c **** 	for convenience only, and are NOT considered part of the kernel. */
  98:Middlewares/Third_Party/FreeRTOS/Source/tasks.c **** 	#include <stdio.h>
  99:Middlewares/Third_Party/FreeRTOS/Source/tasks.c **** #endif /* configUSE_STATS_FORMATTING_FUNCTIONS == 1 ) */
 100:Middlewares/Third_Party/FreeRTOS/Source/tasks.c **** 
 101:Middlewares/Third_Party/FreeRTOS/Source/tasks.c **** #if( configUSE_PREEMPTION == 0 )
 102:Middlewares/Third_Party/FreeRTOS/Source/tasks.c **** 	/* If the cooperative scheduler is being used then a yield should not be
 103:Middlewares/Third_Party/FreeRTOS/Source/tasks.c **** 	performed just because a higher priority task has been woken. */
 104:Middlewares/Third_Party/FreeRTOS/Source/tasks.c **** 	#define taskYIELD_IF_USING_PREEMPTION()
 105:Middlewares/Third_Party/FreeRTOS/Source/tasks.c **** #else
 106:Middlewares/Third_Party/FreeRTOS/Source/tasks.c **** 	#define taskYIELD_IF_USING_PREEMPTION() portYIELD_WITHIN_API()
 107:Middlewares/Third_Party/FreeRTOS/Source/tasks.c **** #endif
 108:Middlewares/Third_Party/FreeRTOS/Source/tasks.c **** 
 109:Middlewares/Third_Party/FreeRTOS/Source/tasks.c **** /* Values that can be assigned to the ucNotifyState member of the TCB. */
 110:Middlewares/Third_Party/FreeRTOS/Source/tasks.c **** #define taskNOT_WAITING_NOTIFICATION	( ( uint8_t ) 0 )
 111:Middlewares/Third_Party/FreeRTOS/Source/tasks.c **** #define taskWAITING_NOTIFICATION		( ( uint8_t ) 1 )
 112:Middlewares/Third_Party/FreeRTOS/Source/tasks.c **** #define taskNOTIFICATION_RECEIVED		( ( uint8_t ) 2 )
 113:Middlewares/Third_Party/FreeRTOS/Source/tasks.c **** 
 114:Middlewares/Third_Party/FreeRTOS/Source/tasks.c **** /*
 115:Middlewares/Third_Party/FreeRTOS/Source/tasks.c ****  * The value used to fill the stack of a task when the task is created.  This
 116:Middlewares/Third_Party/FreeRTOS/Source/tasks.c ****  * is used purely for checking the high water mark for tasks.
 117:Middlewares/Third_Party/FreeRTOS/Source/tasks.c ****  */
 118:Middlewares/Third_Party/FreeRTOS/Source/tasks.c **** #define tskSTACK_FILL_BYTE	( 0xa5U )
 119:Middlewares/Third_Party/FreeRTOS/Source/tasks.c **** 
 120:Middlewares/Third_Party/FreeRTOS/Source/tasks.c **** /* Sometimes the FreeRTOSConfig.h settings only allow a task to be created using
 121:Middlewares/Third_Party/FreeRTOS/Source/tasks.c **** dynamically allocated RAM, in which case when any task is deleted it is known
 122:Middlewares/Third_Party/FreeRTOS/Source/tasks.c **** that both the task's stack and TCB need to be freed.  Sometimes the
 123:Middlewares/Third_Party/FreeRTOS/Source/tasks.c **** FreeRTOSConfig.h settings only allow a task to be created using statically
 124:Middlewares/Third_Party/FreeRTOS/Source/tasks.c **** allocated RAM, in which case when any task is deleted it is known that neither
 125:Middlewares/Third_Party/FreeRTOS/Source/tasks.c **** the task's stack or TCB should be freed.  Sometimes the FreeRTOSConfig.h
 126:Middlewares/Third_Party/FreeRTOS/Source/tasks.c **** settings allow a task to be created using either statically or dynamically
 127:Middlewares/Third_Party/FreeRTOS/Source/tasks.c **** allocated RAM, in which case a member of the TCB is used to record whether the
 128:Middlewares/Third_Party/FreeRTOS/Source/tasks.c **** stack and/or TCB were allocated statically or dynamically, so when a task is
 129:Middlewares/Third_Party/FreeRTOS/Source/tasks.c **** deleted the RAM that was allocated dynamically is freed again and no attempt is
 130:Middlewares/Third_Party/FreeRTOS/Source/tasks.c **** made to free the RAM that was allocated statically.
 131:Middlewares/Third_Party/FreeRTOS/Source/tasks.c **** tskSTATIC_AND_DYNAMIC_ALLOCATION_POSSIBLE is only true if it is possible for a
 132:Middlewares/Third_Party/FreeRTOS/Source/tasks.c **** task to be created using either statically or dynamically allocated RAM.  Note
 133:Middlewares/Third_Party/FreeRTOS/Source/tasks.c **** that if portUSING_MPU_WRAPPERS is 1 then a protected task can be created with
 134:Middlewares/Third_Party/FreeRTOS/Source/tasks.c **** a statically allocated stack and a dynamically allocated TCB. */
 135:Middlewares/Third_Party/FreeRTOS/Source/tasks.c **** #define tskSTATIC_AND_DYNAMIC_ALLOCATION_POSSIBLE ( ( ( configSUPPORT_STATIC_ALLOCATION == 1 ) && (
 136:Middlewares/Third_Party/FreeRTOS/Source/tasks.c **** #define tskDYNAMICALLY_ALLOCATED_STACK_AND_TCB 		( ( uint8_t ) 0 )
 137:Middlewares/Third_Party/FreeRTOS/Source/tasks.c **** #define tskSTATICALLY_ALLOCATED_STACK_ONLY 			( ( uint8_t ) 1 )
 138:Middlewares/Third_Party/FreeRTOS/Source/tasks.c **** #define tskSTATICALLY_ALLOCATED_STACK_AND_TCB		( ( uint8_t ) 2 )
 139:Middlewares/Third_Party/FreeRTOS/Source/tasks.c **** 
 140:Middlewares/Third_Party/FreeRTOS/Source/tasks.c **** /*
 141:Middlewares/Third_Party/FreeRTOS/Source/tasks.c ****  * Macros used by vListTask to indicate which state a task is in.
 142:Middlewares/Third_Party/FreeRTOS/Source/tasks.c ****  */
 143:Middlewares/Third_Party/FreeRTOS/Source/tasks.c **** #define tskBLOCKED_CHAR		( 'B' )
 144:Middlewares/Third_Party/FreeRTOS/Source/tasks.c **** #define tskREADY_CHAR		( 'R' )
 145:Middlewares/Third_Party/FreeRTOS/Source/tasks.c **** #define tskDELETED_CHAR		( 'D' )
 146:Middlewares/Third_Party/FreeRTOS/Source/tasks.c **** #define tskSUSPENDED_CHAR	( 'S' )
 147:Middlewares/Third_Party/FreeRTOS/Source/tasks.c **** 
 148:Middlewares/Third_Party/FreeRTOS/Source/tasks.c **** /*
 149:Middlewares/Third_Party/FreeRTOS/Source/tasks.c ****  * Some kernel aware debuggers require the data the debugger needs access to be
 150:Middlewares/Third_Party/FreeRTOS/Source/tasks.c ****  * global, rather than file scope.
ARM GAS  /tmp/ccDSLKwL.s 			page 6


 151:Middlewares/Third_Party/FreeRTOS/Source/tasks.c ****  */
 152:Middlewares/Third_Party/FreeRTOS/Source/tasks.c **** #ifdef portREMOVE_STATIC_QUALIFIER
 153:Middlewares/Third_Party/FreeRTOS/Source/tasks.c **** 	#define static
 154:Middlewares/Third_Party/FreeRTOS/Source/tasks.c **** #endif
 155:Middlewares/Third_Party/FreeRTOS/Source/tasks.c **** 
 156:Middlewares/Third_Party/FreeRTOS/Source/tasks.c **** #if ( configUSE_PORT_OPTIMISED_TASK_SELECTION == 0 )
 157:Middlewares/Third_Party/FreeRTOS/Source/tasks.c **** 
 158:Middlewares/Third_Party/FreeRTOS/Source/tasks.c **** 	/* If configUSE_PORT_OPTIMISED_TASK_SELECTION is 0 then task selection is
 159:Middlewares/Third_Party/FreeRTOS/Source/tasks.c **** 	performed in a generic way that is not optimised to any particular
 160:Middlewares/Third_Party/FreeRTOS/Source/tasks.c **** 	microcontroller architecture. */
 161:Middlewares/Third_Party/FreeRTOS/Source/tasks.c **** 
 162:Middlewares/Third_Party/FreeRTOS/Source/tasks.c **** 	/* uxTopReadyPriority holds the priority of the highest priority ready
 163:Middlewares/Third_Party/FreeRTOS/Source/tasks.c **** 	state task. */
 164:Middlewares/Third_Party/FreeRTOS/Source/tasks.c **** 	#define taskRECORD_READY_PRIORITY( uxPriority )														\
 165:Middlewares/Third_Party/FreeRTOS/Source/tasks.c **** 	{																									\
 166:Middlewares/Third_Party/FreeRTOS/Source/tasks.c **** 		if( ( uxPriority ) > uxTopReadyPriority )														\
 167:Middlewares/Third_Party/FreeRTOS/Source/tasks.c **** 		{																								\
 168:Middlewares/Third_Party/FreeRTOS/Source/tasks.c **** 			uxTopReadyPriority = ( uxPriority );														\
 169:Middlewares/Third_Party/FreeRTOS/Source/tasks.c **** 		}																								\
 170:Middlewares/Third_Party/FreeRTOS/Source/tasks.c **** 	} /* taskRECORD_READY_PRIORITY */
 171:Middlewares/Third_Party/FreeRTOS/Source/tasks.c **** 
 172:Middlewares/Third_Party/FreeRTOS/Source/tasks.c **** 	/*-----------------------------------------------------------*/
 173:Middlewares/Third_Party/FreeRTOS/Source/tasks.c **** 
 174:Middlewares/Third_Party/FreeRTOS/Source/tasks.c **** 	#define taskSELECT_HIGHEST_PRIORITY_TASK()															\
 175:Middlewares/Third_Party/FreeRTOS/Source/tasks.c **** 	{																									\
 176:Middlewares/Third_Party/FreeRTOS/Source/tasks.c **** 	UBaseType_t uxTopPriority = uxTopReadyPriority;														\
 177:Middlewares/Third_Party/FreeRTOS/Source/tasks.c **** 																										\
 178:Middlewares/Third_Party/FreeRTOS/Source/tasks.c **** 		/* Find the highest priority queue that contains ready tasks. */								\
 179:Middlewares/Third_Party/FreeRTOS/Source/tasks.c **** 		while( listLIST_IS_EMPTY( &( pxReadyTasksLists[ uxTopPriority ] ) ) )							\
 180:Middlewares/Third_Party/FreeRTOS/Source/tasks.c **** 		{																								\
 181:Middlewares/Third_Party/FreeRTOS/Source/tasks.c **** 			configASSERT( uxTopPriority );																\
 182:Middlewares/Third_Party/FreeRTOS/Source/tasks.c **** 			--uxTopPriority;																			\
 183:Middlewares/Third_Party/FreeRTOS/Source/tasks.c **** 		}																								\
 184:Middlewares/Third_Party/FreeRTOS/Source/tasks.c **** 																										\
 185:Middlewares/Third_Party/FreeRTOS/Source/tasks.c **** 		/* listGET_OWNER_OF_NEXT_ENTRY indexes through the list, so the tasks of						\
 186:Middlewares/Third_Party/FreeRTOS/Source/tasks.c **** 		the	same priority get an equal share of the processor time. */									\
 187:Middlewares/Third_Party/FreeRTOS/Source/tasks.c **** 		listGET_OWNER_OF_NEXT_ENTRY( pxCurrentTCB, &( pxReadyTasksLists[ uxTopPriority ] ) );			\
 188:Middlewares/Third_Party/FreeRTOS/Source/tasks.c **** 		uxTopReadyPriority = uxTopPriority;																\
 189:Middlewares/Third_Party/FreeRTOS/Source/tasks.c **** 	} /* taskSELECT_HIGHEST_PRIORITY_TASK */
 190:Middlewares/Third_Party/FreeRTOS/Source/tasks.c **** 
 191:Middlewares/Third_Party/FreeRTOS/Source/tasks.c **** 	/*-----------------------------------------------------------*/
 192:Middlewares/Third_Party/FreeRTOS/Source/tasks.c **** 
 193:Middlewares/Third_Party/FreeRTOS/Source/tasks.c **** 	/* Define away taskRESET_READY_PRIORITY() and portRESET_READY_PRIORITY() as
 194:Middlewares/Third_Party/FreeRTOS/Source/tasks.c **** 	they are only required when a port optimised method of task selection is
 195:Middlewares/Third_Party/FreeRTOS/Source/tasks.c **** 	being used. */
 196:Middlewares/Third_Party/FreeRTOS/Source/tasks.c **** 	#define taskRESET_READY_PRIORITY( uxPriority )
 197:Middlewares/Third_Party/FreeRTOS/Source/tasks.c **** 	#define portRESET_READY_PRIORITY( uxPriority, uxTopReadyPriority )
 198:Middlewares/Third_Party/FreeRTOS/Source/tasks.c **** 
 199:Middlewares/Third_Party/FreeRTOS/Source/tasks.c **** #else /* configUSE_PORT_OPTIMISED_TASK_SELECTION */
 200:Middlewares/Third_Party/FreeRTOS/Source/tasks.c **** 
 201:Middlewares/Third_Party/FreeRTOS/Source/tasks.c **** 	/* If configUSE_PORT_OPTIMISED_TASK_SELECTION is 1 then task selection is
 202:Middlewares/Third_Party/FreeRTOS/Source/tasks.c **** 	performed in a way that is tailored to the particular microcontroller
 203:Middlewares/Third_Party/FreeRTOS/Source/tasks.c **** 	architecture being used. */
 204:Middlewares/Third_Party/FreeRTOS/Source/tasks.c **** 
 205:Middlewares/Third_Party/FreeRTOS/Source/tasks.c **** 	/* A port optimised version is provided.  Call the port defined macros. */
 206:Middlewares/Third_Party/FreeRTOS/Source/tasks.c **** 	#define taskRECORD_READY_PRIORITY( uxPriority )	portRECORD_READY_PRIORITY( uxPriority, uxTopReadyP
 207:Middlewares/Third_Party/FreeRTOS/Source/tasks.c **** 
ARM GAS  /tmp/ccDSLKwL.s 			page 7


 208:Middlewares/Third_Party/FreeRTOS/Source/tasks.c **** 	/*-----------------------------------------------------------*/
 209:Middlewares/Third_Party/FreeRTOS/Source/tasks.c **** 
 210:Middlewares/Third_Party/FreeRTOS/Source/tasks.c **** 	#define taskSELECT_HIGHEST_PRIORITY_TASK()														\
 211:Middlewares/Third_Party/FreeRTOS/Source/tasks.c **** 	{																								\
 212:Middlewares/Third_Party/FreeRTOS/Source/tasks.c **** 	UBaseType_t uxTopPriority;																		\
 213:Middlewares/Third_Party/FreeRTOS/Source/tasks.c **** 																									\
 214:Middlewares/Third_Party/FreeRTOS/Source/tasks.c **** 		/* Find the highest priority list that contains ready tasks. */								\
 215:Middlewares/Third_Party/FreeRTOS/Source/tasks.c **** 		portGET_HIGHEST_PRIORITY( uxTopPriority, uxTopReadyPriority );								\
 216:Middlewares/Third_Party/FreeRTOS/Source/tasks.c **** 		configASSERT( listCURRENT_LIST_LENGTH( &( pxReadyTasksLists[ uxTopPriority ] ) ) > 0 );		\
 217:Middlewares/Third_Party/FreeRTOS/Source/tasks.c **** 		listGET_OWNER_OF_NEXT_ENTRY( pxCurrentTCB, &( pxReadyTasksLists[ uxTopPriority ] ) );		\
 218:Middlewares/Third_Party/FreeRTOS/Source/tasks.c **** 	} /* taskSELECT_HIGHEST_PRIORITY_TASK() */
 219:Middlewares/Third_Party/FreeRTOS/Source/tasks.c **** 
 220:Middlewares/Third_Party/FreeRTOS/Source/tasks.c **** 	/*-----------------------------------------------------------*/
 221:Middlewares/Third_Party/FreeRTOS/Source/tasks.c **** 
 222:Middlewares/Third_Party/FreeRTOS/Source/tasks.c **** 	/* A port optimised version is provided, call it only if the TCB being reset
 223:Middlewares/Third_Party/FreeRTOS/Source/tasks.c **** 	is being referenced from a ready list.  If it is referenced from a delayed
 224:Middlewares/Third_Party/FreeRTOS/Source/tasks.c **** 	or suspended list then it won't be in a ready list. */
 225:Middlewares/Third_Party/FreeRTOS/Source/tasks.c **** 	#define taskRESET_READY_PRIORITY( uxPriority )														\
 226:Middlewares/Third_Party/FreeRTOS/Source/tasks.c **** 	{																									\
 227:Middlewares/Third_Party/FreeRTOS/Source/tasks.c **** 		if( listCURRENT_LIST_LENGTH( &( pxReadyTasksLists[ ( uxPriority ) ] ) ) == ( UBaseType_t ) 0 )	\
 228:Middlewares/Third_Party/FreeRTOS/Source/tasks.c **** 		{																								\
 229:Middlewares/Third_Party/FreeRTOS/Source/tasks.c **** 			portRESET_READY_PRIORITY( ( uxPriority ), ( uxTopReadyPriority ) );							\
 230:Middlewares/Third_Party/FreeRTOS/Source/tasks.c **** 		}																								\
 231:Middlewares/Third_Party/FreeRTOS/Source/tasks.c **** 	}
 232:Middlewares/Third_Party/FreeRTOS/Source/tasks.c **** 
 233:Middlewares/Third_Party/FreeRTOS/Source/tasks.c **** #endif /* configUSE_PORT_OPTIMISED_TASK_SELECTION */
 234:Middlewares/Third_Party/FreeRTOS/Source/tasks.c **** 
 235:Middlewares/Third_Party/FreeRTOS/Source/tasks.c **** /*-----------------------------------------------------------*/
 236:Middlewares/Third_Party/FreeRTOS/Source/tasks.c **** 
 237:Middlewares/Third_Party/FreeRTOS/Source/tasks.c **** /* pxDelayedTaskList and pxOverflowDelayedTaskList are switched when the tick
 238:Middlewares/Third_Party/FreeRTOS/Source/tasks.c **** count overflows. */
 239:Middlewares/Third_Party/FreeRTOS/Source/tasks.c **** #define taskSWITCH_DELAYED_LISTS()																	\
 240:Middlewares/Third_Party/FreeRTOS/Source/tasks.c **** {																									\
 241:Middlewares/Third_Party/FreeRTOS/Source/tasks.c **** 	List_t *pxTemp;																					\
 242:Middlewares/Third_Party/FreeRTOS/Source/tasks.c **** 																									\
 243:Middlewares/Third_Party/FreeRTOS/Source/tasks.c **** 	/* The delayed tasks list should be empty when the lists are switched. */						\
 244:Middlewares/Third_Party/FreeRTOS/Source/tasks.c **** 	configASSERT( ( listLIST_IS_EMPTY( pxDelayedTaskList ) ) );										\
 245:Middlewares/Third_Party/FreeRTOS/Source/tasks.c **** 																									\
 246:Middlewares/Third_Party/FreeRTOS/Source/tasks.c **** 	pxTemp = pxDelayedTaskList;																		\
 247:Middlewares/Third_Party/FreeRTOS/Source/tasks.c **** 	pxDelayedTaskList = pxOverflowDelayedTaskList;													\
 248:Middlewares/Third_Party/FreeRTOS/Source/tasks.c **** 	pxOverflowDelayedTaskList = pxTemp;																\
 249:Middlewares/Third_Party/FreeRTOS/Source/tasks.c **** 	xNumOfOverflows++;																				\
 250:Middlewares/Third_Party/FreeRTOS/Source/tasks.c **** 	prvResetNextTaskUnblockTime();																	\
 251:Middlewares/Third_Party/FreeRTOS/Source/tasks.c **** }
 252:Middlewares/Third_Party/FreeRTOS/Source/tasks.c **** 
 253:Middlewares/Third_Party/FreeRTOS/Source/tasks.c **** /*-----------------------------------------------------------*/
 254:Middlewares/Third_Party/FreeRTOS/Source/tasks.c **** 
 255:Middlewares/Third_Party/FreeRTOS/Source/tasks.c **** /*
 256:Middlewares/Third_Party/FreeRTOS/Source/tasks.c ****  * Place the task represented by pxTCB into the appropriate ready list for
 257:Middlewares/Third_Party/FreeRTOS/Source/tasks.c ****  * the task.  It is inserted at the end of the list.
 258:Middlewares/Third_Party/FreeRTOS/Source/tasks.c ****  */
 259:Middlewares/Third_Party/FreeRTOS/Source/tasks.c **** #define prvAddTaskToReadyList( pxTCB )																\
 260:Middlewares/Third_Party/FreeRTOS/Source/tasks.c **** 	traceMOVED_TASK_TO_READY_STATE( pxTCB );														\
 261:Middlewares/Third_Party/FreeRTOS/Source/tasks.c **** 	taskRECORD_READY_PRIORITY( ( pxTCB )->uxPriority );												\
 262:Middlewares/Third_Party/FreeRTOS/Source/tasks.c **** 	vListInsertEnd( &( pxReadyTasksLists[ ( pxTCB )->uxPriority ] ), &( ( pxTCB )->xStateListItem ) );
 263:Middlewares/Third_Party/FreeRTOS/Source/tasks.c **** 	tracePOST_MOVED_TASK_TO_READY_STATE( pxTCB )
 264:Middlewares/Third_Party/FreeRTOS/Source/tasks.c **** /*-----------------------------------------------------------*/
ARM GAS  /tmp/ccDSLKwL.s 			page 8


 265:Middlewares/Third_Party/FreeRTOS/Source/tasks.c **** 
 266:Middlewares/Third_Party/FreeRTOS/Source/tasks.c **** /*
 267:Middlewares/Third_Party/FreeRTOS/Source/tasks.c ****  * Several functions take an TaskHandle_t parameter that can optionally be NULL,
 268:Middlewares/Third_Party/FreeRTOS/Source/tasks.c ****  * where NULL is used to indicate that the handle of the currently executing
 269:Middlewares/Third_Party/FreeRTOS/Source/tasks.c ****  * task should be used in place of the parameter.  This macro simply checks to
 270:Middlewares/Third_Party/FreeRTOS/Source/tasks.c ****  * see if the parameter is NULL and returns a pointer to the appropriate TCB.
 271:Middlewares/Third_Party/FreeRTOS/Source/tasks.c ****  */
 272:Middlewares/Third_Party/FreeRTOS/Source/tasks.c **** #define prvGetTCBFromHandle( pxHandle ) ( ( ( pxHandle ) == NULL ) ? ( TCB_t * ) pxCurrentTCB : ( T
 273:Middlewares/Third_Party/FreeRTOS/Source/tasks.c **** 
 274:Middlewares/Third_Party/FreeRTOS/Source/tasks.c **** /* The item value of the event list item is normally used to hold the priority
 275:Middlewares/Third_Party/FreeRTOS/Source/tasks.c **** of the task to which it belongs (coded to allow it to be held in reverse
 276:Middlewares/Third_Party/FreeRTOS/Source/tasks.c **** priority order).  However, it is occasionally borrowed for other purposes.  It
 277:Middlewares/Third_Party/FreeRTOS/Source/tasks.c **** is important its value is not updated due to a task priority change while it is
 278:Middlewares/Third_Party/FreeRTOS/Source/tasks.c **** being used for another purpose.  The following bit definition is used to inform
 279:Middlewares/Third_Party/FreeRTOS/Source/tasks.c **** the scheduler that the value should not be changed - in which case it is the
 280:Middlewares/Third_Party/FreeRTOS/Source/tasks.c **** responsibility of whichever module is using the value to ensure it gets set back
 281:Middlewares/Third_Party/FreeRTOS/Source/tasks.c **** to its original value when it is released. */
 282:Middlewares/Third_Party/FreeRTOS/Source/tasks.c **** #if( configUSE_16_BIT_TICKS == 1 )
 283:Middlewares/Third_Party/FreeRTOS/Source/tasks.c **** 	#define taskEVENT_LIST_ITEM_VALUE_IN_USE	0x8000U
 284:Middlewares/Third_Party/FreeRTOS/Source/tasks.c **** #else
 285:Middlewares/Third_Party/FreeRTOS/Source/tasks.c **** 	#define taskEVENT_LIST_ITEM_VALUE_IN_USE	0x80000000UL
 286:Middlewares/Third_Party/FreeRTOS/Source/tasks.c **** #endif
 287:Middlewares/Third_Party/FreeRTOS/Source/tasks.c **** 
 288:Middlewares/Third_Party/FreeRTOS/Source/tasks.c **** /*
 289:Middlewares/Third_Party/FreeRTOS/Source/tasks.c ****  * Task control block.  A task control block (TCB) is allocated for each task,
 290:Middlewares/Third_Party/FreeRTOS/Source/tasks.c ****  * and stores task state information, including a pointer to the task's context
 291:Middlewares/Third_Party/FreeRTOS/Source/tasks.c ****  * (the task's run time environment, including register values)
 292:Middlewares/Third_Party/FreeRTOS/Source/tasks.c ****  */
 293:Middlewares/Third_Party/FreeRTOS/Source/tasks.c **** typedef struct tskTaskControlBlock
 294:Middlewares/Third_Party/FreeRTOS/Source/tasks.c **** {
 295:Middlewares/Third_Party/FreeRTOS/Source/tasks.c **** 	volatile StackType_t	*pxTopOfStack;	/*< Points to the location of the last item placed on the task
 296:Middlewares/Third_Party/FreeRTOS/Source/tasks.c **** 
 297:Middlewares/Third_Party/FreeRTOS/Source/tasks.c **** 	#if ( portUSING_MPU_WRAPPERS == 1 )
 298:Middlewares/Third_Party/FreeRTOS/Source/tasks.c **** 		xMPU_SETTINGS	xMPUSettings;		/*< The MPU settings are defined as part of the port layer.  THIS MU
 299:Middlewares/Third_Party/FreeRTOS/Source/tasks.c **** 	#endif
 300:Middlewares/Third_Party/FreeRTOS/Source/tasks.c **** 
 301:Middlewares/Third_Party/FreeRTOS/Source/tasks.c **** 	ListItem_t			xStateListItem;	/*< The list that the state list item of a task is reference from den
 302:Middlewares/Third_Party/FreeRTOS/Source/tasks.c **** 	ListItem_t			xEventListItem;		/*< Used to reference a task from an event list. */
 303:Middlewares/Third_Party/FreeRTOS/Source/tasks.c **** 	UBaseType_t			uxPriority;			/*< The priority of the task.  0 is the lowest priority. */
 304:Middlewares/Third_Party/FreeRTOS/Source/tasks.c **** 	StackType_t			*pxStack;			/*< Points to the start of the stack. */
 305:Middlewares/Third_Party/FreeRTOS/Source/tasks.c **** 	char				pcTaskName[ configMAX_TASK_NAME_LEN ];/*< Descriptive name given to the task when created.
 306:Middlewares/Third_Party/FreeRTOS/Source/tasks.c **** 
 307:Middlewares/Third_Party/FreeRTOS/Source/tasks.c **** 	#if ( portSTACK_GROWTH > 0 )
 308:Middlewares/Third_Party/FreeRTOS/Source/tasks.c **** 		StackType_t		*pxEndOfStack;		/*< Points to the end of the stack on architectures where the stack 
 309:Middlewares/Third_Party/FreeRTOS/Source/tasks.c **** 	#endif
 310:Middlewares/Third_Party/FreeRTOS/Source/tasks.c **** 
 311:Middlewares/Third_Party/FreeRTOS/Source/tasks.c **** 	#if ( portCRITICAL_NESTING_IN_TCB == 1 )
 312:Middlewares/Third_Party/FreeRTOS/Source/tasks.c **** 		UBaseType_t		uxCriticalNesting;	/*< Holds the critical section nesting depth for ports that do no
 313:Middlewares/Third_Party/FreeRTOS/Source/tasks.c **** 	#endif
 314:Middlewares/Third_Party/FreeRTOS/Source/tasks.c **** 
 315:Middlewares/Third_Party/FreeRTOS/Source/tasks.c **** 	#if ( configUSE_TRACE_FACILITY == 1 )
 316:Middlewares/Third_Party/FreeRTOS/Source/tasks.c **** 		UBaseType_t		uxTCBNumber;		/*< Stores a number that increments each time a TCB is created.  It al
 317:Middlewares/Third_Party/FreeRTOS/Source/tasks.c **** 		UBaseType_t		uxTaskNumber;		/*< Stores a number specifically for use by third party trace code. *
 318:Middlewares/Third_Party/FreeRTOS/Source/tasks.c **** 	#endif
 319:Middlewares/Third_Party/FreeRTOS/Source/tasks.c **** 
 320:Middlewares/Third_Party/FreeRTOS/Source/tasks.c **** 	#if ( configUSE_MUTEXES == 1 )
 321:Middlewares/Third_Party/FreeRTOS/Source/tasks.c **** 		UBaseType_t		uxBasePriority;		/*< The priority last assigned to the task - used by the priority i
ARM GAS  /tmp/ccDSLKwL.s 			page 9


 322:Middlewares/Third_Party/FreeRTOS/Source/tasks.c **** 		UBaseType_t		uxMutexesHeld;
 323:Middlewares/Third_Party/FreeRTOS/Source/tasks.c **** 	#endif
 324:Middlewares/Third_Party/FreeRTOS/Source/tasks.c **** 
 325:Middlewares/Third_Party/FreeRTOS/Source/tasks.c **** 	#if ( configUSE_APPLICATION_TASK_TAG == 1 )
 326:Middlewares/Third_Party/FreeRTOS/Source/tasks.c **** 		TaskHookFunction_t pxTaskTag;
 327:Middlewares/Third_Party/FreeRTOS/Source/tasks.c **** 	#endif
 328:Middlewares/Third_Party/FreeRTOS/Source/tasks.c **** 
 329:Middlewares/Third_Party/FreeRTOS/Source/tasks.c **** 	#if( configNUM_THREAD_LOCAL_STORAGE_POINTERS > 0 )
 330:Middlewares/Third_Party/FreeRTOS/Source/tasks.c **** 		void *pvThreadLocalStoragePointers[ configNUM_THREAD_LOCAL_STORAGE_POINTERS ];
 331:Middlewares/Third_Party/FreeRTOS/Source/tasks.c **** 	#endif
 332:Middlewares/Third_Party/FreeRTOS/Source/tasks.c **** 
 333:Middlewares/Third_Party/FreeRTOS/Source/tasks.c **** 	#if( configGENERATE_RUN_TIME_STATS == 1 )
 334:Middlewares/Third_Party/FreeRTOS/Source/tasks.c **** 		uint32_t		ulRunTimeCounter;	/*< Stores the amount of time the task has spent in the Running state
 335:Middlewares/Third_Party/FreeRTOS/Source/tasks.c **** 	#endif
 336:Middlewares/Third_Party/FreeRTOS/Source/tasks.c **** 
 337:Middlewares/Third_Party/FreeRTOS/Source/tasks.c **** 	#if ( configUSE_NEWLIB_REENTRANT == 1 )
 338:Middlewares/Third_Party/FreeRTOS/Source/tasks.c **** 		/* Allocate a Newlib reent structure that is specific to this task.
 339:Middlewares/Third_Party/FreeRTOS/Source/tasks.c **** 		Note Newlib support has been included by popular demand, but is not
 340:Middlewares/Third_Party/FreeRTOS/Source/tasks.c **** 		used by the FreeRTOS maintainers themselves.  FreeRTOS is not
 341:Middlewares/Third_Party/FreeRTOS/Source/tasks.c **** 		responsible for resulting newlib operation.  User must be familiar with
 342:Middlewares/Third_Party/FreeRTOS/Source/tasks.c **** 		newlib and must provide system-wide implementations of the necessary
 343:Middlewares/Third_Party/FreeRTOS/Source/tasks.c **** 		stubs. Be warned that (at the time of writing) the current newlib design
 344:Middlewares/Third_Party/FreeRTOS/Source/tasks.c **** 		implements a system-wide malloc() that must be provided with locks. */
 345:Middlewares/Third_Party/FreeRTOS/Source/tasks.c **** 		struct	_reent xNewLib_reent;
 346:Middlewares/Third_Party/FreeRTOS/Source/tasks.c **** 	#endif
 347:Middlewares/Third_Party/FreeRTOS/Source/tasks.c **** 
 348:Middlewares/Third_Party/FreeRTOS/Source/tasks.c **** 	#if( configUSE_TASK_NOTIFICATIONS == 1 )
 349:Middlewares/Third_Party/FreeRTOS/Source/tasks.c **** 		volatile uint32_t ulNotifiedValue;
 350:Middlewares/Third_Party/FreeRTOS/Source/tasks.c **** 		volatile uint8_t ucNotifyState;
 351:Middlewares/Third_Party/FreeRTOS/Source/tasks.c **** 	#endif
 352:Middlewares/Third_Party/FreeRTOS/Source/tasks.c **** 
 353:Middlewares/Third_Party/FreeRTOS/Source/tasks.c **** 	/* See the comments above the definition of
 354:Middlewares/Third_Party/FreeRTOS/Source/tasks.c **** 	tskSTATIC_AND_DYNAMIC_ALLOCATION_POSSIBLE. */
 355:Middlewares/Third_Party/FreeRTOS/Source/tasks.c **** 	#if( tskSTATIC_AND_DYNAMIC_ALLOCATION_POSSIBLE != 0 )
 356:Middlewares/Third_Party/FreeRTOS/Source/tasks.c **** 		uint8_t	ucStaticallyAllocated; 		/*< Set to pdTRUE if the task is a statically allocated to ensur
 357:Middlewares/Third_Party/FreeRTOS/Source/tasks.c **** 	#endif
 358:Middlewares/Third_Party/FreeRTOS/Source/tasks.c **** 
 359:Middlewares/Third_Party/FreeRTOS/Source/tasks.c **** 	#if( INCLUDE_xTaskAbortDelay == 1 )
 360:Middlewares/Third_Party/FreeRTOS/Source/tasks.c **** 		uint8_t ucDelayAborted;
 361:Middlewares/Third_Party/FreeRTOS/Source/tasks.c **** 	#endif
 362:Middlewares/Third_Party/FreeRTOS/Source/tasks.c **** 
 363:Middlewares/Third_Party/FreeRTOS/Source/tasks.c **** } tskTCB;
 364:Middlewares/Third_Party/FreeRTOS/Source/tasks.c **** 
 365:Middlewares/Third_Party/FreeRTOS/Source/tasks.c **** /* The old tskTCB name is maintained above then typedefed to the new TCB_t name
 366:Middlewares/Third_Party/FreeRTOS/Source/tasks.c **** below to enable the use of older kernel aware debuggers. */
 367:Middlewares/Third_Party/FreeRTOS/Source/tasks.c **** typedef tskTCB TCB_t;
 368:Middlewares/Third_Party/FreeRTOS/Source/tasks.c **** 
 369:Middlewares/Third_Party/FreeRTOS/Source/tasks.c **** /*lint -e956 A manual analysis and inspection has been used to determine which
 370:Middlewares/Third_Party/FreeRTOS/Source/tasks.c **** static variables must be declared volatile. */
 371:Middlewares/Third_Party/FreeRTOS/Source/tasks.c **** 
 372:Middlewares/Third_Party/FreeRTOS/Source/tasks.c **** PRIVILEGED_INITIALIZED_DATA TCB_t * volatile pxCurrentTCB = NULL;
 373:Middlewares/Third_Party/FreeRTOS/Source/tasks.c **** 
 374:Middlewares/Third_Party/FreeRTOS/Source/tasks.c **** /* Lists for ready and blocked tasks. --------------------*/
 375:Middlewares/Third_Party/FreeRTOS/Source/tasks.c **** PRIVILEGED_DATA static List_t pxReadyTasksLists[ configMAX_PRIORITIES ];/*< Prioritised ready tasks
 376:Middlewares/Third_Party/FreeRTOS/Source/tasks.c **** PRIVILEGED_DATA static List_t xDelayedTaskList1;						/*< Delayed tasks. */
 377:Middlewares/Third_Party/FreeRTOS/Source/tasks.c **** PRIVILEGED_DATA static List_t xDelayedTaskList2;						/*< Delayed tasks (two lists are used - one f
 378:Middlewares/Third_Party/FreeRTOS/Source/tasks.c **** PRIVILEGED_DATA static List_t * volatile pxDelayedTaskList;				/*< Points to the delayed task list 
ARM GAS  /tmp/ccDSLKwL.s 			page 10


 379:Middlewares/Third_Party/FreeRTOS/Source/tasks.c **** PRIVILEGED_DATA static List_t * volatile pxOverflowDelayedTaskList;		/*< Points to the delayed task
 380:Middlewares/Third_Party/FreeRTOS/Source/tasks.c **** PRIVILEGED_DATA static List_t xPendingReadyList;						/*< Tasks that have been readied while the sc
 381:Middlewares/Third_Party/FreeRTOS/Source/tasks.c **** 
 382:Middlewares/Third_Party/FreeRTOS/Source/tasks.c **** #if( INCLUDE_vTaskDelete == 1 )
 383:Middlewares/Third_Party/FreeRTOS/Source/tasks.c **** 
 384:Middlewares/Third_Party/FreeRTOS/Source/tasks.c **** 	PRIVILEGED_DATA static List_t xTasksWaitingTermination;				/*< Tasks that have been deleted - but 
 385:Middlewares/Third_Party/FreeRTOS/Source/tasks.c **** 	PRIVILEGED_INITIALIZED_DATA static volatile UBaseType_t uxDeletedTasksWaitingCleanUp = ( UBaseType
 386:Middlewares/Third_Party/FreeRTOS/Source/tasks.c **** 
 387:Middlewares/Third_Party/FreeRTOS/Source/tasks.c **** #endif
 388:Middlewares/Third_Party/FreeRTOS/Source/tasks.c **** 
 389:Middlewares/Third_Party/FreeRTOS/Source/tasks.c **** #if ( INCLUDE_vTaskSuspend == 1 )
 390:Middlewares/Third_Party/FreeRTOS/Source/tasks.c **** 
 391:Middlewares/Third_Party/FreeRTOS/Source/tasks.c **** 	PRIVILEGED_DATA static List_t xSuspendedTaskList;					/*< Tasks that are currently suspended. */
 392:Middlewares/Third_Party/FreeRTOS/Source/tasks.c **** 
 393:Middlewares/Third_Party/FreeRTOS/Source/tasks.c **** #endif
 394:Middlewares/Third_Party/FreeRTOS/Source/tasks.c **** 
 395:Middlewares/Third_Party/FreeRTOS/Source/tasks.c **** /* Other file private variables. --------------------------------*/
 396:Middlewares/Third_Party/FreeRTOS/Source/tasks.c **** PRIVILEGED_INITIALIZED_DATA static volatile UBaseType_t uxCurrentNumberOfTasks 	= ( UBaseType_t ) 0
 397:Middlewares/Third_Party/FreeRTOS/Source/tasks.c **** PRIVILEGED_INITIALIZED_DATA static volatile TickType_t xTickCount 				= ( TickType_t ) 0U;
 398:Middlewares/Third_Party/FreeRTOS/Source/tasks.c **** PRIVILEGED_INITIALIZED_DATA static volatile UBaseType_t uxTopReadyPriority 		= tskIDLE_PRIORITY;
 399:Middlewares/Third_Party/FreeRTOS/Source/tasks.c **** PRIVILEGED_INITIALIZED_DATA static volatile BaseType_t xSchedulerRunning 		= pdFALSE;
 400:Middlewares/Third_Party/FreeRTOS/Source/tasks.c **** PRIVILEGED_INITIALIZED_DATA static volatile UBaseType_t uxPendedTicks 			= ( UBaseType_t ) 0U;
 401:Middlewares/Third_Party/FreeRTOS/Source/tasks.c **** PRIVILEGED_INITIALIZED_DATA static volatile BaseType_t xYieldPending 			= pdFALSE;
 402:Middlewares/Third_Party/FreeRTOS/Source/tasks.c **** PRIVILEGED_INITIALIZED_DATA static volatile BaseType_t xNumOfOverflows 			= ( BaseType_t ) 0;
 403:Middlewares/Third_Party/FreeRTOS/Source/tasks.c **** PRIVILEGED_INITIALIZED_DATA static UBaseType_t uxTaskNumber 					= ( UBaseType_t ) 0U;
 404:Middlewares/Third_Party/FreeRTOS/Source/tasks.c **** PRIVILEGED_INITIALIZED_DATA static volatile TickType_t xNextTaskUnblockTime		= ( TickType_t ) 0U; /
 405:Middlewares/Third_Party/FreeRTOS/Source/tasks.c **** PRIVILEGED_INITIALIZED_DATA static TaskHandle_t xIdleTaskHandle					= NULL;			/*< Holds the handle 
 406:Middlewares/Third_Party/FreeRTOS/Source/tasks.c **** 
 407:Middlewares/Third_Party/FreeRTOS/Source/tasks.c **** /* Context switches are held pending while the scheduler is suspended.  Also,
 408:Middlewares/Third_Party/FreeRTOS/Source/tasks.c **** interrupts must not manipulate the xStateListItem of a TCB, or any of the
 409:Middlewares/Third_Party/FreeRTOS/Source/tasks.c **** lists the xStateListItem can be referenced from, if the scheduler is suspended.
 410:Middlewares/Third_Party/FreeRTOS/Source/tasks.c **** If an interrupt needs to unblock a task while the scheduler is suspended then it
 411:Middlewares/Third_Party/FreeRTOS/Source/tasks.c **** moves the task's event list item into the xPendingReadyList, ready for the
 412:Middlewares/Third_Party/FreeRTOS/Source/tasks.c **** kernel to move the task from the pending ready list into the real ready list
 413:Middlewares/Third_Party/FreeRTOS/Source/tasks.c **** when the scheduler is unsuspended.  The pending ready list itself can only be
 414:Middlewares/Third_Party/FreeRTOS/Source/tasks.c **** accessed from a critical section. */
 415:Middlewares/Third_Party/FreeRTOS/Source/tasks.c **** PRIVILEGED_INITIALIZED_DATA static volatile UBaseType_t uxSchedulerSuspended	= ( UBaseType_t ) pdFA
 416:Middlewares/Third_Party/FreeRTOS/Source/tasks.c **** 
 417:Middlewares/Third_Party/FreeRTOS/Source/tasks.c **** #if ( configGENERATE_RUN_TIME_STATS == 1 )
 418:Middlewares/Third_Party/FreeRTOS/Source/tasks.c **** 
 419:Middlewares/Third_Party/FreeRTOS/Source/tasks.c **** 	PRIVILEGED_INITIALIZED_DATA static uint32_t ulTaskSwitchedInTime = 0UL;	/*< Holds the value of a t
 420:Middlewares/Third_Party/FreeRTOS/Source/tasks.c **** 	PRIVILEGED_INITIALIZED_DATA static uint32_t ulTotalRunTime = 0UL;		/*< Holds the total amount of e
 421:Middlewares/Third_Party/FreeRTOS/Source/tasks.c **** 
 422:Middlewares/Third_Party/FreeRTOS/Source/tasks.c **** #endif
 423:Middlewares/Third_Party/FreeRTOS/Source/tasks.c **** 
 424:Middlewares/Third_Party/FreeRTOS/Source/tasks.c **** /*lint +e956 */
 425:Middlewares/Third_Party/FreeRTOS/Source/tasks.c **** 
 426:Middlewares/Third_Party/FreeRTOS/Source/tasks.c **** /*-----------------------------------------------------------*/
 427:Middlewares/Third_Party/FreeRTOS/Source/tasks.c **** 
 428:Middlewares/Third_Party/FreeRTOS/Source/tasks.c **** /* Callback function prototypes. --------------------------*/
 429:Middlewares/Third_Party/FreeRTOS/Source/tasks.c **** #if(  configCHECK_FOR_STACK_OVERFLOW > 0 )
 430:Middlewares/Third_Party/FreeRTOS/Source/tasks.c **** 	extern void vApplicationStackOverflowHook( TaskHandle_t xTask, char *pcTaskName );
 431:Middlewares/Third_Party/FreeRTOS/Source/tasks.c **** #endif
 432:Middlewares/Third_Party/FreeRTOS/Source/tasks.c **** 
 433:Middlewares/Third_Party/FreeRTOS/Source/tasks.c **** #if( configUSE_TICK_HOOK > 0 )
 434:Middlewares/Third_Party/FreeRTOS/Source/tasks.c **** 	extern void vApplicationTickHook( void );
 435:Middlewares/Third_Party/FreeRTOS/Source/tasks.c **** #endif
ARM GAS  /tmp/ccDSLKwL.s 			page 11


 436:Middlewares/Third_Party/FreeRTOS/Source/tasks.c **** 
 437:Middlewares/Third_Party/FreeRTOS/Source/tasks.c **** #if( configSUPPORT_STATIC_ALLOCATION == 1 )
 438:Middlewares/Third_Party/FreeRTOS/Source/tasks.c **** 	extern void vApplicationGetIdleTaskMemory( StaticTask_t **ppxIdleTaskTCBBuffer, StackType_t **ppxI
 439:Middlewares/Third_Party/FreeRTOS/Source/tasks.c **** #endif
 440:Middlewares/Third_Party/FreeRTOS/Source/tasks.c **** 
 441:Middlewares/Third_Party/FreeRTOS/Source/tasks.c **** /* File private functions. --------------------------------*/
 442:Middlewares/Third_Party/FreeRTOS/Source/tasks.c **** 
 443:Middlewares/Third_Party/FreeRTOS/Source/tasks.c **** /**
 444:Middlewares/Third_Party/FreeRTOS/Source/tasks.c ****  * Utility task that simply returns pdTRUE if the task referenced by xTask is
 445:Middlewares/Third_Party/FreeRTOS/Source/tasks.c ****  * currently in the Suspended state, or pdFALSE if the task referenced by xTask
 446:Middlewares/Third_Party/FreeRTOS/Source/tasks.c ****  * is in any other state.
 447:Middlewares/Third_Party/FreeRTOS/Source/tasks.c ****  */
 448:Middlewares/Third_Party/FreeRTOS/Source/tasks.c **** #if ( INCLUDE_vTaskSuspend == 1 )
 449:Middlewares/Third_Party/FreeRTOS/Source/tasks.c **** 	PRIVILEGED_FUNCTION static BaseType_t prvTaskIsTaskSuspended( const TaskHandle_t xTask );
 450:Middlewares/Third_Party/FreeRTOS/Source/tasks.c **** #endif /* INCLUDE_vTaskSuspend */
 451:Middlewares/Third_Party/FreeRTOS/Source/tasks.c **** 
 452:Middlewares/Third_Party/FreeRTOS/Source/tasks.c **** /*
 453:Middlewares/Third_Party/FreeRTOS/Source/tasks.c ****  * Utility to ready all the lists used by the scheduler.  This is called
 454:Middlewares/Third_Party/FreeRTOS/Source/tasks.c ****  * automatically upon the creation of the first task.
 455:Middlewares/Third_Party/FreeRTOS/Source/tasks.c ****  */
 456:Middlewares/Third_Party/FreeRTOS/Source/tasks.c **** PRIVILEGED_FUNCTION static void prvInitialiseTaskLists( void );
 457:Middlewares/Third_Party/FreeRTOS/Source/tasks.c **** 
 458:Middlewares/Third_Party/FreeRTOS/Source/tasks.c **** /*
 459:Middlewares/Third_Party/FreeRTOS/Source/tasks.c ****  * The idle task, which as all tasks is implemented as a never ending loop.
 460:Middlewares/Third_Party/FreeRTOS/Source/tasks.c ****  * The idle task is automatically created and added to the ready lists upon
 461:Middlewares/Third_Party/FreeRTOS/Source/tasks.c ****  * creation of the first user task.
 462:Middlewares/Third_Party/FreeRTOS/Source/tasks.c ****  *
 463:Middlewares/Third_Party/FreeRTOS/Source/tasks.c ****  * The portTASK_FUNCTION_PROTO() macro is used to allow port/compiler specific
 464:Middlewares/Third_Party/FreeRTOS/Source/tasks.c ****  * language extensions.  The equivalent prototype for this function is:
 465:Middlewares/Third_Party/FreeRTOS/Source/tasks.c ****  *
 466:Middlewares/Third_Party/FreeRTOS/Source/tasks.c ****  * void prvIdleTask( void *pvParameters );
 467:Middlewares/Third_Party/FreeRTOS/Source/tasks.c ****  *
 468:Middlewares/Third_Party/FreeRTOS/Source/tasks.c ****  */
 469:Middlewares/Third_Party/FreeRTOS/Source/tasks.c **** static portTASK_FUNCTION_PROTO( prvIdleTask, pvParameters );
 470:Middlewares/Third_Party/FreeRTOS/Source/tasks.c **** 
 471:Middlewares/Third_Party/FreeRTOS/Source/tasks.c **** /*
 472:Middlewares/Third_Party/FreeRTOS/Source/tasks.c ****  * Utility to free all memory allocated by the scheduler to hold a TCB,
 473:Middlewares/Third_Party/FreeRTOS/Source/tasks.c ****  * including the stack pointed to by the TCB.
 474:Middlewares/Third_Party/FreeRTOS/Source/tasks.c ****  *
 475:Middlewares/Third_Party/FreeRTOS/Source/tasks.c ****  * This does not free memory allocated by the task itself (i.e. memory
 476:Middlewares/Third_Party/FreeRTOS/Source/tasks.c ****  * allocated by calls to pvPortMalloc from within the tasks application code).
 477:Middlewares/Third_Party/FreeRTOS/Source/tasks.c ****  */
 478:Middlewares/Third_Party/FreeRTOS/Source/tasks.c **** #if ( INCLUDE_vTaskDelete == 1 )
 479:Middlewares/Third_Party/FreeRTOS/Source/tasks.c **** 
 480:Middlewares/Third_Party/FreeRTOS/Source/tasks.c **** 	PRIVILEGED_FUNCTION static void prvDeleteTCB( TCB_t *pxTCB );
 481:Middlewares/Third_Party/FreeRTOS/Source/tasks.c **** 
 482:Middlewares/Third_Party/FreeRTOS/Source/tasks.c **** #endif
 483:Middlewares/Third_Party/FreeRTOS/Source/tasks.c **** 
 484:Middlewares/Third_Party/FreeRTOS/Source/tasks.c **** /*
 485:Middlewares/Third_Party/FreeRTOS/Source/tasks.c ****  * Used only by the idle task.  This checks to see if anything has been placed
 486:Middlewares/Third_Party/FreeRTOS/Source/tasks.c ****  * in the list of tasks waiting to be deleted.  If so the task is cleaned up
 487:Middlewares/Third_Party/FreeRTOS/Source/tasks.c ****  * and its TCB deleted.
 488:Middlewares/Third_Party/FreeRTOS/Source/tasks.c ****  */
 489:Middlewares/Third_Party/FreeRTOS/Source/tasks.c **** PRIVILEGED_FUNCTION static void prvCheckTasksWaitingTermination( void );
 490:Middlewares/Third_Party/FreeRTOS/Source/tasks.c **** 
 491:Middlewares/Third_Party/FreeRTOS/Source/tasks.c **** /*
 492:Middlewares/Third_Party/FreeRTOS/Source/tasks.c ****  * The currently executing task is entering the Blocked state.  Add the task to
ARM GAS  /tmp/ccDSLKwL.s 			page 12


 493:Middlewares/Third_Party/FreeRTOS/Source/tasks.c ****  * either the current or the overflow delayed task list.
 494:Middlewares/Third_Party/FreeRTOS/Source/tasks.c ****  */
 495:Middlewares/Third_Party/FreeRTOS/Source/tasks.c **** PRIVILEGED_FUNCTION static void prvAddCurrentTaskToDelayedList( TickType_t xTicksToWait, const Base
 496:Middlewares/Third_Party/FreeRTOS/Source/tasks.c **** 
 497:Middlewares/Third_Party/FreeRTOS/Source/tasks.c **** /*
 498:Middlewares/Third_Party/FreeRTOS/Source/tasks.c ****  * Fills an TaskStatus_t structure with information on each task that is
 499:Middlewares/Third_Party/FreeRTOS/Source/tasks.c ****  * referenced from the pxList list (which may be a ready list, a delayed list,
 500:Middlewares/Third_Party/FreeRTOS/Source/tasks.c ****  * a suspended list, etc.).
 501:Middlewares/Third_Party/FreeRTOS/Source/tasks.c ****  *
 502:Middlewares/Third_Party/FreeRTOS/Source/tasks.c ****  * THIS FUNCTION IS INTENDED FOR DEBUGGING ONLY, AND SHOULD NOT BE CALLED FROM
 503:Middlewares/Third_Party/FreeRTOS/Source/tasks.c ****  * NORMAL APPLICATION CODE.
 504:Middlewares/Third_Party/FreeRTOS/Source/tasks.c ****  */
 505:Middlewares/Third_Party/FreeRTOS/Source/tasks.c **** #if ( configUSE_TRACE_FACILITY == 1 )
 506:Middlewares/Third_Party/FreeRTOS/Source/tasks.c **** 
 507:Middlewares/Third_Party/FreeRTOS/Source/tasks.c **** 	PRIVILEGED_FUNCTION static UBaseType_t prvListTasksWithinSingleList( TaskStatus_t *pxTaskStatusArr
 508:Middlewares/Third_Party/FreeRTOS/Source/tasks.c **** 
 509:Middlewares/Third_Party/FreeRTOS/Source/tasks.c **** #endif
 510:Middlewares/Third_Party/FreeRTOS/Source/tasks.c **** 
 511:Middlewares/Third_Party/FreeRTOS/Source/tasks.c **** /*
 512:Middlewares/Third_Party/FreeRTOS/Source/tasks.c ****  * Searches pxList for a task with name pcNameToQuery - returning a handle to
 513:Middlewares/Third_Party/FreeRTOS/Source/tasks.c ****  * the task if it is found, or NULL if the task is not found.
 514:Middlewares/Third_Party/FreeRTOS/Source/tasks.c ****  */
 515:Middlewares/Third_Party/FreeRTOS/Source/tasks.c **** #if ( INCLUDE_xTaskGetHandle == 1 )
 516:Middlewares/Third_Party/FreeRTOS/Source/tasks.c **** 
 517:Middlewares/Third_Party/FreeRTOS/Source/tasks.c **** 	PRIVILEGED_FUNCTION static TCB_t *prvSearchForNameWithinSingleList( List_t *pxList, const char pcN
 518:Middlewares/Third_Party/FreeRTOS/Source/tasks.c **** 
 519:Middlewares/Third_Party/FreeRTOS/Source/tasks.c **** #endif
 520:Middlewares/Third_Party/FreeRTOS/Source/tasks.c **** 
 521:Middlewares/Third_Party/FreeRTOS/Source/tasks.c **** /*
 522:Middlewares/Third_Party/FreeRTOS/Source/tasks.c ****  * When a task is created, the stack of the task is filled with a known value.
 523:Middlewares/Third_Party/FreeRTOS/Source/tasks.c ****  * This function determines the 'high water mark' of the task stack by
 524:Middlewares/Third_Party/FreeRTOS/Source/tasks.c ****  * determining how much of the stack remains at the original preset value.
 525:Middlewares/Third_Party/FreeRTOS/Source/tasks.c ****  */
 526:Middlewares/Third_Party/FreeRTOS/Source/tasks.c **** #if ( ( configUSE_TRACE_FACILITY == 1 ) || ( INCLUDE_uxTaskGetStackHighWaterMark == 1 ) )
 527:Middlewares/Third_Party/FreeRTOS/Source/tasks.c **** 
 528:Middlewares/Third_Party/FreeRTOS/Source/tasks.c **** 	PRIVILEGED_FUNCTION static uint16_t prvTaskCheckFreeStackSpace( const uint8_t * pucStackByte );
 529:Middlewares/Third_Party/FreeRTOS/Source/tasks.c **** 
 530:Middlewares/Third_Party/FreeRTOS/Source/tasks.c **** #endif
 531:Middlewares/Third_Party/FreeRTOS/Source/tasks.c **** 
 532:Middlewares/Third_Party/FreeRTOS/Source/tasks.c **** /*
 533:Middlewares/Third_Party/FreeRTOS/Source/tasks.c ****  * Return the amount of time, in ticks, that will pass before the kernel will
 534:Middlewares/Third_Party/FreeRTOS/Source/tasks.c ****  * next move a task from the Blocked state to the Running state.
 535:Middlewares/Third_Party/FreeRTOS/Source/tasks.c ****  *
 536:Middlewares/Third_Party/FreeRTOS/Source/tasks.c ****  * This conditional compilation should use inequality to 0, not equality to 1.
 537:Middlewares/Third_Party/FreeRTOS/Source/tasks.c ****  * This is to ensure portSUPPRESS_TICKS_AND_SLEEP() can be called when user
 538:Middlewares/Third_Party/FreeRTOS/Source/tasks.c ****  * defined low power mode implementations require configUSE_TICKLESS_IDLE to be
 539:Middlewares/Third_Party/FreeRTOS/Source/tasks.c ****  * set to a value other than 1.
 540:Middlewares/Third_Party/FreeRTOS/Source/tasks.c ****  */
 541:Middlewares/Third_Party/FreeRTOS/Source/tasks.c **** #if ( configUSE_TICKLESS_IDLE != 0 )
 542:Middlewares/Third_Party/FreeRTOS/Source/tasks.c **** 
 543:Middlewares/Third_Party/FreeRTOS/Source/tasks.c **** 	PRIVILEGED_FUNCTION static TickType_t prvGetExpectedIdleTime( void );
 544:Middlewares/Third_Party/FreeRTOS/Source/tasks.c **** 
 545:Middlewares/Third_Party/FreeRTOS/Source/tasks.c **** #endif
 546:Middlewares/Third_Party/FreeRTOS/Source/tasks.c **** 
 547:Middlewares/Third_Party/FreeRTOS/Source/tasks.c **** /*
 548:Middlewares/Third_Party/FreeRTOS/Source/tasks.c ****  * Set xNextTaskUnblockTime to the time at which the next Blocked state task
 549:Middlewares/Third_Party/FreeRTOS/Source/tasks.c ****  * will exit the Blocked state.
ARM GAS  /tmp/ccDSLKwL.s 			page 13


 550:Middlewares/Third_Party/FreeRTOS/Source/tasks.c ****  */
 551:Middlewares/Third_Party/FreeRTOS/Source/tasks.c **** static void prvResetNextTaskUnblockTime( void );
 552:Middlewares/Third_Party/FreeRTOS/Source/tasks.c **** 
 553:Middlewares/Third_Party/FreeRTOS/Source/tasks.c **** #if ( ( configUSE_TRACE_FACILITY == 1 ) && ( configUSE_STATS_FORMATTING_FUNCTIONS > 0 ) )
 554:Middlewares/Third_Party/FreeRTOS/Source/tasks.c **** 
 555:Middlewares/Third_Party/FreeRTOS/Source/tasks.c **** 	/*
 556:Middlewares/Third_Party/FreeRTOS/Source/tasks.c **** 	 * Helper function used to pad task names with spaces when printing out
 557:Middlewares/Third_Party/FreeRTOS/Source/tasks.c **** 	 * human readable tables of task information.
 558:Middlewares/Third_Party/FreeRTOS/Source/tasks.c **** 	 */
 559:Middlewares/Third_Party/FreeRTOS/Source/tasks.c **** 	PRIVILEGED_FUNCTION static char *prvWriteNameToBuffer( char *pcBuffer, const char *pcTaskName );
 560:Middlewares/Third_Party/FreeRTOS/Source/tasks.c **** 
 561:Middlewares/Third_Party/FreeRTOS/Source/tasks.c **** #endif
 562:Middlewares/Third_Party/FreeRTOS/Source/tasks.c **** 
 563:Middlewares/Third_Party/FreeRTOS/Source/tasks.c **** /*
 564:Middlewares/Third_Party/FreeRTOS/Source/tasks.c ****  * Called after a Task_t structure has been allocated either statically or
 565:Middlewares/Third_Party/FreeRTOS/Source/tasks.c ****  * dynamically to fill in the structure's members.
 566:Middlewares/Third_Party/FreeRTOS/Source/tasks.c ****  */
 567:Middlewares/Third_Party/FreeRTOS/Source/tasks.c **** PRIVILEGED_FUNCTION static void prvInitialiseNewTask( 	TaskFunction_t pxTaskCode,
 568:Middlewares/Third_Party/FreeRTOS/Source/tasks.c **** 									const char * const pcName,
 569:Middlewares/Third_Party/FreeRTOS/Source/tasks.c **** 									const uint32_t ulStackDepth,
 570:Middlewares/Third_Party/FreeRTOS/Source/tasks.c **** 									void * const pvParameters,
 571:Middlewares/Third_Party/FreeRTOS/Source/tasks.c **** 									UBaseType_t uxPriority,
 572:Middlewares/Third_Party/FreeRTOS/Source/tasks.c **** 									TaskHandle_t * const pxCreatedTask,
 573:Middlewares/Third_Party/FreeRTOS/Source/tasks.c **** 									TCB_t *pxNewTCB,
 574:Middlewares/Third_Party/FreeRTOS/Source/tasks.c **** 									const MemoryRegion_t * const xRegions ); /*lint !e971 Unqualified char types are allowed f
 575:Middlewares/Third_Party/FreeRTOS/Source/tasks.c **** 
 576:Middlewares/Third_Party/FreeRTOS/Source/tasks.c **** /*
 577:Middlewares/Third_Party/FreeRTOS/Source/tasks.c ****  * Called after a new task has been created and initialised to place the task
 578:Middlewares/Third_Party/FreeRTOS/Source/tasks.c ****  * under the control of the scheduler.
 579:Middlewares/Third_Party/FreeRTOS/Source/tasks.c ****  */
 580:Middlewares/Third_Party/FreeRTOS/Source/tasks.c **** PRIVILEGED_FUNCTION static void prvAddNewTaskToReadyList( TCB_t *pxNewTCB );
 581:Middlewares/Third_Party/FreeRTOS/Source/tasks.c **** 
 582:Middlewares/Third_Party/FreeRTOS/Source/tasks.c **** /*-----------------------------------------------------------*/
 583:Middlewares/Third_Party/FreeRTOS/Source/tasks.c **** 
 584:Middlewares/Third_Party/FreeRTOS/Source/tasks.c **** #if( configSUPPORT_STATIC_ALLOCATION == 1 )
 585:Middlewares/Third_Party/FreeRTOS/Source/tasks.c **** 
 586:Middlewares/Third_Party/FreeRTOS/Source/tasks.c **** 	TaskHandle_t xTaskCreateStatic(	TaskFunction_t pxTaskCode,
 587:Middlewares/Third_Party/FreeRTOS/Source/tasks.c **** 									const char * const pcName,
 588:Middlewares/Third_Party/FreeRTOS/Source/tasks.c **** 									const uint32_t ulStackDepth,
 589:Middlewares/Third_Party/FreeRTOS/Source/tasks.c **** 									void * const pvParameters,
 590:Middlewares/Third_Party/FreeRTOS/Source/tasks.c **** 									UBaseType_t uxPriority,
 591:Middlewares/Third_Party/FreeRTOS/Source/tasks.c **** 									StackType_t * const puxStackBuffer,
 592:Middlewares/Third_Party/FreeRTOS/Source/tasks.c **** 									StaticTask_t * const pxTaskBuffer ) /*lint !e971 Unqualified char types are allowed for st
 593:Middlewares/Third_Party/FreeRTOS/Source/tasks.c **** 	{
 594:Middlewares/Third_Party/FreeRTOS/Source/tasks.c **** 	TCB_t *pxNewTCB;
 595:Middlewares/Third_Party/FreeRTOS/Source/tasks.c **** 	TaskHandle_t xReturn;
 596:Middlewares/Third_Party/FreeRTOS/Source/tasks.c **** 
 597:Middlewares/Third_Party/FreeRTOS/Source/tasks.c **** 		configASSERT( puxStackBuffer != NULL );
 598:Middlewares/Third_Party/FreeRTOS/Source/tasks.c **** 		configASSERT( pxTaskBuffer != NULL );
 599:Middlewares/Third_Party/FreeRTOS/Source/tasks.c **** 
 600:Middlewares/Third_Party/FreeRTOS/Source/tasks.c **** 		if( ( pxTaskBuffer != NULL ) && ( puxStackBuffer != NULL ) )
 601:Middlewares/Third_Party/FreeRTOS/Source/tasks.c **** 		{
 602:Middlewares/Third_Party/FreeRTOS/Source/tasks.c **** 			/* The memory used for the task's TCB and stack are passed into this
 603:Middlewares/Third_Party/FreeRTOS/Source/tasks.c **** 			function - use them. */
 604:Middlewares/Third_Party/FreeRTOS/Source/tasks.c **** 			pxNewTCB = ( TCB_t * ) pxTaskBuffer; /*lint !e740 Unusual cast is ok as the structures are desig
 605:Middlewares/Third_Party/FreeRTOS/Source/tasks.c **** 			pxNewTCB->pxStack = ( StackType_t * ) puxStackBuffer;
 606:Middlewares/Third_Party/FreeRTOS/Source/tasks.c **** 
ARM GAS  /tmp/ccDSLKwL.s 			page 14


 607:Middlewares/Third_Party/FreeRTOS/Source/tasks.c **** 			#if( tskSTATIC_AND_DYNAMIC_ALLOCATION_POSSIBLE != 0 )
 608:Middlewares/Third_Party/FreeRTOS/Source/tasks.c **** 			{
 609:Middlewares/Third_Party/FreeRTOS/Source/tasks.c **** 				/* Tasks can be created statically or dynamically, so note this
 610:Middlewares/Third_Party/FreeRTOS/Source/tasks.c **** 				task was created statically in case the task is later deleted. */
 611:Middlewares/Third_Party/FreeRTOS/Source/tasks.c **** 				pxNewTCB->ucStaticallyAllocated = tskSTATICALLY_ALLOCATED_STACK_AND_TCB;
 612:Middlewares/Third_Party/FreeRTOS/Source/tasks.c **** 			}
 613:Middlewares/Third_Party/FreeRTOS/Source/tasks.c **** 			#endif /* configSUPPORT_DYNAMIC_ALLOCATION */
 614:Middlewares/Third_Party/FreeRTOS/Source/tasks.c **** 
 615:Middlewares/Third_Party/FreeRTOS/Source/tasks.c **** 			prvInitialiseNewTask( pxTaskCode, pcName, ulStackDepth, pvParameters, uxPriority, &xReturn, pxNe
 616:Middlewares/Third_Party/FreeRTOS/Source/tasks.c **** 			prvAddNewTaskToReadyList( pxNewTCB );
 617:Middlewares/Third_Party/FreeRTOS/Source/tasks.c **** 		}
 618:Middlewares/Third_Party/FreeRTOS/Source/tasks.c **** 		else
 619:Middlewares/Third_Party/FreeRTOS/Source/tasks.c **** 		{
 620:Middlewares/Third_Party/FreeRTOS/Source/tasks.c **** 			xReturn = NULL;
 621:Middlewares/Third_Party/FreeRTOS/Source/tasks.c **** 		}
 622:Middlewares/Third_Party/FreeRTOS/Source/tasks.c **** 
 623:Middlewares/Third_Party/FreeRTOS/Source/tasks.c **** 		return xReturn;
 624:Middlewares/Third_Party/FreeRTOS/Source/tasks.c **** 	}
 625:Middlewares/Third_Party/FreeRTOS/Source/tasks.c **** 
 626:Middlewares/Third_Party/FreeRTOS/Source/tasks.c **** #endif /* SUPPORT_STATIC_ALLOCATION */
 627:Middlewares/Third_Party/FreeRTOS/Source/tasks.c **** /*-----------------------------------------------------------*/
 628:Middlewares/Third_Party/FreeRTOS/Source/tasks.c **** 
 629:Middlewares/Third_Party/FreeRTOS/Source/tasks.c **** #if( portUSING_MPU_WRAPPERS == 1 )
 630:Middlewares/Third_Party/FreeRTOS/Source/tasks.c **** 
 631:Middlewares/Third_Party/FreeRTOS/Source/tasks.c **** 	BaseType_t xTaskCreateRestricted( const TaskParameters_t * const pxTaskDefinition, TaskHandle_t *p
 632:Middlewares/Third_Party/FreeRTOS/Source/tasks.c **** 	{
 633:Middlewares/Third_Party/FreeRTOS/Source/tasks.c **** 	TCB_t *pxNewTCB;
 634:Middlewares/Third_Party/FreeRTOS/Source/tasks.c **** 	BaseType_t xReturn = errCOULD_NOT_ALLOCATE_REQUIRED_MEMORY;
 635:Middlewares/Third_Party/FreeRTOS/Source/tasks.c **** 
 636:Middlewares/Third_Party/FreeRTOS/Source/tasks.c **** 		configASSERT( pxTaskDefinition->puxStackBuffer );
 637:Middlewares/Third_Party/FreeRTOS/Source/tasks.c **** 
 638:Middlewares/Third_Party/FreeRTOS/Source/tasks.c **** 		if( pxTaskDefinition->puxStackBuffer != NULL )
 639:Middlewares/Third_Party/FreeRTOS/Source/tasks.c **** 		{
 640:Middlewares/Third_Party/FreeRTOS/Source/tasks.c **** 			/* Allocate space for the TCB.  Where the memory comes from depends
 641:Middlewares/Third_Party/FreeRTOS/Source/tasks.c **** 			on the implementation of the port malloc function and whether or
 642:Middlewares/Third_Party/FreeRTOS/Source/tasks.c **** 			not static allocation is being used. */
 643:Middlewares/Third_Party/FreeRTOS/Source/tasks.c **** 			pxNewTCB = ( TCB_t * ) pvPortMalloc( sizeof( TCB_t ) );
 644:Middlewares/Third_Party/FreeRTOS/Source/tasks.c **** 
 645:Middlewares/Third_Party/FreeRTOS/Source/tasks.c **** 			if( pxNewTCB != NULL )
 646:Middlewares/Third_Party/FreeRTOS/Source/tasks.c **** 			{
 647:Middlewares/Third_Party/FreeRTOS/Source/tasks.c **** 				/* Store the stack location in the TCB. */
 648:Middlewares/Third_Party/FreeRTOS/Source/tasks.c **** 				pxNewTCB->pxStack = pxTaskDefinition->puxStackBuffer;
 649:Middlewares/Third_Party/FreeRTOS/Source/tasks.c **** 
 650:Middlewares/Third_Party/FreeRTOS/Source/tasks.c **** 				/* Tasks can be created statically or dynamically, so note
 651:Middlewares/Third_Party/FreeRTOS/Source/tasks.c **** 				this task had a statically allocated stack in case it is
 652:Middlewares/Third_Party/FreeRTOS/Source/tasks.c **** 				later deleted.  The TCB was allocated dynamically. */
 653:Middlewares/Third_Party/FreeRTOS/Source/tasks.c **** 				pxNewTCB->ucStaticallyAllocated = tskSTATICALLY_ALLOCATED_STACK_ONLY;
 654:Middlewares/Third_Party/FreeRTOS/Source/tasks.c **** 
 655:Middlewares/Third_Party/FreeRTOS/Source/tasks.c **** 				prvInitialiseNewTask(	pxTaskDefinition->pvTaskCode,
 656:Middlewares/Third_Party/FreeRTOS/Source/tasks.c **** 										pxTaskDefinition->pcName,
 657:Middlewares/Third_Party/FreeRTOS/Source/tasks.c **** 										( uint32_t ) pxTaskDefinition->usStackDepth,
 658:Middlewares/Third_Party/FreeRTOS/Source/tasks.c **** 										pxTaskDefinition->pvParameters,
 659:Middlewares/Third_Party/FreeRTOS/Source/tasks.c **** 										pxTaskDefinition->uxPriority,
 660:Middlewares/Third_Party/FreeRTOS/Source/tasks.c **** 										pxCreatedTask, pxNewTCB,
 661:Middlewares/Third_Party/FreeRTOS/Source/tasks.c **** 										pxTaskDefinition->xRegions );
 662:Middlewares/Third_Party/FreeRTOS/Source/tasks.c **** 
 663:Middlewares/Third_Party/FreeRTOS/Source/tasks.c **** 				prvAddNewTaskToReadyList( pxNewTCB );
ARM GAS  /tmp/ccDSLKwL.s 			page 15


 664:Middlewares/Third_Party/FreeRTOS/Source/tasks.c **** 				xReturn = pdPASS;
 665:Middlewares/Third_Party/FreeRTOS/Source/tasks.c **** 			}
 666:Middlewares/Third_Party/FreeRTOS/Source/tasks.c **** 		}
 667:Middlewares/Third_Party/FreeRTOS/Source/tasks.c **** 
 668:Middlewares/Third_Party/FreeRTOS/Source/tasks.c **** 		return xReturn;
 669:Middlewares/Third_Party/FreeRTOS/Source/tasks.c **** 	}
 670:Middlewares/Third_Party/FreeRTOS/Source/tasks.c **** 
 671:Middlewares/Third_Party/FreeRTOS/Source/tasks.c **** #endif /* portUSING_MPU_WRAPPERS */
 672:Middlewares/Third_Party/FreeRTOS/Source/tasks.c **** /*-----------------------------------------------------------*/
 673:Middlewares/Third_Party/FreeRTOS/Source/tasks.c **** 
 674:Middlewares/Third_Party/FreeRTOS/Source/tasks.c **** #if( configSUPPORT_DYNAMIC_ALLOCATION == 1 )
 675:Middlewares/Third_Party/FreeRTOS/Source/tasks.c **** 
 676:Middlewares/Third_Party/FreeRTOS/Source/tasks.c **** 	BaseType_t xTaskCreate(	TaskFunction_t pxTaskCode,
 677:Middlewares/Third_Party/FreeRTOS/Source/tasks.c **** 							const char * const pcName,
 678:Middlewares/Third_Party/FreeRTOS/Source/tasks.c **** 							const uint16_t usStackDepth,
 679:Middlewares/Third_Party/FreeRTOS/Source/tasks.c **** 							void * const pvParameters,
 680:Middlewares/Third_Party/FreeRTOS/Source/tasks.c **** 							UBaseType_t uxPriority,
 681:Middlewares/Third_Party/FreeRTOS/Source/tasks.c **** 							TaskHandle_t * const pxCreatedTask ) /*lint !e971 Unqualified char types are allowed for str
 682:Middlewares/Third_Party/FreeRTOS/Source/tasks.c **** 	{
 155              		.loc 1 682 0
 156              		.cfi_startproc
 157              		@ args = 8, pretend = 0, frame = 32
 158              		@ frame_needed = 1, uses_anonymous_args = 0
 159 0000 80B5     		push	{r7, lr}
 160              	.LCFI0:
 161              		.cfi_def_cfa_offset 8
 162              		.cfi_offset 7, -8
 163              		.cfi_offset 14, -4
 164 0002 8CB0     		sub	sp, sp, #48
 165              	.LCFI1:
 166              		.cfi_def_cfa_offset 56
 167 0004 04AF     		add	r7, sp, #16
 168              	.LCFI2:
 169              		.cfi_def_cfa 7, 40
 170 0006 F860     		str	r0, [r7, #12]
 171 0008 B960     		str	r1, [r7, #8]
 172 000a 3B60     		str	r3, [r7]
 173 000c 1346     		mov	r3, r2	@ movhi
 174 000e FB80     		strh	r3, [r7, #6]	@ movhi
 175              	.LBB97:
 683:Middlewares/Third_Party/FreeRTOS/Source/tasks.c **** 	TCB_t *pxNewTCB;
 684:Middlewares/Third_Party/FreeRTOS/Source/tasks.c **** 	BaseType_t xReturn;
 685:Middlewares/Third_Party/FreeRTOS/Source/tasks.c **** 
 686:Middlewares/Third_Party/FreeRTOS/Source/tasks.c **** 		/* If the stack grows down then allocate the stack then the TCB so the stack
 687:Middlewares/Third_Party/FreeRTOS/Source/tasks.c **** 		does not grow into the TCB.  Likewise if the stack grows up then allocate
 688:Middlewares/Third_Party/FreeRTOS/Source/tasks.c **** 		the TCB then the stack. */
 689:Middlewares/Third_Party/FreeRTOS/Source/tasks.c **** 		#if( portSTACK_GROWTH > 0 )
 690:Middlewares/Third_Party/FreeRTOS/Source/tasks.c **** 		{
 691:Middlewares/Third_Party/FreeRTOS/Source/tasks.c **** 			/* Allocate space for the TCB.  Where the memory comes from depends on
 692:Middlewares/Third_Party/FreeRTOS/Source/tasks.c **** 			the implementation of the port malloc function and whether or not static
 693:Middlewares/Third_Party/FreeRTOS/Source/tasks.c **** 			allocation is being used. */
 694:Middlewares/Third_Party/FreeRTOS/Source/tasks.c **** 			pxNewTCB = ( TCB_t * ) pvPortMalloc( sizeof( TCB_t ) );
 695:Middlewares/Third_Party/FreeRTOS/Source/tasks.c **** 
 696:Middlewares/Third_Party/FreeRTOS/Source/tasks.c **** 			if( pxNewTCB != NULL )
 697:Middlewares/Third_Party/FreeRTOS/Source/tasks.c **** 			{
 698:Middlewares/Third_Party/FreeRTOS/Source/tasks.c **** 				/* Allocate space for the stack used by the task being created.
 699:Middlewares/Third_Party/FreeRTOS/Source/tasks.c **** 				The base of the stack memory stored in the TCB so the task can
ARM GAS  /tmp/ccDSLKwL.s 			page 16


 700:Middlewares/Third_Party/FreeRTOS/Source/tasks.c **** 				be deleted later if required. */
 701:Middlewares/Third_Party/FreeRTOS/Source/tasks.c **** 				pxNewTCB->pxStack = ( StackType_t * ) pvPortMalloc( ( ( ( size_t ) usStackDepth ) * sizeof( Sta
 702:Middlewares/Third_Party/FreeRTOS/Source/tasks.c **** 
 703:Middlewares/Third_Party/FreeRTOS/Source/tasks.c **** 				if( pxNewTCB->pxStack == NULL )
 704:Middlewares/Third_Party/FreeRTOS/Source/tasks.c **** 				{
 705:Middlewares/Third_Party/FreeRTOS/Source/tasks.c **** 					/* Could not allocate the stack.  Delete the allocated TCB. */
 706:Middlewares/Third_Party/FreeRTOS/Source/tasks.c **** 					vPortFree( pxNewTCB );
 707:Middlewares/Third_Party/FreeRTOS/Source/tasks.c **** 					pxNewTCB = NULL;
 708:Middlewares/Third_Party/FreeRTOS/Source/tasks.c **** 				}
 709:Middlewares/Third_Party/FreeRTOS/Source/tasks.c **** 			}
 710:Middlewares/Third_Party/FreeRTOS/Source/tasks.c **** 		}
 711:Middlewares/Third_Party/FreeRTOS/Source/tasks.c **** 		#else /* portSTACK_GROWTH */
 712:Middlewares/Third_Party/FreeRTOS/Source/tasks.c **** 		{
 713:Middlewares/Third_Party/FreeRTOS/Source/tasks.c **** 		StackType_t *pxStack;
 714:Middlewares/Third_Party/FreeRTOS/Source/tasks.c **** 
 715:Middlewares/Third_Party/FreeRTOS/Source/tasks.c **** 			/* Allocate space for the stack used by the task being created. */
 716:Middlewares/Third_Party/FreeRTOS/Source/tasks.c **** 			pxStack = ( StackType_t * ) pvPortMalloc( ( ( ( size_t ) usStackDepth ) * sizeof( StackType_t ) 
 176              		.loc 1 716 0
 177 0010 FB88     		ldrh	r3, [r7, #6]
 178 0012 9B00     		lsls	r3, r3, #2
 179 0014 1846     		mov	r0, r3
 180 0016 FFF7FEFF 		bl	pvPortMalloc
 181 001a 7861     		str	r0, [r7, #20]
 717:Middlewares/Third_Party/FreeRTOS/Source/tasks.c **** 
 718:Middlewares/Third_Party/FreeRTOS/Source/tasks.c **** 			if( pxStack != NULL )
 182              		.loc 1 718 0
 183 001c 7B69     		ldr	r3, [r7, #20]
 184 001e 002B     		cmp	r3, #0
 185 0020 0ED0     		beq	.L2
 719:Middlewares/Third_Party/FreeRTOS/Source/tasks.c **** 			{
 720:Middlewares/Third_Party/FreeRTOS/Source/tasks.c **** 				/* Allocate space for the TCB. */
 721:Middlewares/Third_Party/FreeRTOS/Source/tasks.c **** 				pxNewTCB = ( TCB_t * ) pvPortMalloc( sizeof( TCB_t ) ); /*lint !e961 MISRA exception as the cas
 186              		.loc 1 721 0
 187 0022 5420     		movs	r0, #84
 188 0024 FFF7FEFF 		bl	pvPortMalloc
 189 0028 F861     		str	r0, [r7, #28]
 722:Middlewares/Third_Party/FreeRTOS/Source/tasks.c **** 
 723:Middlewares/Third_Party/FreeRTOS/Source/tasks.c **** 				if( pxNewTCB != NULL )
 190              		.loc 1 723 0
 191 002a FB69     		ldr	r3, [r7, #28]
 192 002c 002B     		cmp	r3, #0
 193 002e 03D0     		beq	.L3
 724:Middlewares/Third_Party/FreeRTOS/Source/tasks.c **** 				{
 725:Middlewares/Third_Party/FreeRTOS/Source/tasks.c **** 					/* Store the stack location in the TCB. */
 726:Middlewares/Third_Party/FreeRTOS/Source/tasks.c **** 					pxNewTCB->pxStack = pxStack;
 194              		.loc 1 726 0
 195 0030 FB69     		ldr	r3, [r7, #28]
 196 0032 7A69     		ldr	r2, [r7, #20]
 197 0034 1A63     		str	r2, [r3, #48]
 198 0036 05E0     		b	.L5
 199              	.L3:
 727:Middlewares/Third_Party/FreeRTOS/Source/tasks.c **** 				}
 728:Middlewares/Third_Party/FreeRTOS/Source/tasks.c **** 				else
 729:Middlewares/Third_Party/FreeRTOS/Source/tasks.c **** 				{
 730:Middlewares/Third_Party/FreeRTOS/Source/tasks.c **** 					/* The stack cannot be used as the TCB was not created.  Free
 731:Middlewares/Third_Party/FreeRTOS/Source/tasks.c **** 					it again. */
 732:Middlewares/Third_Party/FreeRTOS/Source/tasks.c **** 					vPortFree( pxStack );
ARM GAS  /tmp/ccDSLKwL.s 			page 17


 200              		.loc 1 732 0
 201 0038 7869     		ldr	r0, [r7, #20]
 202 003a FFF7FEFF 		bl	vPortFree
 203 003e 01E0     		b	.L5
 204              	.L2:
 733:Middlewares/Third_Party/FreeRTOS/Source/tasks.c **** 				}
 734:Middlewares/Third_Party/FreeRTOS/Source/tasks.c **** 			}
 735:Middlewares/Third_Party/FreeRTOS/Source/tasks.c **** 			else
 736:Middlewares/Third_Party/FreeRTOS/Source/tasks.c **** 			{
 737:Middlewares/Third_Party/FreeRTOS/Source/tasks.c **** 				pxNewTCB = NULL;
 205              		.loc 1 737 0
 206 0040 0023     		movs	r3, #0
 207 0042 FB61     		str	r3, [r7, #28]
 208              	.L5:
 209              	.LBE97:
 738:Middlewares/Third_Party/FreeRTOS/Source/tasks.c **** 			}
 739:Middlewares/Third_Party/FreeRTOS/Source/tasks.c **** 		}
 740:Middlewares/Third_Party/FreeRTOS/Source/tasks.c **** 		#endif /* portSTACK_GROWTH */
 741:Middlewares/Third_Party/FreeRTOS/Source/tasks.c **** 
 742:Middlewares/Third_Party/FreeRTOS/Source/tasks.c **** 		if( pxNewTCB != NULL )
 210              		.loc 1 742 0
 211 0044 FB69     		ldr	r3, [r7, #28]
 212 0046 002B     		cmp	r3, #0
 213 0048 13D0     		beq	.L6
 743:Middlewares/Third_Party/FreeRTOS/Source/tasks.c **** 		{
 744:Middlewares/Third_Party/FreeRTOS/Source/tasks.c **** 			#if( tskSTATIC_AND_DYNAMIC_ALLOCATION_POSSIBLE != 0 )
 745:Middlewares/Third_Party/FreeRTOS/Source/tasks.c **** 			{
 746:Middlewares/Third_Party/FreeRTOS/Source/tasks.c **** 				/* Tasks can be created statically or dynamically, so note this
 747:Middlewares/Third_Party/FreeRTOS/Source/tasks.c **** 				task was created dynamically in case it is later deleted. */
 748:Middlewares/Third_Party/FreeRTOS/Source/tasks.c **** 				pxNewTCB->ucStaticallyAllocated = tskDYNAMICALLY_ALLOCATED_STACK_AND_TCB;
 749:Middlewares/Third_Party/FreeRTOS/Source/tasks.c **** 			}
 750:Middlewares/Third_Party/FreeRTOS/Source/tasks.c **** 			#endif /* configSUPPORT_STATIC_ALLOCATION */
 751:Middlewares/Third_Party/FreeRTOS/Source/tasks.c **** 
 752:Middlewares/Third_Party/FreeRTOS/Source/tasks.c **** 			prvInitialiseNewTask( pxTaskCode, pcName, ( uint32_t ) usStackDepth, pvParameters, uxPriority, p
 214              		.loc 1 752 0
 215 004a FA88     		ldrh	r2, [r7, #6]
 216 004c 0023     		movs	r3, #0
 217 004e 0393     		str	r3, [sp, #12]
 218 0050 FB69     		ldr	r3, [r7, #28]
 219 0052 0293     		str	r3, [sp, #8]
 220 0054 FB6A     		ldr	r3, [r7, #44]
 221 0056 0193     		str	r3, [sp, #4]
 222 0058 BB6A     		ldr	r3, [r7, #40]
 223 005a 0093     		str	r3, [sp]
 224 005c 3B68     		ldr	r3, [r7]
 225 005e B968     		ldr	r1, [r7, #8]
 226 0060 F868     		ldr	r0, [r7, #12]
 227 0062 FFF7FEFF 		bl	prvInitialiseNewTask
 753:Middlewares/Third_Party/FreeRTOS/Source/tasks.c **** 			prvAddNewTaskToReadyList( pxNewTCB );
 228              		.loc 1 753 0
 229 0066 F869     		ldr	r0, [r7, #28]
 230 0068 FFF7FEFF 		bl	prvAddNewTaskToReadyList
 754:Middlewares/Third_Party/FreeRTOS/Source/tasks.c **** 			xReturn = pdPASS;
 231              		.loc 1 754 0
 232 006c 0123     		movs	r3, #1
 233 006e BB61     		str	r3, [r7, #24]
 234 0070 02E0     		b	.L7
ARM GAS  /tmp/ccDSLKwL.s 			page 18


 235              	.L6:
 755:Middlewares/Third_Party/FreeRTOS/Source/tasks.c **** 		}
 756:Middlewares/Third_Party/FreeRTOS/Source/tasks.c **** 		else
 757:Middlewares/Third_Party/FreeRTOS/Source/tasks.c **** 		{
 758:Middlewares/Third_Party/FreeRTOS/Source/tasks.c **** 			xReturn = errCOULD_NOT_ALLOCATE_REQUIRED_MEMORY;
 236              		.loc 1 758 0
 237 0072 4FF0FF33 		mov	r3, #-1
 238 0076 BB61     		str	r3, [r7, #24]
 239              	.L7:
 759:Middlewares/Third_Party/FreeRTOS/Source/tasks.c **** 		}
 760:Middlewares/Third_Party/FreeRTOS/Source/tasks.c **** 
 761:Middlewares/Third_Party/FreeRTOS/Source/tasks.c **** 		return xReturn;
 240              		.loc 1 761 0
 241 0078 BB69     		ldr	r3, [r7, #24]
 762:Middlewares/Third_Party/FreeRTOS/Source/tasks.c **** 	}
 242              		.loc 1 762 0
 243 007a 1846     		mov	r0, r3
 244 007c 2037     		adds	r7, r7, #32
 245              	.LCFI3:
 246              		.cfi_def_cfa_offset 8
 247 007e BD46     		mov	sp, r7
 248              	.LCFI4:
 249              		.cfi_def_cfa_register 13
 250              		@ sp needed
 251 0080 80BD     		pop	{r7, pc}
 252              		.cfi_endproc
 253              	.LFE5:
 255              		.section	.text.prvInitialiseNewTask,"ax",%progbits
 256              		.align	1
 257              		.syntax unified
 258              		.thumb
 259              		.thumb_func
 260              		.fpu fpv4-sp-d16
 262              	prvInitialiseNewTask:
 263              	.LFB6:
 763:Middlewares/Third_Party/FreeRTOS/Source/tasks.c **** 
 764:Middlewares/Third_Party/FreeRTOS/Source/tasks.c **** #endif /* configSUPPORT_DYNAMIC_ALLOCATION */
 765:Middlewares/Third_Party/FreeRTOS/Source/tasks.c **** /*-----------------------------------------------------------*/
 766:Middlewares/Third_Party/FreeRTOS/Source/tasks.c **** 
 767:Middlewares/Third_Party/FreeRTOS/Source/tasks.c **** static void prvInitialiseNewTask( 	TaskFunction_t pxTaskCode,
 768:Middlewares/Third_Party/FreeRTOS/Source/tasks.c **** 									const char * const pcName,
 769:Middlewares/Third_Party/FreeRTOS/Source/tasks.c **** 									const uint32_t ulStackDepth,
 770:Middlewares/Third_Party/FreeRTOS/Source/tasks.c **** 									void * const pvParameters,
 771:Middlewares/Third_Party/FreeRTOS/Source/tasks.c **** 									UBaseType_t uxPriority,
 772:Middlewares/Third_Party/FreeRTOS/Source/tasks.c **** 									TaskHandle_t * const pxCreatedTask,
 773:Middlewares/Third_Party/FreeRTOS/Source/tasks.c **** 									TCB_t *pxNewTCB,
 774:Middlewares/Third_Party/FreeRTOS/Source/tasks.c **** 									const MemoryRegion_t * const xRegions ) /*lint !e971 Unqualified char types are allowed fo
 775:Middlewares/Third_Party/FreeRTOS/Source/tasks.c **** {
 264              		.loc 1 775 0
 265              		.cfi_startproc
 266              		@ args = 16, pretend = 0, frame = 32
 267              		@ frame_needed = 1, uses_anonymous_args = 0
 268 0000 80B5     		push	{r7, lr}
 269              	.LCFI5:
 270              		.cfi_def_cfa_offset 8
 271              		.cfi_offset 7, -8
 272              		.cfi_offset 14, -4
ARM GAS  /tmp/ccDSLKwL.s 			page 19


 273 0002 88B0     		sub	sp, sp, #32
 274              	.LCFI6:
 275              		.cfi_def_cfa_offset 40
 276 0004 00AF     		add	r7, sp, #0
 277              	.LCFI7:
 278              		.cfi_def_cfa_register 7
 279 0006 F860     		str	r0, [r7, #12]
 280 0008 B960     		str	r1, [r7, #8]
 281 000a 7A60     		str	r2, [r7, #4]
 282 000c 3B60     		str	r3, [r7]
 776:Middlewares/Third_Party/FreeRTOS/Source/tasks.c **** StackType_t *pxTopOfStack;
 777:Middlewares/Third_Party/FreeRTOS/Source/tasks.c **** UBaseType_t x;
 778:Middlewares/Third_Party/FreeRTOS/Source/tasks.c **** 
 779:Middlewares/Third_Party/FreeRTOS/Source/tasks.c **** 	#if( portUSING_MPU_WRAPPERS == 1 )
 780:Middlewares/Third_Party/FreeRTOS/Source/tasks.c **** 		/* Should the task be created in privileged mode? */
 781:Middlewares/Third_Party/FreeRTOS/Source/tasks.c **** 		BaseType_t xRunPrivileged;
 782:Middlewares/Third_Party/FreeRTOS/Source/tasks.c **** 		if( ( uxPriority & portPRIVILEGE_BIT ) != 0U )
 783:Middlewares/Third_Party/FreeRTOS/Source/tasks.c **** 		{
 784:Middlewares/Third_Party/FreeRTOS/Source/tasks.c **** 			xRunPrivileged = pdTRUE;
 785:Middlewares/Third_Party/FreeRTOS/Source/tasks.c **** 		}
 786:Middlewares/Third_Party/FreeRTOS/Source/tasks.c **** 		else
 787:Middlewares/Third_Party/FreeRTOS/Source/tasks.c **** 		{
 788:Middlewares/Third_Party/FreeRTOS/Source/tasks.c **** 			xRunPrivileged = pdFALSE;
 789:Middlewares/Third_Party/FreeRTOS/Source/tasks.c **** 		}
 790:Middlewares/Third_Party/FreeRTOS/Source/tasks.c **** 		uxPriority &= ~portPRIVILEGE_BIT;
 791:Middlewares/Third_Party/FreeRTOS/Source/tasks.c **** 	#endif /* portUSING_MPU_WRAPPERS == 1 */
 792:Middlewares/Third_Party/FreeRTOS/Source/tasks.c **** 
 793:Middlewares/Third_Party/FreeRTOS/Source/tasks.c **** 	/* Avoid dependency on memset() if it is not required. */
 794:Middlewares/Third_Party/FreeRTOS/Source/tasks.c **** 	#if( ( configCHECK_FOR_STACK_OVERFLOW > 1 ) || ( configUSE_TRACE_FACILITY == 1 ) || ( INCLUDE_uxTa
 795:Middlewares/Third_Party/FreeRTOS/Source/tasks.c **** 	{
 796:Middlewares/Third_Party/FreeRTOS/Source/tasks.c **** 		/* Fill the stack with a known value to assist debugging. */
 797:Middlewares/Third_Party/FreeRTOS/Source/tasks.c **** 		( void ) memset( pxNewTCB->pxStack, ( int ) tskSTACK_FILL_BYTE, ( size_t ) ulStackDepth * sizeof(
 798:Middlewares/Third_Party/FreeRTOS/Source/tasks.c **** 	}
 799:Middlewares/Third_Party/FreeRTOS/Source/tasks.c **** 	#endif /* ( ( configCHECK_FOR_STACK_OVERFLOW > 1 ) || ( ( configUSE_TRACE_FACILITY == 1 ) || ( INC
 800:Middlewares/Third_Party/FreeRTOS/Source/tasks.c **** 
 801:Middlewares/Third_Party/FreeRTOS/Source/tasks.c **** 	/* Calculate the top of stack address.  This depends on whether the stack
 802:Middlewares/Third_Party/FreeRTOS/Source/tasks.c **** 	grows from high memory to low (as per the 80x86) or vice versa.
 803:Middlewares/Third_Party/FreeRTOS/Source/tasks.c **** 	portSTACK_GROWTH is used to make the result positive or negative as required
 804:Middlewares/Third_Party/FreeRTOS/Source/tasks.c **** 	by the port. */
 805:Middlewares/Third_Party/FreeRTOS/Source/tasks.c **** 	#if( portSTACK_GROWTH < 0 )
 806:Middlewares/Third_Party/FreeRTOS/Source/tasks.c **** 	{
 807:Middlewares/Third_Party/FreeRTOS/Source/tasks.c **** 		pxTopOfStack = pxNewTCB->pxStack + ( ulStackDepth - ( uint32_t ) 1 );
 283              		.loc 1 807 0
 284 000e 3B6B     		ldr	r3, [r7, #48]
 285 0010 1A6B     		ldr	r2, [r3, #48]
 286 0012 7B68     		ldr	r3, [r7, #4]
 287 0014 03F18043 		add	r3, r3, #1073741824
 288 0018 013B     		subs	r3, r3, #1
 289 001a 9B00     		lsls	r3, r3, #2
 290 001c 1344     		add	r3, r3, r2
 291 001e BB61     		str	r3, [r7, #24]
 808:Middlewares/Third_Party/FreeRTOS/Source/tasks.c **** 		pxTopOfStack = ( StackType_t * ) ( ( ( portPOINTER_SIZE_TYPE ) pxTopOfStack ) & ( ~( ( portPOINTE
 292              		.loc 1 808 0
 293 0020 BB69     		ldr	r3, [r7, #24]
 294 0022 23F00703 		bic	r3, r3, #7
 295 0026 BB61     		str	r3, [r7, #24]
 809:Middlewares/Third_Party/FreeRTOS/Source/tasks.c **** 
ARM GAS  /tmp/ccDSLKwL.s 			page 20


 810:Middlewares/Third_Party/FreeRTOS/Source/tasks.c **** 		/* Check the alignment of the calculated top of stack is correct. */
 811:Middlewares/Third_Party/FreeRTOS/Source/tasks.c **** 		configASSERT( ( ( ( portPOINTER_SIZE_TYPE ) pxTopOfStack & ( portPOINTER_SIZE_TYPE ) portBYTE_ALI
 296              		.loc 1 811 0
 297 0028 BB69     		ldr	r3, [r7, #24]
 298 002a 03F00703 		and	r3, r3, #7
 299 002e 002B     		cmp	r3, #0
 300 0030 09D0     		beq	.L10
 301              	.LBB98:
 302              	.LBB99:
 303              		.file 2 "Middlewares/Third_Party/FreeRTOS/Source/portable/GCC/ARM_CM4F/portmacro.h"
   1:Middlewares/Third_Party/FreeRTOS/Source/portable/GCC/ARM_CM4F/portmacro.h **** /*
   2:Middlewares/Third_Party/FreeRTOS/Source/portable/GCC/ARM_CM4F/portmacro.h ****     FreeRTOS V9.0.0 - Copyright (C) 2016 Real Time Engineers Ltd.
   3:Middlewares/Third_Party/FreeRTOS/Source/portable/GCC/ARM_CM4F/portmacro.h ****     All rights reserved
   4:Middlewares/Third_Party/FreeRTOS/Source/portable/GCC/ARM_CM4F/portmacro.h **** 
   5:Middlewares/Third_Party/FreeRTOS/Source/portable/GCC/ARM_CM4F/portmacro.h ****     VISIT http://www.FreeRTOS.org TO ENSURE YOU ARE USING THE LATEST VERSION.
   6:Middlewares/Third_Party/FreeRTOS/Source/portable/GCC/ARM_CM4F/portmacro.h **** 
   7:Middlewares/Third_Party/FreeRTOS/Source/portable/GCC/ARM_CM4F/portmacro.h ****     This file is part of the FreeRTOS distribution.
   8:Middlewares/Third_Party/FreeRTOS/Source/portable/GCC/ARM_CM4F/portmacro.h **** 
   9:Middlewares/Third_Party/FreeRTOS/Source/portable/GCC/ARM_CM4F/portmacro.h ****     FreeRTOS is free software; you can redistribute it and/or modify it under
  10:Middlewares/Third_Party/FreeRTOS/Source/portable/GCC/ARM_CM4F/portmacro.h ****     the terms of the GNU General Public License (version 2) as published by the
  11:Middlewares/Third_Party/FreeRTOS/Source/portable/GCC/ARM_CM4F/portmacro.h ****     Free Software Foundation >>>> AND MODIFIED BY <<<< the FreeRTOS exception.
  12:Middlewares/Third_Party/FreeRTOS/Source/portable/GCC/ARM_CM4F/portmacro.h **** 
  13:Middlewares/Third_Party/FreeRTOS/Source/portable/GCC/ARM_CM4F/portmacro.h ****     ***************************************************************************
  14:Middlewares/Third_Party/FreeRTOS/Source/portable/GCC/ARM_CM4F/portmacro.h ****     >>!   NOTE: The modification to the GPL is included to allow you to     !<<
  15:Middlewares/Third_Party/FreeRTOS/Source/portable/GCC/ARM_CM4F/portmacro.h ****     >>!   distribute a combined work that includes FreeRTOS without being   !<<
  16:Middlewares/Third_Party/FreeRTOS/Source/portable/GCC/ARM_CM4F/portmacro.h ****     >>!   obliged to provide the source code for proprietary components     !<<
  17:Middlewares/Third_Party/FreeRTOS/Source/portable/GCC/ARM_CM4F/portmacro.h ****     >>!   outside of the FreeRTOS kernel.                                   !<<
  18:Middlewares/Third_Party/FreeRTOS/Source/portable/GCC/ARM_CM4F/portmacro.h ****     ***************************************************************************
  19:Middlewares/Third_Party/FreeRTOS/Source/portable/GCC/ARM_CM4F/portmacro.h **** 
  20:Middlewares/Third_Party/FreeRTOS/Source/portable/GCC/ARM_CM4F/portmacro.h ****     FreeRTOS is distributed in the hope that it will be useful, but WITHOUT ANY
  21:Middlewares/Third_Party/FreeRTOS/Source/portable/GCC/ARM_CM4F/portmacro.h ****     WARRANTY; without even the implied warranty of MERCHANTABILITY or FITNESS
  22:Middlewares/Third_Party/FreeRTOS/Source/portable/GCC/ARM_CM4F/portmacro.h ****     FOR A PARTICULAR PURPOSE.  Full license text is available on the following
  23:Middlewares/Third_Party/FreeRTOS/Source/portable/GCC/ARM_CM4F/portmacro.h ****     link: http://www.freertos.org/a00114.html
  24:Middlewares/Third_Party/FreeRTOS/Source/portable/GCC/ARM_CM4F/portmacro.h **** 
  25:Middlewares/Third_Party/FreeRTOS/Source/portable/GCC/ARM_CM4F/portmacro.h ****     ***************************************************************************
  26:Middlewares/Third_Party/FreeRTOS/Source/portable/GCC/ARM_CM4F/portmacro.h ****      *                                                                       *
  27:Middlewares/Third_Party/FreeRTOS/Source/portable/GCC/ARM_CM4F/portmacro.h ****      *    FreeRTOS provides completely free yet professionally developed,    *
  28:Middlewares/Third_Party/FreeRTOS/Source/portable/GCC/ARM_CM4F/portmacro.h ****      *    robust, strictly quality controlled, supported, and cross          *
  29:Middlewares/Third_Party/FreeRTOS/Source/portable/GCC/ARM_CM4F/portmacro.h ****      *    platform software that is more than just the market leader, it     *
  30:Middlewares/Third_Party/FreeRTOS/Source/portable/GCC/ARM_CM4F/portmacro.h ****      *    is the industry's de facto standard.                               *
  31:Middlewares/Third_Party/FreeRTOS/Source/portable/GCC/ARM_CM4F/portmacro.h ****      *                                                                       *
  32:Middlewares/Third_Party/FreeRTOS/Source/portable/GCC/ARM_CM4F/portmacro.h ****      *    Help yourself get started quickly while simultaneously helping     *
  33:Middlewares/Third_Party/FreeRTOS/Source/portable/GCC/ARM_CM4F/portmacro.h ****      *    to support the FreeRTOS project by purchasing a FreeRTOS           *
  34:Middlewares/Third_Party/FreeRTOS/Source/portable/GCC/ARM_CM4F/portmacro.h ****      *    tutorial book, reference manual, or both:                          *
  35:Middlewares/Third_Party/FreeRTOS/Source/portable/GCC/ARM_CM4F/portmacro.h ****      *    http://www.FreeRTOS.org/Documentation                              *
  36:Middlewares/Third_Party/FreeRTOS/Source/portable/GCC/ARM_CM4F/portmacro.h ****      *                                                                       *
  37:Middlewares/Third_Party/FreeRTOS/Source/portable/GCC/ARM_CM4F/portmacro.h ****     ***************************************************************************
  38:Middlewares/Third_Party/FreeRTOS/Source/portable/GCC/ARM_CM4F/portmacro.h **** 
  39:Middlewares/Third_Party/FreeRTOS/Source/portable/GCC/ARM_CM4F/portmacro.h ****     http://www.FreeRTOS.org/FAQHelp.html - Having a problem?  Start by reading
  40:Middlewares/Third_Party/FreeRTOS/Source/portable/GCC/ARM_CM4F/portmacro.h ****     the FAQ page "My application does not run, what could be wrong?".  Have you
  41:Middlewares/Third_Party/FreeRTOS/Source/portable/GCC/ARM_CM4F/portmacro.h ****     defined configASSERT()?
  42:Middlewares/Third_Party/FreeRTOS/Source/portable/GCC/ARM_CM4F/portmacro.h **** 
  43:Middlewares/Third_Party/FreeRTOS/Source/portable/GCC/ARM_CM4F/portmacro.h ****     http://www.FreeRTOS.org/support - In return for receiving this top quality
  44:Middlewares/Third_Party/FreeRTOS/Source/portable/GCC/ARM_CM4F/portmacro.h ****     embedded software for free we request you assist our global community by
  45:Middlewares/Third_Party/FreeRTOS/Source/portable/GCC/ARM_CM4F/portmacro.h ****     participating in the support forum.
  46:Middlewares/Third_Party/FreeRTOS/Source/portable/GCC/ARM_CM4F/portmacro.h **** 
  47:Middlewares/Third_Party/FreeRTOS/Source/portable/GCC/ARM_CM4F/portmacro.h ****     http://www.FreeRTOS.org/training - Investing in training allows your team to
ARM GAS  /tmp/ccDSLKwL.s 			page 21


  48:Middlewares/Third_Party/FreeRTOS/Source/portable/GCC/ARM_CM4F/portmacro.h ****     be as productive as possible as early as possible.  Now you can receive
  49:Middlewares/Third_Party/FreeRTOS/Source/portable/GCC/ARM_CM4F/portmacro.h ****     FreeRTOS training directly from Richard Barry, CEO of Real Time Engineers
  50:Middlewares/Third_Party/FreeRTOS/Source/portable/GCC/ARM_CM4F/portmacro.h ****     Ltd, and the world's leading authority on the world's leading RTOS.
  51:Middlewares/Third_Party/FreeRTOS/Source/portable/GCC/ARM_CM4F/portmacro.h **** 
  52:Middlewares/Third_Party/FreeRTOS/Source/portable/GCC/ARM_CM4F/portmacro.h ****     http://www.FreeRTOS.org/plus - A selection of FreeRTOS ecosystem products,
  53:Middlewares/Third_Party/FreeRTOS/Source/portable/GCC/ARM_CM4F/portmacro.h ****     including FreeRTOS+Trace - an indispensable productivity tool, a DOS
  54:Middlewares/Third_Party/FreeRTOS/Source/portable/GCC/ARM_CM4F/portmacro.h ****     compatible FAT file system, and our tiny thread aware UDP/IP stack.
  55:Middlewares/Third_Party/FreeRTOS/Source/portable/GCC/ARM_CM4F/portmacro.h **** 
  56:Middlewares/Third_Party/FreeRTOS/Source/portable/GCC/ARM_CM4F/portmacro.h ****     http://www.FreeRTOS.org/labs - Where new FreeRTOS products go to incubate.
  57:Middlewares/Third_Party/FreeRTOS/Source/portable/GCC/ARM_CM4F/portmacro.h ****     Come and try FreeRTOS+TCP, our new open source TCP/IP stack for FreeRTOS.
  58:Middlewares/Third_Party/FreeRTOS/Source/portable/GCC/ARM_CM4F/portmacro.h **** 
  59:Middlewares/Third_Party/FreeRTOS/Source/portable/GCC/ARM_CM4F/portmacro.h ****     http://www.OpenRTOS.com - Real Time Engineers ltd. license FreeRTOS to High
  60:Middlewares/Third_Party/FreeRTOS/Source/portable/GCC/ARM_CM4F/portmacro.h ****     Integrity Systems ltd. to sell under the OpenRTOS brand.  Low cost OpenRTOS
  61:Middlewares/Third_Party/FreeRTOS/Source/portable/GCC/ARM_CM4F/portmacro.h ****     licenses offer ticketed support, indemnification and commercial middleware.
  62:Middlewares/Third_Party/FreeRTOS/Source/portable/GCC/ARM_CM4F/portmacro.h **** 
  63:Middlewares/Third_Party/FreeRTOS/Source/portable/GCC/ARM_CM4F/portmacro.h ****     http://www.SafeRTOS.com - High Integrity Systems also provide a safety
  64:Middlewares/Third_Party/FreeRTOS/Source/portable/GCC/ARM_CM4F/portmacro.h ****     engineered and independently SIL3 certified version for use in safety and
  65:Middlewares/Third_Party/FreeRTOS/Source/portable/GCC/ARM_CM4F/portmacro.h ****     mission critical applications that require provable dependability.
  66:Middlewares/Third_Party/FreeRTOS/Source/portable/GCC/ARM_CM4F/portmacro.h **** 
  67:Middlewares/Third_Party/FreeRTOS/Source/portable/GCC/ARM_CM4F/portmacro.h ****     1 tab == 4 spaces!
  68:Middlewares/Third_Party/FreeRTOS/Source/portable/GCC/ARM_CM4F/portmacro.h **** */
  69:Middlewares/Third_Party/FreeRTOS/Source/portable/GCC/ARM_CM4F/portmacro.h **** 
  70:Middlewares/Third_Party/FreeRTOS/Source/portable/GCC/ARM_CM4F/portmacro.h **** 
  71:Middlewares/Third_Party/FreeRTOS/Source/portable/GCC/ARM_CM4F/portmacro.h **** #ifndef PORTMACRO_H
  72:Middlewares/Third_Party/FreeRTOS/Source/portable/GCC/ARM_CM4F/portmacro.h **** #define PORTMACRO_H
  73:Middlewares/Third_Party/FreeRTOS/Source/portable/GCC/ARM_CM4F/portmacro.h **** 
  74:Middlewares/Third_Party/FreeRTOS/Source/portable/GCC/ARM_CM4F/portmacro.h **** #ifdef __cplusplus
  75:Middlewares/Third_Party/FreeRTOS/Source/portable/GCC/ARM_CM4F/portmacro.h **** extern "C" {
  76:Middlewares/Third_Party/FreeRTOS/Source/portable/GCC/ARM_CM4F/portmacro.h **** #endif
  77:Middlewares/Third_Party/FreeRTOS/Source/portable/GCC/ARM_CM4F/portmacro.h **** 
  78:Middlewares/Third_Party/FreeRTOS/Source/portable/GCC/ARM_CM4F/portmacro.h **** /*-----------------------------------------------------------
  79:Middlewares/Third_Party/FreeRTOS/Source/portable/GCC/ARM_CM4F/portmacro.h ****  * Port specific definitions.
  80:Middlewares/Third_Party/FreeRTOS/Source/portable/GCC/ARM_CM4F/portmacro.h ****  *
  81:Middlewares/Third_Party/FreeRTOS/Source/portable/GCC/ARM_CM4F/portmacro.h ****  * The settings in this file configure FreeRTOS correctly for the
  82:Middlewares/Third_Party/FreeRTOS/Source/portable/GCC/ARM_CM4F/portmacro.h ****  * given hardware and compiler.
  83:Middlewares/Third_Party/FreeRTOS/Source/portable/GCC/ARM_CM4F/portmacro.h ****  *
  84:Middlewares/Third_Party/FreeRTOS/Source/portable/GCC/ARM_CM4F/portmacro.h ****  * These settings should not be altered.
  85:Middlewares/Third_Party/FreeRTOS/Source/portable/GCC/ARM_CM4F/portmacro.h ****  *-----------------------------------------------------------
  86:Middlewares/Third_Party/FreeRTOS/Source/portable/GCC/ARM_CM4F/portmacro.h ****  */
  87:Middlewares/Third_Party/FreeRTOS/Source/portable/GCC/ARM_CM4F/portmacro.h **** 
  88:Middlewares/Third_Party/FreeRTOS/Source/portable/GCC/ARM_CM4F/portmacro.h **** /* Type definitions. */
  89:Middlewares/Third_Party/FreeRTOS/Source/portable/GCC/ARM_CM4F/portmacro.h **** #define portCHAR		char
  90:Middlewares/Third_Party/FreeRTOS/Source/portable/GCC/ARM_CM4F/portmacro.h **** #define portFLOAT		float
  91:Middlewares/Third_Party/FreeRTOS/Source/portable/GCC/ARM_CM4F/portmacro.h **** #define portDOUBLE		double
  92:Middlewares/Third_Party/FreeRTOS/Source/portable/GCC/ARM_CM4F/portmacro.h **** #define portLONG		long
  93:Middlewares/Third_Party/FreeRTOS/Source/portable/GCC/ARM_CM4F/portmacro.h **** #define portSHORT		short
  94:Middlewares/Third_Party/FreeRTOS/Source/portable/GCC/ARM_CM4F/portmacro.h **** #define portSTACK_TYPE	uint32_t
  95:Middlewares/Third_Party/FreeRTOS/Source/portable/GCC/ARM_CM4F/portmacro.h **** #define portBASE_TYPE	long
  96:Middlewares/Third_Party/FreeRTOS/Source/portable/GCC/ARM_CM4F/portmacro.h **** 
  97:Middlewares/Third_Party/FreeRTOS/Source/portable/GCC/ARM_CM4F/portmacro.h **** typedef portSTACK_TYPE StackType_t;
  98:Middlewares/Third_Party/FreeRTOS/Source/portable/GCC/ARM_CM4F/portmacro.h **** typedef long BaseType_t;
  99:Middlewares/Third_Party/FreeRTOS/Source/portable/GCC/ARM_CM4F/portmacro.h **** typedef unsigned long UBaseType_t;
 100:Middlewares/Third_Party/FreeRTOS/Source/portable/GCC/ARM_CM4F/portmacro.h **** 
 101:Middlewares/Third_Party/FreeRTOS/Source/portable/GCC/ARM_CM4F/portmacro.h **** #if( configUSE_16_BIT_TICKS == 1 )
 102:Middlewares/Third_Party/FreeRTOS/Source/portable/GCC/ARM_CM4F/portmacro.h **** 	typedef uint16_t TickType_t;
 103:Middlewares/Third_Party/FreeRTOS/Source/portable/GCC/ARM_CM4F/portmacro.h **** 	#define portMAX_DELAY ( TickType_t ) 0xffff
 104:Middlewares/Third_Party/FreeRTOS/Source/portable/GCC/ARM_CM4F/portmacro.h **** #else
ARM GAS  /tmp/ccDSLKwL.s 			page 22


 105:Middlewares/Third_Party/FreeRTOS/Source/portable/GCC/ARM_CM4F/portmacro.h **** 	typedef uint32_t TickType_t;
 106:Middlewares/Third_Party/FreeRTOS/Source/portable/GCC/ARM_CM4F/portmacro.h **** 	#define portMAX_DELAY ( TickType_t ) 0xffffffffUL
 107:Middlewares/Third_Party/FreeRTOS/Source/portable/GCC/ARM_CM4F/portmacro.h **** 
 108:Middlewares/Third_Party/FreeRTOS/Source/portable/GCC/ARM_CM4F/portmacro.h **** 	/* 32-bit tick type on a 32-bit architecture, so reads of the tick count do
 109:Middlewares/Third_Party/FreeRTOS/Source/portable/GCC/ARM_CM4F/portmacro.h **** 	not need to be guarded with a critical section. */
 110:Middlewares/Third_Party/FreeRTOS/Source/portable/GCC/ARM_CM4F/portmacro.h **** 	#define portTICK_TYPE_IS_ATOMIC 1
 111:Middlewares/Third_Party/FreeRTOS/Source/portable/GCC/ARM_CM4F/portmacro.h **** #endif
 112:Middlewares/Third_Party/FreeRTOS/Source/portable/GCC/ARM_CM4F/portmacro.h **** /*-----------------------------------------------------------*/
 113:Middlewares/Third_Party/FreeRTOS/Source/portable/GCC/ARM_CM4F/portmacro.h **** 
 114:Middlewares/Third_Party/FreeRTOS/Source/portable/GCC/ARM_CM4F/portmacro.h **** /* Architecture specifics. */
 115:Middlewares/Third_Party/FreeRTOS/Source/portable/GCC/ARM_CM4F/portmacro.h **** #define portSTACK_GROWTH			( -1 )
 116:Middlewares/Third_Party/FreeRTOS/Source/portable/GCC/ARM_CM4F/portmacro.h **** #define portTICK_PERIOD_MS			( ( TickType_t ) 1000 / configTICK_RATE_HZ )
 117:Middlewares/Third_Party/FreeRTOS/Source/portable/GCC/ARM_CM4F/portmacro.h **** #define portBYTE_ALIGNMENT			8
 118:Middlewares/Third_Party/FreeRTOS/Source/portable/GCC/ARM_CM4F/portmacro.h **** /*-----------------------------------------------------------*/
 119:Middlewares/Third_Party/FreeRTOS/Source/portable/GCC/ARM_CM4F/portmacro.h **** 
 120:Middlewares/Third_Party/FreeRTOS/Source/portable/GCC/ARM_CM4F/portmacro.h **** /* Scheduler utilities. */
 121:Middlewares/Third_Party/FreeRTOS/Source/portable/GCC/ARM_CM4F/portmacro.h **** #define portYIELD() 															\
 122:Middlewares/Third_Party/FreeRTOS/Source/portable/GCC/ARM_CM4F/portmacro.h **** {																				\
 123:Middlewares/Third_Party/FreeRTOS/Source/portable/GCC/ARM_CM4F/portmacro.h **** 	/* Set a PendSV to request a context switch. */								\
 124:Middlewares/Third_Party/FreeRTOS/Source/portable/GCC/ARM_CM4F/portmacro.h **** 	portNVIC_INT_CTRL_REG = portNVIC_PENDSVSET_BIT;								\
 125:Middlewares/Third_Party/FreeRTOS/Source/portable/GCC/ARM_CM4F/portmacro.h **** 																				\
 126:Middlewares/Third_Party/FreeRTOS/Source/portable/GCC/ARM_CM4F/portmacro.h **** 	/* Barriers are normally not required but do ensure the code is completely	\
 127:Middlewares/Third_Party/FreeRTOS/Source/portable/GCC/ARM_CM4F/portmacro.h **** 	within the specified behaviour for the architecture. */						\
 128:Middlewares/Third_Party/FreeRTOS/Source/portable/GCC/ARM_CM4F/portmacro.h **** 	__asm volatile( "dsb" );													\
 129:Middlewares/Third_Party/FreeRTOS/Source/portable/GCC/ARM_CM4F/portmacro.h **** 	__asm volatile( "isb" );													\
 130:Middlewares/Third_Party/FreeRTOS/Source/portable/GCC/ARM_CM4F/portmacro.h **** }
 131:Middlewares/Third_Party/FreeRTOS/Source/portable/GCC/ARM_CM4F/portmacro.h **** 
 132:Middlewares/Third_Party/FreeRTOS/Source/portable/GCC/ARM_CM4F/portmacro.h **** #define portNVIC_INT_CTRL_REG		( * ( ( volatile uint32_t * ) 0xe000ed04 ) )
 133:Middlewares/Third_Party/FreeRTOS/Source/portable/GCC/ARM_CM4F/portmacro.h **** #define portNVIC_PENDSVSET_BIT		( 1UL << 28UL )
 134:Middlewares/Third_Party/FreeRTOS/Source/portable/GCC/ARM_CM4F/portmacro.h **** #define portEND_SWITCHING_ISR( xSwitchRequired ) if( xSwitchRequired != pdFALSE ) portYIELD()
 135:Middlewares/Third_Party/FreeRTOS/Source/portable/GCC/ARM_CM4F/portmacro.h **** #define portYIELD_FROM_ISR( x ) portEND_SWITCHING_ISR( x )
 136:Middlewares/Third_Party/FreeRTOS/Source/portable/GCC/ARM_CM4F/portmacro.h **** /*-----------------------------------------------------------*/
 137:Middlewares/Third_Party/FreeRTOS/Source/portable/GCC/ARM_CM4F/portmacro.h **** 
 138:Middlewares/Third_Party/FreeRTOS/Source/portable/GCC/ARM_CM4F/portmacro.h **** /* Critical section management. */
 139:Middlewares/Third_Party/FreeRTOS/Source/portable/GCC/ARM_CM4F/portmacro.h **** extern void vPortEnterCritical( void );
 140:Middlewares/Third_Party/FreeRTOS/Source/portable/GCC/ARM_CM4F/portmacro.h **** extern void vPortExitCritical( void );
 141:Middlewares/Third_Party/FreeRTOS/Source/portable/GCC/ARM_CM4F/portmacro.h **** #define portSET_INTERRUPT_MASK_FROM_ISR()		ulPortRaiseBASEPRI()
 142:Middlewares/Third_Party/FreeRTOS/Source/portable/GCC/ARM_CM4F/portmacro.h **** #define portCLEAR_INTERRUPT_MASK_FROM_ISR(x)	vPortSetBASEPRI(x)
 143:Middlewares/Third_Party/FreeRTOS/Source/portable/GCC/ARM_CM4F/portmacro.h **** #define portDISABLE_INTERRUPTS()				vPortRaiseBASEPRI()
 144:Middlewares/Third_Party/FreeRTOS/Source/portable/GCC/ARM_CM4F/portmacro.h **** #define portENABLE_INTERRUPTS()					vPortSetBASEPRI(0)
 145:Middlewares/Third_Party/FreeRTOS/Source/portable/GCC/ARM_CM4F/portmacro.h **** #define portENTER_CRITICAL()					vPortEnterCritical()
 146:Middlewares/Third_Party/FreeRTOS/Source/portable/GCC/ARM_CM4F/portmacro.h **** #define portEXIT_CRITICAL()						vPortExitCritical()
 147:Middlewares/Third_Party/FreeRTOS/Source/portable/GCC/ARM_CM4F/portmacro.h **** 
 148:Middlewares/Third_Party/FreeRTOS/Source/portable/GCC/ARM_CM4F/portmacro.h **** /*-----------------------------------------------------------*/
 149:Middlewares/Third_Party/FreeRTOS/Source/portable/GCC/ARM_CM4F/portmacro.h **** 
 150:Middlewares/Third_Party/FreeRTOS/Source/portable/GCC/ARM_CM4F/portmacro.h **** /* Task function macros as described on the FreeRTOS.org WEB site.  These are
 151:Middlewares/Third_Party/FreeRTOS/Source/portable/GCC/ARM_CM4F/portmacro.h **** not necessary for to use this port.  They are defined so the common demo files
 152:Middlewares/Third_Party/FreeRTOS/Source/portable/GCC/ARM_CM4F/portmacro.h **** (which build with all the ports) will build. */
 153:Middlewares/Third_Party/FreeRTOS/Source/portable/GCC/ARM_CM4F/portmacro.h **** #define portTASK_FUNCTION_PROTO( vFunction, pvParameters ) void vFunction( void *pvParameters )
 154:Middlewares/Third_Party/FreeRTOS/Source/portable/GCC/ARM_CM4F/portmacro.h **** #define portTASK_FUNCTION( vFunction, pvParameters ) void vFunction( void *pvParameters )
 155:Middlewares/Third_Party/FreeRTOS/Source/portable/GCC/ARM_CM4F/portmacro.h **** /*-----------------------------------------------------------*/
 156:Middlewares/Third_Party/FreeRTOS/Source/portable/GCC/ARM_CM4F/portmacro.h **** 
 157:Middlewares/Third_Party/FreeRTOS/Source/portable/GCC/ARM_CM4F/portmacro.h **** /* Tickless idle/low power functionality. */
 158:Middlewares/Third_Party/FreeRTOS/Source/portable/GCC/ARM_CM4F/portmacro.h **** #ifndef portSUPPRESS_TICKS_AND_SLEEP
 159:Middlewares/Third_Party/FreeRTOS/Source/portable/GCC/ARM_CM4F/portmacro.h **** 	extern void vPortSuppressTicksAndSleep( TickType_t xExpectedIdleTime );
 160:Middlewares/Third_Party/FreeRTOS/Source/portable/GCC/ARM_CM4F/portmacro.h **** 	#define portSUPPRESS_TICKS_AND_SLEEP( xExpectedIdleTime ) vPortSuppressTicksAndSleep( xExpectedIdl
 161:Middlewares/Third_Party/FreeRTOS/Source/portable/GCC/ARM_CM4F/portmacro.h **** #endif
ARM GAS  /tmp/ccDSLKwL.s 			page 23


 162:Middlewares/Third_Party/FreeRTOS/Source/portable/GCC/ARM_CM4F/portmacro.h **** /*-----------------------------------------------------------*/
 163:Middlewares/Third_Party/FreeRTOS/Source/portable/GCC/ARM_CM4F/portmacro.h **** 
 164:Middlewares/Third_Party/FreeRTOS/Source/portable/GCC/ARM_CM4F/portmacro.h **** /* Architecture specific optimisations. */
 165:Middlewares/Third_Party/FreeRTOS/Source/portable/GCC/ARM_CM4F/portmacro.h **** #ifndef configUSE_PORT_OPTIMISED_TASK_SELECTION
 166:Middlewares/Third_Party/FreeRTOS/Source/portable/GCC/ARM_CM4F/portmacro.h **** 	#define configUSE_PORT_OPTIMISED_TASK_SELECTION 1
 167:Middlewares/Third_Party/FreeRTOS/Source/portable/GCC/ARM_CM4F/portmacro.h **** #endif
 168:Middlewares/Third_Party/FreeRTOS/Source/portable/GCC/ARM_CM4F/portmacro.h **** 
 169:Middlewares/Third_Party/FreeRTOS/Source/portable/GCC/ARM_CM4F/portmacro.h **** #if configUSE_PORT_OPTIMISED_TASK_SELECTION == 1
 170:Middlewares/Third_Party/FreeRTOS/Source/portable/GCC/ARM_CM4F/portmacro.h **** 
 171:Middlewares/Third_Party/FreeRTOS/Source/portable/GCC/ARM_CM4F/portmacro.h **** 	/* Generic helper function. */
 172:Middlewares/Third_Party/FreeRTOS/Source/portable/GCC/ARM_CM4F/portmacro.h **** 	__attribute__( ( always_inline ) ) static inline uint8_t ucPortCountLeadingZeros( uint32_t ulBitma
 173:Middlewares/Third_Party/FreeRTOS/Source/portable/GCC/ARM_CM4F/portmacro.h **** 	{
 174:Middlewares/Third_Party/FreeRTOS/Source/portable/GCC/ARM_CM4F/portmacro.h **** 	uint8_t ucReturn;
 175:Middlewares/Third_Party/FreeRTOS/Source/portable/GCC/ARM_CM4F/portmacro.h **** 
 176:Middlewares/Third_Party/FreeRTOS/Source/portable/GCC/ARM_CM4F/portmacro.h **** 		__asm volatile ( "clz %0, %1" : "=r" ( ucReturn ) : "r" ( ulBitmap ) );
 177:Middlewares/Third_Party/FreeRTOS/Source/portable/GCC/ARM_CM4F/portmacro.h **** 		return ucReturn;
 178:Middlewares/Third_Party/FreeRTOS/Source/portable/GCC/ARM_CM4F/portmacro.h **** 	}
 179:Middlewares/Third_Party/FreeRTOS/Source/portable/GCC/ARM_CM4F/portmacro.h **** 
 180:Middlewares/Third_Party/FreeRTOS/Source/portable/GCC/ARM_CM4F/portmacro.h **** 	/* Check the configuration. */
 181:Middlewares/Third_Party/FreeRTOS/Source/portable/GCC/ARM_CM4F/portmacro.h **** 	#if( configMAX_PRIORITIES > 32 )
 182:Middlewares/Third_Party/FreeRTOS/Source/portable/GCC/ARM_CM4F/portmacro.h **** 		#error configUSE_PORT_OPTIMISED_TASK_SELECTION can only be set to 1 when configMAX_PRIORITIES is 
 183:Middlewares/Third_Party/FreeRTOS/Source/portable/GCC/ARM_CM4F/portmacro.h **** 	#endif
 184:Middlewares/Third_Party/FreeRTOS/Source/portable/GCC/ARM_CM4F/portmacro.h **** 
 185:Middlewares/Third_Party/FreeRTOS/Source/portable/GCC/ARM_CM4F/portmacro.h **** 	/* Store/clear the ready priorities in a bit map. */
 186:Middlewares/Third_Party/FreeRTOS/Source/portable/GCC/ARM_CM4F/portmacro.h **** 	#define portRECORD_READY_PRIORITY( uxPriority, uxReadyPriorities ) ( uxReadyPriorities ) |= ( 1UL 
 187:Middlewares/Third_Party/FreeRTOS/Source/portable/GCC/ARM_CM4F/portmacro.h **** 	#define portRESET_READY_PRIORITY( uxPriority, uxReadyPriorities ) ( uxReadyPriorities ) &= ~( 1UL 
 188:Middlewares/Third_Party/FreeRTOS/Source/portable/GCC/ARM_CM4F/portmacro.h **** 
 189:Middlewares/Third_Party/FreeRTOS/Source/portable/GCC/ARM_CM4F/portmacro.h **** 	/*-----------------------------------------------------------*/
 190:Middlewares/Third_Party/FreeRTOS/Source/portable/GCC/ARM_CM4F/portmacro.h **** 
 191:Middlewares/Third_Party/FreeRTOS/Source/portable/GCC/ARM_CM4F/portmacro.h **** 	#define portGET_HIGHEST_PRIORITY( uxTopPriority, uxReadyPriorities ) uxTopPriority = ( 31UL - ( ui
 192:Middlewares/Third_Party/FreeRTOS/Source/portable/GCC/ARM_CM4F/portmacro.h **** 
 193:Middlewares/Third_Party/FreeRTOS/Source/portable/GCC/ARM_CM4F/portmacro.h **** #endif /* configUSE_PORT_OPTIMISED_TASK_SELECTION */
 194:Middlewares/Third_Party/FreeRTOS/Source/portable/GCC/ARM_CM4F/portmacro.h **** 
 195:Middlewares/Third_Party/FreeRTOS/Source/portable/GCC/ARM_CM4F/portmacro.h **** /*-----------------------------------------------------------*/
 196:Middlewares/Third_Party/FreeRTOS/Source/portable/GCC/ARM_CM4F/portmacro.h **** 
 197:Middlewares/Third_Party/FreeRTOS/Source/portable/GCC/ARM_CM4F/portmacro.h **** #ifdef configASSERT
 198:Middlewares/Third_Party/FreeRTOS/Source/portable/GCC/ARM_CM4F/portmacro.h **** 	void vPortValidateInterruptPriority( void );
 199:Middlewares/Third_Party/FreeRTOS/Source/portable/GCC/ARM_CM4F/portmacro.h **** 	#define portASSERT_IF_INTERRUPT_PRIORITY_INVALID() 	vPortValidateInterruptPriority()
 200:Middlewares/Third_Party/FreeRTOS/Source/portable/GCC/ARM_CM4F/portmacro.h **** #endif
 201:Middlewares/Third_Party/FreeRTOS/Source/portable/GCC/ARM_CM4F/portmacro.h **** 
 202:Middlewares/Third_Party/FreeRTOS/Source/portable/GCC/ARM_CM4F/portmacro.h **** /* portNOP() is not required by this port. */
 203:Middlewares/Third_Party/FreeRTOS/Source/portable/GCC/ARM_CM4F/portmacro.h **** #define portNOP()
 204:Middlewares/Third_Party/FreeRTOS/Source/portable/GCC/ARM_CM4F/portmacro.h **** 
 205:Middlewares/Third_Party/FreeRTOS/Source/portable/GCC/ARM_CM4F/portmacro.h **** #define portINLINE	__inline
 206:Middlewares/Third_Party/FreeRTOS/Source/portable/GCC/ARM_CM4F/portmacro.h **** 
 207:Middlewares/Third_Party/FreeRTOS/Source/portable/GCC/ARM_CM4F/portmacro.h **** #ifndef portFORCE_INLINE
 208:Middlewares/Third_Party/FreeRTOS/Source/portable/GCC/ARM_CM4F/portmacro.h **** 	#define portFORCE_INLINE inline __attribute__(( always_inline))
 209:Middlewares/Third_Party/FreeRTOS/Source/portable/GCC/ARM_CM4F/portmacro.h **** #endif
 210:Middlewares/Third_Party/FreeRTOS/Source/portable/GCC/ARM_CM4F/portmacro.h **** 
 211:Middlewares/Third_Party/FreeRTOS/Source/portable/GCC/ARM_CM4F/portmacro.h **** portFORCE_INLINE static BaseType_t xPortIsInsideInterrupt( void )
 212:Middlewares/Third_Party/FreeRTOS/Source/portable/GCC/ARM_CM4F/portmacro.h **** {
 213:Middlewares/Third_Party/FreeRTOS/Source/portable/GCC/ARM_CM4F/portmacro.h **** uint32_t ulCurrentInterrupt;
 214:Middlewares/Third_Party/FreeRTOS/Source/portable/GCC/ARM_CM4F/portmacro.h **** BaseType_t xReturn;
 215:Middlewares/Third_Party/FreeRTOS/Source/portable/GCC/ARM_CM4F/portmacro.h **** 
 216:Middlewares/Third_Party/FreeRTOS/Source/portable/GCC/ARM_CM4F/portmacro.h **** 	/* Obtain the number of the currently executing interrupt. */
 217:Middlewares/Third_Party/FreeRTOS/Source/portable/GCC/ARM_CM4F/portmacro.h **** 	__asm volatile( "mrs %0, ipsr" : "=r"( ulCurrentInterrupt ) );
 218:Middlewares/Third_Party/FreeRTOS/Source/portable/GCC/ARM_CM4F/portmacro.h **** 
ARM GAS  /tmp/ccDSLKwL.s 			page 24


 219:Middlewares/Third_Party/FreeRTOS/Source/portable/GCC/ARM_CM4F/portmacro.h **** 	if( ulCurrentInterrupt == 0 )
 220:Middlewares/Third_Party/FreeRTOS/Source/portable/GCC/ARM_CM4F/portmacro.h **** 	{
 221:Middlewares/Third_Party/FreeRTOS/Source/portable/GCC/ARM_CM4F/portmacro.h **** 		xReturn = pdFALSE;
 222:Middlewares/Third_Party/FreeRTOS/Source/portable/GCC/ARM_CM4F/portmacro.h **** 	}
 223:Middlewares/Third_Party/FreeRTOS/Source/portable/GCC/ARM_CM4F/portmacro.h **** 	else
 224:Middlewares/Third_Party/FreeRTOS/Source/portable/GCC/ARM_CM4F/portmacro.h **** 	{
 225:Middlewares/Third_Party/FreeRTOS/Source/portable/GCC/ARM_CM4F/portmacro.h **** 		xReturn = pdTRUE;
 226:Middlewares/Third_Party/FreeRTOS/Source/portable/GCC/ARM_CM4F/portmacro.h **** 	}
 227:Middlewares/Third_Party/FreeRTOS/Source/portable/GCC/ARM_CM4F/portmacro.h **** 
 228:Middlewares/Third_Party/FreeRTOS/Source/portable/GCC/ARM_CM4F/portmacro.h **** 	return xReturn;
 229:Middlewares/Third_Party/FreeRTOS/Source/portable/GCC/ARM_CM4F/portmacro.h **** }
 230:Middlewares/Third_Party/FreeRTOS/Source/portable/GCC/ARM_CM4F/portmacro.h **** 
 231:Middlewares/Third_Party/FreeRTOS/Source/portable/GCC/ARM_CM4F/portmacro.h **** /*-----------------------------------------------------------*/
 232:Middlewares/Third_Party/FreeRTOS/Source/portable/GCC/ARM_CM4F/portmacro.h **** 
 233:Middlewares/Third_Party/FreeRTOS/Source/portable/GCC/ARM_CM4F/portmacro.h **** portFORCE_INLINE static void vPortRaiseBASEPRI( void )
 234:Middlewares/Third_Party/FreeRTOS/Source/portable/GCC/ARM_CM4F/portmacro.h **** {
 235:Middlewares/Third_Party/FreeRTOS/Source/portable/GCC/ARM_CM4F/portmacro.h **** uint32_t ulNewBASEPRI;
 236:Middlewares/Third_Party/FreeRTOS/Source/portable/GCC/ARM_CM4F/portmacro.h **** 
 237:Middlewares/Third_Party/FreeRTOS/Source/portable/GCC/ARM_CM4F/portmacro.h **** 	__asm volatile
 304              		.loc 2 237 0 discriminator 1
 305              		.syntax unified
 306              	@ 237 "Middlewares/Third_Party/FreeRTOS/Source/portable/GCC/ARM_CM4F/portmacro.h" 1
 307 0032 4FF05003 			mov r3, #80												
 308 0036 83F31188 		msr basepri, r3											
 309 003a BFF36F8F 		isb														
 310 003e BFF34F8F 		dsb														
 311              	
 312              	@ 0 "" 2
 313              		.thumb
 314              		.syntax unified
 315 0042 7B61     		str	r3, [r7, #20]
 316              	.L11:
 317              	.LBE99:
 318              	.LBE98:
 319              		.loc 1 811 0 discriminator 1
 320 0044 FEE7     		b	.L11
 321              	.L10:
 812:Middlewares/Third_Party/FreeRTOS/Source/tasks.c **** 	}
 813:Middlewares/Third_Party/FreeRTOS/Source/tasks.c **** 	#else /* portSTACK_GROWTH */
 814:Middlewares/Third_Party/FreeRTOS/Source/tasks.c **** 	{
 815:Middlewares/Third_Party/FreeRTOS/Source/tasks.c **** 		pxTopOfStack = pxNewTCB->pxStack;
 816:Middlewares/Third_Party/FreeRTOS/Source/tasks.c **** 
 817:Middlewares/Third_Party/FreeRTOS/Source/tasks.c **** 		/* Check the alignment of the stack buffer is correct. */
 818:Middlewares/Third_Party/FreeRTOS/Source/tasks.c **** 		configASSERT( ( ( ( portPOINTER_SIZE_TYPE ) pxNewTCB->pxStack & ( portPOINTER_SIZE_TYPE ) portBYT
 819:Middlewares/Third_Party/FreeRTOS/Source/tasks.c **** 
 820:Middlewares/Third_Party/FreeRTOS/Source/tasks.c **** 		/* The other extreme of the stack space is required if stack checking is
 821:Middlewares/Third_Party/FreeRTOS/Source/tasks.c **** 		performed. */
 822:Middlewares/Third_Party/FreeRTOS/Source/tasks.c **** 		pxNewTCB->pxEndOfStack = pxNewTCB->pxStack + ( ulStackDepth - ( uint32_t ) 1 );
 823:Middlewares/Third_Party/FreeRTOS/Source/tasks.c **** 	}
 824:Middlewares/Third_Party/FreeRTOS/Source/tasks.c **** 	#endif /* portSTACK_GROWTH */
 825:Middlewares/Third_Party/FreeRTOS/Source/tasks.c **** 
 826:Middlewares/Third_Party/FreeRTOS/Source/tasks.c **** 	/* Store the task name in the TCB. */
 827:Middlewares/Third_Party/FreeRTOS/Source/tasks.c **** 	for( x = ( UBaseType_t ) 0; x < ( UBaseType_t ) configMAX_TASK_NAME_LEN; x++ )
 322              		.loc 1 827 0
 323 0046 0023     		movs	r3, #0
 324 0048 FB61     		str	r3, [r7, #28]
 325 004a 12E0     		b	.L12
ARM GAS  /tmp/ccDSLKwL.s 			page 25


 326              	.L15:
 828:Middlewares/Third_Party/FreeRTOS/Source/tasks.c **** 	{
 829:Middlewares/Third_Party/FreeRTOS/Source/tasks.c **** 		pxNewTCB->pcTaskName[ x ] = pcName[ x ];
 327              		.loc 1 829 0
 328 004c BA68     		ldr	r2, [r7, #8]
 329 004e FB69     		ldr	r3, [r7, #28]
 330 0050 1344     		add	r3, r3, r2
 331 0052 1978     		ldrb	r1, [r3]	@ zero_extendqisi2
 332 0054 3A6B     		ldr	r2, [r7, #48]
 333 0056 FB69     		ldr	r3, [r7, #28]
 334 0058 1344     		add	r3, r3, r2
 335 005a 3433     		adds	r3, r3, #52
 336 005c 0A46     		mov	r2, r1
 337 005e 1A70     		strb	r2, [r3]
 830:Middlewares/Third_Party/FreeRTOS/Source/tasks.c **** 
 831:Middlewares/Third_Party/FreeRTOS/Source/tasks.c **** 		/* Don't copy all configMAX_TASK_NAME_LEN if the string is shorter than
 832:Middlewares/Third_Party/FreeRTOS/Source/tasks.c **** 		configMAX_TASK_NAME_LEN characters just in case the memory after the
 833:Middlewares/Third_Party/FreeRTOS/Source/tasks.c **** 		string is not accessible (extremely unlikely). */
 834:Middlewares/Third_Party/FreeRTOS/Source/tasks.c **** 		if( pcName[ x ] == 0x00 )
 338              		.loc 1 834 0
 339 0060 BA68     		ldr	r2, [r7, #8]
 340 0062 FB69     		ldr	r3, [r7, #28]
 341 0064 1344     		add	r3, r3, r2
 342 0066 1B78     		ldrb	r3, [r3]	@ zero_extendqisi2
 343 0068 002B     		cmp	r3, #0
 344 006a 06D0     		beq	.L18
 827:Middlewares/Third_Party/FreeRTOS/Source/tasks.c **** 	{
 345              		.loc 1 827 0 discriminator 2
 346 006c FB69     		ldr	r3, [r7, #28]
 347 006e 0133     		adds	r3, r3, #1
 348 0070 FB61     		str	r3, [r7, #28]
 349              	.L12:
 827:Middlewares/Third_Party/FreeRTOS/Source/tasks.c **** 	{
 350              		.loc 1 827 0 is_stmt 0 discriminator 1
 351 0072 FB69     		ldr	r3, [r7, #28]
 352 0074 0F2B     		cmp	r3, #15
 353 0076 E9D9     		bls	.L15
 354 0078 00E0     		b	.L14
 355              	.L18:
 835:Middlewares/Third_Party/FreeRTOS/Source/tasks.c **** 		{
 836:Middlewares/Third_Party/FreeRTOS/Source/tasks.c **** 			break;
 356              		.loc 1 836 0 is_stmt 1
 357 007a 00BF     		nop
 358              	.L14:
 837:Middlewares/Third_Party/FreeRTOS/Source/tasks.c **** 		}
 838:Middlewares/Third_Party/FreeRTOS/Source/tasks.c **** 		else
 839:Middlewares/Third_Party/FreeRTOS/Source/tasks.c **** 		{
 840:Middlewares/Third_Party/FreeRTOS/Source/tasks.c **** 			mtCOVERAGE_TEST_MARKER();
 841:Middlewares/Third_Party/FreeRTOS/Source/tasks.c **** 		}
 842:Middlewares/Third_Party/FreeRTOS/Source/tasks.c **** 	}
 843:Middlewares/Third_Party/FreeRTOS/Source/tasks.c **** 
 844:Middlewares/Third_Party/FreeRTOS/Source/tasks.c **** 	/* Ensure the name string is terminated in the case that the string length
 845:Middlewares/Third_Party/FreeRTOS/Source/tasks.c **** 	was greater or equal to configMAX_TASK_NAME_LEN. */
 846:Middlewares/Third_Party/FreeRTOS/Source/tasks.c **** 	pxNewTCB->pcTaskName[ configMAX_TASK_NAME_LEN - 1 ] = '\0';
 359              		.loc 1 846 0
 360 007c 3B6B     		ldr	r3, [r7, #48]
 361 007e 0022     		movs	r2, #0
ARM GAS  /tmp/ccDSLKwL.s 			page 26


 362 0080 83F84320 		strb	r2, [r3, #67]
 847:Middlewares/Third_Party/FreeRTOS/Source/tasks.c **** 
 848:Middlewares/Third_Party/FreeRTOS/Source/tasks.c **** 	/* This is used as an array index so must ensure it's not too large.  First
 849:Middlewares/Third_Party/FreeRTOS/Source/tasks.c **** 	remove the privilege bit if one is present. */
 850:Middlewares/Third_Party/FreeRTOS/Source/tasks.c **** 	if( uxPriority >= ( UBaseType_t ) configMAX_PRIORITIES )
 363              		.loc 1 850 0
 364 0084 BB6A     		ldr	r3, [r7, #40]
 365 0086 062B     		cmp	r3, #6
 366 0088 01D9     		bls	.L16
 851:Middlewares/Third_Party/FreeRTOS/Source/tasks.c **** 	{
 852:Middlewares/Third_Party/FreeRTOS/Source/tasks.c **** 		uxPriority = ( UBaseType_t ) configMAX_PRIORITIES - ( UBaseType_t ) 1U;
 367              		.loc 1 852 0
 368 008a 0623     		movs	r3, #6
 369 008c BB62     		str	r3, [r7, #40]
 370              	.L16:
 853:Middlewares/Third_Party/FreeRTOS/Source/tasks.c **** 	}
 854:Middlewares/Third_Party/FreeRTOS/Source/tasks.c **** 	else
 855:Middlewares/Third_Party/FreeRTOS/Source/tasks.c **** 	{
 856:Middlewares/Third_Party/FreeRTOS/Source/tasks.c **** 		mtCOVERAGE_TEST_MARKER();
 857:Middlewares/Third_Party/FreeRTOS/Source/tasks.c **** 	}
 858:Middlewares/Third_Party/FreeRTOS/Source/tasks.c **** 
 859:Middlewares/Third_Party/FreeRTOS/Source/tasks.c **** 	pxNewTCB->uxPriority = uxPriority;
 371              		.loc 1 859 0
 372 008e 3B6B     		ldr	r3, [r7, #48]
 373 0090 BA6A     		ldr	r2, [r7, #40]
 374 0092 DA62     		str	r2, [r3, #44]
 860:Middlewares/Third_Party/FreeRTOS/Source/tasks.c **** 	#if ( configUSE_MUTEXES == 1 )
 861:Middlewares/Third_Party/FreeRTOS/Source/tasks.c **** 	{
 862:Middlewares/Third_Party/FreeRTOS/Source/tasks.c **** 		pxNewTCB->uxBasePriority = uxPriority;
 375              		.loc 1 862 0
 376 0094 3B6B     		ldr	r3, [r7, #48]
 377 0096 BA6A     		ldr	r2, [r7, #40]
 378 0098 5A64     		str	r2, [r3, #68]
 863:Middlewares/Third_Party/FreeRTOS/Source/tasks.c **** 		pxNewTCB->uxMutexesHeld = 0;
 379              		.loc 1 863 0
 380 009a 3B6B     		ldr	r3, [r7, #48]
 381 009c 0022     		movs	r2, #0
 382 009e 9A64     		str	r2, [r3, #72]
 864:Middlewares/Third_Party/FreeRTOS/Source/tasks.c **** 	}
 865:Middlewares/Third_Party/FreeRTOS/Source/tasks.c **** 	#endif /* configUSE_MUTEXES */
 866:Middlewares/Third_Party/FreeRTOS/Source/tasks.c **** 
 867:Middlewares/Third_Party/FreeRTOS/Source/tasks.c **** 	vListInitialiseItem( &( pxNewTCB->xStateListItem ) );
 383              		.loc 1 867 0
 384 00a0 3B6B     		ldr	r3, [r7, #48]
 385 00a2 0433     		adds	r3, r3, #4
 386 00a4 1846     		mov	r0, r3
 387 00a6 FFF7FEFF 		bl	vListInitialiseItem
 868:Middlewares/Third_Party/FreeRTOS/Source/tasks.c **** 	vListInitialiseItem( &( pxNewTCB->xEventListItem ) );
 388              		.loc 1 868 0
 389 00aa 3B6B     		ldr	r3, [r7, #48]
 390 00ac 1833     		adds	r3, r3, #24
 391 00ae 1846     		mov	r0, r3
 392 00b0 FFF7FEFF 		bl	vListInitialiseItem
 869:Middlewares/Third_Party/FreeRTOS/Source/tasks.c **** 
 870:Middlewares/Third_Party/FreeRTOS/Source/tasks.c **** 	/* Set the pxNewTCB as a link back from the ListItem_t.  This is so we can get
 871:Middlewares/Third_Party/FreeRTOS/Source/tasks.c **** 	back to	the containing TCB from a generic item in a list. */
 872:Middlewares/Third_Party/FreeRTOS/Source/tasks.c **** 	listSET_LIST_ITEM_OWNER( &( pxNewTCB->xStateListItem ), pxNewTCB );
ARM GAS  /tmp/ccDSLKwL.s 			page 27


 393              		.loc 1 872 0
 394 00b4 3B6B     		ldr	r3, [r7, #48]
 395 00b6 3A6B     		ldr	r2, [r7, #48]
 396 00b8 1A61     		str	r2, [r3, #16]
 873:Middlewares/Third_Party/FreeRTOS/Source/tasks.c **** 
 874:Middlewares/Third_Party/FreeRTOS/Source/tasks.c **** 	/* Event lists are always in priority order. */
 875:Middlewares/Third_Party/FreeRTOS/Source/tasks.c **** 	listSET_LIST_ITEM_VALUE( &( pxNewTCB->xEventListItem ), ( TickType_t ) configMAX_PRIORITIES - ( Ti
 397              		.loc 1 875 0
 398 00ba BB6A     		ldr	r3, [r7, #40]
 399 00bc C3F10702 		rsb	r2, r3, #7
 400 00c0 3B6B     		ldr	r3, [r7, #48]
 401 00c2 9A61     		str	r2, [r3, #24]
 876:Middlewares/Third_Party/FreeRTOS/Source/tasks.c **** 	listSET_LIST_ITEM_OWNER( &( pxNewTCB->xEventListItem ), pxNewTCB );
 402              		.loc 1 876 0
 403 00c4 3B6B     		ldr	r3, [r7, #48]
 404 00c6 3A6B     		ldr	r2, [r7, #48]
 405 00c8 5A62     		str	r2, [r3, #36]
 877:Middlewares/Third_Party/FreeRTOS/Source/tasks.c **** 
 878:Middlewares/Third_Party/FreeRTOS/Source/tasks.c **** 	#if ( portCRITICAL_NESTING_IN_TCB == 1 )
 879:Middlewares/Third_Party/FreeRTOS/Source/tasks.c **** 	{
 880:Middlewares/Third_Party/FreeRTOS/Source/tasks.c **** 		pxNewTCB->uxCriticalNesting = ( UBaseType_t ) 0U;
 881:Middlewares/Third_Party/FreeRTOS/Source/tasks.c **** 	}
 882:Middlewares/Third_Party/FreeRTOS/Source/tasks.c **** 	#endif /* portCRITICAL_NESTING_IN_TCB */
 883:Middlewares/Third_Party/FreeRTOS/Source/tasks.c **** 
 884:Middlewares/Third_Party/FreeRTOS/Source/tasks.c **** 	#if ( configUSE_APPLICATION_TASK_TAG == 1 )
 885:Middlewares/Third_Party/FreeRTOS/Source/tasks.c **** 	{
 886:Middlewares/Third_Party/FreeRTOS/Source/tasks.c **** 		pxNewTCB->pxTaskTag = NULL;
 887:Middlewares/Third_Party/FreeRTOS/Source/tasks.c **** 	}
 888:Middlewares/Third_Party/FreeRTOS/Source/tasks.c **** 	#endif /* configUSE_APPLICATION_TASK_TAG */
 889:Middlewares/Third_Party/FreeRTOS/Source/tasks.c **** 
 890:Middlewares/Third_Party/FreeRTOS/Source/tasks.c **** 	#if ( configGENERATE_RUN_TIME_STATS == 1 )
 891:Middlewares/Third_Party/FreeRTOS/Source/tasks.c **** 	{
 892:Middlewares/Third_Party/FreeRTOS/Source/tasks.c **** 		pxNewTCB->ulRunTimeCounter = 0UL;
 893:Middlewares/Third_Party/FreeRTOS/Source/tasks.c **** 	}
 894:Middlewares/Third_Party/FreeRTOS/Source/tasks.c **** 	#endif /* configGENERATE_RUN_TIME_STATS */
 895:Middlewares/Third_Party/FreeRTOS/Source/tasks.c **** 
 896:Middlewares/Third_Party/FreeRTOS/Source/tasks.c **** 	#if ( portUSING_MPU_WRAPPERS == 1 )
 897:Middlewares/Third_Party/FreeRTOS/Source/tasks.c **** 	{
 898:Middlewares/Third_Party/FreeRTOS/Source/tasks.c **** 		vPortStoreTaskMPUSettings( &( pxNewTCB->xMPUSettings ), xRegions, pxNewTCB->pxStack, ulStackDepth
 899:Middlewares/Third_Party/FreeRTOS/Source/tasks.c **** 	}
 900:Middlewares/Third_Party/FreeRTOS/Source/tasks.c **** 	#else
 901:Middlewares/Third_Party/FreeRTOS/Source/tasks.c **** 	{
 902:Middlewares/Third_Party/FreeRTOS/Source/tasks.c **** 		/* Avoid compiler warning about unreferenced parameter. */
 903:Middlewares/Third_Party/FreeRTOS/Source/tasks.c **** 		( void ) xRegions;
 904:Middlewares/Third_Party/FreeRTOS/Source/tasks.c **** 	}
 905:Middlewares/Third_Party/FreeRTOS/Source/tasks.c **** 	#endif
 906:Middlewares/Third_Party/FreeRTOS/Source/tasks.c **** 
 907:Middlewares/Third_Party/FreeRTOS/Source/tasks.c **** 	#if( configNUM_THREAD_LOCAL_STORAGE_POINTERS != 0 )
 908:Middlewares/Third_Party/FreeRTOS/Source/tasks.c **** 	{
 909:Middlewares/Third_Party/FreeRTOS/Source/tasks.c **** 		for( x = 0; x < ( UBaseType_t ) configNUM_THREAD_LOCAL_STORAGE_POINTERS; x++ )
 910:Middlewares/Third_Party/FreeRTOS/Source/tasks.c **** 		{
 911:Middlewares/Third_Party/FreeRTOS/Source/tasks.c **** 			pxNewTCB->pvThreadLocalStoragePointers[ x ] = NULL;
 912:Middlewares/Third_Party/FreeRTOS/Source/tasks.c **** 		}
 913:Middlewares/Third_Party/FreeRTOS/Source/tasks.c **** 	}
 914:Middlewares/Third_Party/FreeRTOS/Source/tasks.c **** 	#endif
 915:Middlewares/Third_Party/FreeRTOS/Source/tasks.c **** 
 916:Middlewares/Third_Party/FreeRTOS/Source/tasks.c **** 	#if ( configUSE_TASK_NOTIFICATIONS == 1 )
ARM GAS  /tmp/ccDSLKwL.s 			page 28


 917:Middlewares/Third_Party/FreeRTOS/Source/tasks.c **** 	{
 918:Middlewares/Third_Party/FreeRTOS/Source/tasks.c **** 		pxNewTCB->ulNotifiedValue = 0;
 406              		.loc 1 918 0
 407 00ca 3B6B     		ldr	r3, [r7, #48]
 408 00cc 0022     		movs	r2, #0
 409 00ce DA64     		str	r2, [r3, #76]
 919:Middlewares/Third_Party/FreeRTOS/Source/tasks.c **** 		pxNewTCB->ucNotifyState = taskNOT_WAITING_NOTIFICATION;
 410              		.loc 1 919 0
 411 00d0 3B6B     		ldr	r3, [r7, #48]
 412 00d2 0022     		movs	r2, #0
 413 00d4 83F85020 		strb	r2, [r3, #80]
 920:Middlewares/Third_Party/FreeRTOS/Source/tasks.c **** 	}
 921:Middlewares/Third_Party/FreeRTOS/Source/tasks.c **** 	#endif
 922:Middlewares/Third_Party/FreeRTOS/Source/tasks.c **** 
 923:Middlewares/Third_Party/FreeRTOS/Source/tasks.c **** 	#if ( configUSE_NEWLIB_REENTRANT == 1 )
 924:Middlewares/Third_Party/FreeRTOS/Source/tasks.c **** 	{
 925:Middlewares/Third_Party/FreeRTOS/Source/tasks.c **** 		/* Initialise this task's Newlib reent structure. */
 926:Middlewares/Third_Party/FreeRTOS/Source/tasks.c **** 		_REENT_INIT_PTR( ( &( pxNewTCB->xNewLib_reent ) ) );
 927:Middlewares/Third_Party/FreeRTOS/Source/tasks.c **** 	}
 928:Middlewares/Third_Party/FreeRTOS/Source/tasks.c **** 	#endif
 929:Middlewares/Third_Party/FreeRTOS/Source/tasks.c **** 
 930:Middlewares/Third_Party/FreeRTOS/Source/tasks.c **** 	#if( INCLUDE_xTaskAbortDelay == 1 )
 931:Middlewares/Third_Party/FreeRTOS/Source/tasks.c **** 	{
 932:Middlewares/Third_Party/FreeRTOS/Source/tasks.c **** 		pxNewTCB->ucDelayAborted = pdFALSE;
 933:Middlewares/Third_Party/FreeRTOS/Source/tasks.c **** 	}
 934:Middlewares/Third_Party/FreeRTOS/Source/tasks.c **** 	#endif
 935:Middlewares/Third_Party/FreeRTOS/Source/tasks.c **** 
 936:Middlewares/Third_Party/FreeRTOS/Source/tasks.c **** 	/* Initialize the TCB stack to look as if the task was already running,
 937:Middlewares/Third_Party/FreeRTOS/Source/tasks.c **** 	but had been interrupted by the scheduler.  The return address is set
 938:Middlewares/Third_Party/FreeRTOS/Source/tasks.c **** 	to the start of the task function. Once the stack has been initialised
 939:Middlewares/Third_Party/FreeRTOS/Source/tasks.c **** 	the	top of stack variable is updated. */
 940:Middlewares/Third_Party/FreeRTOS/Source/tasks.c **** 	#if( portUSING_MPU_WRAPPERS == 1 )
 941:Middlewares/Third_Party/FreeRTOS/Source/tasks.c **** 	{
 942:Middlewares/Third_Party/FreeRTOS/Source/tasks.c **** 		pxNewTCB->pxTopOfStack = pxPortInitialiseStack( pxTopOfStack, pxTaskCode, pvParameters, xRunPrivi
 943:Middlewares/Third_Party/FreeRTOS/Source/tasks.c **** 	}
 944:Middlewares/Third_Party/FreeRTOS/Source/tasks.c **** 	#else /* portUSING_MPU_WRAPPERS */
 945:Middlewares/Third_Party/FreeRTOS/Source/tasks.c **** 	{
 946:Middlewares/Third_Party/FreeRTOS/Source/tasks.c **** 		pxNewTCB->pxTopOfStack = pxPortInitialiseStack( pxTopOfStack, pxTaskCode, pvParameters );
 414              		.loc 1 946 0
 415 00d8 3A68     		ldr	r2, [r7]
 416 00da F968     		ldr	r1, [r7, #12]
 417 00dc B869     		ldr	r0, [r7, #24]
 418 00de FFF7FEFF 		bl	pxPortInitialiseStack
 419 00e2 0246     		mov	r2, r0
 420 00e4 3B6B     		ldr	r3, [r7, #48]
 421 00e6 1A60     		str	r2, [r3]
 947:Middlewares/Third_Party/FreeRTOS/Source/tasks.c **** 	}
 948:Middlewares/Third_Party/FreeRTOS/Source/tasks.c **** 	#endif /* portUSING_MPU_WRAPPERS */
 949:Middlewares/Third_Party/FreeRTOS/Source/tasks.c **** 
 950:Middlewares/Third_Party/FreeRTOS/Source/tasks.c **** 	if( ( void * ) pxCreatedTask != NULL )
 422              		.loc 1 950 0
 423 00e8 FB6A     		ldr	r3, [r7, #44]
 424 00ea 002B     		cmp	r3, #0
 425 00ec 02D0     		beq	.L19
 951:Middlewares/Third_Party/FreeRTOS/Source/tasks.c **** 	{
 952:Middlewares/Third_Party/FreeRTOS/Source/tasks.c **** 		/* Pass the handle out in an anonymous way.  The handle can be used to
 953:Middlewares/Third_Party/FreeRTOS/Source/tasks.c **** 		change the created task's priority, delete the created task, etc.*/
ARM GAS  /tmp/ccDSLKwL.s 			page 29


 954:Middlewares/Third_Party/FreeRTOS/Source/tasks.c **** 		*pxCreatedTask = ( TaskHandle_t ) pxNewTCB;
 426              		.loc 1 954 0
 427 00ee FB6A     		ldr	r3, [r7, #44]
 428 00f0 3A6B     		ldr	r2, [r7, #48]
 429 00f2 1A60     		str	r2, [r3]
 430              	.L19:
 955:Middlewares/Third_Party/FreeRTOS/Source/tasks.c **** 	}
 956:Middlewares/Third_Party/FreeRTOS/Source/tasks.c **** 	else
 957:Middlewares/Third_Party/FreeRTOS/Source/tasks.c **** 	{
 958:Middlewares/Third_Party/FreeRTOS/Source/tasks.c **** 		mtCOVERAGE_TEST_MARKER();
 959:Middlewares/Third_Party/FreeRTOS/Source/tasks.c **** 	}
 960:Middlewares/Third_Party/FreeRTOS/Source/tasks.c **** }
 431              		.loc 1 960 0
 432 00f4 00BF     		nop
 433 00f6 2037     		adds	r7, r7, #32
 434              	.LCFI8:
 435              		.cfi_def_cfa_offset 8
 436 00f8 BD46     		mov	sp, r7
 437              	.LCFI9:
 438              		.cfi_def_cfa_register 13
 439              		@ sp needed
 440 00fa 80BD     		pop	{r7, pc}
 441              		.cfi_endproc
 442              	.LFE6:
 444              		.section	.text.prvAddNewTaskToReadyList,"ax",%progbits
 445              		.align	1
 446              		.syntax unified
 447              		.thumb
 448              		.thumb_func
 449              		.fpu fpv4-sp-d16
 451              	prvAddNewTaskToReadyList:
 452              	.LFB7:
 961:Middlewares/Third_Party/FreeRTOS/Source/tasks.c **** /*-----------------------------------------------------------*/
 962:Middlewares/Third_Party/FreeRTOS/Source/tasks.c **** 
 963:Middlewares/Third_Party/FreeRTOS/Source/tasks.c **** static void prvAddNewTaskToReadyList( TCB_t *pxNewTCB )
 964:Middlewares/Third_Party/FreeRTOS/Source/tasks.c **** {
 453              		.loc 1 964 0
 454              		.cfi_startproc
 455              		@ args = 0, pretend = 0, frame = 8
 456              		@ frame_needed = 1, uses_anonymous_args = 0
 457 0000 80B5     		push	{r7, lr}
 458              	.LCFI10:
 459              		.cfi_def_cfa_offset 8
 460              		.cfi_offset 7, -8
 461              		.cfi_offset 14, -4
 462 0002 82B0     		sub	sp, sp, #8
 463              	.LCFI11:
 464              		.cfi_def_cfa_offset 16
 465 0004 00AF     		add	r7, sp, #0
 466              	.LCFI12:
 467              		.cfi_def_cfa_register 7
 468 0006 7860     		str	r0, [r7, #4]
 965:Middlewares/Third_Party/FreeRTOS/Source/tasks.c **** 	/* Ensure interrupts don't access the task lists while the lists are being
 966:Middlewares/Third_Party/FreeRTOS/Source/tasks.c **** 	updated. */
 967:Middlewares/Third_Party/FreeRTOS/Source/tasks.c **** 	taskENTER_CRITICAL();
 469              		.loc 1 967 0
 470 0008 FFF7FEFF 		bl	vPortEnterCritical
ARM GAS  /tmp/ccDSLKwL.s 			page 30


 968:Middlewares/Third_Party/FreeRTOS/Source/tasks.c **** 	{
 969:Middlewares/Third_Party/FreeRTOS/Source/tasks.c **** 		uxCurrentNumberOfTasks++;
 471              		.loc 1 969 0
 472 000c 2A4B     		ldr	r3, .L25
 473 000e 1B68     		ldr	r3, [r3]
 474 0010 0133     		adds	r3, r3, #1
 475 0012 294A     		ldr	r2, .L25
 476 0014 1360     		str	r3, [r2]
 970:Middlewares/Third_Party/FreeRTOS/Source/tasks.c **** 		if( pxCurrentTCB == NULL )
 477              		.loc 1 970 0
 478 0016 294B     		ldr	r3, .L25+4
 479 0018 1B68     		ldr	r3, [r3]
 480 001a 002B     		cmp	r3, #0
 481 001c 09D1     		bne	.L21
 971:Middlewares/Third_Party/FreeRTOS/Source/tasks.c **** 		{
 972:Middlewares/Third_Party/FreeRTOS/Source/tasks.c **** 			/* There are no other tasks, or all the other tasks are in
 973:Middlewares/Third_Party/FreeRTOS/Source/tasks.c **** 			the suspended state - make this the current task. */
 974:Middlewares/Third_Party/FreeRTOS/Source/tasks.c **** 			pxCurrentTCB = pxNewTCB;
 482              		.loc 1 974 0
 483 001e 274A     		ldr	r2, .L25+4
 484 0020 7B68     		ldr	r3, [r7, #4]
 485 0022 1360     		str	r3, [r2]
 975:Middlewares/Third_Party/FreeRTOS/Source/tasks.c **** 
 976:Middlewares/Third_Party/FreeRTOS/Source/tasks.c **** 			if( uxCurrentNumberOfTasks == ( UBaseType_t ) 1 )
 486              		.loc 1 976 0
 487 0024 244B     		ldr	r3, .L25
 488 0026 1B68     		ldr	r3, [r3]
 489 0028 012B     		cmp	r3, #1
 490 002a 10D1     		bne	.L22
 977:Middlewares/Third_Party/FreeRTOS/Source/tasks.c **** 			{
 978:Middlewares/Third_Party/FreeRTOS/Source/tasks.c **** 				/* This is the first task to be created so do the preliminary
 979:Middlewares/Third_Party/FreeRTOS/Source/tasks.c **** 				initialisation required.  We will not recover if this call
 980:Middlewares/Third_Party/FreeRTOS/Source/tasks.c **** 				fails, but we will report the failure. */
 981:Middlewares/Third_Party/FreeRTOS/Source/tasks.c **** 				prvInitialiseTaskLists();
 491              		.loc 1 981 0
 492 002c FFF7FEFF 		bl	prvInitialiseTaskLists
 493 0030 0DE0     		b	.L22
 494              	.L21:
 982:Middlewares/Third_Party/FreeRTOS/Source/tasks.c **** 			}
 983:Middlewares/Third_Party/FreeRTOS/Source/tasks.c **** 			else
 984:Middlewares/Third_Party/FreeRTOS/Source/tasks.c **** 			{
 985:Middlewares/Third_Party/FreeRTOS/Source/tasks.c **** 				mtCOVERAGE_TEST_MARKER();
 986:Middlewares/Third_Party/FreeRTOS/Source/tasks.c **** 			}
 987:Middlewares/Third_Party/FreeRTOS/Source/tasks.c **** 		}
 988:Middlewares/Third_Party/FreeRTOS/Source/tasks.c **** 		else
 989:Middlewares/Third_Party/FreeRTOS/Source/tasks.c **** 		{
 990:Middlewares/Third_Party/FreeRTOS/Source/tasks.c **** 			/* If the scheduler is not already running, make this task the
 991:Middlewares/Third_Party/FreeRTOS/Source/tasks.c **** 			current task if it is the highest priority task to be created
 992:Middlewares/Third_Party/FreeRTOS/Source/tasks.c **** 			so far. */
 993:Middlewares/Third_Party/FreeRTOS/Source/tasks.c **** 			if( xSchedulerRunning == pdFALSE )
 495              		.loc 1 993 0
 496 0032 234B     		ldr	r3, .L25+8
 497 0034 1B68     		ldr	r3, [r3]
 498 0036 002B     		cmp	r3, #0
 499 0038 09D1     		bne	.L22
 994:Middlewares/Third_Party/FreeRTOS/Source/tasks.c **** 			{
 995:Middlewares/Third_Party/FreeRTOS/Source/tasks.c **** 				if( pxCurrentTCB->uxPriority <= pxNewTCB->uxPriority )
ARM GAS  /tmp/ccDSLKwL.s 			page 31


 500              		.loc 1 995 0
 501 003a 204B     		ldr	r3, .L25+4
 502 003c 1B68     		ldr	r3, [r3]
 503 003e DA6A     		ldr	r2, [r3, #44]
 504 0040 7B68     		ldr	r3, [r7, #4]
 505 0042 DB6A     		ldr	r3, [r3, #44]
 506 0044 9A42     		cmp	r2, r3
 507 0046 02D8     		bhi	.L22
 996:Middlewares/Third_Party/FreeRTOS/Source/tasks.c **** 				{
 997:Middlewares/Third_Party/FreeRTOS/Source/tasks.c **** 					pxCurrentTCB = pxNewTCB;
 508              		.loc 1 997 0
 509 0048 1C4A     		ldr	r2, .L25+4
 510 004a 7B68     		ldr	r3, [r7, #4]
 511 004c 1360     		str	r3, [r2]
 512              	.L22:
 998:Middlewares/Third_Party/FreeRTOS/Source/tasks.c **** 				}
 999:Middlewares/Third_Party/FreeRTOS/Source/tasks.c **** 				else
1000:Middlewares/Third_Party/FreeRTOS/Source/tasks.c **** 				{
1001:Middlewares/Third_Party/FreeRTOS/Source/tasks.c **** 					mtCOVERAGE_TEST_MARKER();
1002:Middlewares/Third_Party/FreeRTOS/Source/tasks.c **** 				}
1003:Middlewares/Third_Party/FreeRTOS/Source/tasks.c **** 			}
1004:Middlewares/Third_Party/FreeRTOS/Source/tasks.c **** 			else
1005:Middlewares/Third_Party/FreeRTOS/Source/tasks.c **** 			{
1006:Middlewares/Third_Party/FreeRTOS/Source/tasks.c **** 				mtCOVERAGE_TEST_MARKER();
1007:Middlewares/Third_Party/FreeRTOS/Source/tasks.c **** 			}
1008:Middlewares/Third_Party/FreeRTOS/Source/tasks.c **** 		}
1009:Middlewares/Third_Party/FreeRTOS/Source/tasks.c **** 
1010:Middlewares/Third_Party/FreeRTOS/Source/tasks.c **** 		uxTaskNumber++;
 513              		.loc 1 1010 0
 514 004e 1D4B     		ldr	r3, .L25+12
 515 0050 1B68     		ldr	r3, [r3]
 516 0052 0133     		adds	r3, r3, #1
 517 0054 1B4A     		ldr	r2, .L25+12
 518 0056 1360     		str	r3, [r2]
1011:Middlewares/Third_Party/FreeRTOS/Source/tasks.c **** 
1012:Middlewares/Third_Party/FreeRTOS/Source/tasks.c **** 		#if ( configUSE_TRACE_FACILITY == 1 )
1013:Middlewares/Third_Party/FreeRTOS/Source/tasks.c **** 		{
1014:Middlewares/Third_Party/FreeRTOS/Source/tasks.c **** 			/* Add a counter into the TCB for tracing only. */
1015:Middlewares/Third_Party/FreeRTOS/Source/tasks.c **** 			pxNewTCB->uxTCBNumber = uxTaskNumber;
1016:Middlewares/Third_Party/FreeRTOS/Source/tasks.c **** 		}
1017:Middlewares/Third_Party/FreeRTOS/Source/tasks.c **** 		#endif /* configUSE_TRACE_FACILITY */
1018:Middlewares/Third_Party/FreeRTOS/Source/tasks.c **** 		traceTASK_CREATE( pxNewTCB );
1019:Middlewares/Third_Party/FreeRTOS/Source/tasks.c **** 
1020:Middlewares/Third_Party/FreeRTOS/Source/tasks.c **** 		prvAddTaskToReadyList( pxNewTCB );
 519              		.loc 1 1020 0
 520 0058 7B68     		ldr	r3, [r7, #4]
 521 005a DB6A     		ldr	r3, [r3, #44]
 522 005c 0122     		movs	r2, #1
 523 005e 9A40     		lsls	r2, r2, r3
 524 0060 194B     		ldr	r3, .L25+16
 525 0062 1B68     		ldr	r3, [r3]
 526 0064 1343     		orrs	r3, r3, r2
 527 0066 184A     		ldr	r2, .L25+16
 528 0068 1360     		str	r3, [r2]
 529 006a 7B68     		ldr	r3, [r7, #4]
 530 006c DA6A     		ldr	r2, [r3, #44]
 531 006e 1346     		mov	r3, r2
ARM GAS  /tmp/ccDSLKwL.s 			page 32


 532 0070 9B00     		lsls	r3, r3, #2
 533 0072 1344     		add	r3, r3, r2
 534 0074 9B00     		lsls	r3, r3, #2
 535 0076 154A     		ldr	r2, .L25+20
 536 0078 1A44     		add	r2, r2, r3
 537 007a 7B68     		ldr	r3, [r7, #4]
 538 007c 0433     		adds	r3, r3, #4
 539 007e 1946     		mov	r1, r3
 540 0080 1046     		mov	r0, r2
 541 0082 FFF7FEFF 		bl	vListInsertEnd
1021:Middlewares/Third_Party/FreeRTOS/Source/tasks.c **** 
1022:Middlewares/Third_Party/FreeRTOS/Source/tasks.c **** 		portSETUP_TCB( pxNewTCB );
1023:Middlewares/Third_Party/FreeRTOS/Source/tasks.c **** 	}
1024:Middlewares/Third_Party/FreeRTOS/Source/tasks.c **** 	taskEXIT_CRITICAL();
 542              		.loc 1 1024 0
 543 0086 FFF7FEFF 		bl	vPortExitCritical
1025:Middlewares/Third_Party/FreeRTOS/Source/tasks.c **** 
1026:Middlewares/Third_Party/FreeRTOS/Source/tasks.c **** 	if( xSchedulerRunning != pdFALSE )
 544              		.loc 1 1026 0
 545 008a 0D4B     		ldr	r3, .L25+8
 546 008c 1B68     		ldr	r3, [r3]
 547 008e 002B     		cmp	r3, #0
 548 0090 0ED0     		beq	.L24
1027:Middlewares/Third_Party/FreeRTOS/Source/tasks.c **** 	{
1028:Middlewares/Third_Party/FreeRTOS/Source/tasks.c **** 		/* If the created task is of a higher priority than the current task
1029:Middlewares/Third_Party/FreeRTOS/Source/tasks.c **** 		then it should run now. */
1030:Middlewares/Third_Party/FreeRTOS/Source/tasks.c **** 		if( pxCurrentTCB->uxPriority < pxNewTCB->uxPriority )
 549              		.loc 1 1030 0
 550 0092 0A4B     		ldr	r3, .L25+4
 551 0094 1B68     		ldr	r3, [r3]
 552 0096 DA6A     		ldr	r2, [r3, #44]
 553 0098 7B68     		ldr	r3, [r7, #4]
 554 009a DB6A     		ldr	r3, [r3, #44]
 555 009c 9A42     		cmp	r2, r3
 556 009e 07D2     		bcs	.L24
1031:Middlewares/Third_Party/FreeRTOS/Source/tasks.c **** 		{
1032:Middlewares/Third_Party/FreeRTOS/Source/tasks.c **** 			taskYIELD_IF_USING_PREEMPTION();
 557              		.loc 1 1032 0
 558 00a0 0B4B     		ldr	r3, .L25+24
 559 00a2 4FF08052 		mov	r2, #268435456
 560 00a6 1A60     		str	r2, [r3]
 561              		.syntax unified
 562              	@ 1032 "Middlewares/Third_Party/FreeRTOS/Source/tasks.c" 1
 563 00a8 BFF34F8F 		dsb
 564              	@ 0 "" 2
 565              	@ 1032 "Middlewares/Third_Party/FreeRTOS/Source/tasks.c" 1
 566 00ac BFF36F8F 		isb
 567              	@ 0 "" 2
 568              		.thumb
 569              		.syntax unified
 570              	.L24:
1033:Middlewares/Third_Party/FreeRTOS/Source/tasks.c **** 		}
1034:Middlewares/Third_Party/FreeRTOS/Source/tasks.c **** 		else
1035:Middlewares/Third_Party/FreeRTOS/Source/tasks.c **** 		{
1036:Middlewares/Third_Party/FreeRTOS/Source/tasks.c **** 			mtCOVERAGE_TEST_MARKER();
1037:Middlewares/Third_Party/FreeRTOS/Source/tasks.c **** 		}
1038:Middlewares/Third_Party/FreeRTOS/Source/tasks.c **** 	}
ARM GAS  /tmp/ccDSLKwL.s 			page 33


1039:Middlewares/Third_Party/FreeRTOS/Source/tasks.c **** 	else
1040:Middlewares/Third_Party/FreeRTOS/Source/tasks.c **** 	{
1041:Middlewares/Third_Party/FreeRTOS/Source/tasks.c **** 		mtCOVERAGE_TEST_MARKER();
1042:Middlewares/Third_Party/FreeRTOS/Source/tasks.c **** 	}
1043:Middlewares/Third_Party/FreeRTOS/Source/tasks.c **** }
 571              		.loc 1 1043 0
 572 00b0 00BF     		nop
 573 00b2 0837     		adds	r7, r7, #8
 574              	.LCFI13:
 575              		.cfi_def_cfa_offset 8
 576 00b4 BD46     		mov	sp, r7
 577              	.LCFI14:
 578              		.cfi_def_cfa_register 13
 579              		@ sp needed
 580 00b6 80BD     		pop	{r7, pc}
 581              	.L26:
 582              		.align	2
 583              	.L25:
 584 00b8 00000000 		.word	uxCurrentNumberOfTasks
 585 00bc 00000000 		.word	pxCurrentTCB
 586 00c0 00000000 		.word	xSchedulerRunning
 587 00c4 00000000 		.word	uxTaskNumber
 588 00c8 00000000 		.word	uxTopReadyPriority
 589 00cc 00000000 		.word	pxReadyTasksLists
 590 00d0 04ED00E0 		.word	-536810236
 591              		.cfi_endproc
 592              	.LFE7:
 594              		.section	.text.vTaskDelete,"ax",%progbits
 595              		.align	1
 596              		.global	vTaskDelete
 597              		.syntax unified
 598              		.thumb
 599              		.thumb_func
 600              		.fpu fpv4-sp-d16
 602              	vTaskDelete:
 603              	.LFB8:
1044:Middlewares/Third_Party/FreeRTOS/Source/tasks.c **** /*-----------------------------------------------------------*/
1045:Middlewares/Third_Party/FreeRTOS/Source/tasks.c **** 
1046:Middlewares/Third_Party/FreeRTOS/Source/tasks.c **** #if ( INCLUDE_vTaskDelete == 1 )
1047:Middlewares/Third_Party/FreeRTOS/Source/tasks.c **** 
1048:Middlewares/Third_Party/FreeRTOS/Source/tasks.c **** 	void vTaskDelete( TaskHandle_t xTaskToDelete )
1049:Middlewares/Third_Party/FreeRTOS/Source/tasks.c **** 	{
 604              		.loc 1 1049 0
 605              		.cfi_startproc
 606              		@ args = 0, pretend = 0, frame = 16
 607              		@ frame_needed = 1, uses_anonymous_args = 0
 608 0000 80B5     		push	{r7, lr}
 609              	.LCFI15:
 610              		.cfi_def_cfa_offset 8
 611              		.cfi_offset 7, -8
 612              		.cfi_offset 14, -4
 613 0002 84B0     		sub	sp, sp, #16
 614              	.LCFI16:
 615              		.cfi_def_cfa_offset 24
 616 0004 00AF     		add	r7, sp, #0
 617              	.LCFI17:
 618              		.cfi_def_cfa_register 7
ARM GAS  /tmp/ccDSLKwL.s 			page 34


 619 0006 7860     		str	r0, [r7, #4]
1050:Middlewares/Third_Party/FreeRTOS/Source/tasks.c **** 	TCB_t *pxTCB;
1051:Middlewares/Third_Party/FreeRTOS/Source/tasks.c **** 
1052:Middlewares/Third_Party/FreeRTOS/Source/tasks.c **** 		taskENTER_CRITICAL();
 620              		.loc 1 1052 0
 621 0008 FFF7FEFF 		bl	vPortEnterCritical
1053:Middlewares/Third_Party/FreeRTOS/Source/tasks.c **** 		{
1054:Middlewares/Third_Party/FreeRTOS/Source/tasks.c **** 			/* If null is passed in here then it is the calling task that is
1055:Middlewares/Third_Party/FreeRTOS/Source/tasks.c **** 			being deleted. */
1056:Middlewares/Third_Party/FreeRTOS/Source/tasks.c **** 			pxTCB = prvGetTCBFromHandle( xTaskToDelete );
 622              		.loc 1 1056 0
 623 000c 7B68     		ldr	r3, [r7, #4]
 624 000e 002B     		cmp	r3, #0
 625 0010 02D1     		bne	.L28
 626              		.loc 1 1056 0 is_stmt 0 discriminator 1
 627 0012 384B     		ldr	r3, .L39
 628 0014 1B68     		ldr	r3, [r3]
 629 0016 00E0     		b	.L29
 630              	.L28:
 631              		.loc 1 1056 0 discriminator 2
 632 0018 7B68     		ldr	r3, [r7, #4]
 633              	.L29:
 634              		.loc 1 1056 0 discriminator 4
 635 001a FB60     		str	r3, [r7, #12]
1057:Middlewares/Third_Party/FreeRTOS/Source/tasks.c **** 
1058:Middlewares/Third_Party/FreeRTOS/Source/tasks.c **** 			/* Remove task from the ready list. */
1059:Middlewares/Third_Party/FreeRTOS/Source/tasks.c **** 			if( uxListRemove( &( pxTCB->xStateListItem ) ) == ( UBaseType_t ) 0 )
 636              		.loc 1 1059 0 is_stmt 1 discriminator 4
 637 001c FB68     		ldr	r3, [r7, #12]
 638 001e 0433     		adds	r3, r3, #4
 639 0020 1846     		mov	r0, r3
 640 0022 FFF7FEFF 		bl	uxListRemove
 641 0026 0346     		mov	r3, r0
 642 0028 002B     		cmp	r3, #0
 643 002a 15D1     		bne	.L30
1060:Middlewares/Third_Party/FreeRTOS/Source/tasks.c **** 			{
1061:Middlewares/Third_Party/FreeRTOS/Source/tasks.c **** 				taskRESET_READY_PRIORITY( pxTCB->uxPriority );
 644              		.loc 1 1061 0
 645 002c FB68     		ldr	r3, [r7, #12]
 646 002e DA6A     		ldr	r2, [r3, #44]
 647 0030 3149     		ldr	r1, .L39+4
 648 0032 1346     		mov	r3, r2
 649 0034 9B00     		lsls	r3, r3, #2
 650 0036 1344     		add	r3, r3, r2
 651 0038 9B00     		lsls	r3, r3, #2
 652 003a 0B44     		add	r3, r3, r1
 653 003c 1B68     		ldr	r3, [r3]
 654 003e 002B     		cmp	r3, #0
 655 0040 0AD1     		bne	.L30
 656              		.loc 1 1061 0 is_stmt 0 discriminator 1
 657 0042 FB68     		ldr	r3, [r7, #12]
 658 0044 DB6A     		ldr	r3, [r3, #44]
 659 0046 0122     		movs	r2, #1
 660 0048 02FA03F3 		lsl	r3, r2, r3
 661 004c DA43     		mvns	r2, r3
 662 004e 2B4B     		ldr	r3, .L39+8
 663 0050 1B68     		ldr	r3, [r3]
ARM GAS  /tmp/ccDSLKwL.s 			page 35


 664 0052 1340     		ands	r3, r3, r2
 665 0054 294A     		ldr	r2, .L39+8
 666 0056 1360     		str	r3, [r2]
 667              	.L30:
1062:Middlewares/Third_Party/FreeRTOS/Source/tasks.c **** 			}
1063:Middlewares/Third_Party/FreeRTOS/Source/tasks.c **** 			else
1064:Middlewares/Third_Party/FreeRTOS/Source/tasks.c **** 			{
1065:Middlewares/Third_Party/FreeRTOS/Source/tasks.c **** 				mtCOVERAGE_TEST_MARKER();
1066:Middlewares/Third_Party/FreeRTOS/Source/tasks.c **** 			}
1067:Middlewares/Third_Party/FreeRTOS/Source/tasks.c **** 
1068:Middlewares/Third_Party/FreeRTOS/Source/tasks.c **** 			/* Is the task waiting on an event also? */
1069:Middlewares/Third_Party/FreeRTOS/Source/tasks.c **** 			if( listLIST_ITEM_CONTAINER( &( pxTCB->xEventListItem ) ) != NULL )
 668              		.loc 1 1069 0 is_stmt 1
 669 0058 FB68     		ldr	r3, [r7, #12]
 670 005a 9B6A     		ldr	r3, [r3, #40]
 671 005c 002B     		cmp	r3, #0
 672 005e 04D0     		beq	.L32
1070:Middlewares/Third_Party/FreeRTOS/Source/tasks.c **** 			{
1071:Middlewares/Third_Party/FreeRTOS/Source/tasks.c **** 				( void ) uxListRemove( &( pxTCB->xEventListItem ) );
 673              		.loc 1 1071 0
 674 0060 FB68     		ldr	r3, [r7, #12]
 675 0062 1833     		adds	r3, r3, #24
 676 0064 1846     		mov	r0, r3
 677 0066 FFF7FEFF 		bl	uxListRemove
 678              	.L32:
1072:Middlewares/Third_Party/FreeRTOS/Source/tasks.c **** 			}
1073:Middlewares/Third_Party/FreeRTOS/Source/tasks.c **** 			else
1074:Middlewares/Third_Party/FreeRTOS/Source/tasks.c **** 			{
1075:Middlewares/Third_Party/FreeRTOS/Source/tasks.c **** 				mtCOVERAGE_TEST_MARKER();
1076:Middlewares/Third_Party/FreeRTOS/Source/tasks.c **** 			}
1077:Middlewares/Third_Party/FreeRTOS/Source/tasks.c **** 
1078:Middlewares/Third_Party/FreeRTOS/Source/tasks.c **** 			/* Increment the uxTaskNumber also so kernel aware debuggers can
1079:Middlewares/Third_Party/FreeRTOS/Source/tasks.c **** 			detect that the task lists need re-generating.  This is done before
1080:Middlewares/Third_Party/FreeRTOS/Source/tasks.c **** 			portPRE_TASK_DELETE_HOOK() as in the Windows port that macro will
1081:Middlewares/Third_Party/FreeRTOS/Source/tasks.c **** 			not return. */
1082:Middlewares/Third_Party/FreeRTOS/Source/tasks.c **** 			uxTaskNumber++;
 679              		.loc 1 1082 0
 680 006a 254B     		ldr	r3, .L39+12
 681 006c 1B68     		ldr	r3, [r3]
 682 006e 0133     		adds	r3, r3, #1
 683 0070 234A     		ldr	r2, .L39+12
 684 0072 1360     		str	r3, [r2]
1083:Middlewares/Third_Party/FreeRTOS/Source/tasks.c **** 
1084:Middlewares/Third_Party/FreeRTOS/Source/tasks.c **** 			if( pxTCB == pxCurrentTCB )
 685              		.loc 1 1084 0
 686 0074 1F4B     		ldr	r3, .L39
 687 0076 1B68     		ldr	r3, [r3]
 688 0078 FA68     		ldr	r2, [r7, #12]
 689 007a 9A42     		cmp	r2, r3
 690 007c 0BD1     		bne	.L33
1085:Middlewares/Third_Party/FreeRTOS/Source/tasks.c **** 			{
1086:Middlewares/Third_Party/FreeRTOS/Source/tasks.c **** 				/* A task is deleting itself.  This cannot complete within the
1087:Middlewares/Third_Party/FreeRTOS/Source/tasks.c **** 				task itself, as a context switch to another task is required.
1088:Middlewares/Third_Party/FreeRTOS/Source/tasks.c **** 				Place the task in the termination list.  The idle task will
1089:Middlewares/Third_Party/FreeRTOS/Source/tasks.c **** 				check the termination list and free up any memory allocated by
1090:Middlewares/Third_Party/FreeRTOS/Source/tasks.c **** 				the scheduler for the TCB and stack of the deleted task. */
1091:Middlewares/Third_Party/FreeRTOS/Source/tasks.c **** 				vListInsertEnd( &xTasksWaitingTermination, &( pxTCB->xStateListItem ) );
ARM GAS  /tmp/ccDSLKwL.s 			page 36


 691              		.loc 1 1091 0
 692 007e FB68     		ldr	r3, [r7, #12]
 693 0080 0433     		adds	r3, r3, #4
 694 0082 1946     		mov	r1, r3
 695 0084 1F48     		ldr	r0, .L39+16
 696 0086 FFF7FEFF 		bl	vListInsertEnd
1092:Middlewares/Third_Party/FreeRTOS/Source/tasks.c **** 
1093:Middlewares/Third_Party/FreeRTOS/Source/tasks.c **** 				/* Increment the ucTasksDeleted variable so the idle task knows
1094:Middlewares/Third_Party/FreeRTOS/Source/tasks.c **** 				there is a task that has been deleted and that it should therefore
1095:Middlewares/Third_Party/FreeRTOS/Source/tasks.c **** 				check the xTasksWaitingTermination list. */
1096:Middlewares/Third_Party/FreeRTOS/Source/tasks.c **** 				++uxDeletedTasksWaitingCleanUp;
 697              		.loc 1 1096 0
 698 008a 1F4B     		ldr	r3, .L39+20
 699 008c 1B68     		ldr	r3, [r3]
 700 008e 0133     		adds	r3, r3, #1
 701 0090 1D4A     		ldr	r2, .L39+20
 702 0092 1360     		str	r3, [r2]
 703 0094 09E0     		b	.L34
 704              	.L33:
1097:Middlewares/Third_Party/FreeRTOS/Source/tasks.c **** 
1098:Middlewares/Third_Party/FreeRTOS/Source/tasks.c **** 				/* The pre-delete hook is primarily for the Windows simulator,
1099:Middlewares/Third_Party/FreeRTOS/Source/tasks.c **** 				in which Windows specific clean up operations are performed,
1100:Middlewares/Third_Party/FreeRTOS/Source/tasks.c **** 				after which it is not possible to yield away from this task -
1101:Middlewares/Third_Party/FreeRTOS/Source/tasks.c **** 				hence xYieldPending is used to latch that a context switch is
1102:Middlewares/Third_Party/FreeRTOS/Source/tasks.c **** 				required. */
1103:Middlewares/Third_Party/FreeRTOS/Source/tasks.c **** 				portPRE_TASK_DELETE_HOOK( pxTCB, &xYieldPending );
1104:Middlewares/Third_Party/FreeRTOS/Source/tasks.c **** 			}
1105:Middlewares/Third_Party/FreeRTOS/Source/tasks.c **** 			else
1106:Middlewares/Third_Party/FreeRTOS/Source/tasks.c **** 			{
1107:Middlewares/Third_Party/FreeRTOS/Source/tasks.c **** 				--uxCurrentNumberOfTasks;
 705              		.loc 1 1107 0
 706 0096 1D4B     		ldr	r3, .L39+24
 707 0098 1B68     		ldr	r3, [r3]
 708 009a 013B     		subs	r3, r3, #1
 709 009c 1B4A     		ldr	r2, .L39+24
 710 009e 1360     		str	r3, [r2]
1108:Middlewares/Third_Party/FreeRTOS/Source/tasks.c **** 				prvDeleteTCB( pxTCB );
 711              		.loc 1 1108 0
 712 00a0 F868     		ldr	r0, [r7, #12]
 713 00a2 FFF7FEFF 		bl	prvDeleteTCB
1109:Middlewares/Third_Party/FreeRTOS/Source/tasks.c **** 
1110:Middlewares/Third_Party/FreeRTOS/Source/tasks.c **** 				/* Reset the next expected unblock time in case it referred to
1111:Middlewares/Third_Party/FreeRTOS/Source/tasks.c **** 				the task that has just been deleted. */
1112:Middlewares/Third_Party/FreeRTOS/Source/tasks.c **** 				prvResetNextTaskUnblockTime();
 714              		.loc 1 1112 0
 715 00a6 FFF7FEFF 		bl	prvResetNextTaskUnblockTime
 716              	.L34:
1113:Middlewares/Third_Party/FreeRTOS/Source/tasks.c **** 			}
1114:Middlewares/Third_Party/FreeRTOS/Source/tasks.c **** 
1115:Middlewares/Third_Party/FreeRTOS/Source/tasks.c **** 			traceTASK_DELETE( pxTCB );
1116:Middlewares/Third_Party/FreeRTOS/Source/tasks.c **** 		}
1117:Middlewares/Third_Party/FreeRTOS/Source/tasks.c **** 		taskEXIT_CRITICAL();
 717              		.loc 1 1117 0
 718 00aa FFF7FEFF 		bl	vPortExitCritical
1118:Middlewares/Third_Party/FreeRTOS/Source/tasks.c **** 
1119:Middlewares/Third_Party/FreeRTOS/Source/tasks.c **** 		/* Force a reschedule if it is the currently running task that has just
1120:Middlewares/Third_Party/FreeRTOS/Source/tasks.c **** 		been deleted. */
ARM GAS  /tmp/ccDSLKwL.s 			page 37


1121:Middlewares/Third_Party/FreeRTOS/Source/tasks.c **** 		if( xSchedulerRunning != pdFALSE )
 719              		.loc 1 1121 0
 720 00ae 184B     		ldr	r3, .L39+28
 721 00b0 1B68     		ldr	r3, [r3]
 722 00b2 002B     		cmp	r3, #0
 723 00b4 1AD0     		beq	.L38
1122:Middlewares/Third_Party/FreeRTOS/Source/tasks.c **** 		{
1123:Middlewares/Third_Party/FreeRTOS/Source/tasks.c **** 			if( pxTCB == pxCurrentTCB )
 724              		.loc 1 1123 0
 725 00b6 0F4B     		ldr	r3, .L39
 726 00b8 1B68     		ldr	r3, [r3]
 727 00ba FA68     		ldr	r2, [r7, #12]
 728 00bc 9A42     		cmp	r2, r3
 729 00be 15D1     		bne	.L38
1124:Middlewares/Third_Party/FreeRTOS/Source/tasks.c **** 			{
1125:Middlewares/Third_Party/FreeRTOS/Source/tasks.c **** 				configASSERT( uxSchedulerSuspended == 0 );
 730              		.loc 1 1125 0
 731 00c0 144B     		ldr	r3, .L39+32
 732 00c2 1B68     		ldr	r3, [r3]
 733 00c4 002B     		cmp	r3, #0
 734 00c6 09D0     		beq	.L36
 735              	.LBB100:
 736              	.LBB101:
 737              		.loc 2 237 0 discriminator 1
 738              		.syntax unified
 739              	@ 237 "Middlewares/Third_Party/FreeRTOS/Source/portable/GCC/ARM_CM4F/portmacro.h" 1
 740 00c8 4FF05003 			mov r3, #80												
 741 00cc 83F31188 		msr basepri, r3											
 742 00d0 BFF36F8F 		isb														
 743 00d4 BFF34F8F 		dsb														
 744              	
 745              	@ 0 "" 2
 746              		.thumb
 747              		.syntax unified
 748 00d8 BB60     		str	r3, [r7, #8]
 749              	.L37:
 750              	.LBE101:
 751              	.LBE100:
 752              		.loc 1 1125 0 discriminator 1
 753 00da FEE7     		b	.L37
 754              	.L36:
1126:Middlewares/Third_Party/FreeRTOS/Source/tasks.c **** 				portYIELD_WITHIN_API();
 755              		.loc 1 1126 0
 756 00dc 0E4B     		ldr	r3, .L39+36
 757 00de 4FF08052 		mov	r2, #268435456
 758 00e2 1A60     		str	r2, [r3]
 759              		.syntax unified
 760              	@ 1126 "Middlewares/Third_Party/FreeRTOS/Source/tasks.c" 1
 761 00e4 BFF34F8F 		dsb
 762              	@ 0 "" 2
 763              	@ 1126 "Middlewares/Third_Party/FreeRTOS/Source/tasks.c" 1
 764 00e8 BFF36F8F 		isb
 765              	@ 0 "" 2
 766              		.thumb
 767              		.syntax unified
 768              	.L38:
1127:Middlewares/Third_Party/FreeRTOS/Source/tasks.c **** 			}
ARM GAS  /tmp/ccDSLKwL.s 			page 38


1128:Middlewares/Third_Party/FreeRTOS/Source/tasks.c **** 			else
1129:Middlewares/Third_Party/FreeRTOS/Source/tasks.c **** 			{
1130:Middlewares/Third_Party/FreeRTOS/Source/tasks.c **** 				mtCOVERAGE_TEST_MARKER();
1131:Middlewares/Third_Party/FreeRTOS/Source/tasks.c **** 			}
1132:Middlewares/Third_Party/FreeRTOS/Source/tasks.c **** 		}
1133:Middlewares/Third_Party/FreeRTOS/Source/tasks.c **** 	}
 769              		.loc 1 1133 0
 770 00ec 00BF     		nop
 771 00ee 1037     		adds	r7, r7, #16
 772              	.LCFI18:
 773              		.cfi_def_cfa_offset 8
 774 00f0 BD46     		mov	sp, r7
 775              	.LCFI19:
 776              		.cfi_def_cfa_register 13
 777              		@ sp needed
 778 00f2 80BD     		pop	{r7, pc}
 779              	.L40:
 780              		.align	2
 781              	.L39:
 782 00f4 00000000 		.word	pxCurrentTCB
 783 00f8 00000000 		.word	pxReadyTasksLists
 784 00fc 00000000 		.word	uxTopReadyPriority
 785 0100 00000000 		.word	uxTaskNumber
 786 0104 00000000 		.word	xTasksWaitingTermination
 787 0108 00000000 		.word	uxDeletedTasksWaitingCleanUp
 788 010c 00000000 		.word	uxCurrentNumberOfTasks
 789 0110 00000000 		.word	xSchedulerRunning
 790 0114 00000000 		.word	uxSchedulerSuspended
 791 0118 04ED00E0 		.word	-536810236
 792              		.cfi_endproc
 793              	.LFE8:
 795              		.section	.text.vTaskDelayUntil,"ax",%progbits
 796              		.align	1
 797              		.global	vTaskDelayUntil
 798              		.syntax unified
 799              		.thumb
 800              		.thumb_func
 801              		.fpu fpv4-sp-d16
 803              	vTaskDelayUntil:
 804              	.LFB9:
1134:Middlewares/Third_Party/FreeRTOS/Source/tasks.c **** 
1135:Middlewares/Third_Party/FreeRTOS/Source/tasks.c **** #endif /* INCLUDE_vTaskDelete */
1136:Middlewares/Third_Party/FreeRTOS/Source/tasks.c **** /*-----------------------------------------------------------*/
1137:Middlewares/Third_Party/FreeRTOS/Source/tasks.c **** 
1138:Middlewares/Third_Party/FreeRTOS/Source/tasks.c **** #if ( INCLUDE_vTaskDelayUntil == 1 )
1139:Middlewares/Third_Party/FreeRTOS/Source/tasks.c **** 
1140:Middlewares/Third_Party/FreeRTOS/Source/tasks.c **** 	void vTaskDelayUntil( TickType_t * const pxPreviousWakeTime, const TickType_t xTimeIncrement )
1141:Middlewares/Third_Party/FreeRTOS/Source/tasks.c **** 	{
 805              		.loc 1 1141 0
 806              		.cfi_startproc
 807              		@ args = 0, pretend = 0, frame = 40
 808              		@ frame_needed = 1, uses_anonymous_args = 0
 809 0000 80B5     		push	{r7, lr}
 810              	.LCFI20:
 811              		.cfi_def_cfa_offset 8
 812              		.cfi_offset 7, -8
 813              		.cfi_offset 14, -4
ARM GAS  /tmp/ccDSLKwL.s 			page 39


 814 0002 8AB0     		sub	sp, sp, #40
 815              	.LCFI21:
 816              		.cfi_def_cfa_offset 48
 817 0004 00AF     		add	r7, sp, #0
 818              	.LCFI22:
 819              		.cfi_def_cfa_register 7
 820 0006 7860     		str	r0, [r7, #4]
 821 0008 3960     		str	r1, [r7]
1142:Middlewares/Third_Party/FreeRTOS/Source/tasks.c **** 	TickType_t xTimeToWake;
1143:Middlewares/Third_Party/FreeRTOS/Source/tasks.c **** 	BaseType_t xAlreadyYielded, xShouldDelay = pdFALSE;
 822              		.loc 1 1143 0
 823 000a 0023     		movs	r3, #0
 824 000c 7B62     		str	r3, [r7, #36]
1144:Middlewares/Third_Party/FreeRTOS/Source/tasks.c **** 
1145:Middlewares/Third_Party/FreeRTOS/Source/tasks.c **** 		configASSERT( pxPreviousWakeTime );
 825              		.loc 1 1145 0
 826 000e 7B68     		ldr	r3, [r7, #4]
 827 0010 002B     		cmp	r3, #0
 828 0012 09D1     		bne	.L42
 829              	.LBB102:
 830              	.LBB103:
 831              		.loc 2 237 0 discriminator 1
 832              		.syntax unified
 833              	@ 237 "Middlewares/Third_Party/FreeRTOS/Source/portable/GCC/ARM_CM4F/portmacro.h" 1
 834 0014 4FF05003 			mov r3, #80												
 835 0018 83F31188 		msr basepri, r3											
 836 001c BFF36F8F 		isb														
 837 0020 BFF34F8F 		dsb														
 838              	
 839              	@ 0 "" 2
 840              		.thumb
 841              		.syntax unified
 842 0024 7B61     		str	r3, [r7, #20]
 843              	.L43:
 844              	.LBE103:
 845              	.LBE102:
 846              		.loc 1 1145 0 discriminator 1
 847 0026 FEE7     		b	.L43
 848              	.L42:
1146:Middlewares/Third_Party/FreeRTOS/Source/tasks.c **** 		configASSERT( ( xTimeIncrement > 0U ) );
 849              		.loc 1 1146 0
 850 0028 3B68     		ldr	r3, [r7]
 851 002a 002B     		cmp	r3, #0
 852 002c 09D1     		bne	.L44
 853              	.LBB104:
 854              	.LBB105:
 855              		.loc 2 237 0 discriminator 1
 856              		.syntax unified
 857              	@ 237 "Middlewares/Third_Party/FreeRTOS/Source/portable/GCC/ARM_CM4F/portmacro.h" 1
 858 002e 4FF05003 			mov r3, #80												
 859 0032 83F31188 		msr basepri, r3											
 860 0036 BFF36F8F 		isb														
 861 003a BFF34F8F 		dsb														
 862              	
 863              	@ 0 "" 2
 864              		.thumb
 865              		.syntax unified
ARM GAS  /tmp/ccDSLKwL.s 			page 40


 866 003e 3B61     		str	r3, [r7, #16]
 867              	.L45:
 868              	.LBE105:
 869              	.LBE104:
 870              		.loc 1 1146 0 discriminator 2
 871 0040 FEE7     		b	.L45
 872              	.L44:
1147:Middlewares/Third_Party/FreeRTOS/Source/tasks.c **** 		configASSERT( uxSchedulerSuspended == 0 );
 873              		.loc 1 1147 0
 874 0042 294B     		ldr	r3, .L54
 875 0044 1B68     		ldr	r3, [r3]
 876 0046 002B     		cmp	r3, #0
 877 0048 09D0     		beq	.L46
 878              	.LBB106:
 879              	.LBB107:
 880              		.loc 2 237 0 discriminator 1
 881              		.syntax unified
 882              	@ 237 "Middlewares/Third_Party/FreeRTOS/Source/portable/GCC/ARM_CM4F/portmacro.h" 1
 883 004a 4FF05003 			mov r3, #80												
 884 004e 83F31188 		msr basepri, r3											
 885 0052 BFF36F8F 		isb														
 886 0056 BFF34F8F 		dsb														
 887              	
 888              	@ 0 "" 2
 889              		.thumb
 890              		.syntax unified
 891 005a FB60     		str	r3, [r7, #12]
 892              	.L47:
 893              	.LBE107:
 894              	.LBE106:
 895              		.loc 1 1147 0 discriminator 3
 896 005c FEE7     		b	.L47
 897              	.L46:
1148:Middlewares/Third_Party/FreeRTOS/Source/tasks.c **** 
1149:Middlewares/Third_Party/FreeRTOS/Source/tasks.c **** 		vTaskSuspendAll();
 898              		.loc 1 1149 0
 899 005e FFF7FEFF 		bl	vTaskSuspendAll
 900              	.LBB108:
1150:Middlewares/Third_Party/FreeRTOS/Source/tasks.c **** 		{
1151:Middlewares/Third_Party/FreeRTOS/Source/tasks.c **** 			/* Minor optimisation.  The tick count cannot change in this
1152:Middlewares/Third_Party/FreeRTOS/Source/tasks.c **** 			block. */
1153:Middlewares/Third_Party/FreeRTOS/Source/tasks.c **** 			const TickType_t xConstTickCount = xTickCount;
 901              		.loc 1 1153 0
 902 0062 224B     		ldr	r3, .L54+4
 903 0064 1B68     		ldr	r3, [r3]
 904 0066 3B62     		str	r3, [r7, #32]
1154:Middlewares/Third_Party/FreeRTOS/Source/tasks.c **** 
1155:Middlewares/Third_Party/FreeRTOS/Source/tasks.c **** 			/* Generate the tick time at which the task wants to wake. */
1156:Middlewares/Third_Party/FreeRTOS/Source/tasks.c **** 			xTimeToWake = *pxPreviousWakeTime + xTimeIncrement;
 905              		.loc 1 1156 0
 906 0068 7B68     		ldr	r3, [r7, #4]
 907 006a 1A68     		ldr	r2, [r3]
 908 006c 3B68     		ldr	r3, [r7]
 909 006e 1344     		add	r3, r3, r2
 910 0070 FB61     		str	r3, [r7, #28]
1157:Middlewares/Third_Party/FreeRTOS/Source/tasks.c **** 
1158:Middlewares/Third_Party/FreeRTOS/Source/tasks.c **** 			if( xConstTickCount < *pxPreviousWakeTime )
ARM GAS  /tmp/ccDSLKwL.s 			page 41


 911              		.loc 1 1158 0
 912 0072 7B68     		ldr	r3, [r7, #4]
 913 0074 1A68     		ldr	r2, [r3]
 914 0076 3B6A     		ldr	r3, [r7, #32]
 915 0078 9A42     		cmp	r2, r3
 916 007a 0BD9     		bls	.L48
1159:Middlewares/Third_Party/FreeRTOS/Source/tasks.c **** 			{
1160:Middlewares/Third_Party/FreeRTOS/Source/tasks.c **** 				/* The tick count has overflowed since this function was
1161:Middlewares/Third_Party/FreeRTOS/Source/tasks.c **** 				lasted called.  In this case the only time we should ever
1162:Middlewares/Third_Party/FreeRTOS/Source/tasks.c **** 				actually delay is if the wake time has also	overflowed,
1163:Middlewares/Third_Party/FreeRTOS/Source/tasks.c **** 				and the wake time is greater than the tick time.  When this
1164:Middlewares/Third_Party/FreeRTOS/Source/tasks.c **** 				is the case it is as if neither time had overflowed. */
1165:Middlewares/Third_Party/FreeRTOS/Source/tasks.c **** 				if( ( xTimeToWake < *pxPreviousWakeTime ) && ( xTimeToWake > xConstTickCount ) )
 917              		.loc 1 1165 0
 918 007c 7B68     		ldr	r3, [r7, #4]
 919 007e 1A68     		ldr	r2, [r3]
 920 0080 FB69     		ldr	r3, [r7, #28]
 921 0082 9A42     		cmp	r2, r3
 922 0084 11D9     		bls	.L49
 923              		.loc 1 1165 0 is_stmt 0 discriminator 1
 924 0086 FA69     		ldr	r2, [r7, #28]
 925 0088 3B6A     		ldr	r3, [r7, #32]
 926 008a 9A42     		cmp	r2, r3
 927 008c 0DD9     		bls	.L49
1166:Middlewares/Third_Party/FreeRTOS/Source/tasks.c **** 				{
1167:Middlewares/Third_Party/FreeRTOS/Source/tasks.c **** 					xShouldDelay = pdTRUE;
 928              		.loc 1 1167 0 is_stmt 1
 929 008e 0123     		movs	r3, #1
 930 0090 7B62     		str	r3, [r7, #36]
 931 0092 0AE0     		b	.L49
 932              	.L48:
1168:Middlewares/Third_Party/FreeRTOS/Source/tasks.c **** 				}
1169:Middlewares/Third_Party/FreeRTOS/Source/tasks.c **** 				else
1170:Middlewares/Third_Party/FreeRTOS/Source/tasks.c **** 				{
1171:Middlewares/Third_Party/FreeRTOS/Source/tasks.c **** 					mtCOVERAGE_TEST_MARKER();
1172:Middlewares/Third_Party/FreeRTOS/Source/tasks.c **** 				}
1173:Middlewares/Third_Party/FreeRTOS/Source/tasks.c **** 			}
1174:Middlewares/Third_Party/FreeRTOS/Source/tasks.c **** 			else
1175:Middlewares/Third_Party/FreeRTOS/Source/tasks.c **** 			{
1176:Middlewares/Third_Party/FreeRTOS/Source/tasks.c **** 				/* The tick time has not overflowed.  In this case we will
1177:Middlewares/Third_Party/FreeRTOS/Source/tasks.c **** 				delay if either the wake time has overflowed, and/or the
1178:Middlewares/Third_Party/FreeRTOS/Source/tasks.c **** 				tick time is less than the wake time. */
1179:Middlewares/Third_Party/FreeRTOS/Source/tasks.c **** 				if( ( xTimeToWake < *pxPreviousWakeTime ) || ( xTimeToWake > xConstTickCount ) )
 933              		.loc 1 1179 0
 934 0094 7B68     		ldr	r3, [r7, #4]
 935 0096 1A68     		ldr	r2, [r3]
 936 0098 FB69     		ldr	r3, [r7, #28]
 937 009a 9A42     		cmp	r2, r3
 938 009c 03D8     		bhi	.L50
 939              		.loc 1 1179 0 is_stmt 0 discriminator 1
 940 009e FA69     		ldr	r2, [r7, #28]
 941 00a0 3B6A     		ldr	r3, [r7, #32]
 942 00a2 9A42     		cmp	r2, r3
 943 00a4 01D9     		bls	.L49
 944              	.L50:
1180:Middlewares/Third_Party/FreeRTOS/Source/tasks.c **** 				{
1181:Middlewares/Third_Party/FreeRTOS/Source/tasks.c **** 					xShouldDelay = pdTRUE;
ARM GAS  /tmp/ccDSLKwL.s 			page 42


 945              		.loc 1 1181 0 is_stmt 1
 946 00a6 0123     		movs	r3, #1
 947 00a8 7B62     		str	r3, [r7, #36]
 948              	.L49:
1182:Middlewares/Third_Party/FreeRTOS/Source/tasks.c **** 				}
1183:Middlewares/Third_Party/FreeRTOS/Source/tasks.c **** 				else
1184:Middlewares/Third_Party/FreeRTOS/Source/tasks.c **** 				{
1185:Middlewares/Third_Party/FreeRTOS/Source/tasks.c **** 					mtCOVERAGE_TEST_MARKER();
1186:Middlewares/Third_Party/FreeRTOS/Source/tasks.c **** 				}
1187:Middlewares/Third_Party/FreeRTOS/Source/tasks.c **** 			}
1188:Middlewares/Third_Party/FreeRTOS/Source/tasks.c **** 
1189:Middlewares/Third_Party/FreeRTOS/Source/tasks.c **** 			/* Update the wake time ready for the next call. */
1190:Middlewares/Third_Party/FreeRTOS/Source/tasks.c **** 			*pxPreviousWakeTime = xTimeToWake;
 949              		.loc 1 1190 0
 950 00aa 7B68     		ldr	r3, [r7, #4]
 951 00ac FA69     		ldr	r2, [r7, #28]
 952 00ae 1A60     		str	r2, [r3]
1191:Middlewares/Third_Party/FreeRTOS/Source/tasks.c **** 
1192:Middlewares/Third_Party/FreeRTOS/Source/tasks.c **** 			if( xShouldDelay != pdFALSE )
 953              		.loc 1 1192 0
 954 00b0 7B6A     		ldr	r3, [r7, #36]
 955 00b2 002B     		cmp	r3, #0
 956 00b4 06D0     		beq	.L51
1193:Middlewares/Third_Party/FreeRTOS/Source/tasks.c **** 			{
1194:Middlewares/Third_Party/FreeRTOS/Source/tasks.c **** 				traceTASK_DELAY_UNTIL( xTimeToWake );
1195:Middlewares/Third_Party/FreeRTOS/Source/tasks.c **** 
1196:Middlewares/Third_Party/FreeRTOS/Source/tasks.c **** 				/* prvAddCurrentTaskToDelayedList() needs the block time, not
1197:Middlewares/Third_Party/FreeRTOS/Source/tasks.c **** 				the time to wake, so subtract the current tick count. */
1198:Middlewares/Third_Party/FreeRTOS/Source/tasks.c **** 				prvAddCurrentTaskToDelayedList( xTimeToWake - xConstTickCount, pdFALSE );
 957              		.loc 1 1198 0
 958 00b6 FA69     		ldr	r2, [r7, #28]
 959 00b8 3B6A     		ldr	r3, [r7, #32]
 960 00ba D31A     		subs	r3, r2, r3
 961 00bc 0021     		movs	r1, #0
 962 00be 1846     		mov	r0, r3
 963 00c0 FFF7FEFF 		bl	prvAddCurrentTaskToDelayedList
 964              	.L51:
 965              	.LBE108:
1199:Middlewares/Third_Party/FreeRTOS/Source/tasks.c **** 			}
1200:Middlewares/Third_Party/FreeRTOS/Source/tasks.c **** 			else
1201:Middlewares/Third_Party/FreeRTOS/Source/tasks.c **** 			{
1202:Middlewares/Third_Party/FreeRTOS/Source/tasks.c **** 				mtCOVERAGE_TEST_MARKER();
1203:Middlewares/Third_Party/FreeRTOS/Source/tasks.c **** 			}
1204:Middlewares/Third_Party/FreeRTOS/Source/tasks.c **** 		}
1205:Middlewares/Third_Party/FreeRTOS/Source/tasks.c **** 		xAlreadyYielded = xTaskResumeAll();
 966              		.loc 1 1205 0
 967 00c4 FFF7FEFF 		bl	xTaskResumeAll
 968 00c8 B861     		str	r0, [r7, #24]
1206:Middlewares/Third_Party/FreeRTOS/Source/tasks.c **** 
1207:Middlewares/Third_Party/FreeRTOS/Source/tasks.c **** 		/* Force a reschedule if xTaskResumeAll has not already done so, we may
1208:Middlewares/Third_Party/FreeRTOS/Source/tasks.c **** 		have put ourselves to sleep. */
1209:Middlewares/Third_Party/FreeRTOS/Source/tasks.c **** 		if( xAlreadyYielded == pdFALSE )
 969              		.loc 1 1209 0
 970 00ca BB69     		ldr	r3, [r7, #24]
 971 00cc 002B     		cmp	r3, #0
 972 00ce 07D1     		bne	.L53
1210:Middlewares/Third_Party/FreeRTOS/Source/tasks.c **** 		{
ARM GAS  /tmp/ccDSLKwL.s 			page 43


1211:Middlewares/Third_Party/FreeRTOS/Source/tasks.c **** 			portYIELD_WITHIN_API();
 973              		.loc 1 1211 0
 974 00d0 074B     		ldr	r3, .L54+8
 975 00d2 4FF08052 		mov	r2, #268435456
 976 00d6 1A60     		str	r2, [r3]
 977              		.syntax unified
 978              	@ 1211 "Middlewares/Third_Party/FreeRTOS/Source/tasks.c" 1
 979 00d8 BFF34F8F 		dsb
 980              	@ 0 "" 2
 981              	@ 1211 "Middlewares/Third_Party/FreeRTOS/Source/tasks.c" 1
 982 00dc BFF36F8F 		isb
 983              	@ 0 "" 2
 984              		.thumb
 985              		.syntax unified
 986              	.L53:
1212:Middlewares/Third_Party/FreeRTOS/Source/tasks.c **** 		}
1213:Middlewares/Third_Party/FreeRTOS/Source/tasks.c **** 		else
1214:Middlewares/Third_Party/FreeRTOS/Source/tasks.c **** 		{
1215:Middlewares/Third_Party/FreeRTOS/Source/tasks.c **** 			mtCOVERAGE_TEST_MARKER();
1216:Middlewares/Third_Party/FreeRTOS/Source/tasks.c **** 		}
1217:Middlewares/Third_Party/FreeRTOS/Source/tasks.c **** 	}
 987              		.loc 1 1217 0
 988 00e0 00BF     		nop
 989 00e2 2837     		adds	r7, r7, #40
 990              	.LCFI23:
 991              		.cfi_def_cfa_offset 8
 992 00e4 BD46     		mov	sp, r7
 993              	.LCFI24:
 994              		.cfi_def_cfa_register 13
 995              		@ sp needed
 996 00e6 80BD     		pop	{r7, pc}
 997              	.L55:
 998              		.align	2
 999              	.L54:
 1000 00e8 00000000 		.word	uxSchedulerSuspended
 1001 00ec 00000000 		.word	xTickCount
 1002 00f0 04ED00E0 		.word	-536810236
 1003              		.cfi_endproc
 1004              	.LFE9:
 1006              		.section	.text.vTaskDelay,"ax",%progbits
 1007              		.align	1
 1008              		.global	vTaskDelay
 1009              		.syntax unified
 1010              		.thumb
 1011              		.thumb_func
 1012              		.fpu fpv4-sp-d16
 1014              	vTaskDelay:
 1015              	.LFB10:
1218:Middlewares/Third_Party/FreeRTOS/Source/tasks.c **** 
1219:Middlewares/Third_Party/FreeRTOS/Source/tasks.c **** #endif /* INCLUDE_vTaskDelayUntil */
1220:Middlewares/Third_Party/FreeRTOS/Source/tasks.c **** /*-----------------------------------------------------------*/
1221:Middlewares/Third_Party/FreeRTOS/Source/tasks.c **** 
1222:Middlewares/Third_Party/FreeRTOS/Source/tasks.c **** #if ( INCLUDE_vTaskDelay == 1 )
1223:Middlewares/Third_Party/FreeRTOS/Source/tasks.c **** 
1224:Middlewares/Third_Party/FreeRTOS/Source/tasks.c **** 	void vTaskDelay( const TickType_t xTicksToDelay )
1225:Middlewares/Third_Party/FreeRTOS/Source/tasks.c **** 	{
 1016              		.loc 1 1225 0
ARM GAS  /tmp/ccDSLKwL.s 			page 44


 1017              		.cfi_startproc
 1018              		@ args = 0, pretend = 0, frame = 16
 1019              		@ frame_needed = 1, uses_anonymous_args = 0
 1020 0000 80B5     		push	{r7, lr}
 1021              	.LCFI25:
 1022              		.cfi_def_cfa_offset 8
 1023              		.cfi_offset 7, -8
 1024              		.cfi_offset 14, -4
 1025 0002 84B0     		sub	sp, sp, #16
 1026              	.LCFI26:
 1027              		.cfi_def_cfa_offset 24
 1028 0004 00AF     		add	r7, sp, #0
 1029              	.LCFI27:
 1030              		.cfi_def_cfa_register 7
 1031 0006 7860     		str	r0, [r7, #4]
1226:Middlewares/Third_Party/FreeRTOS/Source/tasks.c **** 	BaseType_t xAlreadyYielded = pdFALSE;
 1032              		.loc 1 1226 0
 1033 0008 0023     		movs	r3, #0
 1034 000a FB60     		str	r3, [r7, #12]
1227:Middlewares/Third_Party/FreeRTOS/Source/tasks.c **** 
1228:Middlewares/Third_Party/FreeRTOS/Source/tasks.c **** 		/* A delay time of zero just forces a reschedule. */
1229:Middlewares/Third_Party/FreeRTOS/Source/tasks.c **** 		if( xTicksToDelay > ( TickType_t ) 0U )
 1035              		.loc 1 1229 0
 1036 000c 7B68     		ldr	r3, [r7, #4]
 1037 000e 002B     		cmp	r3, #0
 1038 0010 16D0     		beq	.L57
1230:Middlewares/Third_Party/FreeRTOS/Source/tasks.c **** 		{
1231:Middlewares/Third_Party/FreeRTOS/Source/tasks.c **** 			configASSERT( uxSchedulerSuspended == 0 );
 1039              		.loc 1 1231 0
 1040 0012 134B     		ldr	r3, .L62
 1041 0014 1B68     		ldr	r3, [r3]
 1042 0016 002B     		cmp	r3, #0
 1043 0018 09D0     		beq	.L58
 1044              	.LBB109:
 1045              	.LBB110:
 1046              		.loc 2 237 0 discriminator 1
 1047              		.syntax unified
 1048              	@ 237 "Middlewares/Third_Party/FreeRTOS/Source/portable/GCC/ARM_CM4F/portmacro.h" 1
 1049 001a 4FF05003 			mov r3, #80												
 1050 001e 83F31188 		msr basepri, r3											
 1051 0022 BFF36F8F 		isb														
 1052 0026 BFF34F8F 		dsb														
 1053              	
 1054              	@ 0 "" 2
 1055              		.thumb
 1056              		.syntax unified
 1057 002a BB60     		str	r3, [r7, #8]
 1058              	.L59:
 1059              	.LBE110:
 1060              	.LBE109:
 1061              		.loc 1 1231 0 discriminator 1
 1062 002c FEE7     		b	.L59
 1063              	.L58:
1232:Middlewares/Third_Party/FreeRTOS/Source/tasks.c **** 			vTaskSuspendAll();
 1064              		.loc 1 1232 0
 1065 002e FFF7FEFF 		bl	vTaskSuspendAll
1233:Middlewares/Third_Party/FreeRTOS/Source/tasks.c **** 			{
ARM GAS  /tmp/ccDSLKwL.s 			page 45


1234:Middlewares/Third_Party/FreeRTOS/Source/tasks.c **** 				traceTASK_DELAY();
1235:Middlewares/Third_Party/FreeRTOS/Source/tasks.c **** 
1236:Middlewares/Third_Party/FreeRTOS/Source/tasks.c **** 				/* A task that is removed from the event list while the
1237:Middlewares/Third_Party/FreeRTOS/Source/tasks.c **** 				scheduler is suspended will not get placed in the ready
1238:Middlewares/Third_Party/FreeRTOS/Source/tasks.c **** 				list or removed from the blocked list until the scheduler
1239:Middlewares/Third_Party/FreeRTOS/Source/tasks.c **** 				is resumed.
1240:Middlewares/Third_Party/FreeRTOS/Source/tasks.c **** 
1241:Middlewares/Third_Party/FreeRTOS/Source/tasks.c **** 				This task cannot be in an event list as it is the currently
1242:Middlewares/Third_Party/FreeRTOS/Source/tasks.c **** 				executing task. */
1243:Middlewares/Third_Party/FreeRTOS/Source/tasks.c **** 				prvAddCurrentTaskToDelayedList( xTicksToDelay, pdFALSE );
 1066              		.loc 1 1243 0
 1067 0032 0021     		movs	r1, #0
 1068 0034 7868     		ldr	r0, [r7, #4]
 1069 0036 FFF7FEFF 		bl	prvAddCurrentTaskToDelayedList
1244:Middlewares/Third_Party/FreeRTOS/Source/tasks.c **** 			}
1245:Middlewares/Third_Party/FreeRTOS/Source/tasks.c **** 			xAlreadyYielded = xTaskResumeAll();
 1070              		.loc 1 1245 0
 1071 003a FFF7FEFF 		bl	xTaskResumeAll
 1072 003e F860     		str	r0, [r7, #12]
 1073              	.L57:
1246:Middlewares/Third_Party/FreeRTOS/Source/tasks.c **** 		}
1247:Middlewares/Third_Party/FreeRTOS/Source/tasks.c **** 		else
1248:Middlewares/Third_Party/FreeRTOS/Source/tasks.c **** 		{
1249:Middlewares/Third_Party/FreeRTOS/Source/tasks.c **** 			mtCOVERAGE_TEST_MARKER();
1250:Middlewares/Third_Party/FreeRTOS/Source/tasks.c **** 		}
1251:Middlewares/Third_Party/FreeRTOS/Source/tasks.c **** 
1252:Middlewares/Third_Party/FreeRTOS/Source/tasks.c **** 		/* Force a reschedule if xTaskResumeAll has not already done so, we may
1253:Middlewares/Third_Party/FreeRTOS/Source/tasks.c **** 		have put ourselves to sleep. */
1254:Middlewares/Third_Party/FreeRTOS/Source/tasks.c **** 		if( xAlreadyYielded == pdFALSE )
 1074              		.loc 1 1254 0
 1075 0040 FB68     		ldr	r3, [r7, #12]
 1076 0042 002B     		cmp	r3, #0
 1077 0044 07D1     		bne	.L61
1255:Middlewares/Third_Party/FreeRTOS/Source/tasks.c **** 		{
1256:Middlewares/Third_Party/FreeRTOS/Source/tasks.c **** 			portYIELD_WITHIN_API();
 1078              		.loc 1 1256 0
 1079 0046 074B     		ldr	r3, .L62+4
 1080 0048 4FF08052 		mov	r2, #268435456
 1081 004c 1A60     		str	r2, [r3]
 1082              		.syntax unified
 1083              	@ 1256 "Middlewares/Third_Party/FreeRTOS/Source/tasks.c" 1
 1084 004e BFF34F8F 		dsb
 1085              	@ 0 "" 2
 1086              	@ 1256 "Middlewares/Third_Party/FreeRTOS/Source/tasks.c" 1
 1087 0052 BFF36F8F 		isb
 1088              	@ 0 "" 2
 1089              		.thumb
 1090              		.syntax unified
 1091              	.L61:
1257:Middlewares/Third_Party/FreeRTOS/Source/tasks.c **** 		}
1258:Middlewares/Third_Party/FreeRTOS/Source/tasks.c **** 		else
1259:Middlewares/Third_Party/FreeRTOS/Source/tasks.c **** 		{
1260:Middlewares/Third_Party/FreeRTOS/Source/tasks.c **** 			mtCOVERAGE_TEST_MARKER();
1261:Middlewares/Third_Party/FreeRTOS/Source/tasks.c **** 		}
1262:Middlewares/Third_Party/FreeRTOS/Source/tasks.c **** 	}
 1092              		.loc 1 1262 0
 1093 0056 00BF     		nop
ARM GAS  /tmp/ccDSLKwL.s 			page 46


 1094 0058 1037     		adds	r7, r7, #16
 1095              	.LCFI28:
 1096              		.cfi_def_cfa_offset 8
 1097 005a BD46     		mov	sp, r7
 1098              	.LCFI29:
 1099              		.cfi_def_cfa_register 13
 1100              		@ sp needed
 1101 005c 80BD     		pop	{r7, pc}
 1102              	.L63:
 1103 005e 00BF     		.align	2
 1104              	.L62:
 1105 0060 00000000 		.word	uxSchedulerSuspended
 1106 0064 04ED00E0 		.word	-536810236
 1107              		.cfi_endproc
 1108              	.LFE10:
 1110              		.section	.text.uxTaskPriorityGet,"ax",%progbits
 1111              		.align	1
 1112              		.global	uxTaskPriorityGet
 1113              		.syntax unified
 1114              		.thumb
 1115              		.thumb_func
 1116              		.fpu fpv4-sp-d16
 1118              	uxTaskPriorityGet:
 1119              	.LFB11:
1263:Middlewares/Third_Party/FreeRTOS/Source/tasks.c **** 
1264:Middlewares/Third_Party/FreeRTOS/Source/tasks.c **** #endif /* INCLUDE_vTaskDelay */
1265:Middlewares/Third_Party/FreeRTOS/Source/tasks.c **** /*-----------------------------------------------------------*/
1266:Middlewares/Third_Party/FreeRTOS/Source/tasks.c **** 
1267:Middlewares/Third_Party/FreeRTOS/Source/tasks.c **** #if( ( INCLUDE_eTaskGetState == 1 ) || ( configUSE_TRACE_FACILITY == 1 ) )
1268:Middlewares/Third_Party/FreeRTOS/Source/tasks.c **** 
1269:Middlewares/Third_Party/FreeRTOS/Source/tasks.c **** 	eTaskState eTaskGetState( TaskHandle_t xTask )
1270:Middlewares/Third_Party/FreeRTOS/Source/tasks.c **** 	{
1271:Middlewares/Third_Party/FreeRTOS/Source/tasks.c **** 	eTaskState eReturn;
1272:Middlewares/Third_Party/FreeRTOS/Source/tasks.c **** 	List_t *pxStateList;
1273:Middlewares/Third_Party/FreeRTOS/Source/tasks.c **** 	const TCB_t * const pxTCB = ( TCB_t * ) xTask;
1274:Middlewares/Third_Party/FreeRTOS/Source/tasks.c **** 
1275:Middlewares/Third_Party/FreeRTOS/Source/tasks.c **** 		configASSERT( pxTCB );
1276:Middlewares/Third_Party/FreeRTOS/Source/tasks.c **** 
1277:Middlewares/Third_Party/FreeRTOS/Source/tasks.c **** 		if( pxTCB == pxCurrentTCB )
1278:Middlewares/Third_Party/FreeRTOS/Source/tasks.c **** 		{
1279:Middlewares/Third_Party/FreeRTOS/Source/tasks.c **** 			/* The task calling this function is querying its own state. */
1280:Middlewares/Third_Party/FreeRTOS/Source/tasks.c **** 			eReturn = eRunning;
1281:Middlewares/Third_Party/FreeRTOS/Source/tasks.c **** 		}
1282:Middlewares/Third_Party/FreeRTOS/Source/tasks.c **** 		else
1283:Middlewares/Third_Party/FreeRTOS/Source/tasks.c **** 		{
1284:Middlewares/Third_Party/FreeRTOS/Source/tasks.c **** 			taskENTER_CRITICAL();
1285:Middlewares/Third_Party/FreeRTOS/Source/tasks.c **** 			{
1286:Middlewares/Third_Party/FreeRTOS/Source/tasks.c **** 				pxStateList = ( List_t * ) listLIST_ITEM_CONTAINER( &( pxTCB->xStateListItem ) );
1287:Middlewares/Third_Party/FreeRTOS/Source/tasks.c **** 			}
1288:Middlewares/Third_Party/FreeRTOS/Source/tasks.c **** 			taskEXIT_CRITICAL();
1289:Middlewares/Third_Party/FreeRTOS/Source/tasks.c **** 
1290:Middlewares/Third_Party/FreeRTOS/Source/tasks.c **** 			if( ( pxStateList == pxDelayedTaskList ) || ( pxStateList == pxOverflowDelayedTaskList ) )
1291:Middlewares/Third_Party/FreeRTOS/Source/tasks.c **** 			{
1292:Middlewares/Third_Party/FreeRTOS/Source/tasks.c **** 				/* The task being queried is referenced from one of the Blocked
1293:Middlewares/Third_Party/FreeRTOS/Source/tasks.c **** 				lists. */
1294:Middlewares/Third_Party/FreeRTOS/Source/tasks.c **** 				eReturn = eBlocked;
1295:Middlewares/Third_Party/FreeRTOS/Source/tasks.c **** 			}
ARM GAS  /tmp/ccDSLKwL.s 			page 47


1296:Middlewares/Third_Party/FreeRTOS/Source/tasks.c **** 
1297:Middlewares/Third_Party/FreeRTOS/Source/tasks.c **** 			#if ( INCLUDE_vTaskSuspend == 1 )
1298:Middlewares/Third_Party/FreeRTOS/Source/tasks.c **** 				else if( pxStateList == &xSuspendedTaskList )
1299:Middlewares/Third_Party/FreeRTOS/Source/tasks.c **** 				{
1300:Middlewares/Third_Party/FreeRTOS/Source/tasks.c **** 					/* The task being queried is referenced from the suspended
1301:Middlewares/Third_Party/FreeRTOS/Source/tasks.c **** 					list.  Is it genuinely suspended or is it block
1302:Middlewares/Third_Party/FreeRTOS/Source/tasks.c **** 					indefinitely? */
1303:Middlewares/Third_Party/FreeRTOS/Source/tasks.c **** 					if( listLIST_ITEM_CONTAINER( &( pxTCB->xEventListItem ) ) == NULL )
1304:Middlewares/Third_Party/FreeRTOS/Source/tasks.c **** 					{
1305:Middlewares/Third_Party/FreeRTOS/Source/tasks.c **** 						eReturn = eSuspended;
1306:Middlewares/Third_Party/FreeRTOS/Source/tasks.c **** 					}
1307:Middlewares/Third_Party/FreeRTOS/Source/tasks.c **** 					else
1308:Middlewares/Third_Party/FreeRTOS/Source/tasks.c **** 					{
1309:Middlewares/Third_Party/FreeRTOS/Source/tasks.c **** 						eReturn = eBlocked;
1310:Middlewares/Third_Party/FreeRTOS/Source/tasks.c **** 					}
1311:Middlewares/Third_Party/FreeRTOS/Source/tasks.c **** 				}
1312:Middlewares/Third_Party/FreeRTOS/Source/tasks.c **** 			#endif
1313:Middlewares/Third_Party/FreeRTOS/Source/tasks.c **** 
1314:Middlewares/Third_Party/FreeRTOS/Source/tasks.c **** 			#if ( INCLUDE_vTaskDelete == 1 )
1315:Middlewares/Third_Party/FreeRTOS/Source/tasks.c **** 				else if( ( pxStateList == &xTasksWaitingTermination ) || ( pxStateList == NULL ) )
1316:Middlewares/Third_Party/FreeRTOS/Source/tasks.c **** 				{
1317:Middlewares/Third_Party/FreeRTOS/Source/tasks.c **** 					/* The task being queried is referenced from the deleted
1318:Middlewares/Third_Party/FreeRTOS/Source/tasks.c **** 					tasks list, or it is not referenced from any lists at
1319:Middlewares/Third_Party/FreeRTOS/Source/tasks.c **** 					all. */
1320:Middlewares/Third_Party/FreeRTOS/Source/tasks.c **** 					eReturn = eDeleted;
1321:Middlewares/Third_Party/FreeRTOS/Source/tasks.c **** 				}
1322:Middlewares/Third_Party/FreeRTOS/Source/tasks.c **** 			#endif
1323:Middlewares/Third_Party/FreeRTOS/Source/tasks.c **** 
1324:Middlewares/Third_Party/FreeRTOS/Source/tasks.c **** 			else /*lint !e525 Negative indentation is intended to make use of pre-processor clearer. */
1325:Middlewares/Third_Party/FreeRTOS/Source/tasks.c **** 			{
1326:Middlewares/Third_Party/FreeRTOS/Source/tasks.c **** 				/* If the task is not in any other state, it must be in the
1327:Middlewares/Third_Party/FreeRTOS/Source/tasks.c **** 				Ready (including pending ready) state. */
1328:Middlewares/Third_Party/FreeRTOS/Source/tasks.c **** 				eReturn = eReady;
1329:Middlewares/Third_Party/FreeRTOS/Source/tasks.c **** 			}
1330:Middlewares/Third_Party/FreeRTOS/Source/tasks.c **** 		}
1331:Middlewares/Third_Party/FreeRTOS/Source/tasks.c **** 
1332:Middlewares/Third_Party/FreeRTOS/Source/tasks.c **** 		return eReturn;
1333:Middlewares/Third_Party/FreeRTOS/Source/tasks.c **** 	} /*lint !e818 xTask cannot be a pointer to const because it is a typedef. */
1334:Middlewares/Third_Party/FreeRTOS/Source/tasks.c **** 
1335:Middlewares/Third_Party/FreeRTOS/Source/tasks.c **** #endif /* INCLUDE_eTaskGetState */
1336:Middlewares/Third_Party/FreeRTOS/Source/tasks.c **** /*-----------------------------------------------------------*/
1337:Middlewares/Third_Party/FreeRTOS/Source/tasks.c **** 
1338:Middlewares/Third_Party/FreeRTOS/Source/tasks.c **** #if ( INCLUDE_uxTaskPriorityGet == 1 )
1339:Middlewares/Third_Party/FreeRTOS/Source/tasks.c **** 
1340:Middlewares/Third_Party/FreeRTOS/Source/tasks.c **** 	UBaseType_t uxTaskPriorityGet( TaskHandle_t xTask )
1341:Middlewares/Third_Party/FreeRTOS/Source/tasks.c **** 	{
 1120              		.loc 1 1341 0
 1121              		.cfi_startproc
 1122              		@ args = 0, pretend = 0, frame = 16
 1123              		@ frame_needed = 1, uses_anonymous_args = 0
 1124 0000 80B5     		push	{r7, lr}
 1125              	.LCFI30:
 1126              		.cfi_def_cfa_offset 8
 1127              		.cfi_offset 7, -8
 1128              		.cfi_offset 14, -4
 1129 0002 84B0     		sub	sp, sp, #16
 1130              	.LCFI31:
ARM GAS  /tmp/ccDSLKwL.s 			page 48


 1131              		.cfi_def_cfa_offset 24
 1132 0004 00AF     		add	r7, sp, #0
 1133              	.LCFI32:
 1134              		.cfi_def_cfa_register 7
 1135 0006 7860     		str	r0, [r7, #4]
1342:Middlewares/Third_Party/FreeRTOS/Source/tasks.c **** 	TCB_t *pxTCB;
1343:Middlewares/Third_Party/FreeRTOS/Source/tasks.c **** 	UBaseType_t uxReturn;
1344:Middlewares/Third_Party/FreeRTOS/Source/tasks.c **** 
1345:Middlewares/Third_Party/FreeRTOS/Source/tasks.c **** 		taskENTER_CRITICAL();
 1136              		.loc 1 1345 0
 1137 0008 FFF7FEFF 		bl	vPortEnterCritical
1346:Middlewares/Third_Party/FreeRTOS/Source/tasks.c **** 		{
1347:Middlewares/Third_Party/FreeRTOS/Source/tasks.c **** 			/* If null is passed in here then it is the priority of the that
1348:Middlewares/Third_Party/FreeRTOS/Source/tasks.c **** 			called uxTaskPriorityGet() that is being queried. */
1349:Middlewares/Third_Party/FreeRTOS/Source/tasks.c **** 			pxTCB = prvGetTCBFromHandle( xTask );
 1138              		.loc 1 1349 0
 1139 000c 7B68     		ldr	r3, [r7, #4]
 1140 000e 002B     		cmp	r3, #0
 1141 0010 02D1     		bne	.L65
 1142              		.loc 1 1349 0 is_stmt 0 discriminator 1
 1143 0012 074B     		ldr	r3, .L68
 1144 0014 1B68     		ldr	r3, [r3]
 1145 0016 00E0     		b	.L66
 1146              	.L65:
 1147              		.loc 1 1349 0 discriminator 2
 1148 0018 7B68     		ldr	r3, [r7, #4]
 1149              	.L66:
 1150              		.loc 1 1349 0 discriminator 4
 1151 001a FB60     		str	r3, [r7, #12]
1350:Middlewares/Third_Party/FreeRTOS/Source/tasks.c **** 			uxReturn = pxTCB->uxPriority;
 1152              		.loc 1 1350 0 is_stmt 1 discriminator 4
 1153 001c FB68     		ldr	r3, [r7, #12]
 1154 001e DB6A     		ldr	r3, [r3, #44]
 1155 0020 BB60     		str	r3, [r7, #8]
1351:Middlewares/Third_Party/FreeRTOS/Source/tasks.c **** 		}
1352:Middlewares/Third_Party/FreeRTOS/Source/tasks.c **** 		taskEXIT_CRITICAL();
 1156              		.loc 1 1352 0 discriminator 4
 1157 0022 FFF7FEFF 		bl	vPortExitCritical
1353:Middlewares/Third_Party/FreeRTOS/Source/tasks.c **** 
1354:Middlewares/Third_Party/FreeRTOS/Source/tasks.c **** 		return uxReturn;
 1158              		.loc 1 1354 0 discriminator 4
 1159 0026 BB68     		ldr	r3, [r7, #8]
1355:Middlewares/Third_Party/FreeRTOS/Source/tasks.c **** 	}
 1160              		.loc 1 1355 0 discriminator 4
 1161 0028 1846     		mov	r0, r3
 1162 002a 1037     		adds	r7, r7, #16
 1163              	.LCFI33:
 1164              		.cfi_def_cfa_offset 8
 1165 002c BD46     		mov	sp, r7
 1166              	.LCFI34:
 1167              		.cfi_def_cfa_register 13
 1168              		@ sp needed
 1169 002e 80BD     		pop	{r7, pc}
 1170              	.L69:
 1171              		.align	2
 1172              	.L68:
 1173 0030 00000000 		.word	pxCurrentTCB
ARM GAS  /tmp/ccDSLKwL.s 			page 49


 1174              		.cfi_endproc
 1175              	.LFE11:
 1177              		.section	.text.uxTaskPriorityGetFromISR,"ax",%progbits
 1178              		.align	1
 1179              		.global	uxTaskPriorityGetFromISR
 1180              		.syntax unified
 1181              		.thumb
 1182              		.thumb_func
 1183              		.fpu fpv4-sp-d16
 1185              	uxTaskPriorityGetFromISR:
 1186              	.LFB12:
1356:Middlewares/Third_Party/FreeRTOS/Source/tasks.c **** 
1357:Middlewares/Third_Party/FreeRTOS/Source/tasks.c **** #endif /* INCLUDE_uxTaskPriorityGet */
1358:Middlewares/Third_Party/FreeRTOS/Source/tasks.c **** /*-----------------------------------------------------------*/
1359:Middlewares/Third_Party/FreeRTOS/Source/tasks.c **** 
1360:Middlewares/Third_Party/FreeRTOS/Source/tasks.c **** #if ( INCLUDE_uxTaskPriorityGet == 1 )
1361:Middlewares/Third_Party/FreeRTOS/Source/tasks.c **** 
1362:Middlewares/Third_Party/FreeRTOS/Source/tasks.c **** 	UBaseType_t uxTaskPriorityGetFromISR( TaskHandle_t xTask )
1363:Middlewares/Third_Party/FreeRTOS/Source/tasks.c **** 	{
 1187              		.loc 1 1363 0
 1188              		.cfi_startproc
 1189              		@ args = 0, pretend = 0, frame = 32
 1190              		@ frame_needed = 1, uses_anonymous_args = 0
 1191 0000 80B5     		push	{r7, lr}
 1192              	.LCFI35:
 1193              		.cfi_def_cfa_offset 8
 1194              		.cfi_offset 7, -8
 1195              		.cfi_offset 14, -4
 1196 0002 88B0     		sub	sp, sp, #32
 1197              	.LCFI36:
 1198              		.cfi_def_cfa_offset 40
 1199 0004 00AF     		add	r7, sp, #0
 1200              	.LCFI37:
 1201              		.cfi_def_cfa_register 7
 1202 0006 7860     		str	r0, [r7, #4]
1364:Middlewares/Third_Party/FreeRTOS/Source/tasks.c **** 	TCB_t *pxTCB;
1365:Middlewares/Third_Party/FreeRTOS/Source/tasks.c **** 	UBaseType_t uxReturn, uxSavedInterruptState;
1366:Middlewares/Third_Party/FreeRTOS/Source/tasks.c **** 
1367:Middlewares/Third_Party/FreeRTOS/Source/tasks.c **** 		/* RTOS ports that support interrupt nesting have the concept of a
1368:Middlewares/Third_Party/FreeRTOS/Source/tasks.c **** 		maximum	system call (or maximum API call) interrupt priority.
1369:Middlewares/Third_Party/FreeRTOS/Source/tasks.c **** 		Interrupts that are	above the maximum system call priority are keep
1370:Middlewares/Third_Party/FreeRTOS/Source/tasks.c **** 		permanently enabled, even when the RTOS kernel is in a critical section,
1371:Middlewares/Third_Party/FreeRTOS/Source/tasks.c **** 		but cannot make any calls to FreeRTOS API functions.  If configASSERT()
1372:Middlewares/Third_Party/FreeRTOS/Source/tasks.c **** 		is defined in FreeRTOSConfig.h then
1373:Middlewares/Third_Party/FreeRTOS/Source/tasks.c **** 		portASSERT_IF_INTERRUPT_PRIORITY_INVALID() will result in an assertion
1374:Middlewares/Third_Party/FreeRTOS/Source/tasks.c **** 		failure if a FreeRTOS API function is called from an interrupt that has
1375:Middlewares/Third_Party/FreeRTOS/Source/tasks.c **** 		been assigned a priority above the configured maximum system call
1376:Middlewares/Third_Party/FreeRTOS/Source/tasks.c **** 		priority.  Only FreeRTOS functions that end in FromISR can be called
1377:Middlewares/Third_Party/FreeRTOS/Source/tasks.c **** 		from interrupts	that have been assigned a priority at or (logically)
1378:Middlewares/Third_Party/FreeRTOS/Source/tasks.c **** 		below the maximum system call interrupt priority.  FreeRTOS maintains a
1379:Middlewares/Third_Party/FreeRTOS/Source/tasks.c **** 		separate interrupt safe API to ensure interrupt entry is as fast and as
1380:Middlewares/Third_Party/FreeRTOS/Source/tasks.c **** 		simple as possible.  More information (albeit Cortex-M specific) is
1381:Middlewares/Third_Party/FreeRTOS/Source/tasks.c **** 		provided on the following link:
1382:Middlewares/Third_Party/FreeRTOS/Source/tasks.c **** 		http://www.freertos.org/RTOS-Cortex-M3-M4.html */
1383:Middlewares/Third_Party/FreeRTOS/Source/tasks.c **** 		portASSERT_IF_INTERRUPT_PRIORITY_INVALID();
 1203              		.loc 1 1383 0
 1204 0008 FFF7FEFF 		bl	vPortValidateInterruptPriority
ARM GAS  /tmp/ccDSLKwL.s 			page 50


 1205              	.LBB111:
 1206              	.LBB112:
 238:Middlewares/Third_Party/FreeRTOS/Source/portable/GCC/ARM_CM4F/portmacro.h **** 	(
 239:Middlewares/Third_Party/FreeRTOS/Source/portable/GCC/ARM_CM4F/portmacro.h **** 		"	mov %0, %1												\n"	\
 240:Middlewares/Third_Party/FreeRTOS/Source/portable/GCC/ARM_CM4F/portmacro.h **** 		"	msr basepri, %0											\n" \
 241:Middlewares/Third_Party/FreeRTOS/Source/portable/GCC/ARM_CM4F/portmacro.h **** 		"	isb														\n" \
 242:Middlewares/Third_Party/FreeRTOS/Source/portable/GCC/ARM_CM4F/portmacro.h **** 		"	dsb														\n" \
 243:Middlewares/Third_Party/FreeRTOS/Source/portable/GCC/ARM_CM4F/portmacro.h **** 		:"=r" (ulNewBASEPRI) : "i" ( configMAX_SYSCALL_INTERRUPT_PRIORITY )
 244:Middlewares/Third_Party/FreeRTOS/Source/portable/GCC/ARM_CM4F/portmacro.h **** 	);
 245:Middlewares/Third_Party/FreeRTOS/Source/portable/GCC/ARM_CM4F/portmacro.h **** }
 246:Middlewares/Third_Party/FreeRTOS/Source/portable/GCC/ARM_CM4F/portmacro.h **** 
 247:Middlewares/Third_Party/FreeRTOS/Source/portable/GCC/ARM_CM4F/portmacro.h **** /*-----------------------------------------------------------*/
 248:Middlewares/Third_Party/FreeRTOS/Source/portable/GCC/ARM_CM4F/portmacro.h **** 
 249:Middlewares/Third_Party/FreeRTOS/Source/portable/GCC/ARM_CM4F/portmacro.h **** portFORCE_INLINE static uint32_t ulPortRaiseBASEPRI( void )
 250:Middlewares/Third_Party/FreeRTOS/Source/portable/GCC/ARM_CM4F/portmacro.h **** {
 251:Middlewares/Third_Party/FreeRTOS/Source/portable/GCC/ARM_CM4F/portmacro.h **** uint32_t ulOriginalBASEPRI, ulNewBASEPRI;
 252:Middlewares/Third_Party/FreeRTOS/Source/portable/GCC/ARM_CM4F/portmacro.h **** 
 253:Middlewares/Third_Party/FreeRTOS/Source/portable/GCC/ARM_CM4F/portmacro.h **** 	__asm volatile
 1207              		.loc 2 253 0
 1208              		.syntax unified
 1209              	@ 253 "Middlewares/Third_Party/FreeRTOS/Source/portable/GCC/ARM_CM4F/portmacro.h" 1
 1210 000c EFF31182 			mrs r2, basepri											
 1211 0010 4FF05003 		mov r3, #80												
 1212 0014 83F31188 		msr basepri, r3											
 1213 0018 BFF36F8F 		isb														
 1214 001c BFF34F8F 		dsb														
 1215              	
 1216              	@ 0 "" 2
 1217              		.thumb
 1218              		.syntax unified
 1219 0020 3A61     		str	r2, [r7, #16]
 1220 0022 FB60     		str	r3, [r7, #12]
 254:Middlewares/Third_Party/FreeRTOS/Source/portable/GCC/ARM_CM4F/portmacro.h **** 	(
 255:Middlewares/Third_Party/FreeRTOS/Source/portable/GCC/ARM_CM4F/portmacro.h **** 		"	mrs %0, basepri											\n" \
 256:Middlewares/Third_Party/FreeRTOS/Source/portable/GCC/ARM_CM4F/portmacro.h **** 		"	mov %1, %2												\n"	\
 257:Middlewares/Third_Party/FreeRTOS/Source/portable/GCC/ARM_CM4F/portmacro.h **** 		"	msr basepri, %1											\n" \
 258:Middlewares/Third_Party/FreeRTOS/Source/portable/GCC/ARM_CM4F/portmacro.h **** 		"	isb														\n" \
 259:Middlewares/Third_Party/FreeRTOS/Source/portable/GCC/ARM_CM4F/portmacro.h **** 		"	dsb														\n" \
 260:Middlewares/Third_Party/FreeRTOS/Source/portable/GCC/ARM_CM4F/portmacro.h **** 		:"=r" (ulOriginalBASEPRI), "=r" (ulNewBASEPRI) : "i" ( configMAX_SYSCALL_INTERRUPT_PRIORITY )
 261:Middlewares/Third_Party/FreeRTOS/Source/portable/GCC/ARM_CM4F/portmacro.h **** 	);
 262:Middlewares/Third_Party/FreeRTOS/Source/portable/GCC/ARM_CM4F/portmacro.h **** 
 263:Middlewares/Third_Party/FreeRTOS/Source/portable/GCC/ARM_CM4F/portmacro.h **** 	/* This return will not be reached but is necessary to prevent compiler
 264:Middlewares/Third_Party/FreeRTOS/Source/portable/GCC/ARM_CM4F/portmacro.h **** 	warnings. */
 265:Middlewares/Third_Party/FreeRTOS/Source/portable/GCC/ARM_CM4F/portmacro.h **** 	return ulOriginalBASEPRI;
 1221              		.loc 2 265 0
 1222 0024 3B69     		ldr	r3, [r7, #16]
 1223              	.LBE112:
 1224              	.LBE111:
1384:Middlewares/Third_Party/FreeRTOS/Source/tasks.c **** 
1385:Middlewares/Third_Party/FreeRTOS/Source/tasks.c **** 		uxSavedInterruptState = portSET_INTERRUPT_MASK_FROM_ISR();
 1225              		.loc 1 1385 0
 1226 0026 FB61     		str	r3, [r7, #28]
1386:Middlewares/Third_Party/FreeRTOS/Source/tasks.c **** 		{
1387:Middlewares/Third_Party/FreeRTOS/Source/tasks.c **** 			/* If null is passed in here then it is the priority of the calling
1388:Middlewares/Third_Party/FreeRTOS/Source/tasks.c **** 			task that is being queried. */
1389:Middlewares/Third_Party/FreeRTOS/Source/tasks.c **** 			pxTCB = prvGetTCBFromHandle( xTask );
 1227              		.loc 1 1389 0
ARM GAS  /tmp/ccDSLKwL.s 			page 51


 1228 0028 7B68     		ldr	r3, [r7, #4]
 1229 002a 002B     		cmp	r3, #0
 1230 002c 02D1     		bne	.L72
 1231              		.loc 1 1389 0 is_stmt 0 discriminator 1
 1232 002e 094B     		ldr	r3, .L75
 1233 0030 1B68     		ldr	r3, [r3]
 1234 0032 00E0     		b	.L73
 1235              	.L72:
 1236              		.loc 1 1389 0 discriminator 2
 1237 0034 7B68     		ldr	r3, [r7, #4]
 1238              	.L73:
 1239              		.loc 1 1389 0 discriminator 4
 1240 0036 BB61     		str	r3, [r7, #24]
1390:Middlewares/Third_Party/FreeRTOS/Source/tasks.c **** 			uxReturn = pxTCB->uxPriority;
 1241              		.loc 1 1390 0 is_stmt 1 discriminator 4
 1242 0038 BB69     		ldr	r3, [r7, #24]
 1243 003a DB6A     		ldr	r3, [r3, #44]
 1244 003c 7B61     		str	r3, [r7, #20]
 1245 003e FB69     		ldr	r3, [r7, #28]
 1246 0040 BB60     		str	r3, [r7, #8]
 1247              	.LBB113:
 1248              	.LBB114:
 266:Middlewares/Third_Party/FreeRTOS/Source/portable/GCC/ARM_CM4F/portmacro.h **** }
 267:Middlewares/Third_Party/FreeRTOS/Source/portable/GCC/ARM_CM4F/portmacro.h **** /*-----------------------------------------------------------*/
 268:Middlewares/Third_Party/FreeRTOS/Source/portable/GCC/ARM_CM4F/portmacro.h **** 
 269:Middlewares/Third_Party/FreeRTOS/Source/portable/GCC/ARM_CM4F/portmacro.h **** portFORCE_INLINE static void vPortSetBASEPRI( uint32_t ulNewMaskValue )
 270:Middlewares/Third_Party/FreeRTOS/Source/portable/GCC/ARM_CM4F/portmacro.h **** {
 271:Middlewares/Third_Party/FreeRTOS/Source/portable/GCC/ARM_CM4F/portmacro.h **** 	__asm volatile
 1249              		.loc 2 271 0 discriminator 4
 1250 0042 BB68     		ldr	r3, [r7, #8]
 1251              		.syntax unified
 1252              	@ 271 "Middlewares/Third_Party/FreeRTOS/Source/portable/GCC/ARM_CM4F/portmacro.h" 1
 1253 0044 83F31188 			msr basepri, r3	
 1254              	@ 0 "" 2
 1255              		.thumb
 1256              		.syntax unified
 1257              	.LBE114:
 1258              	.LBE113:
1391:Middlewares/Third_Party/FreeRTOS/Source/tasks.c **** 		}
1392:Middlewares/Third_Party/FreeRTOS/Source/tasks.c **** 		portCLEAR_INTERRUPT_MASK_FROM_ISR( uxSavedInterruptState );
1393:Middlewares/Third_Party/FreeRTOS/Source/tasks.c **** 
1394:Middlewares/Third_Party/FreeRTOS/Source/tasks.c **** 		return uxReturn;
 1259              		.loc 1 1394 0 discriminator 4
 1260 0048 7B69     		ldr	r3, [r7, #20]
1395:Middlewares/Third_Party/FreeRTOS/Source/tasks.c **** 	}
 1261              		.loc 1 1395 0 discriminator 4
 1262 004a 1846     		mov	r0, r3
 1263 004c 2037     		adds	r7, r7, #32
 1264              	.LCFI38:
 1265              		.cfi_def_cfa_offset 8
 1266 004e BD46     		mov	sp, r7
 1267              	.LCFI39:
 1268              		.cfi_def_cfa_register 13
 1269              		@ sp needed
 1270 0050 80BD     		pop	{r7, pc}
 1271              	.L76:
 1272 0052 00BF     		.align	2
ARM GAS  /tmp/ccDSLKwL.s 			page 52


 1273              	.L75:
 1274 0054 00000000 		.word	pxCurrentTCB
 1275              		.cfi_endproc
 1276              	.LFE12:
 1278              		.section	.text.vTaskPrioritySet,"ax",%progbits
 1279              		.align	1
 1280              		.global	vTaskPrioritySet
 1281              		.syntax unified
 1282              		.thumb
 1283              		.thumb_func
 1284              		.fpu fpv4-sp-d16
 1286              	vTaskPrioritySet:
 1287              	.LFB13:
1396:Middlewares/Third_Party/FreeRTOS/Source/tasks.c **** 
1397:Middlewares/Third_Party/FreeRTOS/Source/tasks.c **** #endif /* INCLUDE_uxTaskPriorityGet */
1398:Middlewares/Third_Party/FreeRTOS/Source/tasks.c **** /*-----------------------------------------------------------*/
1399:Middlewares/Third_Party/FreeRTOS/Source/tasks.c **** 
1400:Middlewares/Third_Party/FreeRTOS/Source/tasks.c **** #if ( INCLUDE_vTaskPrioritySet == 1 )
1401:Middlewares/Third_Party/FreeRTOS/Source/tasks.c **** 
1402:Middlewares/Third_Party/FreeRTOS/Source/tasks.c **** 	void vTaskPrioritySet( TaskHandle_t xTask, UBaseType_t uxNewPriority )
1403:Middlewares/Third_Party/FreeRTOS/Source/tasks.c **** 	{
 1288              		.loc 1 1403 0
 1289              		.cfi_startproc
 1290              		@ args = 0, pretend = 0, frame = 32
 1291              		@ frame_needed = 1, uses_anonymous_args = 0
 1292 0000 80B5     		push	{r7, lr}
 1293              	.LCFI40:
 1294              		.cfi_def_cfa_offset 8
 1295              		.cfi_offset 7, -8
 1296              		.cfi_offset 14, -4
 1297 0002 88B0     		sub	sp, sp, #32
 1298              	.LCFI41:
 1299              		.cfi_def_cfa_offset 40
 1300 0004 00AF     		add	r7, sp, #0
 1301              	.LCFI42:
 1302              		.cfi_def_cfa_register 7
 1303 0006 7860     		str	r0, [r7, #4]
 1304 0008 3960     		str	r1, [r7]
1404:Middlewares/Third_Party/FreeRTOS/Source/tasks.c **** 	TCB_t *pxTCB;
1405:Middlewares/Third_Party/FreeRTOS/Source/tasks.c **** 	UBaseType_t uxCurrentBasePriority, uxPriorityUsedOnEntry;
1406:Middlewares/Third_Party/FreeRTOS/Source/tasks.c **** 	BaseType_t xYieldRequired = pdFALSE;
 1305              		.loc 1 1406 0
 1306 000a 0023     		movs	r3, #0
 1307 000c FB61     		str	r3, [r7, #28]
1407:Middlewares/Third_Party/FreeRTOS/Source/tasks.c **** 
1408:Middlewares/Third_Party/FreeRTOS/Source/tasks.c **** 		configASSERT( ( uxNewPriority < configMAX_PRIORITIES ) );
 1308              		.loc 1 1408 0
 1309 000e 3B68     		ldr	r3, [r7]
 1310 0010 062B     		cmp	r3, #6
 1311 0012 09D9     		bls	.L78
 1312              	.LBB115:
 1313              	.LBB116:
 237:Middlewares/Third_Party/FreeRTOS/Source/portable/GCC/ARM_CM4F/portmacro.h **** 	(
 1314              		.loc 2 237 0 discriminator 1
 1315              		.syntax unified
 1316              	@ 237 "Middlewares/Third_Party/FreeRTOS/Source/portable/GCC/ARM_CM4F/portmacro.h" 1
 1317 0014 4FF05003 			mov r3, #80												
ARM GAS  /tmp/ccDSLKwL.s 			page 53


 1318 0018 83F31188 		msr basepri, r3											
 1319 001c BFF36F8F 		isb														
 1320 0020 BFF34F8F 		dsb														
 1321              	
 1322              	@ 0 "" 2
 1323              		.thumb
 1324              		.syntax unified
 1325 0024 FB60     		str	r3, [r7, #12]
 1326              	.L79:
 1327              	.LBE116:
 1328              	.LBE115:
 1329              		.loc 1 1408 0 discriminator 1
 1330 0026 FEE7     		b	.L79
 1331              	.L78:
1409:Middlewares/Third_Party/FreeRTOS/Source/tasks.c **** 
1410:Middlewares/Third_Party/FreeRTOS/Source/tasks.c **** 		/* Ensure the new priority is valid. */
1411:Middlewares/Third_Party/FreeRTOS/Source/tasks.c **** 		if( uxNewPriority >= ( UBaseType_t ) configMAX_PRIORITIES )
 1332              		.loc 1 1411 0
 1333 0028 3B68     		ldr	r3, [r7]
 1334 002a 062B     		cmp	r3, #6
 1335 002c 01D9     		bls	.L80
1412:Middlewares/Third_Party/FreeRTOS/Source/tasks.c **** 		{
1413:Middlewares/Third_Party/FreeRTOS/Source/tasks.c **** 			uxNewPriority = ( UBaseType_t ) configMAX_PRIORITIES - ( UBaseType_t ) 1U;
 1336              		.loc 1 1413 0
 1337 002e 0623     		movs	r3, #6
 1338 0030 3B60     		str	r3, [r7]
 1339              	.L80:
1414:Middlewares/Third_Party/FreeRTOS/Source/tasks.c **** 		}
1415:Middlewares/Third_Party/FreeRTOS/Source/tasks.c **** 		else
1416:Middlewares/Third_Party/FreeRTOS/Source/tasks.c **** 		{
1417:Middlewares/Third_Party/FreeRTOS/Source/tasks.c **** 			mtCOVERAGE_TEST_MARKER();
1418:Middlewares/Third_Party/FreeRTOS/Source/tasks.c **** 		}
1419:Middlewares/Third_Party/FreeRTOS/Source/tasks.c **** 
1420:Middlewares/Third_Party/FreeRTOS/Source/tasks.c **** 		taskENTER_CRITICAL();
 1340              		.loc 1 1420 0
 1341 0032 FFF7FEFF 		bl	vPortEnterCritical
1421:Middlewares/Third_Party/FreeRTOS/Source/tasks.c **** 		{
1422:Middlewares/Third_Party/FreeRTOS/Source/tasks.c **** 			/* If null is passed in here then it is the priority of the calling
1423:Middlewares/Third_Party/FreeRTOS/Source/tasks.c **** 			task that is being changed. */
1424:Middlewares/Third_Party/FreeRTOS/Source/tasks.c **** 			pxTCB = prvGetTCBFromHandle( xTask );
 1342              		.loc 1 1424 0
 1343 0036 7B68     		ldr	r3, [r7, #4]
 1344 0038 002B     		cmp	r3, #0
 1345 003a 02D1     		bne	.L81
 1346              		.loc 1 1424 0 is_stmt 0 discriminator 1
 1347 003c 434B     		ldr	r3, .L92
 1348 003e 1B68     		ldr	r3, [r3]
 1349 0040 00E0     		b	.L82
 1350              	.L81:
 1351              		.loc 1 1424 0 discriminator 2
 1352 0042 7B68     		ldr	r3, [r7, #4]
 1353              	.L82:
 1354              		.loc 1 1424 0 discriminator 4
 1355 0044 BB61     		str	r3, [r7, #24]
1425:Middlewares/Third_Party/FreeRTOS/Source/tasks.c **** 
1426:Middlewares/Third_Party/FreeRTOS/Source/tasks.c **** 			traceTASK_PRIORITY_SET( pxTCB, uxNewPriority );
1427:Middlewares/Third_Party/FreeRTOS/Source/tasks.c **** 
ARM GAS  /tmp/ccDSLKwL.s 			page 54


1428:Middlewares/Third_Party/FreeRTOS/Source/tasks.c **** 			#if ( configUSE_MUTEXES == 1 )
1429:Middlewares/Third_Party/FreeRTOS/Source/tasks.c **** 			{
1430:Middlewares/Third_Party/FreeRTOS/Source/tasks.c **** 				uxCurrentBasePriority = pxTCB->uxBasePriority;
 1356              		.loc 1 1430 0 is_stmt 1 discriminator 4
 1357 0046 BB69     		ldr	r3, [r7, #24]
 1358 0048 5B6C     		ldr	r3, [r3, #68]
 1359 004a 7B61     		str	r3, [r7, #20]
1431:Middlewares/Third_Party/FreeRTOS/Source/tasks.c **** 			}
1432:Middlewares/Third_Party/FreeRTOS/Source/tasks.c **** 			#else
1433:Middlewares/Third_Party/FreeRTOS/Source/tasks.c **** 			{
1434:Middlewares/Third_Party/FreeRTOS/Source/tasks.c **** 				uxCurrentBasePriority = pxTCB->uxPriority;
1435:Middlewares/Third_Party/FreeRTOS/Source/tasks.c **** 			}
1436:Middlewares/Third_Party/FreeRTOS/Source/tasks.c **** 			#endif
1437:Middlewares/Third_Party/FreeRTOS/Source/tasks.c **** 
1438:Middlewares/Third_Party/FreeRTOS/Source/tasks.c **** 			if( uxCurrentBasePriority != uxNewPriority )
 1360              		.loc 1 1438 0 discriminator 4
 1361 004c 7A69     		ldr	r2, [r7, #20]
 1362 004e 3B68     		ldr	r3, [r7]
 1363 0050 9A42     		cmp	r2, r3
 1364 0052 74D0     		beq	.L83
1439:Middlewares/Third_Party/FreeRTOS/Source/tasks.c **** 			{
1440:Middlewares/Third_Party/FreeRTOS/Source/tasks.c **** 				/* The priority change may have readied a task of higher
1441:Middlewares/Third_Party/FreeRTOS/Source/tasks.c **** 				priority than the calling task. */
1442:Middlewares/Third_Party/FreeRTOS/Source/tasks.c **** 				if( uxNewPriority > uxCurrentBasePriority )
 1365              		.loc 1 1442 0
 1366 0054 3A68     		ldr	r2, [r7]
 1367 0056 7B69     		ldr	r3, [r7, #20]
 1368 0058 9A42     		cmp	r2, r3
 1369 005a 0DD9     		bls	.L84
1443:Middlewares/Third_Party/FreeRTOS/Source/tasks.c **** 				{
1444:Middlewares/Third_Party/FreeRTOS/Source/tasks.c **** 					if( pxTCB != pxCurrentTCB )
 1370              		.loc 1 1444 0
 1371 005c 3B4B     		ldr	r3, .L92
 1372 005e 1B68     		ldr	r3, [r3]
 1373 0060 BA69     		ldr	r2, [r7, #24]
 1374 0062 9A42     		cmp	r2, r3
 1375 0064 0FD0     		beq	.L85
1445:Middlewares/Third_Party/FreeRTOS/Source/tasks.c **** 					{
1446:Middlewares/Third_Party/FreeRTOS/Source/tasks.c **** 						/* The priority of a task other than the currently
1447:Middlewares/Third_Party/FreeRTOS/Source/tasks.c **** 						running task is being raised.  Is the priority being
1448:Middlewares/Third_Party/FreeRTOS/Source/tasks.c **** 						raised above that of the running task? */
1449:Middlewares/Third_Party/FreeRTOS/Source/tasks.c **** 						if( uxNewPriority >= pxCurrentTCB->uxPriority )
 1376              		.loc 1 1449 0
 1377 0066 394B     		ldr	r3, .L92
 1378 0068 1B68     		ldr	r3, [r3]
 1379 006a DA6A     		ldr	r2, [r3, #44]
 1380 006c 3B68     		ldr	r3, [r7]
 1381 006e 9A42     		cmp	r2, r3
 1382 0070 09D8     		bhi	.L85
1450:Middlewares/Third_Party/FreeRTOS/Source/tasks.c **** 						{
1451:Middlewares/Third_Party/FreeRTOS/Source/tasks.c **** 							xYieldRequired = pdTRUE;
 1383              		.loc 1 1451 0
 1384 0072 0123     		movs	r3, #1
 1385 0074 FB61     		str	r3, [r7, #28]
 1386 0076 06E0     		b	.L85
 1387              	.L84:
1452:Middlewares/Third_Party/FreeRTOS/Source/tasks.c **** 						}
ARM GAS  /tmp/ccDSLKwL.s 			page 55


1453:Middlewares/Third_Party/FreeRTOS/Source/tasks.c **** 						else
1454:Middlewares/Third_Party/FreeRTOS/Source/tasks.c **** 						{
1455:Middlewares/Third_Party/FreeRTOS/Source/tasks.c **** 							mtCOVERAGE_TEST_MARKER();
1456:Middlewares/Third_Party/FreeRTOS/Source/tasks.c **** 						}
1457:Middlewares/Third_Party/FreeRTOS/Source/tasks.c **** 					}
1458:Middlewares/Third_Party/FreeRTOS/Source/tasks.c **** 					else
1459:Middlewares/Third_Party/FreeRTOS/Source/tasks.c **** 					{
1460:Middlewares/Third_Party/FreeRTOS/Source/tasks.c **** 						/* The priority of the running task is being raised,
1461:Middlewares/Third_Party/FreeRTOS/Source/tasks.c **** 						but the running task must already be the highest
1462:Middlewares/Third_Party/FreeRTOS/Source/tasks.c **** 						priority task able to run so no yield is required. */
1463:Middlewares/Third_Party/FreeRTOS/Source/tasks.c **** 					}
1464:Middlewares/Third_Party/FreeRTOS/Source/tasks.c **** 				}
1465:Middlewares/Third_Party/FreeRTOS/Source/tasks.c **** 				else if( pxTCB == pxCurrentTCB )
 1388              		.loc 1 1465 0
 1389 0078 344B     		ldr	r3, .L92
 1390 007a 1B68     		ldr	r3, [r3]
 1391 007c BA69     		ldr	r2, [r7, #24]
 1392 007e 9A42     		cmp	r2, r3
 1393 0080 01D1     		bne	.L85
1466:Middlewares/Third_Party/FreeRTOS/Source/tasks.c **** 				{
1467:Middlewares/Third_Party/FreeRTOS/Source/tasks.c **** 					/* Setting the priority of the running task down means
1468:Middlewares/Third_Party/FreeRTOS/Source/tasks.c **** 					there may now be another task of higher priority that
1469:Middlewares/Third_Party/FreeRTOS/Source/tasks.c **** 					is ready to execute. */
1470:Middlewares/Third_Party/FreeRTOS/Source/tasks.c **** 					xYieldRequired = pdTRUE;
 1394              		.loc 1 1470 0
 1395 0082 0123     		movs	r3, #1
 1396 0084 FB61     		str	r3, [r7, #28]
 1397              	.L85:
1471:Middlewares/Third_Party/FreeRTOS/Source/tasks.c **** 				}
1472:Middlewares/Third_Party/FreeRTOS/Source/tasks.c **** 				else
1473:Middlewares/Third_Party/FreeRTOS/Source/tasks.c **** 				{
1474:Middlewares/Third_Party/FreeRTOS/Source/tasks.c **** 					/* Setting the priority of any other task down does not
1475:Middlewares/Third_Party/FreeRTOS/Source/tasks.c **** 					require a yield as the running task must be above the
1476:Middlewares/Third_Party/FreeRTOS/Source/tasks.c **** 					new priority of the task being modified. */
1477:Middlewares/Third_Party/FreeRTOS/Source/tasks.c **** 				}
1478:Middlewares/Third_Party/FreeRTOS/Source/tasks.c **** 
1479:Middlewares/Third_Party/FreeRTOS/Source/tasks.c **** 				/* Remember the ready list the task might be referenced from
1480:Middlewares/Third_Party/FreeRTOS/Source/tasks.c **** 				before its uxPriority member is changed so the
1481:Middlewares/Third_Party/FreeRTOS/Source/tasks.c **** 				taskRESET_READY_PRIORITY() macro can function correctly. */
1482:Middlewares/Third_Party/FreeRTOS/Source/tasks.c **** 				uxPriorityUsedOnEntry = pxTCB->uxPriority;
 1398              		.loc 1 1482 0
 1399 0086 BB69     		ldr	r3, [r7, #24]
 1400 0088 DB6A     		ldr	r3, [r3, #44]
 1401 008a 3B61     		str	r3, [r7, #16]
1483:Middlewares/Third_Party/FreeRTOS/Source/tasks.c **** 
1484:Middlewares/Third_Party/FreeRTOS/Source/tasks.c **** 				#if ( configUSE_MUTEXES == 1 )
1485:Middlewares/Third_Party/FreeRTOS/Source/tasks.c **** 				{
1486:Middlewares/Third_Party/FreeRTOS/Source/tasks.c **** 					/* Only change the priority being used if the task is not
1487:Middlewares/Third_Party/FreeRTOS/Source/tasks.c **** 					currently using an inherited priority. */
1488:Middlewares/Third_Party/FreeRTOS/Source/tasks.c **** 					if( pxTCB->uxBasePriority == pxTCB->uxPriority )
 1402              		.loc 1 1488 0
 1403 008c BB69     		ldr	r3, [r7, #24]
 1404 008e 5A6C     		ldr	r2, [r3, #68]
 1405 0090 BB69     		ldr	r3, [r7, #24]
 1406 0092 DB6A     		ldr	r3, [r3, #44]
 1407 0094 9A42     		cmp	r2, r3
 1408 0096 02D1     		bne	.L86
ARM GAS  /tmp/ccDSLKwL.s 			page 56


1489:Middlewares/Third_Party/FreeRTOS/Source/tasks.c **** 					{
1490:Middlewares/Third_Party/FreeRTOS/Source/tasks.c **** 						pxTCB->uxPriority = uxNewPriority;
 1409              		.loc 1 1490 0
 1410 0098 BB69     		ldr	r3, [r7, #24]
 1411 009a 3A68     		ldr	r2, [r7]
 1412 009c DA62     		str	r2, [r3, #44]
 1413              	.L86:
1491:Middlewares/Third_Party/FreeRTOS/Source/tasks.c **** 					}
1492:Middlewares/Third_Party/FreeRTOS/Source/tasks.c **** 					else
1493:Middlewares/Third_Party/FreeRTOS/Source/tasks.c **** 					{
1494:Middlewares/Third_Party/FreeRTOS/Source/tasks.c **** 						mtCOVERAGE_TEST_MARKER();
1495:Middlewares/Third_Party/FreeRTOS/Source/tasks.c **** 					}
1496:Middlewares/Third_Party/FreeRTOS/Source/tasks.c **** 
1497:Middlewares/Third_Party/FreeRTOS/Source/tasks.c **** 					/* The base priority gets set whatever. */
1498:Middlewares/Third_Party/FreeRTOS/Source/tasks.c **** 					pxTCB->uxBasePriority = uxNewPriority;
 1414              		.loc 1 1498 0
 1415 009e BB69     		ldr	r3, [r7, #24]
 1416 00a0 3A68     		ldr	r2, [r7]
 1417 00a2 5A64     		str	r2, [r3, #68]
1499:Middlewares/Third_Party/FreeRTOS/Source/tasks.c **** 				}
1500:Middlewares/Third_Party/FreeRTOS/Source/tasks.c **** 				#else
1501:Middlewares/Third_Party/FreeRTOS/Source/tasks.c **** 				{
1502:Middlewares/Third_Party/FreeRTOS/Source/tasks.c **** 					pxTCB->uxPriority = uxNewPriority;
1503:Middlewares/Third_Party/FreeRTOS/Source/tasks.c **** 				}
1504:Middlewares/Third_Party/FreeRTOS/Source/tasks.c **** 				#endif
1505:Middlewares/Third_Party/FreeRTOS/Source/tasks.c **** 
1506:Middlewares/Third_Party/FreeRTOS/Source/tasks.c **** 				/* Only reset the event list item value if the value is not
1507:Middlewares/Third_Party/FreeRTOS/Source/tasks.c **** 				being used for anything else. */
1508:Middlewares/Third_Party/FreeRTOS/Source/tasks.c **** 				if( ( listGET_LIST_ITEM_VALUE( &( pxTCB->xEventListItem ) ) & taskEVENT_LIST_ITEM_VALUE_IN_USE 
 1418              		.loc 1 1508 0
 1419 00a4 BB69     		ldr	r3, [r7, #24]
 1420 00a6 9B69     		ldr	r3, [r3, #24]
 1421 00a8 002B     		cmp	r3, #0
 1422 00aa 04DB     		blt	.L87
1509:Middlewares/Third_Party/FreeRTOS/Source/tasks.c **** 				{
1510:Middlewares/Third_Party/FreeRTOS/Source/tasks.c **** 					listSET_LIST_ITEM_VALUE( &( pxTCB->xEventListItem ), ( ( TickType_t ) configMAX_PRIORITIES - (
 1423              		.loc 1 1510 0
 1424 00ac 3B68     		ldr	r3, [r7]
 1425 00ae C3F10702 		rsb	r2, r3, #7
 1426 00b2 BB69     		ldr	r3, [r7, #24]
 1427 00b4 9A61     		str	r2, [r3, #24]
 1428              	.L87:
1511:Middlewares/Third_Party/FreeRTOS/Source/tasks.c **** 				}
1512:Middlewares/Third_Party/FreeRTOS/Source/tasks.c **** 				else
1513:Middlewares/Third_Party/FreeRTOS/Source/tasks.c **** 				{
1514:Middlewares/Third_Party/FreeRTOS/Source/tasks.c **** 					mtCOVERAGE_TEST_MARKER();
1515:Middlewares/Third_Party/FreeRTOS/Source/tasks.c **** 				}
1516:Middlewares/Third_Party/FreeRTOS/Source/tasks.c **** 
1517:Middlewares/Third_Party/FreeRTOS/Source/tasks.c **** 				/* If the task is in the blocked or suspended list we need do
1518:Middlewares/Third_Party/FreeRTOS/Source/tasks.c **** 				nothing more than change it's priority variable. However, if
1519:Middlewares/Third_Party/FreeRTOS/Source/tasks.c **** 				the task is in a ready list it needs to be removed and placed
1520:Middlewares/Third_Party/FreeRTOS/Source/tasks.c **** 				in the list appropriate to its new priority. */
1521:Middlewares/Third_Party/FreeRTOS/Source/tasks.c **** 				if( listIS_CONTAINED_WITHIN( &( pxReadyTasksLists[ uxPriorityUsedOnEntry ] ), &( pxTCB->xStateL
 1429              		.loc 1 1521 0
 1430 00b6 BB69     		ldr	r3, [r7, #24]
 1431 00b8 5969     		ldr	r1, [r3, #20]
 1432 00ba 3A69     		ldr	r2, [r7, #16]
ARM GAS  /tmp/ccDSLKwL.s 			page 57


 1433 00bc 1346     		mov	r3, r2
 1434 00be 9B00     		lsls	r3, r3, #2
 1435 00c0 1344     		add	r3, r3, r2
 1436 00c2 9B00     		lsls	r3, r3, #2
 1437 00c4 224A     		ldr	r2, .L92+4
 1438 00c6 1344     		add	r3, r3, r2
 1439 00c8 9942     		cmp	r1, r3
 1440 00ca 01D1     		bne	.L88
 1441              		.loc 1 1521 0 is_stmt 0 discriminator 1
 1442 00cc 0123     		movs	r3, #1
 1443 00ce 00E0     		b	.L89
 1444              	.L88:
 1445              		.loc 1 1521 0 discriminator 2
 1446 00d0 0023     		movs	r3, #0
 1447              	.L89:
 1448              		.loc 1 1521 0 discriminator 4
 1449 00d2 002B     		cmp	r3, #0
 1450 00d4 28D0     		beq	.L90
1522:Middlewares/Third_Party/FreeRTOS/Source/tasks.c **** 				{
1523:Middlewares/Third_Party/FreeRTOS/Source/tasks.c **** 					/* The task is currently in its ready list - remove before adding
1524:Middlewares/Third_Party/FreeRTOS/Source/tasks.c **** 					it to it's new ready list.  As we are in a critical section we
1525:Middlewares/Third_Party/FreeRTOS/Source/tasks.c **** 					can do this even if the scheduler is suspended. */
1526:Middlewares/Third_Party/FreeRTOS/Source/tasks.c **** 					if( uxListRemove( &( pxTCB->xStateListItem ) ) == ( UBaseType_t ) 0 )
 1451              		.loc 1 1526 0 is_stmt 1
 1452 00d6 BB69     		ldr	r3, [r7, #24]
 1453 00d8 0433     		adds	r3, r3, #4
 1454 00da 1846     		mov	r0, r3
 1455 00dc FFF7FEFF 		bl	uxListRemove
 1456 00e0 0346     		mov	r3, r0
 1457 00e2 002B     		cmp	r3, #0
 1458 00e4 09D1     		bne	.L91
1527:Middlewares/Third_Party/FreeRTOS/Source/tasks.c **** 					{
1528:Middlewares/Third_Party/FreeRTOS/Source/tasks.c **** 						/* It is known that the task is in its ready list so
1529:Middlewares/Third_Party/FreeRTOS/Source/tasks.c **** 						there is no need to check again and the port level
1530:Middlewares/Third_Party/FreeRTOS/Source/tasks.c **** 						reset macro can be called directly. */
1531:Middlewares/Third_Party/FreeRTOS/Source/tasks.c **** 						portRESET_READY_PRIORITY( uxPriorityUsedOnEntry, uxTopReadyPriority );
 1459              		.loc 1 1531 0
 1460 00e6 0122     		movs	r2, #1
 1461 00e8 3B69     		ldr	r3, [r7, #16]
 1462 00ea 02FA03F3 		lsl	r3, r2, r3
 1463 00ee DA43     		mvns	r2, r3
 1464 00f0 184B     		ldr	r3, .L92+8
 1465 00f2 1B68     		ldr	r3, [r3]
 1466 00f4 1340     		ands	r3, r3, r2
 1467 00f6 174A     		ldr	r2, .L92+8
 1468 00f8 1360     		str	r3, [r2]
 1469              	.L91:
1532:Middlewares/Third_Party/FreeRTOS/Source/tasks.c **** 					}
1533:Middlewares/Third_Party/FreeRTOS/Source/tasks.c **** 					else
1534:Middlewares/Third_Party/FreeRTOS/Source/tasks.c **** 					{
1535:Middlewares/Third_Party/FreeRTOS/Source/tasks.c **** 						mtCOVERAGE_TEST_MARKER();
1536:Middlewares/Third_Party/FreeRTOS/Source/tasks.c **** 					}
1537:Middlewares/Third_Party/FreeRTOS/Source/tasks.c **** 					prvAddTaskToReadyList( pxTCB );
 1470              		.loc 1 1537 0
 1471 00fa BB69     		ldr	r3, [r7, #24]
 1472 00fc DB6A     		ldr	r3, [r3, #44]
 1473 00fe 0122     		movs	r2, #1
ARM GAS  /tmp/ccDSLKwL.s 			page 58


 1474 0100 9A40     		lsls	r2, r2, r3
 1475 0102 144B     		ldr	r3, .L92+8
 1476 0104 1B68     		ldr	r3, [r3]
 1477 0106 1343     		orrs	r3, r3, r2
 1478 0108 124A     		ldr	r2, .L92+8
 1479 010a 1360     		str	r3, [r2]
 1480 010c BB69     		ldr	r3, [r7, #24]
 1481 010e DA6A     		ldr	r2, [r3, #44]
 1482 0110 1346     		mov	r3, r2
 1483 0112 9B00     		lsls	r3, r3, #2
 1484 0114 1344     		add	r3, r3, r2
 1485 0116 9B00     		lsls	r3, r3, #2
 1486 0118 0D4A     		ldr	r2, .L92+4
 1487 011a 1A44     		add	r2, r2, r3
 1488 011c BB69     		ldr	r3, [r7, #24]
 1489 011e 0433     		adds	r3, r3, #4
 1490 0120 1946     		mov	r1, r3
 1491 0122 1046     		mov	r0, r2
 1492 0124 FFF7FEFF 		bl	vListInsertEnd
 1493              	.L90:
1538:Middlewares/Third_Party/FreeRTOS/Source/tasks.c **** 				}
1539:Middlewares/Third_Party/FreeRTOS/Source/tasks.c **** 				else
1540:Middlewares/Third_Party/FreeRTOS/Source/tasks.c **** 				{
1541:Middlewares/Third_Party/FreeRTOS/Source/tasks.c **** 					mtCOVERAGE_TEST_MARKER();
1542:Middlewares/Third_Party/FreeRTOS/Source/tasks.c **** 				}
1543:Middlewares/Third_Party/FreeRTOS/Source/tasks.c **** 
1544:Middlewares/Third_Party/FreeRTOS/Source/tasks.c **** 				if( xYieldRequired != pdFALSE )
 1494              		.loc 1 1544 0
 1495 0128 FB69     		ldr	r3, [r7, #28]
 1496 012a 002B     		cmp	r3, #0
 1497 012c 07D0     		beq	.L83
1545:Middlewares/Third_Party/FreeRTOS/Source/tasks.c **** 				{
1546:Middlewares/Third_Party/FreeRTOS/Source/tasks.c **** 					taskYIELD_IF_USING_PREEMPTION();
 1498              		.loc 1 1546 0
 1499 012e 0A4B     		ldr	r3, .L92+12
 1500 0130 4FF08052 		mov	r2, #268435456
 1501 0134 1A60     		str	r2, [r3]
 1502              		.syntax unified
 1503              	@ 1546 "Middlewares/Third_Party/FreeRTOS/Source/tasks.c" 1
 1504 0136 BFF34F8F 		dsb
 1505              	@ 0 "" 2
 1506              	@ 1546 "Middlewares/Third_Party/FreeRTOS/Source/tasks.c" 1
 1507 013a BFF36F8F 		isb
 1508              	@ 0 "" 2
 1509              		.thumb
 1510              		.syntax unified
 1511              	.L83:
1547:Middlewares/Third_Party/FreeRTOS/Source/tasks.c **** 				}
1548:Middlewares/Third_Party/FreeRTOS/Source/tasks.c **** 				else
1549:Middlewares/Third_Party/FreeRTOS/Source/tasks.c **** 				{
1550:Middlewares/Third_Party/FreeRTOS/Source/tasks.c **** 					mtCOVERAGE_TEST_MARKER();
1551:Middlewares/Third_Party/FreeRTOS/Source/tasks.c **** 				}
1552:Middlewares/Third_Party/FreeRTOS/Source/tasks.c **** 
1553:Middlewares/Third_Party/FreeRTOS/Source/tasks.c **** 				/* Remove compiler warning about unused variables when the port
1554:Middlewares/Third_Party/FreeRTOS/Source/tasks.c **** 				optimised task selection is not being used. */
1555:Middlewares/Third_Party/FreeRTOS/Source/tasks.c **** 				( void ) uxPriorityUsedOnEntry;
1556:Middlewares/Third_Party/FreeRTOS/Source/tasks.c **** 			}
ARM GAS  /tmp/ccDSLKwL.s 			page 59


1557:Middlewares/Third_Party/FreeRTOS/Source/tasks.c **** 		}
1558:Middlewares/Third_Party/FreeRTOS/Source/tasks.c **** 		taskEXIT_CRITICAL();
 1512              		.loc 1 1558 0
 1513 013e FFF7FEFF 		bl	vPortExitCritical
1559:Middlewares/Third_Party/FreeRTOS/Source/tasks.c **** 	}
 1514              		.loc 1 1559 0
 1515 0142 00BF     		nop
 1516 0144 2037     		adds	r7, r7, #32
 1517              	.LCFI43:
 1518              		.cfi_def_cfa_offset 8
 1519 0146 BD46     		mov	sp, r7
 1520              	.LCFI44:
 1521              		.cfi_def_cfa_register 13
 1522              		@ sp needed
 1523 0148 80BD     		pop	{r7, pc}
 1524              	.L93:
 1525 014a 00BF     		.align	2
 1526              	.L92:
 1527 014c 00000000 		.word	pxCurrentTCB
 1528 0150 00000000 		.word	pxReadyTasksLists
 1529 0154 00000000 		.word	uxTopReadyPriority
 1530 0158 04ED00E0 		.word	-536810236
 1531              		.cfi_endproc
 1532              	.LFE13:
 1534              		.section	.text.vTaskSuspend,"ax",%progbits
 1535              		.align	1
 1536              		.global	vTaskSuspend
 1537              		.syntax unified
 1538              		.thumb
 1539              		.thumb_func
 1540              		.fpu fpv4-sp-d16
 1542              	vTaskSuspend:
 1543              	.LFB14:
1560:Middlewares/Third_Party/FreeRTOS/Source/tasks.c **** 
1561:Middlewares/Third_Party/FreeRTOS/Source/tasks.c **** #endif /* INCLUDE_vTaskPrioritySet */
1562:Middlewares/Third_Party/FreeRTOS/Source/tasks.c **** /*-----------------------------------------------------------*/
1563:Middlewares/Third_Party/FreeRTOS/Source/tasks.c **** 
1564:Middlewares/Third_Party/FreeRTOS/Source/tasks.c **** #if ( INCLUDE_vTaskSuspend == 1 )
1565:Middlewares/Third_Party/FreeRTOS/Source/tasks.c **** 
1566:Middlewares/Third_Party/FreeRTOS/Source/tasks.c **** 	void vTaskSuspend( TaskHandle_t xTaskToSuspend )
1567:Middlewares/Third_Party/FreeRTOS/Source/tasks.c **** 	{
 1544              		.loc 1 1567 0
 1545              		.cfi_startproc
 1546              		@ args = 0, pretend = 0, frame = 16
 1547              		@ frame_needed = 1, uses_anonymous_args = 0
 1548 0000 80B5     		push	{r7, lr}
 1549              	.LCFI45:
 1550              		.cfi_def_cfa_offset 8
 1551              		.cfi_offset 7, -8
 1552              		.cfi_offset 14, -4
 1553 0002 84B0     		sub	sp, sp, #16
 1554              	.LCFI46:
 1555              		.cfi_def_cfa_offset 24
 1556 0004 00AF     		add	r7, sp, #0
 1557              	.LCFI47:
 1558              		.cfi_def_cfa_register 7
 1559 0006 7860     		str	r0, [r7, #4]
ARM GAS  /tmp/ccDSLKwL.s 			page 60


1568:Middlewares/Third_Party/FreeRTOS/Source/tasks.c **** 	TCB_t *pxTCB;
1569:Middlewares/Third_Party/FreeRTOS/Source/tasks.c **** 
1570:Middlewares/Third_Party/FreeRTOS/Source/tasks.c **** 		taskENTER_CRITICAL();
 1560              		.loc 1 1570 0
 1561 0008 FFF7FEFF 		bl	vPortEnterCritical
1571:Middlewares/Third_Party/FreeRTOS/Source/tasks.c **** 		{
1572:Middlewares/Third_Party/FreeRTOS/Source/tasks.c **** 			/* If null is passed in here then it is the running task that is
1573:Middlewares/Third_Party/FreeRTOS/Source/tasks.c **** 			being suspended. */
1574:Middlewares/Third_Party/FreeRTOS/Source/tasks.c **** 			pxTCB = prvGetTCBFromHandle( xTaskToSuspend );
 1562              		.loc 1 1574 0
 1563 000c 7B68     		ldr	r3, [r7, #4]
 1564 000e 002B     		cmp	r3, #0
 1565 0010 02D1     		bne	.L95
 1566              		.loc 1 1574 0 is_stmt 0 discriminator 1
 1567 0012 374B     		ldr	r3, .L108
 1568 0014 1B68     		ldr	r3, [r3]
 1569 0016 00E0     		b	.L96
 1570              	.L95:
 1571              		.loc 1 1574 0 discriminator 2
 1572 0018 7B68     		ldr	r3, [r7, #4]
 1573              	.L96:
 1574              		.loc 1 1574 0 discriminator 4
 1575 001a FB60     		str	r3, [r7, #12]
1575:Middlewares/Third_Party/FreeRTOS/Source/tasks.c **** 
1576:Middlewares/Third_Party/FreeRTOS/Source/tasks.c **** 			traceTASK_SUSPEND( pxTCB );
1577:Middlewares/Third_Party/FreeRTOS/Source/tasks.c **** 
1578:Middlewares/Third_Party/FreeRTOS/Source/tasks.c **** 			/* Remove task from the ready/delayed list and place in the
1579:Middlewares/Third_Party/FreeRTOS/Source/tasks.c **** 			suspended list. */
1580:Middlewares/Third_Party/FreeRTOS/Source/tasks.c **** 			if( uxListRemove( &( pxTCB->xStateListItem ) ) == ( UBaseType_t ) 0 )
 1576              		.loc 1 1580 0 is_stmt 1 discriminator 4
 1577 001c FB68     		ldr	r3, [r7, #12]
 1578 001e 0433     		adds	r3, r3, #4
 1579 0020 1846     		mov	r0, r3
 1580 0022 FFF7FEFF 		bl	uxListRemove
 1581 0026 0346     		mov	r3, r0
 1582 0028 002B     		cmp	r3, #0
 1583 002a 15D1     		bne	.L97
1581:Middlewares/Third_Party/FreeRTOS/Source/tasks.c **** 			{
1582:Middlewares/Third_Party/FreeRTOS/Source/tasks.c **** 				taskRESET_READY_PRIORITY( pxTCB->uxPriority );
 1584              		.loc 1 1582 0
 1585 002c FB68     		ldr	r3, [r7, #12]
 1586 002e DA6A     		ldr	r2, [r3, #44]
 1587 0030 3049     		ldr	r1, .L108+4
 1588 0032 1346     		mov	r3, r2
 1589 0034 9B00     		lsls	r3, r3, #2
 1590 0036 1344     		add	r3, r3, r2
 1591 0038 9B00     		lsls	r3, r3, #2
 1592 003a 0B44     		add	r3, r3, r1
 1593 003c 1B68     		ldr	r3, [r3]
 1594 003e 002B     		cmp	r3, #0
 1595 0040 0AD1     		bne	.L97
 1596              		.loc 1 1582 0 is_stmt 0 discriminator 1
 1597 0042 FB68     		ldr	r3, [r7, #12]
 1598 0044 DB6A     		ldr	r3, [r3, #44]
 1599 0046 0122     		movs	r2, #1
 1600 0048 02FA03F3 		lsl	r3, r2, r3
 1601 004c DA43     		mvns	r2, r3
ARM GAS  /tmp/ccDSLKwL.s 			page 61


 1602 004e 2A4B     		ldr	r3, .L108+8
 1603 0050 1B68     		ldr	r3, [r3]
 1604 0052 1340     		ands	r3, r3, r2
 1605 0054 284A     		ldr	r2, .L108+8
 1606 0056 1360     		str	r3, [r2]
 1607              	.L97:
1583:Middlewares/Third_Party/FreeRTOS/Source/tasks.c **** 			}
1584:Middlewares/Third_Party/FreeRTOS/Source/tasks.c **** 			else
1585:Middlewares/Third_Party/FreeRTOS/Source/tasks.c **** 			{
1586:Middlewares/Third_Party/FreeRTOS/Source/tasks.c **** 				mtCOVERAGE_TEST_MARKER();
1587:Middlewares/Third_Party/FreeRTOS/Source/tasks.c **** 			}
1588:Middlewares/Third_Party/FreeRTOS/Source/tasks.c **** 
1589:Middlewares/Third_Party/FreeRTOS/Source/tasks.c **** 			/* Is the task waiting on an event also? */
1590:Middlewares/Third_Party/FreeRTOS/Source/tasks.c **** 			if( listLIST_ITEM_CONTAINER( &( pxTCB->xEventListItem ) ) != NULL )
 1608              		.loc 1 1590 0 is_stmt 1
 1609 0058 FB68     		ldr	r3, [r7, #12]
 1610 005a 9B6A     		ldr	r3, [r3, #40]
 1611 005c 002B     		cmp	r3, #0
 1612 005e 04D0     		beq	.L99
1591:Middlewares/Third_Party/FreeRTOS/Source/tasks.c **** 			{
1592:Middlewares/Third_Party/FreeRTOS/Source/tasks.c **** 				( void ) uxListRemove( &( pxTCB->xEventListItem ) );
 1613              		.loc 1 1592 0
 1614 0060 FB68     		ldr	r3, [r7, #12]
 1615 0062 1833     		adds	r3, r3, #24
 1616 0064 1846     		mov	r0, r3
 1617 0066 FFF7FEFF 		bl	uxListRemove
 1618              	.L99:
1593:Middlewares/Third_Party/FreeRTOS/Source/tasks.c **** 			}
1594:Middlewares/Third_Party/FreeRTOS/Source/tasks.c **** 			else
1595:Middlewares/Third_Party/FreeRTOS/Source/tasks.c **** 			{
1596:Middlewares/Third_Party/FreeRTOS/Source/tasks.c **** 				mtCOVERAGE_TEST_MARKER();
1597:Middlewares/Third_Party/FreeRTOS/Source/tasks.c **** 			}
1598:Middlewares/Third_Party/FreeRTOS/Source/tasks.c **** 
1599:Middlewares/Third_Party/FreeRTOS/Source/tasks.c **** 			vListInsertEnd( &xSuspendedTaskList, &( pxTCB->xStateListItem ) );
 1619              		.loc 1 1599 0
 1620 006a FB68     		ldr	r3, [r7, #12]
 1621 006c 0433     		adds	r3, r3, #4
 1622 006e 1946     		mov	r1, r3
 1623 0070 2248     		ldr	r0, .L108+12
 1624 0072 FFF7FEFF 		bl	vListInsertEnd
1600:Middlewares/Third_Party/FreeRTOS/Source/tasks.c **** 		}
1601:Middlewares/Third_Party/FreeRTOS/Source/tasks.c **** 		taskEXIT_CRITICAL();
 1625              		.loc 1 1601 0
 1626 0076 FFF7FEFF 		bl	vPortExitCritical
1602:Middlewares/Third_Party/FreeRTOS/Source/tasks.c **** 
1603:Middlewares/Third_Party/FreeRTOS/Source/tasks.c **** 		if( xSchedulerRunning != pdFALSE )
 1627              		.loc 1 1603 0
 1628 007a 214B     		ldr	r3, .L108+16
 1629 007c 1B68     		ldr	r3, [r3]
 1630 007e 002B     		cmp	r3, #0
 1631 0080 05D0     		beq	.L100
1604:Middlewares/Third_Party/FreeRTOS/Source/tasks.c **** 		{
1605:Middlewares/Third_Party/FreeRTOS/Source/tasks.c **** 			/* Reset the next expected unblock time in case it referred to the
1606:Middlewares/Third_Party/FreeRTOS/Source/tasks.c **** 			task that is now in the Suspended state. */
1607:Middlewares/Third_Party/FreeRTOS/Source/tasks.c **** 			taskENTER_CRITICAL();
 1632              		.loc 1 1607 0
 1633 0082 FFF7FEFF 		bl	vPortEnterCritical
ARM GAS  /tmp/ccDSLKwL.s 			page 62


1608:Middlewares/Third_Party/FreeRTOS/Source/tasks.c **** 			{
1609:Middlewares/Third_Party/FreeRTOS/Source/tasks.c **** 				prvResetNextTaskUnblockTime();
 1634              		.loc 1 1609 0
 1635 0086 FFF7FEFF 		bl	prvResetNextTaskUnblockTime
1610:Middlewares/Third_Party/FreeRTOS/Source/tasks.c **** 			}
1611:Middlewares/Third_Party/FreeRTOS/Source/tasks.c **** 			taskEXIT_CRITICAL();
 1636              		.loc 1 1611 0
 1637 008a FFF7FEFF 		bl	vPortExitCritical
 1638              	.L100:
1612:Middlewares/Third_Party/FreeRTOS/Source/tasks.c **** 		}
1613:Middlewares/Third_Party/FreeRTOS/Source/tasks.c **** 		else
1614:Middlewares/Third_Party/FreeRTOS/Source/tasks.c **** 		{
1615:Middlewares/Third_Party/FreeRTOS/Source/tasks.c **** 			mtCOVERAGE_TEST_MARKER();
1616:Middlewares/Third_Party/FreeRTOS/Source/tasks.c **** 		}
1617:Middlewares/Third_Party/FreeRTOS/Source/tasks.c **** 
1618:Middlewares/Third_Party/FreeRTOS/Source/tasks.c **** 		if( pxTCB == pxCurrentTCB )
 1639              		.loc 1 1618 0
 1640 008e 184B     		ldr	r3, .L108
 1641 0090 1B68     		ldr	r3, [r3]
 1642 0092 FA68     		ldr	r2, [r7, #12]
 1643 0094 9A42     		cmp	r2, r3
 1644 0096 26D1     		bne	.L107
1619:Middlewares/Third_Party/FreeRTOS/Source/tasks.c **** 		{
1620:Middlewares/Third_Party/FreeRTOS/Source/tasks.c **** 			if( xSchedulerRunning != pdFALSE )
 1645              		.loc 1 1620 0
 1646 0098 194B     		ldr	r3, .L108+16
 1647 009a 1B68     		ldr	r3, [r3]
 1648 009c 002B     		cmp	r3, #0
 1649 009e 16D0     		beq	.L102
1621:Middlewares/Third_Party/FreeRTOS/Source/tasks.c **** 			{
1622:Middlewares/Third_Party/FreeRTOS/Source/tasks.c **** 				/* The current task has just been suspended. */
1623:Middlewares/Third_Party/FreeRTOS/Source/tasks.c **** 				configASSERT( uxSchedulerSuspended == 0 );
 1650              		.loc 1 1623 0
 1651 00a0 184B     		ldr	r3, .L108+20
 1652 00a2 1B68     		ldr	r3, [r3]
 1653 00a4 002B     		cmp	r3, #0
 1654 00a6 09D0     		beq	.L103
 1655              	.LBB117:
 1656              	.LBB118:
 237:Middlewares/Third_Party/FreeRTOS/Source/portable/GCC/ARM_CM4F/portmacro.h **** 	(
 1657              		.loc 2 237 0 discriminator 1
 1658              		.syntax unified
 1659              	@ 237 "Middlewares/Third_Party/FreeRTOS/Source/portable/GCC/ARM_CM4F/portmacro.h" 1
 1660 00a8 4FF05003 			mov r3, #80												
 1661 00ac 83F31188 		msr basepri, r3											
 1662 00b0 BFF36F8F 		isb														
 1663 00b4 BFF34F8F 		dsb														
 1664              	
 1665              	@ 0 "" 2
 1666              		.thumb
 1667              		.syntax unified
 1668 00b8 BB60     		str	r3, [r7, #8]
 1669              	.L104:
 1670              	.LBE118:
 1671              	.LBE117:
 1672              		.loc 1 1623 0 discriminator 1
 1673 00ba FEE7     		b	.L104
ARM GAS  /tmp/ccDSLKwL.s 			page 63


 1674              	.L103:
1624:Middlewares/Third_Party/FreeRTOS/Source/tasks.c **** 				portYIELD_WITHIN_API();
 1675              		.loc 1 1624 0
 1676 00bc 124B     		ldr	r3, .L108+24
 1677 00be 4FF08052 		mov	r2, #268435456
 1678 00c2 1A60     		str	r2, [r3]
 1679              		.syntax unified
 1680              	@ 1624 "Middlewares/Third_Party/FreeRTOS/Source/tasks.c" 1
 1681 00c4 BFF34F8F 		dsb
 1682              	@ 0 "" 2
 1683              	@ 1624 "Middlewares/Third_Party/FreeRTOS/Source/tasks.c" 1
 1684 00c8 BFF36F8F 		isb
 1685              	@ 0 "" 2
1625:Middlewares/Third_Party/FreeRTOS/Source/tasks.c **** 			}
1626:Middlewares/Third_Party/FreeRTOS/Source/tasks.c **** 			else
1627:Middlewares/Third_Party/FreeRTOS/Source/tasks.c **** 			{
1628:Middlewares/Third_Party/FreeRTOS/Source/tasks.c **** 				/* The scheduler is not running, but the task that was pointed
1629:Middlewares/Third_Party/FreeRTOS/Source/tasks.c **** 				to by pxCurrentTCB has just been suspended and pxCurrentTCB
1630:Middlewares/Third_Party/FreeRTOS/Source/tasks.c **** 				must be adjusted to point to a different task. */
1631:Middlewares/Third_Party/FreeRTOS/Source/tasks.c **** 				if( listCURRENT_LIST_LENGTH( &xSuspendedTaskList ) == uxCurrentNumberOfTasks )
1632:Middlewares/Third_Party/FreeRTOS/Source/tasks.c **** 				{
1633:Middlewares/Third_Party/FreeRTOS/Source/tasks.c **** 					/* No other tasks are ready, so set pxCurrentTCB back to
1634:Middlewares/Third_Party/FreeRTOS/Source/tasks.c **** 					NULL so when the next task is created pxCurrentTCB will
1635:Middlewares/Third_Party/FreeRTOS/Source/tasks.c **** 					be set to point to it no matter what its relative priority
1636:Middlewares/Third_Party/FreeRTOS/Source/tasks.c **** 					is. */
1637:Middlewares/Third_Party/FreeRTOS/Source/tasks.c **** 					pxCurrentTCB = NULL;
1638:Middlewares/Third_Party/FreeRTOS/Source/tasks.c **** 				}
1639:Middlewares/Third_Party/FreeRTOS/Source/tasks.c **** 				else
1640:Middlewares/Third_Party/FreeRTOS/Source/tasks.c **** 				{
1641:Middlewares/Third_Party/FreeRTOS/Source/tasks.c **** 					vTaskSwitchContext();
1642:Middlewares/Third_Party/FreeRTOS/Source/tasks.c **** 				}
1643:Middlewares/Third_Party/FreeRTOS/Source/tasks.c **** 			}
1644:Middlewares/Third_Party/FreeRTOS/Source/tasks.c **** 		}
1645:Middlewares/Third_Party/FreeRTOS/Source/tasks.c **** 		else
1646:Middlewares/Third_Party/FreeRTOS/Source/tasks.c **** 		{
1647:Middlewares/Third_Party/FreeRTOS/Source/tasks.c **** 			mtCOVERAGE_TEST_MARKER();
1648:Middlewares/Third_Party/FreeRTOS/Source/tasks.c **** 		}
1649:Middlewares/Third_Party/FreeRTOS/Source/tasks.c **** 	}
 1686              		.loc 1 1649 0
 1687              		.thumb
 1688              		.syntax unified
 1689 00cc 0BE0     		b	.L107
 1690              	.L102:
1631:Middlewares/Third_Party/FreeRTOS/Source/tasks.c **** 				{
 1691              		.loc 1 1631 0
 1692 00ce 0B4B     		ldr	r3, .L108+12
 1693 00d0 1A68     		ldr	r2, [r3]
 1694 00d2 0E4B     		ldr	r3, .L108+28
 1695 00d4 1B68     		ldr	r3, [r3]
 1696 00d6 9A42     		cmp	r2, r3
 1697 00d8 03D1     		bne	.L106
1637:Middlewares/Third_Party/FreeRTOS/Source/tasks.c **** 				}
 1698              		.loc 1 1637 0
 1699 00da 054B     		ldr	r3, .L108
 1700 00dc 0022     		movs	r2, #0
 1701 00de 1A60     		str	r2, [r3]
 1702              		.loc 1 1649 0
ARM GAS  /tmp/ccDSLKwL.s 			page 64


 1703 00e0 01E0     		b	.L107
 1704              	.L106:
1641:Middlewares/Third_Party/FreeRTOS/Source/tasks.c **** 				}
 1705              		.loc 1 1641 0
 1706 00e2 FFF7FEFF 		bl	vTaskSwitchContext
 1707              	.L107:
 1708              		.loc 1 1649 0
 1709 00e6 00BF     		nop
 1710 00e8 1037     		adds	r7, r7, #16
 1711              	.LCFI48:
 1712              		.cfi_def_cfa_offset 8
 1713 00ea BD46     		mov	sp, r7
 1714              	.LCFI49:
 1715              		.cfi_def_cfa_register 13
 1716              		@ sp needed
 1717 00ec 80BD     		pop	{r7, pc}
 1718              	.L109:
 1719 00ee 00BF     		.align	2
 1720              	.L108:
 1721 00f0 00000000 		.word	pxCurrentTCB
 1722 00f4 00000000 		.word	pxReadyTasksLists
 1723 00f8 00000000 		.word	uxTopReadyPriority
 1724 00fc 00000000 		.word	xSuspendedTaskList
 1725 0100 00000000 		.word	xSchedulerRunning
 1726 0104 00000000 		.word	uxSchedulerSuspended
